ARM GAS  /tmp/ccmMM3V0.s 			page 1


   1              		.syntax unified
   2              		.cpu cortex-m3
   3              		.fpu softvfp
   4              		.eabi_attribute 20, 1
   5              		.eabi_attribute 21, 1
   6              		.eabi_attribute 23, 3
   7              		.eabi_attribute 24, 1
   8              		.eabi_attribute 25, 1
   9              		.eabi_attribute 26, 1
  10              		.eabi_attribute 30, 1
  11              		.eabi_attribute 34, 1
  12              		.eabi_attribute 18, 4
  13              		.thumb
  14              		.file	"etc_eep.c"
  15              		.text
  16              	.Ltext0:
  17              		.cfi_sections	.debug_frame
  18              		.section	.text.GetFWRevEE,"ax",%progbits
  19              		.align	2
  20              		.global	GetFWRevEE
  21              		.thumb
  22              		.thumb_func
  24              	GetFWRevEE:
  25              	.LFB65:
  26              		.file 1 "VS4210/etc_eep.c"
   1:VS4210/etc_eep.c **** /*****************************************************************************/
   2:VS4210/etc_eep.c **** /*                                                                           										*/
   3:VS4210/etc_eep.c **** /*  VS4210   MCU                    													*/
   4:VS4210/etc_eep.c **** /*                                                                           										*/
   5:VS4210/etc_eep.c **** /*  Etc_eep.c                                                            									*/
   6:VS4210/etc_eep.c **** /*                                                                           										*/
   7:VS4210/etc_eep.c **** /*****************************************************************************/
   8:VS4210/etc_eep.c **** 
   9:VS4210/etc_eep.c **** //eeprom.c
  10:VS4210/etc_eep.c **** #include "VXIS_Extern_Define.h"
  11:VS4210/etc_eep.c **** 
  12:VS4210/etc_eep.c **** #include "tpinc/Device_Rx.h"
  13:VS4210/etc_eep.c **** #include "tpinc/TP2802.h"
  14:VS4210/etc_eep.c **** #include "stdlib.h"
  15:VS4210/etc_eep.c **** #include "VX_swi2c.h"
  16:VS4210/etc_eep.c **** #include "VS4210.h"
  17:VS4210/etc_eep.c **** 
  18:VS4210/etc_eep.c **** //#include "Config.h"
  19:VS4210/etc_eep.c **** //#include "typedefs.h"
  20:VS4210/etc_eep.c **** #include "main.h"
  21:VS4210/etc_eep.c **** //#include "i2c.h"
  22:VS4210/etc_eep.c **** #include "printf.h"
  23:VS4210/etc_eep.c **** #include "etc_eep.h"
  24:VS4210/etc_eep.c **** #include "keyremo.h"
  25:VS4210/etc_eep.c **** 
  26:VS4210/etc_eep.c **** 
  27:VS4210/etc_eep.c **** extern tByte	DayNightLevel;
  28:VS4210/etc_eep.c **** extern BYTE	AudioVol ;
  29:VS4210/etc_eep.c **** extern BYTE	Priority;
  30:VS4210/etc_eep.c **** extern BYTE OSD_LOCKF;
  31:VS4210/etc_eep.c **** extern BYTE SEQFlag;	
  32:VS4210/etc_eep.c **** extern BYTE NowModeState;
ARM GAS  /tmp/ccmMM3V0.s 			page 2


  33:VS4210/etc_eep.c **** extern BYTE	SelectModeType;
  34:VS4210/etc_eep.c **** 
  35:VS4210/etc_eep.c **** 
  36:VS4210/etc_eep.c **** #if 0
  37:VS4210/etc_eep.c **** void WriteEEP(WORD index, BYTE dat)
  38:VS4210/etc_eep.c **** {
  39:VS4210/etc_eep.c **** //	BYTE addr;
  40:VS4210/etc_eep.c **** 
  41:VS4210/etc_eep.c **** //	addr = (EEPROMI2CAddress | (index>>7)) & 0xfe;
  42:VS4210/etc_eep.c **** /*
  43:VS4210/etc_eep.c **** 	I2CStart();
  44:VS4210/etc_eep.c **** 	I2CWriteData(addr);
  45:VS4210/etc_eep.c **** 	I2CWriteData((BYTE)index);
  46:VS4210/etc_eep.c **** 	I2CWriteData(dat);
  47:VS4210/etc_eep.c **** 	I2CStop();
  48:VS4210/etc_eep.c **** */
  49:VS4210/etc_eep.c **** //	#ifdef DEBUG_EEP
  50:VS4210/etc_eep.c **** //		dPrintf("Write %02xh to [Adrs(%02xh)Index(%02xh)\r\n", (WORD)dat, (WORD)addr, (WORD)index );
  51:VS4210/etc_eep.c **** //	#endif
  52:VS4210/etc_eep.c **** 
  53:VS4210/etc_eep.c **** 	delay(2);
  54:VS4210/etc_eep.c **** }
  55:VS4210/etc_eep.c **** 
  56:VS4210/etc_eep.c **** BYTE ReadEEP(WORD index)
  57:VS4210/etc_eep.c **** {
  58:VS4210/etc_eep.c **** 	BYTE val=_FALSE;
  59:VS4210/etc_eep.c **** //	BYTE addr;
  60:VS4210/etc_eep.c **** 
  61:VS4210/etc_eep.c **** //	addr = (EEPROMI2CAddress | (index>>7)) & 0xfe;
  62:VS4210/etc_eep.c **** /*
  63:VS4210/etc_eep.c **** 	val = ReadI2C(addr,(BYTE)index);
  64:VS4210/etc_eep.c **** */
  65:VS4210/etc_eep.c **** //	#ifdef DEBUG_EEP
  66:VS4210/etc_eep.c **** //		dPrintf("Read [Adrs:%02xh,Index:%02xh] %02xh\r\n", (WORD)addr, (WORD)index, (WORD)val);
  67:VS4210/etc_eep.c **** //	#endif
  68:VS4210/etc_eep.c **** 	delay(2);
  69:VS4210/etc_eep.c **** 	return val;
  70:VS4210/etc_eep.c **** }
  71:VS4210/etc_eep.c **** #endif
  72:VS4210/etc_eep.c **** WORD GetFWRevEE()
  73:VS4210/etc_eep.c **** {
  27              		.loc 1 73 0
  28              		.cfi_startproc
  29              		@ args = 0, pretend = 0, frame = 0
  30              		@ frame_needed = 0, uses_anonymous_args = 0
  31 0000 10B5     		push	{r4, lr}
  32              	.LCFI0:
  33              		.cfi_def_cfa_offset 8
  34              		.cfi_offset 4, -8
  35              		.cfi_offset 14, -4
  36              	.LVL0:
  74:VS4210/etc_eep.c **** 	WORD rev=0;
  75:VS4210/etc_eep.c **** 
  76:VS4210/etc_eep.c **** 	if( ReadEEP(0) != 'T' ) return 0;
  37              		.loc 1 76 0
  38 0002 0020     		movs	r0, #0
  39 0004 FFF7FEFF 		bl	ReadEEP
ARM GAS  /tmp/ccmMM3V0.s 			page 3


  40              	.LVL1:
  41 0008 5428     		cmp	r0, #84
  42 000a 17D1     		bne	.L3
  77:VS4210/etc_eep.c **** 	if( ReadEEP(1) != 'O' ) return 0;
  43              		.loc 1 77 0
  44 000c 0120     		movs	r0, #1
  45 000e FFF7FEFF 		bl	ReadEEP
  46              	.LVL2:
  47 0012 4F28     		cmp	r0, #79
  48 0014 14D1     		bne	.L4
  78:VS4210/etc_eep.c **** 	if( ReadEEP(2) != 'A' ) return 0;
  49              		.loc 1 78 0
  50 0016 0220     		movs	r0, #2
  51 0018 FFF7FEFF 		bl	ReadEEP
  52              	.LVL3:
  53 001c 4128     		cmp	r0, #65
  54 001e 11D1     		bne	.L5
  79:VS4210/etc_eep.c **** 	if( ReadEEP(3) != '0' ) return 0;
  55              		.loc 1 79 0
  56 0020 0320     		movs	r0, #3
  57 0022 FFF7FEFF 		bl	ReadEEP
  58              	.LVL4:
  59 0026 3028     		cmp	r0, #48
  60 0028 0ED1     		bne	.L6
  80:VS4210/etc_eep.c **** 	
  81:VS4210/etc_eep.c **** 	rev = (ReadEEP(EEP_FWREV_MAJOR) )<< 8;
  61              		.loc 1 81 0
  62 002a 0420     		movs	r0, #4
  63 002c FFF7FEFF 		bl	ReadEEP
  64              	.LVL5:
  65 0030 0402     		lsls	r4, r0, #8
  66              	.LVL6:
  82:VS4210/etc_eep.c **** 	rev |= ReadEEP(EEP_FWREV_MINOR);
  67              		.loc 1 82 0
  68 0032 0520     		movs	r0, #5
  69 0034 FFF7FEFF 		bl	ReadEEP
  70              	.LVL7:
  71 0038 2043     		orrs	r0, r0, r4
  72              	.LVL8:
  83:VS4210/etc_eep.c **** 
  84:VS4210/etc_eep.c **** 	return rev;
  73              		.loc 1 84 0
  74 003a 10BD     		pop	{r4, pc}
  75              	.LVL9:
  76              	.L3:
  76:VS4210/etc_eep.c **** 	if( ReadEEP(1) != 'O' ) return 0;
  77              		.loc 1 76 0
  78 003c 0020     		movs	r0, #0
  79 003e 10BD     		pop	{r4, pc}
  80              	.L4:
  77:VS4210/etc_eep.c **** 	if( ReadEEP(2) != 'A' ) return 0;
  81              		.loc 1 77 0
  82 0040 0020     		movs	r0, #0
  83 0042 10BD     		pop	{r4, pc}
  84              	.L5:
  78:VS4210/etc_eep.c **** 	if( ReadEEP(3) != '0' ) return 0;
  85              		.loc 1 78 0
ARM GAS  /tmp/ccmMM3V0.s 			page 4


  86 0044 0020     		movs	r0, #0
  87 0046 10BD     		pop	{r4, pc}
  88              	.L6:
  79:VS4210/etc_eep.c **** 	
  89              		.loc 1 79 0
  90 0048 0020     		movs	r0, #0
  85:VS4210/etc_eep.c **** 	//return 0x0001;
  86:VS4210/etc_eep.c **** }
  91              		.loc 1 86 0
  92 004a 10BD     		pop	{r4, pc}
  93              		.cfi_endproc
  94              	.LFE65:
  96              		.section	.text.SaveFWRevEE,"ax",%progbits
  97              		.align	2
  98              		.global	SaveFWRevEE
  99              		.thumb
 100              		.thumb_func
 102              	SaveFWRevEE:
 103              	.LFB66:
  87:VS4210/etc_eep.c **** 
  88:VS4210/etc_eep.c **** void SaveFWRevEE(WORD rev)
  89:VS4210/etc_eep.c **** {
 104              		.loc 1 89 0
 105              		.cfi_startproc
 106              		@ args = 0, pretend = 0, frame = 0
 107              		@ frame_needed = 0, uses_anonymous_args = 0
 108              	.LVL10:
 109 0000 10B5     		push	{r4, lr}
 110              	.LCFI1:
 111              		.cfi_def_cfa_offset 8
 112              		.cfi_offset 4, -8
 113              		.cfi_offset 14, -4
 114 0002 0446     		mov	r4, r0
  90:VS4210/etc_eep.c **** 	WriteEEP(0, 'T');
 115              		.loc 1 90 0
 116 0004 0020     		movs	r0, #0
 117              	.LVL11:
 118 0006 5421     		movs	r1, #84
 119 0008 FFF7FEFF 		bl	WriteEEP
 120              	.LVL12:
  91:VS4210/etc_eep.c **** 	WriteEEP(1, 'O');
 121              		.loc 1 91 0
 122 000c 0120     		movs	r0, #1
 123 000e 4F21     		movs	r1, #79
 124 0010 FFF7FEFF 		bl	WriteEEP
 125              	.LVL13:
  92:VS4210/etc_eep.c **** 	WriteEEP(2, 'A');
 126              		.loc 1 92 0
 127 0014 0220     		movs	r0, #2
 128 0016 4121     		movs	r1, #65
 129 0018 FFF7FEFF 		bl	WriteEEP
 130              	.LVL14:
  93:VS4210/etc_eep.c **** 	WriteEEP(3, '0');
 131              		.loc 1 93 0
 132 001c 0320     		movs	r0, #3
 133 001e 3021     		movs	r1, #48
 134 0020 FFF7FEFF 		bl	WriteEEP
ARM GAS  /tmp/ccmMM3V0.s 			page 5


 135              	.LVL15:
  94:VS4210/etc_eep.c **** 	WriteEEP(EEP_FWREV_MAJOR, (BYTE)(rev>>8) );
 136              		.loc 1 94 0
 137 0024 0420     		movs	r0, #4
 138 0026 C4F30721 		ubfx	r1, r4, #8, #8
 139 002a FFF7FEFF 		bl	WriteEEP
 140              	.LVL16:
  95:VS4210/etc_eep.c **** 	WriteEEP(EEP_FWREV_MINOR, (BYTE)rev );
 141              		.loc 1 95 0
 142 002e 0520     		movs	r0, #5
 143 0030 E1B2     		uxtb	r1, r4
 144 0032 FFF7FEFF 		bl	WriteEEP
 145              	.LVL17:
 146 0036 10BD     		pop	{r4, pc}
 147              		.cfi_endproc
 148              	.LFE66:
 150              		.section	.text.GetDebugLevelEE,"ax",%progbits
 151              		.align	2
 152              		.global	GetDebugLevelEE
 153              		.thumb
 154              		.thumb_func
 156              	GetDebugLevelEE:
 157              	.LFB67:
  96:VS4210/etc_eep.c **** 
  97:VS4210/etc_eep.c **** }
  98:VS4210/etc_eep.c **** 
  99:VS4210/etc_eep.c **** #if 0/// (_DEBUG_MESSAGE_Monitor==ON)
 100:VS4210/etc_eep.c **** 
 101:VS4210/etc_eep.c **** void SaveDebugLevelEE(BYTE dl)
 102:VS4210/etc_eep.c **** {
 103:VS4210/etc_eep.c **** 	WriteEEP(EEP_DEBUGLEVEL, dl);
 104:VS4210/etc_eep.c **** }
 105:VS4210/etc_eep.c **** #endif
 106:VS4210/etc_eep.c **** 
 107:VS4210/etc_eep.c **** BYTE GetDebugLevelEE(void)
 108:VS4210/etc_eep.c **** {
 158              		.loc 1 108 0
 159              		.cfi_startproc
 160              		@ args = 0, pretend = 0, frame = 0
 161              		@ frame_needed = 0, uses_anonymous_args = 0
 162 0000 08B5     		push	{r3, lr}
 163              	.LCFI2:
 164              		.cfi_def_cfa_offset 8
 165              		.cfi_offset 3, -8
 166              		.cfi_offset 14, -4
 109:VS4210/etc_eep.c **** 	return ReadEEP(EEP_DEBUGLEVEL);
 167              		.loc 1 109 0
 168 0002 0720     		movs	r0, #7
 169 0004 FFF7FEFF 		bl	ReadEEP
 170              	.LVL18:
 110:VS4210/etc_eep.c **** }
 171              		.loc 1 110 0
 172 0008 08BD     		pop	{r3, pc}
 173              		.cfi_endproc
 174              	.LFE67:
 176 000a 00BF     		.section	.text.ResetOSDValue,"ax",%progbits
 177              		.align	2
ARM GAS  /tmp/ccmMM3V0.s 			page 6


 178              		.global	ResetOSDValue
 179              		.thumb
 180              		.thumb_func
 182              	ResetOSDValue:
 183              	.LFB68:
 111:VS4210/etc_eep.c **** 
 112:VS4210/etc_eep.c **** //===================================================================
 113:VS4210/etc_eep.c **** void ResetOSDValue(void)
 114:VS4210/etc_eep.c **** {
 184              		.loc 1 114 0
 185              		.cfi_startproc
 186              		@ args = 0, pretend = 0, frame = 0
 187              		@ frame_needed = 0, uses_anonymous_args = 0
 188 0000 08B5     		push	{r3, lr}
 189              	.LCFI3:
 190              		.cfi_def_cfa_offset 8
 191              		.cfi_offset 3, -8
 192              		.cfi_offset 14, -4
 115:VS4210/etc_eep.c **** Printf("\r\nReset OSD Data..");
 193              		.loc 1 115 0
 194 0002 0248     		ldr	r0, .L14
 195 0004 FFF7FEFF 		bl	Printf
 196              	.LVL19:
 197 0008 08BD     		pop	{r3, pc}
 198              	.L15:
 199 000a 00BF     		.align	2
 200              	.L14:
 201 000c 00000000 		.word	.LC0
 202              		.cfi_endproc
 203              	.LFE68:
 205              		.section	.text.ClearBasicEE,"ax",%progbits
 206              		.align	2
 207              		.global	ClearBasicEE
 208              		.thumb
 209              		.thumb_func
 211              	ClearBasicEE:
 212              	.LFB69:
 116:VS4210/etc_eep.c **** #if 0
 117:VS4210/etc_eep.c **** 	   WriteEEP(EEP_AutoMode , 0x00);	  // Auto Day&Night...... OFF
 118:VS4210/etc_eep.c **** 
 119:VS4210/etc_eep.c **** 	WriteEEP(EEP_CONTRAST,50);	  
 120:VS4210/etc_eep.c **** 	WriteEEP(EEP_BRIGHTNESS,50);	  
 121:VS4210/etc_eep.c **** 	WriteEEP(EEP_SATURATION_U,50);	  
 122:VS4210/etc_eep.c **** 	WriteEEP(EEP_SHARPNESS,50);	  
 123:VS4210/etc_eep.c **** 	WriteEEP(EEP_HUE,50);	  
 124:VS4210/etc_eep.c **** 
 125:VS4210/etc_eep.c **** 	//WriteEEP(EEP_PRIORITY,0);	  
 126:VS4210/etc_eep.c **** 	   DayNightLevel=ReadEEP(EEP_AutoMode);
 127:VS4210/etc_eep.c **** 	   WriteEEP(EEP_IMAGEMode,0x00);	 // IMAGEMode..... SINGLE
 128:VS4210/etc_eep.c **** 	   WriteEEP(EEP_RearMode,0x00); 	 // RearMode...... R  
 129:VS4210/etc_eep.c **** 	   WriteEEP(EEP_TriggerVGA,0x00); 	 // trigger vga...... on  
 130:VS4210/etc_eep.c **** 	   WriteEEP(EEP_GAUGEMode,0x01);	 // ­Ë¨®OSD....... ON	
 131:VS4210/etc_eep.c **** 	   WriteEEP(EEP_Powerflag,0x01);	 // POWER FLAG....... ON  
 132:VS4210/etc_eep.c **** 	   WriteEEP(EEP_COSDMode,0x01); 	 // Display OSD... ON 
 133:VS4210/etc_eep.c **** 	   WriteEEP(EEP_DVRDisplay,0x00); 	 //DVR Display OSD... ON
 134:VS4210/etc_eep.c **** 	   WriteEEP(EEP_CAMAMode,0x00); 	 // MirrorA....... OFF
 135:VS4210/etc_eep.c **** 	   WriteEEP(EEP_CAMBMode,0x00); 	 // MirrorB....... OFF
ARM GAS  /tmp/ccmMM3V0.s 			page 7


 136:VS4210/etc_eep.c **** 	   WriteEEP(EEP_CAMCMode,0x00); 	 // MirrorC....... OFF
 137:VS4210/etc_eep.c **** 	   WriteEEP(EEP_CAMRMode,0x01); 	 // MirrorR....... ON
 138:VS4210/etc_eep.c **** 	   WriteEEP(EEP_AUDIOPVOL,50);       // AudioVol
 139:VS4210/etc_eep.c **** 
 140:VS4210/etc_eep.c **** 	   WriteEEP(EEP_ONOFFChoice,0x00); 	 // osd lock oFF
 141:VS4210/etc_eep.c **** 
 142:VS4210/etc_eep.c **** 	   AudioVol=50;
 143:VS4210/etc_eep.c **** 	 //  ChangeVol(0);
 144:VS4210/etc_eep.c **** 	   WriteEEP(EEP_PCAUDIOPVOL,50);
 145:VS4210/etc_eep.c **** 	   WriteEEP(EEP_AudioRecord,0x03); 	 // dvr audio channel
 146:VS4210/etc_eep.c **** 	
 147:VS4210/etc_eep.c **** 	   WriteEEP(EEP_IMAGE_A_Mode,0x00);
 148:VS4210/etc_eep.c **** 	   WriteEEP(EEP_IMAGE_B_Mode,0x00);
 149:VS4210/etc_eep.c ****        WriteEEP(EEP_IMAGE_C_Mode,0x00);
 150:VS4210/etc_eep.c **** 
 151:VS4210/etc_eep.c **** 	   WriteEEP(EEP_DELAYCAMA,0x00); 	 // DELAY CAM A....... 0
 152:VS4210/etc_eep.c **** 	   WriteEEP(EEP_DELAYCAMB,0x00); 	 // DELAY CAM B....... 0
 153:VS4210/etc_eep.c **** 	   WriteEEP(EEP_DELAYCAMC,0x00); 	 // DELAY CAM C....... 0.
 154:VS4210/etc_eep.c **** 	   WriteEEP(EEP_DELAYCAMR,0x00); 	 // DELAY CAM R....... 0
 155:VS4210/etc_eep.c **** 
 156:VS4210/etc_eep.c **** 	   if(Priority==ON)//on
 157:VS4210/etc_eep.c **** 	   {
 158:VS4210/etc_eep.c **** 		WriteEEP(EEP_JUMPMode,0);	  // JUMPMode...... QUAL
 159:VS4210/etc_eep.c **** 		WriteEEP(EEP_ONOFFChoice,0x00); 	// OSD	lock....... off
 160:VS4210/etc_eep.c **** 		OSD_LOCKF=0;
 161:VS4210/etc_eep.c **** 	   }
 162:VS4210/etc_eep.c **** 		else
 163:VS4210/etc_eep.c **** 	   {
 164:VS4210/etc_eep.c **** 		WriteEEP(EEP_JUMPMode,13);		// JUMPMode...... CAM R
 165:VS4210/etc_eep.c **** 		WriteEEP(EEP_ONOFFChoice,0x01); 	// OSD	lock....... ON
 166:VS4210/etc_eep.c **** 		OSD_LOCKF=1;
 167:VS4210/etc_eep.c **** 	   }
 168:VS4210/etc_eep.c **** 		
 169:VS4210/etc_eep.c **** 		//TP2824 video data reset	
 170:VS4210/etc_eep.c **** 		WriteEEP(EEP_TP2824_STD0,0xFF);	  
 171:VS4210/etc_eep.c **** 		WriteEEP(EEP_TP2824_MODE0,0xFF);	  
 172:VS4210/etc_eep.c **** 		WriteEEP(EEP_TP2824_STD1,0xFF);	  
 173:VS4210/etc_eep.c **** 		WriteEEP(EEP_TP2824_MODE1,0xFF);	  
 174:VS4210/etc_eep.c **** 		WriteEEP(EEP_TP2824_STD2,0xFF);	  
 175:VS4210/etc_eep.c **** 		WriteEEP(EEP_TP2824_MODE2,0xFF);	  
 176:VS4210/etc_eep.c **** 		WriteEEP(EEP_TP2824_STD3,0xFF);	  
 177:VS4210/etc_eep.c **** 		WriteEEP(EEP_TP2824_MODE3,0xFF);	  
 178:VS4210/etc_eep.c **** 
 179:VS4210/etc_eep.c **** 	//WriteEEP(EEP_JUMPMode,0);
 180:VS4210/etc_eep.c **** 
 181:VS4210/etc_eep.c **** 	   SEQFlag=0;
 182:VS4210/etc_eep.c **** //#ifdef AWT_ML072S
 183:VS4210/etc_eep.c **** //	   WriteEEP(EEP_TimeStep,0x03); 	 // TimerStep.....02
 184:VS4210/etc_eep.c **** //#else
 185:VS4210/etc_eep.c **** 	   WriteEEP(EEP_TimeStep,0x02); 	 // TimerStep.....02
 186:VS4210/etc_eep.c **** //#endif	   
 187:VS4210/etc_eep.c **** 	   WriteEEP(EEP_CAMOutMode,0x00);	 // CAMOut........ QUAL 
 188:VS4210/etc_eep.c **** //	   CAMOutDSel( 0x00 );	///V1.1 02/27/07 simonsung 
 189:VS4210/etc_eep.c **** //	   TW2835Cmd("\n\rmode 0\n\r");
 190:VS4210/etc_eep.c **** 
 191:VS4210/etc_eep.c **** //	   ClearDataCnt(INPUTINFO_ADDR, 51);   //william-980416
 192:VS4210/etc_eep.c **** 
ARM GAS  /tmp/ccmMM3V0.s 			page 8


 193:VS4210/etc_eep.c **** 	   LoadEEPROM();
 194:VS4210/etc_eep.c **** 
 195:VS4210/etc_eep.c **** 	  NowModeState=SelectMode;
 196:VS4210/etc_eep.c **** 	   SelectModeType=CAM_A;
 197:VS4210/etc_eep.c **** 
 198:VS4210/etc_eep.c **** 	   WriteEEP(EEP_NowModeState,SelectMode);
 199:VS4210/etc_eep.c **** 			
 200:VS4210/etc_eep.c **** 		WriteEEP(EEP_SelectMode,SelectModeType);
 201:VS4210/etc_eep.c **** 		 setloopoutmode(SelectModeType) ;
 202:VS4210/etc_eep.c **** 
 203:VS4210/etc_eep.c **** LoadVideoData();
 204:VS4210/etc_eep.c **** #endif
 205:VS4210/etc_eep.c **** 
 206:VS4210/etc_eep.c **** 
 207:VS4210/etc_eep.c **** 
 208:VS4210/etc_eep.c **** }
 209:VS4210/etc_eep.c **** 
 210:VS4210/etc_eep.c **** void ClearBasicEE(void)
 211:VS4210/etc_eep.c **** {
 213              		.loc 1 211 0
 214              		.cfi_startproc
 215              		@ args = 0, pretend = 0, frame = 0
 216              		@ frame_needed = 0, uses_anonymous_args = 0
 217 0000 08B5     		push	{r3, lr}
 218              	.LCFI4:
 219              		.cfi_def_cfa_offset 8
 220              		.cfi_offset 3, -8
 221              		.cfi_offset 14, -4
 212:VS4210/etc_eep.c **** 
 213:VS4210/etc_eep.c **** 	Printf("\r\nClearBasicEE...");
 222              		.loc 1 213 0
 223 0002 0648     		ldr	r0, .L18
 224 0004 FFF7FEFF 		bl	Printf
 225              	.LVL20:
 214:VS4210/etc_eep.c **** 
 215:VS4210/etc_eep.c **** 	WriteEEP(EEP_PRIORITY,0x01);	//PRIORITY.........OFF	Andy-980602
 226              		.loc 1 215 0
 227 0008 AD20     		movs	r0, #173
 228 000a 0121     		movs	r1, #1
 229 000c FFF7FEFF 		bl	WriteEEP
 230              	.LVL21:
 216:VS4210/etc_eep.c **** 	Priority=1;
 231              		.loc 1 216 0
 232 0010 0122     		movs	r2, #1
 233 0012 034B     		ldr	r3, .L18+4
 234 0014 1A70     		strb	r2, [r3]
 217:VS4210/etc_eep.c **** 
 218:VS4210/etc_eep.c **** //	SaveVInputStdDetectModeEE(0);	// AUTO
 219:VS4210/etc_eep.c **** //	WriteEEP(EEP_CCD, 0);	// CC = OFF
 220:VS4210/etc_eep.c **** 
 221:VS4210/etc_eep.c **** 
 222:VS4210/etc_eep.c **** 	ResetOSDValue();  //Pinchi 20150212 enable
 235              		.loc 1 222 0
 236 0016 FFF7FEFF 		bl	ResetOSDValue
 237              	.LVL22:
 238 001a 08BD     		pop	{r3, pc}
 239              	.L19:
ARM GAS  /tmp/ccmMM3V0.s 			page 9


 240              		.align	2
 241              	.L18:
 242 001c 14000000 		.word	.LC1
 243 0020 00000000 		.word	Priority
 244              		.cfi_endproc
 245              	.LFE69:
 247              		.section	.text.GetAudioVolEE,"ax",%progbits
 248              		.align	2
 249              		.global	GetAudioVolEE
 250              		.thumb
 251              		.thumb_func
 253              	GetAudioVolEE:
 254              	.LFB70:
 223:VS4210/etc_eep.c **** 
 224:VS4210/etc_eep.c **** //	ResetVideoValue();
 225:VS4210/etc_eep.c **** 
 226:VS4210/etc_eep.c **** 	
 227:VS4210/etc_eep.c **** 
 228:VS4210/etc_eep.c **** 
 229:VS4210/etc_eep.c **** 
 230:VS4210/etc_eep.c **** /*
 231:VS4210/etc_eep.c **** 	WriteEEP(EEP_Powerflag,ON);
 232:VS4210/etc_eep.c **** 
 233:VS4210/etc_eep.c **** 	WriteEEP(EEP_CameraVolt, 14);  //7.6V
 234:VS4210/etc_eep.c **** 
 235:VS4210/etc_eep.c **** 	WriteEEP(EEP_DEBUGLEVEL,OFF); 
 236:VS4210/etc_eep.c **** 
 237:VS4210/etc_eep.c **** 	WriteEEP(EEP_DC12_PWR_START, OFF); 	
 238:VS4210/etc_eep.c **** */	
 239:VS4210/etc_eep.c **** }
 240:VS4210/etc_eep.c **** 
 241:VS4210/etc_eep.c **** //=========  Audio =================================================
 242:VS4210/etc_eep.c **** BYTE GetAudioVolEE(void)
 243:VS4210/etc_eep.c **** {
 255              		.loc 1 243 0
 256              		.cfi_startproc
 257              		@ args = 0, pretend = 0, frame = 0
 258              		@ frame_needed = 0, uses_anonymous_args = 0
 259 0000 08B5     		push	{r3, lr}
 260              	.LCFI5:
 261              		.cfi_def_cfa_offset 8
 262              		.cfi_offset 3, -8
 263              		.cfi_offset 14, -4
 244:VS4210/etc_eep.c **** 	return ReadEEP( EEP_AUDIOPVOL );
 264              		.loc 1 244 0
 265 0002 3820     		movs	r0, #56
 266 0004 FFF7FEFF 		bl	ReadEEP
 267              	.LVL23:
 245:VS4210/etc_eep.c **** }
 268              		.loc 1 245 0
 269 0008 08BD     		pop	{r3, pc}
 270              		.cfi_endproc
 271              	.LFE70:
 273 000a 00BF     		.section	.text.SetAudioVolEE,"ax",%progbits
 274              		.align	2
 275              		.global	SetAudioVolEE
 276              		.thumb
ARM GAS  /tmp/ccmMM3V0.s 			page 10


 277              		.thumb_func
 279              	SetAudioVolEE:
 280              	.LFB71:
 246:VS4210/etc_eep.c **** 
 247:VS4210/etc_eep.c **** void SetAudioVolEE( BYTE vol )
 248:VS4210/etc_eep.c **** {
 281              		.loc 1 248 0
 282              		.cfi_startproc
 283              		@ args = 0, pretend = 0, frame = 0
 284              		@ frame_needed = 0, uses_anonymous_args = 0
 285              	.LVL24:
 286 0000 08B5     		push	{r3, lr}
 287              	.LCFI6:
 288              		.cfi_def_cfa_offset 8
 289              		.cfi_offset 3, -8
 290              		.cfi_offset 14, -4
 291 0002 0146     		mov	r1, r0
 249:VS4210/etc_eep.c **** 	WriteEEP( EEP_AUDIOPVOL, vol );
 292              		.loc 1 249 0
 293 0004 3820     		movs	r0, #56
 294              	.LVL25:
 295 0006 FFF7FEFF 		bl	WriteEEP
 296              	.LVL26:
 297 000a 08BD     		pop	{r3, pc}
 298              		.cfi_endproc
 299              	.LFE71:
 301              		.section	.text.GetPCAudioVolEE,"ax",%progbits
 302              		.align	2
 303              		.global	GetPCAudioVolEE
 304              		.thumb
 305              		.thumb_func
 307              	GetPCAudioVolEE:
 308              	.LFB72:
 250:VS4210/etc_eep.c **** }
 251:VS4210/etc_eep.c **** 
 252:VS4210/etc_eep.c **** BYTE GetPCAudioVolEE(void)
 253:VS4210/etc_eep.c **** {
 309              		.loc 1 253 0
 310              		.cfi_startproc
 311              		@ args = 0, pretend = 0, frame = 0
 312              		@ frame_needed = 0, uses_anonymous_args = 0
 313 0000 08B5     		push	{r3, lr}
 314              	.LCFI7:
 315              		.cfi_def_cfa_offset 8
 316              		.cfi_offset 3, -8
 317              		.cfi_offset 14, -4
 254:VS4210/etc_eep.c **** 	return ReadEEP( EEP_PCAUDIOPVOL );
 318              		.loc 1 254 0
 319 0002 3720     		movs	r0, #55
 320 0004 FFF7FEFF 		bl	ReadEEP
 321              	.LVL27:
 255:VS4210/etc_eep.c **** }
 322              		.loc 1 255 0
 323 0008 08BD     		pop	{r3, pc}
 324              		.cfi_endproc
 325              	.LFE72:
 327 000a 00BF     		.section	.text.SetPCAudioVolEE,"ax",%progbits
ARM GAS  /tmp/ccmMM3V0.s 			page 11


 328              		.align	2
 329              		.global	SetPCAudioVolEE
 330              		.thumb
 331              		.thumb_func
 333              	SetPCAudioVolEE:
 334              	.LFB73:
 256:VS4210/etc_eep.c **** void SetPCAudioVolEE( BYTE vol )
 257:VS4210/etc_eep.c **** {
 335              		.loc 1 257 0
 336              		.cfi_startproc
 337              		@ args = 0, pretend = 0, frame = 0
 338              		@ frame_needed = 0, uses_anonymous_args = 0
 339              	.LVL28:
 340 0000 08B5     		push	{r3, lr}
 341              	.LCFI8:
 342              		.cfi_def_cfa_offset 8
 343              		.cfi_offset 3, -8
 344              		.cfi_offset 14, -4
 345 0002 0146     		mov	r1, r0
 258:VS4210/etc_eep.c **** 	WriteEEP( EEP_PCAUDIOPVOL, vol );
 346              		.loc 1 258 0
 347 0004 3720     		movs	r0, #55
 348              	.LVL29:
 349 0006 FFF7FEFF 		bl	WriteEEP
 350              	.LVL30:
 351 000a 08BD     		pop	{r3, pc}
 352              		.cfi_endproc
 353              	.LFE73:
 355              		.comm	newInRes,4,4
 356              		.section	.rodata.str1.4,"aMS",%progbits,1
 357              		.align	2
 358              	.LC0:
 359 0000 0D0A5265 		.ascii	"\015\012Reset OSD Data..\000"
 359      73657420 
 359      4F534420 
 359      44617461 
 359      2E2E00
 360 0013 00       		.space	1
 361              	.LC1:
 362 0014 0D0A436C 		.ascii	"\015\012ClearBasicEE...\000"
 362      65617242 
 362      61736963 
 362      45452E2E 
 362      2E00
 363              		.text
 364              	.Letext0:
 365              		.file 2 "/usr/include/newlib/machine/_default_types.h"
 366              		.file 3 "/usr/include/newlib/sys/_stdint.h"
 367              		.file 4 "VS4210/VXIS_Extern_Define.h"
 368              		.file 5 "TP2824/tpinc/TP2802.h"
 369              		.file 6 "Drivers/CMSIS/Include/core_cm3.h"
 370              		.file 7 "VS4210/etc_eep.h"
 371              		.file 8 "VS4210/printf.h"
ARM GAS  /tmp/ccmMM3V0.s 			page 12

