ARM GAS  /tmp/cctO6qLm.s 			page 1


   1              		.cpu cortex-m3
   2              		.eabi_attribute 20, 1
   3              		.eabi_attribute 21, 1
   4              		.eabi_attribute 23, 3
   5              		.eabi_attribute 24, 1
   6              		.eabi_attribute 25, 1
   7              		.eabi_attribute 26, 1
   8              		.eabi_attribute 30, 1
   9              		.eabi_attribute 34, 1
  10              		.eabi_attribute 18, 4
  11              		.file	"etc_eep.c"
  12              		.text
  13              	.Ltext0:
  14              		.cfi_sections	.debug_frame
  15              		.section	.text.GetFWRevEE,"ax",%progbits
  16              		.align	1
  17              		.global	GetFWRevEE
  18              		.syntax unified
  19              		.thumb
  20              		.thumb_func
  21              		.fpu softvfp
  23              	GetFWRevEE:
  24              	.LFB68:
  25              		.file 1 "VS4210/etc_eep.c"
   1:VS4210/etc_eep.c **** /*****************************************************************************/
   2:VS4210/etc_eep.c **** /*                                                                           										*/
   3:VS4210/etc_eep.c **** /*  VS4210   MCU                    													*/
   4:VS4210/etc_eep.c **** /*                                                                           										*/
   5:VS4210/etc_eep.c **** /*  Etc_eep.c                                                            									*/
   6:VS4210/etc_eep.c **** /*                                                                           										*/
   7:VS4210/etc_eep.c **** /*****************************************************************************/
   8:VS4210/etc_eep.c **** 
   9:VS4210/etc_eep.c **** //eeprom.c
  10:VS4210/etc_eep.c **** #include "VXIS_Extern_Define.h"
  11:VS4210/etc_eep.c **** 
  12:VS4210/etc_eep.c **** #include "tpinc/Device_Rx.h"
  13:VS4210/etc_eep.c **** #include "tpinc/TP2802.h"
  14:VS4210/etc_eep.c **** #include "stdlib.h"
  15:VS4210/etc_eep.c **** #include "VX_swi2c.h"
  16:VS4210/etc_eep.c **** #include "VS4210.h"
  17:VS4210/etc_eep.c **** 
  18:VS4210/etc_eep.c **** //#include "Config.h"
  19:VS4210/etc_eep.c **** //#include "typedefs.h"
  20:VS4210/etc_eep.c **** #include "main.h"
  21:VS4210/etc_eep.c **** //#include "i2c.h"
  22:VS4210/etc_eep.c **** #include "printf.h"
  23:VS4210/etc_eep.c **** #include "etc_eep.h"
  24:VS4210/etc_eep.c **** #include "keyremo.h"
  25:VS4210/etc_eep.c **** 
  26:VS4210/etc_eep.c **** 
  27:VS4210/etc_eep.c **** extern tByte	DayNightLevel;
  28:VS4210/etc_eep.c **** extern BYTE	AudioVol ;
  29:VS4210/etc_eep.c **** extern BYTE	Priority;
  30:VS4210/etc_eep.c **** extern BYTE OSD_LOCKF;
  31:VS4210/etc_eep.c **** extern BYTE SEQFlag;	
  32:VS4210/etc_eep.c **** extern BYTE NowModeState;
  33:VS4210/etc_eep.c **** extern BYTE	SelectModeType;
ARM GAS  /tmp/cctO6qLm.s 			page 2


  34:VS4210/etc_eep.c **** 
  35:VS4210/etc_eep.c **** 
  36:VS4210/etc_eep.c **** #if 0
  37:VS4210/etc_eep.c **** void WriteEEP(WORD index, BYTE dat)
  38:VS4210/etc_eep.c **** {
  39:VS4210/etc_eep.c **** //	BYTE addr;
  40:VS4210/etc_eep.c **** 
  41:VS4210/etc_eep.c **** //	addr = (EEPROMI2CAddress | (index>>7)) & 0xfe;
  42:VS4210/etc_eep.c **** /*
  43:VS4210/etc_eep.c **** 	I2CStart();
  44:VS4210/etc_eep.c **** 	I2CWriteData(addr);
  45:VS4210/etc_eep.c **** 	I2CWriteData((BYTE)index);
  46:VS4210/etc_eep.c **** 	I2CWriteData(dat);
  47:VS4210/etc_eep.c **** 	I2CStop();
  48:VS4210/etc_eep.c **** */
  49:VS4210/etc_eep.c **** //	#ifdef DEBUG_EEP
  50:VS4210/etc_eep.c **** //		dPrintf("Write %02xh to [Adrs(%02xh)Index(%02xh)\r\n", (WORD)dat, (WORD)addr, (WORD)index );
  51:VS4210/etc_eep.c **** //	#endif
  52:VS4210/etc_eep.c **** 
  53:VS4210/etc_eep.c **** 	delay(2);
  54:VS4210/etc_eep.c **** }
  55:VS4210/etc_eep.c **** 
  56:VS4210/etc_eep.c **** BYTE ReadEEP(WORD index)
  57:VS4210/etc_eep.c **** {
  58:VS4210/etc_eep.c **** 	BYTE val=_FALSE;
  59:VS4210/etc_eep.c **** //	BYTE addr;
  60:VS4210/etc_eep.c **** 
  61:VS4210/etc_eep.c **** //	addr = (EEPROMI2CAddress | (index>>7)) & 0xfe;
  62:VS4210/etc_eep.c **** /*
  63:VS4210/etc_eep.c **** 	val = ReadI2C(addr,(BYTE)index);
  64:VS4210/etc_eep.c **** */
  65:VS4210/etc_eep.c **** //	#ifdef DEBUG_EEP
  66:VS4210/etc_eep.c **** //		dPrintf("Read [Adrs:%02xh,Index:%02xh] %02xh\r\n", (WORD)addr, (WORD)index, (WORD)val);
  67:VS4210/etc_eep.c **** //	#endif
  68:VS4210/etc_eep.c **** 	delay(2);
  69:VS4210/etc_eep.c **** 	return val;
  70:VS4210/etc_eep.c **** }
  71:VS4210/etc_eep.c **** #endif
  72:VS4210/etc_eep.c **** WORD GetFWRevEE()
  73:VS4210/etc_eep.c **** {
  26              		.loc 1 73 0
  27              		.cfi_startproc
  28              		@ args = 0, pretend = 0, frame = 0
  29              		@ frame_needed = 0, uses_anonymous_args = 0
  30 0000 10B5     		push	{r4, lr}
  31              	.LCFI0:
  32              		.cfi_def_cfa_offset 8
  33              		.cfi_offset 4, -8
  34              		.cfi_offset 14, -4
  35              	.LVL0:
  74:VS4210/etc_eep.c **** 	WORD rev=0;
  75:VS4210/etc_eep.c **** 
  76:VS4210/etc_eep.c **** 	if( ReadEEP(0) != 'T' ) return 0;
  36              		.loc 1 76 0
  37 0002 0020     		movs	r0, #0
  38 0004 FFF7FEFF 		bl	ReadEEP
  39              	.LVL1:
ARM GAS  /tmp/cctO6qLm.s 			page 3


  40 0008 5428     		cmp	r0, #84
  41 000a 01D0     		beq	.L8
  42 000c 0020     		movs	r0, #0
  43              	.LVL2:
  44              	.L1:
  77:VS4210/etc_eep.c **** 	if( ReadEEP(1) != 'O' ) return 0;
  78:VS4210/etc_eep.c **** 	if( ReadEEP(2) != 'A' ) return 0;
  79:VS4210/etc_eep.c **** 	if( ReadEEP(3) != '0' ) return 0;
  80:VS4210/etc_eep.c **** 	
  81:VS4210/etc_eep.c **** 	rev = (ReadEEP(EEP_FWREV_MAJOR) )<< 8;
  82:VS4210/etc_eep.c **** 	rev |= ReadEEP(EEP_FWREV_MINOR);
  83:VS4210/etc_eep.c **** 
  84:VS4210/etc_eep.c **** 	return rev;
  85:VS4210/etc_eep.c **** 	//return 0x0001;
  86:VS4210/etc_eep.c **** }
  45              		.loc 1 86 0
  46 000e 10BD     		pop	{r4, pc}
  47              	.LVL3:
  48              	.L8:
  77:VS4210/etc_eep.c **** 	if( ReadEEP(1) != 'O' ) return 0;
  49              		.loc 1 77 0
  50 0010 0120     		movs	r0, #1
  51 0012 FFF7FEFF 		bl	ReadEEP
  52              	.LVL4:
  53 0016 4F28     		cmp	r0, #79
  54 0018 01D0     		beq	.L9
  55 001a 0020     		movs	r0, #0
  56 001c F7E7     		b	.L1
  57              	.L9:
  78:VS4210/etc_eep.c **** 	if( ReadEEP(3) != '0' ) return 0;
  58              		.loc 1 78 0
  59 001e 0220     		movs	r0, #2
  60 0020 FFF7FEFF 		bl	ReadEEP
  61              	.LVL5:
  62 0024 4128     		cmp	r0, #65
  63 0026 01D0     		beq	.L10
  64 0028 0020     		movs	r0, #0
  65 002a F0E7     		b	.L1
  66              	.L10:
  79:VS4210/etc_eep.c **** 	
  67              		.loc 1 79 0
  68 002c 0320     		movs	r0, #3
  69 002e FFF7FEFF 		bl	ReadEEP
  70              	.LVL6:
  71 0032 3028     		cmp	r0, #48
  72 0034 01D0     		beq	.L11
  73 0036 0020     		movs	r0, #0
  74 0038 E9E7     		b	.L1
  75              	.L11:
  81:VS4210/etc_eep.c **** 	rev |= ReadEEP(EEP_FWREV_MINOR);
  76              		.loc 1 81 0
  77 003a 0420     		movs	r0, #4
  78 003c FFF7FEFF 		bl	ReadEEP
  79              	.LVL7:
  80 0040 0402     		lsls	r4, r0, #8
  81              	.LVL8:
  82:VS4210/etc_eep.c **** 
ARM GAS  /tmp/cctO6qLm.s 			page 4


  82              		.loc 1 82 0
  83 0042 0520     		movs	r0, #5
  84 0044 FFF7FEFF 		bl	ReadEEP
  85              	.LVL9:
  86 0048 2043     		orrs	r0, r0, r4
  87              	.LVL10:
  84:VS4210/etc_eep.c **** 	//return 0x0001;
  88              		.loc 1 84 0
  89 004a E0E7     		b	.L1
  90              		.cfi_endproc
  91              	.LFE68:
  93              		.section	.text.SaveFWRevEE,"ax",%progbits
  94              		.align	1
  95              		.global	SaveFWRevEE
  96              		.syntax unified
  97              		.thumb
  98              		.thumb_func
  99              		.fpu softvfp
 101              	SaveFWRevEE:
 102              	.LFB69:
  87:VS4210/etc_eep.c **** 
  88:VS4210/etc_eep.c **** void SaveFWRevEE(WORD rev)
  89:VS4210/etc_eep.c **** {
 103              		.loc 1 89 0
 104              		.cfi_startproc
 105              		@ args = 0, pretend = 0, frame = 0
 106              		@ frame_needed = 0, uses_anonymous_args = 0
 107              	.LVL11:
 108 0000 10B5     		push	{r4, lr}
 109              	.LCFI1:
 110              		.cfi_def_cfa_offset 8
 111              		.cfi_offset 4, -8
 112              		.cfi_offset 14, -4
 113 0002 0446     		mov	r4, r0
  90:VS4210/etc_eep.c **** 	WriteEEP(0, 'T');
 114              		.loc 1 90 0
 115 0004 5421     		movs	r1, #84
 116 0006 0020     		movs	r0, #0
 117              	.LVL12:
 118 0008 FFF7FEFF 		bl	WriteEEP
 119              	.LVL13:
  91:VS4210/etc_eep.c **** 	WriteEEP(1, 'O');
 120              		.loc 1 91 0
 121 000c 4F21     		movs	r1, #79
 122 000e 0120     		movs	r0, #1
 123 0010 FFF7FEFF 		bl	WriteEEP
 124              	.LVL14:
  92:VS4210/etc_eep.c **** 	WriteEEP(2, 'A');
 125              		.loc 1 92 0
 126 0014 4121     		movs	r1, #65
 127 0016 0220     		movs	r0, #2
 128 0018 FFF7FEFF 		bl	WriteEEP
 129              	.LVL15:
  93:VS4210/etc_eep.c **** 	WriteEEP(3, '0');
 130              		.loc 1 93 0
 131 001c 3021     		movs	r1, #48
 132 001e 0320     		movs	r0, #3
ARM GAS  /tmp/cctO6qLm.s 			page 5


 133 0020 FFF7FEFF 		bl	WriteEEP
 134              	.LVL16:
  94:VS4210/etc_eep.c **** 	WriteEEP(EEP_FWREV_MAJOR, (BYTE)(rev>>8) );
 135              		.loc 1 94 0
 136 0024 C4F30721 		ubfx	r1, r4, #8, #8
 137 0028 0420     		movs	r0, #4
 138 002a FFF7FEFF 		bl	WriteEEP
 139              	.LVL17:
  95:VS4210/etc_eep.c **** 	WriteEEP(EEP_FWREV_MINOR, (BYTE)rev );
 140              		.loc 1 95 0
 141 002e E1B2     		uxtb	r1, r4
 142 0030 0520     		movs	r0, #5
 143 0032 FFF7FEFF 		bl	WriteEEP
 144              	.LVL18:
  96:VS4210/etc_eep.c **** 
  97:VS4210/etc_eep.c **** }
 145              		.loc 1 97 0
 146 0036 10BD     		pop	{r4, pc}
 147              		.cfi_endproc
 148              	.LFE69:
 150              		.section	.text.GetDebugLevelEE,"ax",%progbits
 151              		.align	1
 152              		.global	GetDebugLevelEE
 153              		.syntax unified
 154              		.thumb
 155              		.thumb_func
 156              		.fpu softvfp
 158              	GetDebugLevelEE:
 159              	.LFB70:
  98:VS4210/etc_eep.c **** 
  99:VS4210/etc_eep.c **** #if 0/// (_DEBUG_MESSAGE_Monitor==ON)
 100:VS4210/etc_eep.c **** 
 101:VS4210/etc_eep.c **** void SaveDebugLevelEE(BYTE dl)
 102:VS4210/etc_eep.c **** {
 103:VS4210/etc_eep.c **** 	WriteEEP(EEP_DEBUGLEVEL, dl);
 104:VS4210/etc_eep.c **** }
 105:VS4210/etc_eep.c **** #endif
 106:VS4210/etc_eep.c **** 
 107:VS4210/etc_eep.c **** BYTE GetDebugLevelEE(void)
 108:VS4210/etc_eep.c **** {
 160              		.loc 1 108 0
 161              		.cfi_startproc
 162              		@ args = 0, pretend = 0, frame = 0
 163              		@ frame_needed = 0, uses_anonymous_args = 0
 164 0000 08B5     		push	{r3, lr}
 165              	.LCFI2:
 166              		.cfi_def_cfa_offset 8
 167              		.cfi_offset 3, -8
 168              		.cfi_offset 14, -4
 109:VS4210/etc_eep.c **** 	return ReadEEP(EEP_DEBUGLEVEL);
 169              		.loc 1 109 0
 170 0002 0720     		movs	r0, #7
 171 0004 FFF7FEFF 		bl	ReadEEP
 172              	.LVL19:
 110:VS4210/etc_eep.c **** }
 173              		.loc 1 110 0
 174 0008 08BD     		pop	{r3, pc}
ARM GAS  /tmp/cctO6qLm.s 			page 6


 175              		.cfi_endproc
 176              	.LFE70:
 178              		.section	.text.ResetOSDValue,"ax",%progbits
 179              		.align	1
 180              		.global	ResetOSDValue
 181              		.syntax unified
 182              		.thumb
 183              		.thumb_func
 184              		.fpu softvfp
 186              	ResetOSDValue:
 187              	.LFB71:
 111:VS4210/etc_eep.c **** 
 112:VS4210/etc_eep.c **** //===================================================================
 113:VS4210/etc_eep.c **** void ResetOSDValue(void)
 114:VS4210/etc_eep.c **** {
 188              		.loc 1 114 0
 189              		.cfi_startproc
 190              		@ args = 0, pretend = 0, frame = 0
 191              		@ frame_needed = 0, uses_anonymous_args = 0
 192 0000 08B5     		push	{r3, lr}
 193              	.LCFI3:
 194              		.cfi_def_cfa_offset 8
 195              		.cfi_offset 3, -8
 196              		.cfi_offset 14, -4
 115:VS4210/etc_eep.c **** Printf("\r\nReset OSD Data..");
 197              		.loc 1 115 0
 198 0002 0248     		ldr	r0, .L18
 199 0004 FFF7FEFF 		bl	Printf
 200              	.LVL20:
 116:VS4210/etc_eep.c **** #if 0
 117:VS4210/etc_eep.c **** 	   WriteEEP(EEP_AutoMode , 0x00);	  // Auto Day&Night...... OFF
 118:VS4210/etc_eep.c **** 
 119:VS4210/etc_eep.c **** 	WriteEEP(EEP_CONTRAST,50);	  
 120:VS4210/etc_eep.c **** 	WriteEEP(EEP_BRIGHTNESS,50);	  
 121:VS4210/etc_eep.c **** 	WriteEEP(EEP_SATURATION_U,50);	  
 122:VS4210/etc_eep.c **** 	WriteEEP(EEP_SHARPNESS,50);	  
 123:VS4210/etc_eep.c **** 	WriteEEP(EEP_HUE,50);	  
 124:VS4210/etc_eep.c **** 
 125:VS4210/etc_eep.c **** 	//WriteEEP(EEP_PRIORITY,0);	  
 126:VS4210/etc_eep.c **** 	   DayNightLevel=ReadEEP(EEP_AutoMode);
 127:VS4210/etc_eep.c **** 	   WriteEEP(EEP_IMAGEMode,0x00);	 // IMAGEMode..... SINGLE
 128:VS4210/etc_eep.c **** 	   WriteEEP(EEP_RearMode,0x00); 	 // RearMode...... R  
 129:VS4210/etc_eep.c **** 	   WriteEEP(EEP_TriggerVGA,0x00); 	 // trigger vga...... on  
 130:VS4210/etc_eep.c **** 	   WriteEEP(EEP_GAUGEMode,0x01);	 // ­Ë¨®OSD....... ON	
 131:VS4210/etc_eep.c **** 	   WriteEEP(EEP_Powerflag,0x01);	 // POWER FLAG....... ON  
 132:VS4210/etc_eep.c **** 	   WriteEEP(EEP_COSDMode,0x01); 	 // Display OSD... ON 
 133:VS4210/etc_eep.c **** 	   WriteEEP(EEP_DVRDisplay,0x00); 	 //DVR Display OSD... ON
 134:VS4210/etc_eep.c **** 	   WriteEEP(EEP_CAMAMode,0x00); 	 // MirrorA....... OFF
 135:VS4210/etc_eep.c **** 	   WriteEEP(EEP_CAMBMode,0x00); 	 // MirrorB....... OFF
 136:VS4210/etc_eep.c **** 	   WriteEEP(EEP_CAMCMode,0x00); 	 // MirrorC....... OFF
 137:VS4210/etc_eep.c **** 	   WriteEEP(EEP_CAMRMode,0x01); 	 // MirrorR....... ON
 138:VS4210/etc_eep.c **** 	   WriteEEP(EEP_AUDIOPVOL,50);       // AudioVol
 139:VS4210/etc_eep.c **** 
 140:VS4210/etc_eep.c **** 	   WriteEEP(EEP_ONOFFChoice,0x00); 	 // osd lock oFF
 141:VS4210/etc_eep.c **** 
 142:VS4210/etc_eep.c **** 	   AudioVol=50;
 143:VS4210/etc_eep.c **** 	 //  ChangeVol(0);
ARM GAS  /tmp/cctO6qLm.s 			page 7


 144:VS4210/etc_eep.c **** 	   WriteEEP(EEP_PCAUDIOPVOL,50);
 145:VS4210/etc_eep.c **** 	   WriteEEP(EEP_AudioRecord,0x03); 	 // dvr audio channel
 146:VS4210/etc_eep.c **** 	
 147:VS4210/etc_eep.c **** 	   WriteEEP(EEP_IMAGE_A_Mode,0x00);
 148:VS4210/etc_eep.c **** 	   WriteEEP(EEP_IMAGE_B_Mode,0x00);
 149:VS4210/etc_eep.c ****        WriteEEP(EEP_IMAGE_C_Mode,0x00);
 150:VS4210/etc_eep.c **** 
 151:VS4210/etc_eep.c **** 	   WriteEEP(EEP_DELAYCAMA,0x00); 	 // DELAY CAM A....... 0
 152:VS4210/etc_eep.c **** 	   WriteEEP(EEP_DELAYCAMB,0x00); 	 // DELAY CAM B....... 0
 153:VS4210/etc_eep.c **** 	   WriteEEP(EEP_DELAYCAMC,0x00); 	 // DELAY CAM C....... 0.
 154:VS4210/etc_eep.c **** 	   WriteEEP(EEP_DELAYCAMR,0x00); 	 // DELAY CAM R....... 0
 155:VS4210/etc_eep.c **** 
 156:VS4210/etc_eep.c **** 	   if(Priority==ON)//on
 157:VS4210/etc_eep.c **** 	   {
 158:VS4210/etc_eep.c **** 		WriteEEP(EEP_JUMPMode,0);	  // JUMPMode...... QUAL
 159:VS4210/etc_eep.c **** 		WriteEEP(EEP_ONOFFChoice,0x00); 	// OSD	lock....... off
 160:VS4210/etc_eep.c **** 		OSD_LOCKF=0;
 161:VS4210/etc_eep.c **** 	   }
 162:VS4210/etc_eep.c **** 		else
 163:VS4210/etc_eep.c **** 	   {
 164:VS4210/etc_eep.c **** 		WriteEEP(EEP_JUMPMode,13);		// JUMPMode...... CAM R
 165:VS4210/etc_eep.c **** 		WriteEEP(EEP_ONOFFChoice,0x01); 	// OSD	lock....... ON
 166:VS4210/etc_eep.c **** 		OSD_LOCKF=1;
 167:VS4210/etc_eep.c **** 	   }
 168:VS4210/etc_eep.c **** 		
 169:VS4210/etc_eep.c **** 		//TP2824 video data reset	
 170:VS4210/etc_eep.c **** 		WriteEEP(EEP_TP2824_STD0,0xFF);	  
 171:VS4210/etc_eep.c **** 		WriteEEP(EEP_TP2824_MODE0,0xFF);	  
 172:VS4210/etc_eep.c **** 		WriteEEP(EEP_TP2824_STD1,0xFF);	  
 173:VS4210/etc_eep.c **** 		WriteEEP(EEP_TP2824_MODE1,0xFF);	  
 174:VS4210/etc_eep.c **** 		WriteEEP(EEP_TP2824_STD2,0xFF);	  
 175:VS4210/etc_eep.c **** 		WriteEEP(EEP_TP2824_MODE2,0xFF);	  
 176:VS4210/etc_eep.c **** 		WriteEEP(EEP_TP2824_STD3,0xFF);	  
 177:VS4210/etc_eep.c **** 		WriteEEP(EEP_TP2824_MODE3,0xFF);	  
 178:VS4210/etc_eep.c **** 
 179:VS4210/etc_eep.c **** 	//WriteEEP(EEP_JUMPMode,0);
 180:VS4210/etc_eep.c **** 
 181:VS4210/etc_eep.c **** 	   SEQFlag=0;
 182:VS4210/etc_eep.c **** //#ifdef AWT_ML072S
 183:VS4210/etc_eep.c **** //	   WriteEEP(EEP_TimeStep,0x03); 	 // TimerStep.....02
 184:VS4210/etc_eep.c **** //#else
 185:VS4210/etc_eep.c **** 	   WriteEEP(EEP_TimeStep,0x02); 	 // TimerStep.....02
 186:VS4210/etc_eep.c **** //#endif	   
 187:VS4210/etc_eep.c **** 	   WriteEEP(EEP_CAMOutMode,0x00);	 // CAMOut........ QUAL 
 188:VS4210/etc_eep.c **** //	   CAMOutDSel( 0x00 );	///V1.1 02/27/07 simonsung 
 189:VS4210/etc_eep.c **** //	   TW2835Cmd("\n\rmode 0\n\r");
 190:VS4210/etc_eep.c **** 
 191:VS4210/etc_eep.c **** //	   ClearDataCnt(INPUTINFO_ADDR, 51);   //william-980416
 192:VS4210/etc_eep.c **** 
 193:VS4210/etc_eep.c **** 	   LoadEEPROM();
 194:VS4210/etc_eep.c **** 
 195:VS4210/etc_eep.c **** 	  NowModeState=SelectMode;
 196:VS4210/etc_eep.c **** 	   SelectModeType=CAM_A;
 197:VS4210/etc_eep.c **** 
 198:VS4210/etc_eep.c **** 	   WriteEEP(EEP_NowModeState,SelectMode);
 199:VS4210/etc_eep.c **** 			
 200:VS4210/etc_eep.c **** 		WriteEEP(EEP_SelectMode,SelectModeType);
ARM GAS  /tmp/cctO6qLm.s 			page 8


 201:VS4210/etc_eep.c **** 		 setloopoutmode(SelectModeType) ;
 202:VS4210/etc_eep.c **** 
 203:VS4210/etc_eep.c **** LoadVideoData();
 204:VS4210/etc_eep.c **** #endif
 205:VS4210/etc_eep.c **** 
 206:VS4210/etc_eep.c **** 
 207:VS4210/etc_eep.c **** 
 208:VS4210/etc_eep.c **** }
 201              		.loc 1 208 0
 202 0008 08BD     		pop	{r3, pc}
 203              	.L19:
 204 000a 00BF     		.align	2
 205              	.L18:
 206 000c 00000000 		.word	.LC0
 207              		.cfi_endproc
 208              	.LFE71:
 210              		.section	.text.ClearBasicEE,"ax",%progbits
 211              		.align	1
 212              		.global	ClearBasicEE
 213              		.syntax unified
 214              		.thumb
 215              		.thumb_func
 216              		.fpu softvfp
 218              	ClearBasicEE:
 219              	.LFB72:
 209:VS4210/etc_eep.c **** 
 210:VS4210/etc_eep.c **** void ClearBasicEE(void)
 211:VS4210/etc_eep.c **** {
 220              		.loc 1 211 0
 221              		.cfi_startproc
 222              		@ args = 0, pretend = 0, frame = 0
 223              		@ frame_needed = 0, uses_anonymous_args = 0
 224 0000 08B5     		push	{r3, lr}
 225              	.LCFI4:
 226              		.cfi_def_cfa_offset 8
 227              		.cfi_offset 3, -8
 228              		.cfi_offset 14, -4
 212:VS4210/etc_eep.c **** 
 213:VS4210/etc_eep.c **** 	Printf("\r\nClearBasicEE...");
 229              		.loc 1 213 0
 230 0002 0648     		ldr	r0, .L22
 231 0004 FFF7FEFF 		bl	Printf
 232              	.LVL21:
 214:VS4210/etc_eep.c **** 
 215:VS4210/etc_eep.c **** 	WriteEEP(EEP_PRIORITY,0x01);	//PRIORITY.........OFF	Andy-980602
 233              		.loc 1 215 0
 234 0008 0121     		movs	r1, #1
 235 000a AD20     		movs	r0, #173
 236 000c FFF7FEFF 		bl	WriteEEP
 237              	.LVL22:
 216:VS4210/etc_eep.c **** 	Priority=1;
 238              		.loc 1 216 0
 239 0010 034B     		ldr	r3, .L22+4
 240 0012 0122     		movs	r2, #1
 241 0014 1A70     		strb	r2, [r3]
 217:VS4210/etc_eep.c **** 
 218:VS4210/etc_eep.c **** //	SaveVInputStdDetectModeEE(0);	// AUTO
ARM GAS  /tmp/cctO6qLm.s 			page 9


 219:VS4210/etc_eep.c **** //	WriteEEP(EEP_CCD, 0);	// CC = OFF
 220:VS4210/etc_eep.c **** 
 221:VS4210/etc_eep.c **** 
 222:VS4210/etc_eep.c **** 	ResetOSDValue();  //Pinchi 20150212 enable
 242              		.loc 1 222 0
 243 0016 FFF7FEFF 		bl	ResetOSDValue
 244              	.LVL23:
 223:VS4210/etc_eep.c **** 
 224:VS4210/etc_eep.c **** //	ResetVideoValue();
 225:VS4210/etc_eep.c **** 
 226:VS4210/etc_eep.c **** 	
 227:VS4210/etc_eep.c **** 
 228:VS4210/etc_eep.c **** 
 229:VS4210/etc_eep.c **** 
 230:VS4210/etc_eep.c **** /*
 231:VS4210/etc_eep.c **** 	WriteEEP(EEP_Powerflag,ON);
 232:VS4210/etc_eep.c **** 
 233:VS4210/etc_eep.c **** 	WriteEEP(EEP_CameraVolt, 14);  //7.6V
 234:VS4210/etc_eep.c **** 
 235:VS4210/etc_eep.c **** 	WriteEEP(EEP_DEBUGLEVEL,OFF); 
 236:VS4210/etc_eep.c **** 
 237:VS4210/etc_eep.c **** 	WriteEEP(EEP_DC12_PWR_START, OFF); 	
 238:VS4210/etc_eep.c **** */	
 239:VS4210/etc_eep.c **** }
 245              		.loc 1 239 0
 246 001a 08BD     		pop	{r3, pc}
 247              	.L23:
 248              		.align	2
 249              	.L22:
 250 001c 00000000 		.word	.LC1
 251 0020 00000000 		.word	Priority
 252              		.cfi_endproc
 253              	.LFE72:
 255              		.section	.text.GetAudioVolEE,"ax",%progbits
 256              		.align	1
 257              		.global	GetAudioVolEE
 258              		.syntax unified
 259              		.thumb
 260              		.thumb_func
 261              		.fpu softvfp
 263              	GetAudioVolEE:
 264              	.LFB73:
 240:VS4210/etc_eep.c **** 
 241:VS4210/etc_eep.c **** //=========  Audio =================================================
 242:VS4210/etc_eep.c **** BYTE GetAudioVolEE(void)
 243:VS4210/etc_eep.c **** {
 265              		.loc 1 243 0
 266              		.cfi_startproc
 267              		@ args = 0, pretend = 0, frame = 0
 268              		@ frame_needed = 0, uses_anonymous_args = 0
 269 0000 08B5     		push	{r3, lr}
 270              	.LCFI5:
 271              		.cfi_def_cfa_offset 8
 272              		.cfi_offset 3, -8
 273              		.cfi_offset 14, -4
 244:VS4210/etc_eep.c **** 	return ReadEEP( EEP_AUDIOPVOL );
 274              		.loc 1 244 0
ARM GAS  /tmp/cctO6qLm.s 			page 10


 275 0002 3820     		movs	r0, #56
 276 0004 FFF7FEFF 		bl	ReadEEP
 277              	.LVL24:
 245:VS4210/etc_eep.c **** }
 278              		.loc 1 245 0
 279 0008 08BD     		pop	{r3, pc}
 280              		.cfi_endproc
 281              	.LFE73:
 283              		.section	.text.SetAudioVolEE,"ax",%progbits
 284              		.align	1
 285              		.global	SetAudioVolEE
 286              		.syntax unified
 287              		.thumb
 288              		.thumb_func
 289              		.fpu softvfp
 291              	SetAudioVolEE:
 292              	.LFB74:
 246:VS4210/etc_eep.c **** 
 247:VS4210/etc_eep.c **** void SetAudioVolEE( BYTE vol )
 248:VS4210/etc_eep.c **** {
 293              		.loc 1 248 0
 294              		.cfi_startproc
 295              		@ args = 0, pretend = 0, frame = 0
 296              		@ frame_needed = 0, uses_anonymous_args = 0
 297              	.LVL25:
 298 0000 08B5     		push	{r3, lr}
 299              	.LCFI6:
 300              		.cfi_def_cfa_offset 8
 301              		.cfi_offset 3, -8
 302              		.cfi_offset 14, -4
 249:VS4210/etc_eep.c **** 	WriteEEP( EEP_AUDIOPVOL, vol );
 303              		.loc 1 249 0
 304 0002 0146     		mov	r1, r0
 305 0004 3820     		movs	r0, #56
 306              	.LVL26:
 307 0006 FFF7FEFF 		bl	WriteEEP
 308              	.LVL27:
 250:VS4210/etc_eep.c **** }
 309              		.loc 1 250 0
 310 000a 08BD     		pop	{r3, pc}
 311              		.cfi_endproc
 312              	.LFE74:
 314              		.section	.text.GetPCAudioVolEE,"ax",%progbits
 315              		.align	1
 316              		.global	GetPCAudioVolEE
 317              		.syntax unified
 318              		.thumb
 319              		.thumb_func
 320              		.fpu softvfp
 322              	GetPCAudioVolEE:
 323              	.LFB75:
 251:VS4210/etc_eep.c **** 
 252:VS4210/etc_eep.c **** BYTE GetPCAudioVolEE(void)
 253:VS4210/etc_eep.c **** {
 324              		.loc 1 253 0
 325              		.cfi_startproc
 326              		@ args = 0, pretend = 0, frame = 0
ARM GAS  /tmp/cctO6qLm.s 			page 11


 327              		@ frame_needed = 0, uses_anonymous_args = 0
 328 0000 08B5     		push	{r3, lr}
 329              	.LCFI7:
 330              		.cfi_def_cfa_offset 8
 331              		.cfi_offset 3, -8
 332              		.cfi_offset 14, -4
 254:VS4210/etc_eep.c **** 	return ReadEEP( EEP_PCAUDIOPVOL );
 333              		.loc 1 254 0
 334 0002 3720     		movs	r0, #55
 335 0004 FFF7FEFF 		bl	ReadEEP
 336              	.LVL28:
 255:VS4210/etc_eep.c **** }
 337              		.loc 1 255 0
 338 0008 08BD     		pop	{r3, pc}
 339              		.cfi_endproc
 340              	.LFE75:
 342              		.section	.text.SetPCAudioVolEE,"ax",%progbits
 343              		.align	1
 344              		.global	SetPCAudioVolEE
 345              		.syntax unified
 346              		.thumb
 347              		.thumb_func
 348              		.fpu softvfp
 350              	SetPCAudioVolEE:
 351              	.LFB76:
 256:VS4210/etc_eep.c **** void SetPCAudioVolEE( BYTE vol )
 257:VS4210/etc_eep.c **** {
 352              		.loc 1 257 0
 353              		.cfi_startproc
 354              		@ args = 0, pretend = 0, frame = 0
 355              		@ frame_needed = 0, uses_anonymous_args = 0
 356              	.LVL29:
 357 0000 08B5     		push	{r3, lr}
 358              	.LCFI8:
 359              		.cfi_def_cfa_offset 8
 360              		.cfi_offset 3, -8
 361              		.cfi_offset 14, -4
 258:VS4210/etc_eep.c **** 	WriteEEP( EEP_PCAUDIOPVOL, vol );
 362              		.loc 1 258 0
 363 0002 0146     		mov	r1, r0
 364 0004 3720     		movs	r0, #55
 365              	.LVL30:
 366 0006 FFF7FEFF 		bl	WriteEEP
 367              	.LVL31:
 259:VS4210/etc_eep.c **** }
 368              		.loc 1 259 0
 369 000a 08BD     		pop	{r3, pc}
 370              		.cfi_endproc
 371              	.LFE76:
 373              		.comm	newInRes,4,4
 374              		.section	.rodata.ClearBasicEE.str1.4,"aMS",%progbits,1
 375              		.align	2
 376              	.LC1:
 377 0000 0D0A436C 		.ascii	"\015\012ClearBasicEE...\000"
 377      65617242 
 377      61736963 
 377      45452E2E 
ARM GAS  /tmp/cctO6qLm.s 			page 12


 377      2E00
 378              		.section	.rodata.ResetOSDValue.str1.4,"aMS",%progbits,1
 379              		.align	2
 380              	.LC0:
 381 0000 0D0A5265 		.ascii	"\015\012Reset OSD Data..\000"
 381      73657420 
 381      4F534420 
 381      44617461 
 381      2E2E00
 382              		.text
 383              	.Letext0:
 384              		.file 2 "/home/ryan/xun/gcc-arm-none-eabi-7-2018-q2-update/arm-none-eabi/include/machine/_default_
 385              		.file 3 "/home/ryan/xun/gcc-arm-none-eabi-7-2018-q2-update/arm-none-eabi/include/sys/lock.h"
 386              		.file 4 "/home/ryan/xun/gcc-arm-none-eabi-7-2018-q2-update/arm-none-eabi/include/sys/_types.h"
 387              		.file 5 "/home/ryan/xun/gcc-arm-none-eabi-7-2018-q2-update/lib/gcc/arm-none-eabi/7.3.1/include/std
 388              		.file 6 "/home/ryan/xun/gcc-arm-none-eabi-7-2018-q2-update/arm-none-eabi/include/sys/reent.h"
 389              		.file 7 "/home/ryan/xun/gcc-arm-none-eabi-7-2018-q2-update/arm-none-eabi/include/sys/_stdint.h"
 390              		.file 8 "VS4210/VXIS_Extern_Define.h"
 391              		.file 9 "TP2824/tpinc/TP2802.h"
 392              		.file 10 "/home/ryan/xun/gcc-arm-none-eabi-7-2018-q2-update/arm-none-eabi/include/stdlib.h"
 393              		.file 11 "sw_i2c/VX_swi2c.h"
 394              		.file 12 "VS4210/VS4210.h"
 395              		.file 13 "Drivers/CMSIS/Include/core_cm3.h"
 396              		.file 14 "Drivers/CMSIS/Device/ST/STM32F1xx/Include/system_stm32f1xx.h"
 397              		.file 15 "Drivers/STM32F1xx_HAL_Driver/Inc/stm32f1xx_hal.h"
 398              		.file 16 "VS4210/etc_eep.h"
 399              		.file 17 "VS4210/printf.h"
ARM GAS  /tmp/cctO6qLm.s 			page 13


DEFINED SYMBOLS
                            *ABS*:0000000000000000 etc_eep.c
     /tmp/cctO6qLm.s:16     .text.GetFWRevEE:0000000000000000 $t
     /tmp/cctO6qLm.s:23     .text.GetFWRevEE:0000000000000000 GetFWRevEE
     /tmp/cctO6qLm.s:94     .text.SaveFWRevEE:0000000000000000 $t
     /tmp/cctO6qLm.s:101    .text.SaveFWRevEE:0000000000000000 SaveFWRevEE
     /tmp/cctO6qLm.s:151    .text.GetDebugLevelEE:0000000000000000 $t
     /tmp/cctO6qLm.s:158    .text.GetDebugLevelEE:0000000000000000 GetDebugLevelEE
     /tmp/cctO6qLm.s:179    .text.ResetOSDValue:0000000000000000 $t
     /tmp/cctO6qLm.s:186    .text.ResetOSDValue:0000000000000000 ResetOSDValue
     /tmp/cctO6qLm.s:206    .text.ResetOSDValue:000000000000000c $d
     /tmp/cctO6qLm.s:211    .text.ClearBasicEE:0000000000000000 $t
     /tmp/cctO6qLm.s:218    .text.ClearBasicEE:0000000000000000 ClearBasicEE
     /tmp/cctO6qLm.s:250    .text.ClearBasicEE:000000000000001c $d
     /tmp/cctO6qLm.s:256    .text.GetAudioVolEE:0000000000000000 $t
     /tmp/cctO6qLm.s:263    .text.GetAudioVolEE:0000000000000000 GetAudioVolEE
     /tmp/cctO6qLm.s:284    .text.SetAudioVolEE:0000000000000000 $t
     /tmp/cctO6qLm.s:291    .text.SetAudioVolEE:0000000000000000 SetAudioVolEE
     /tmp/cctO6qLm.s:315    .text.GetPCAudioVolEE:0000000000000000 $t
     /tmp/cctO6qLm.s:322    .text.GetPCAudioVolEE:0000000000000000 GetPCAudioVolEE
     /tmp/cctO6qLm.s:343    .text.SetPCAudioVolEE:0000000000000000 $t
     /tmp/cctO6qLm.s:350    .text.SetPCAudioVolEE:0000000000000000 SetPCAudioVolEE
                            *COM*:0000000000000004 newInRes
     /tmp/cctO6qLm.s:375    .rodata.ClearBasicEE.str1.4:0000000000000000 $d
     /tmp/cctO6qLm.s:379    .rodata.ResetOSDValue.str1.4:0000000000000000 $d

UNDEFINED SYMBOLS
ReadEEP
WriteEEP
Printf
Priority
