ARM GAS  /tmp/ccbUCoVk.s 			page 1


   1              		.syntax unified
   2              		.cpu cortex-m3
   3              		.fpu softvfp
   4              		.eabi_attribute 20, 1
   5              		.eabi_attribute 21, 1
   6              		.eabi_attribute 23, 3
   7              		.eabi_attribute 24, 1
   8              		.eabi_attribute 25, 1
   9              		.eabi_attribute 26, 1
  10              		.eabi_attribute 30, 1
  11              		.eabi_attribute 34, 1
  12              		.eabi_attribute 18, 4
  13              		.thumb
  14              		.file	"TOA_Protocol.c"
  15              		.text
  16              	.Ltext0:
  17              		.cfi_sections	.debug_frame
  18              		.section	.text.TOAReceivePaser,"ax",%progbits
  19              		.align	2
  20              		.global	TOAReceivePaser
  21              		.thumb
  22              		.thumb_func
  24              	TOAReceivePaser:
  25              	.LFB65:
  26              		.file 1 "VS4210/TOA_Protocol.c"
   1:VS4210/TOA_Protocol.c **** /*****************************************************************************/
   2:VS4210/TOA_Protocol.c **** /*                                                                           										*/
   3:VS4210/TOA_Protocol.c **** /*  STM32F103RE   MCU                    													*/
   4:VS4210/TOA_Protocol.c **** /*                                                                           										*/
   5:VS4210/TOA_Protocol.c **** /*  TOA_Protocol.c                                             										*/
   6:VS4210/TOA_Protocol.c **** /*                                                                           										*/
   7:VS4210/TOA_Protocol.c **** /*****************************************************************************/
   8:VS4210/TOA_Protocol.c **** /*
   9:VS4210/TOA_Protocol.c **** #include "Config.h"
  10:VS4210/TOA_Protocol.c **** #include "typedefs.h"
  11:VS4210/TOA_Protocol.c **** #include "i2c.h"
  12:VS4210/TOA_Protocol.c **** #include "main.h"
  13:VS4210/TOA_Protocol.c **** #include "printf.h"
  14:VS4210/TOA_Protocol.c **** #include "CPU.h"
  15:VS4210/TOA_Protocol.c **** #include "HS_DVRProtocol.h"
  16:VS4210/TOA_Protocol.c **** #include "keyremo.h"
  17:VS4210/TOA_Protocol.c **** #include "Etc_eep.h"
  18:VS4210/TOA_Protocol.c **** */
  19:VS4210/TOA_Protocol.c **** 	
  20:VS4210/TOA_Protocol.c **** #include "VXIS_Extern_Define.h"
  21:VS4210/TOA_Protocol.c **** #include "VS4210.h"
  22:VS4210/TOA_Protocol.c **** #include "main.h"
  23:VS4210/TOA_Protocol.c **** #include "VX_OSD_Simple.h"
  24:VS4210/TOA_Protocol.c **** #include "VX_swi2c.h"
  25:VS4210/TOA_Protocol.c **** 	
  26:VS4210/TOA_Protocol.c **** #include "VS4210_param_Mode88.h"
  27:VS4210/TOA_Protocol.c **** #include "VS4210_param_Modex26.h"
  28:VS4210/TOA_Protocol.c **** 	
  29:VS4210/TOA_Protocol.c **** #include "keyremo.h"
  30:VS4210/TOA_Protocol.c **** #include "tpinc/TP2802.h"
  31:VS4210/TOA_Protocol.c **** #include "Printf.h"
  32:VS4210/TOA_Protocol.c **** #include "TOA_Protocol.h"
ARM GAS  /tmp/ccbUCoVk.s 			page 2


  33:VS4210/TOA_Protocol.c **** 
  34:VS4210/TOA_Protocol.c **** bit protocol_escape_flag;
  35:VS4210/TOA_Protocol.c **** BYTE protocol_state=0;
  36:VS4210/TOA_Protocol.c **** BYTE protocol_type;
  37:VS4210/TOA_Protocol.c **** BYTE protocol_len;
  38:VS4210/TOA_Protocol.c **** BYTE protocol_param;
  39:VS4210/TOA_Protocol.c **** BYTE protocol_chksum;
  40:VS4210/TOA_Protocol.c **** BYTE protocol_data_count=0;
  41:VS4210/TOA_Protocol.c **** //BYTE protocol_data[PROTOCOL_DATA_LENGTH];
  42:VS4210/TOA_Protocol.c **** WORD protocol_cmd=0;
  43:VS4210/TOA_Protocol.c **** WORD protocol_data=0;
  44:VS4210/TOA_Protocol.c **** 
  45:VS4210/TOA_Protocol.c **** BYTE CMDCount=0;
  46:VS4210/TOA_Protocol.c **** 
  47:VS4210/TOA_Protocol.c **** extern DATA  BYTE RS2_out;
  48:VS4210/TOA_Protocol.c **** extern bit ptztxflag;
  49:VS4210/TOA_Protocol.c **** extern BYTE TVI_Command;
  50:VS4210/TOA_Protocol.c **** extern BYTE presetNum;
  51:VS4210/TOA_Protocol.c **** extern BYTE TVI_speed;
  52:VS4210/TOA_Protocol.c **** extern BYTE TVI_Chksum;
  53:VS4210/TOA_Protocol.c **** extern BYTE PtzTxChNum;
  54:VS4210/TOA_Protocol.c **** 
  55:VS4210/TOA_Protocol.c **** /*
  56:VS4210/TOA_Protocol.c **** extern float Encorder1,Encorder2,Encorder3,Encorder4;
  57:VS4210/TOA_Protocol.c **** extern float Decimal1,Decimal2,Decimal3,Decimal4;
  58:VS4210/TOA_Protocol.c **** extern StructDVRInfoType g_stDVRInfo;
  59:VS4210/TOA_Protocol.c **** extern BYTE PowerFlag;
  60:VS4210/TOA_Protocol.c **** extern BYTE CameraVolt;
  61:VS4210/TOA_Protocol.c **** extern BYTE PWR_START_flag;
  62:VS4210/TOA_Protocol.c **** extern StructBatteryInfoType g_stBatteryInfo ;
  63:VS4210/TOA_Protocol.c **** */
  64:VS4210/TOA_Protocol.c **** void TOAReceivePaser(void)
  65:VS4210/TOA_Protocol.c **** {
  27              		.loc 1 65 0
  28              		.cfi_startproc
  29              		@ args = 0, pretend = 0, frame = 0
  30              		@ frame_needed = 0, uses_anonymous_args = 0
  31 0000 10B5     		push	{r4, lr}
  32              	.LCFI0:
  33              		.cfi_def_cfa_offset 8
  34              		.cfi_offset 4, -8
  35              		.cfi_offset 14, -4
  66:VS4210/TOA_Protocol.c **** 	BYTE dat,addr;
  67:VS4210/TOA_Protocol.c **** 
  68:VS4210/TOA_Protocol.c **** if ( RS2_ready())
  36              		.loc 1 68 0
  37 0002 FFF7FEFF 		bl	RS2_ready
  38              	.LVL0:
  39 0006 0028     		cmp	r0, #0
  40 0008 00F04C83 		beq	.L1
  41              	.LBB2:
  69:VS4210/TOA_Protocol.c **** 	{
  70:VS4210/TOA_Protocol.c **** 		BYTE c= RS2_rx();
  42              		.loc 1 70 0
  43 000c FFF7FEFF 		bl	RS2_rx
  44              	.LVL1:
  45 0010 0446     		mov	r4, r0
ARM GAS  /tmp/ccbUCoVk.s 			page 3


  46              	.LVL2:
  71:VS4210/TOA_Protocol.c **** 		
  72:VS4210/TOA_Protocol.c **** 		if ((c == MCU_PROTOCOL_CMD_Sync)&&(protocol_state==PROTOCOL_STATE_NONE))
  47              		.loc 1 72 0
  48 0012 FF28     		cmp	r0, #255
  49 0014 0FD1     		bne	.L3
  50              		.loc 1 72 0 is_stmt 0 discriminator 1
  51 0016 AF4B     		ldr	r3, .L50
  52 0018 1B78     		ldrb	r3, [r3]	@ zero_extendqisi2
  53 001a 63B9     		cbnz	r3, .L3
  73:VS4210/TOA_Protocol.c **** 		{	
  74:VS4210/TOA_Protocol.c **** 			#if(_DEBUG_MESSAGE_UART_Protocol==ON)
  75:VS4210/TOA_Protocol.c **** 			GraphicsPrint(CYAN,"\r\n(GOT)");
  54              		.loc 1 75 0 is_stmt 1
  55 001c 0620     		movs	r0, #6
  56              	.LVL3:
  57 001e AE49     		ldr	r1, .L50+4
  58 0020 FFF7FEFF 		bl	GraphicsPrint
  59              	.LVL4:
  76:VS4210/TOA_Protocol.c **** 			#endif
  77:VS4210/TOA_Protocol.c **** 			//protocol_escape_flag = 0;
  78:VS4210/TOA_Protocol.c **** 			protocol_state = PROTOCOL_STATE_Sync;
  60              		.loc 1 78 0
  61 0024 0123     		movs	r3, #1
  62 0026 AB4A     		ldr	r2, .L50
  63 0028 1370     		strb	r3, [r2]
  79:VS4210/TOA_Protocol.c **** 			protocol_chksum = 0;
  64              		.loc 1 79 0
  65 002a 0021     		movs	r1, #0
  66 002c AB4A     		ldr	r2, .L50+8
  67 002e 1170     		strb	r1, [r2]
  80:VS4210/TOA_Protocol.c **** 			protocol_data_count=1;
  68              		.loc 1 80 0
  69 0030 AB4A     		ldr	r2, .L50+12
  70 0032 1370     		strb	r3, [r2]
  81:VS4210/TOA_Protocol.c **** 			return;	
  71              		.loc 1 81 0
  72 0034 10BD     		pop	{r4, pc}
  73              	.LVL5:
  74              	.L3:
  82:VS4210/TOA_Protocol.c **** 		}else if(protocol_data_count>8)//reset command error
  75              		.loc 1 82 0
  76 0036 AA4B     		ldr	r3, .L50+12
  77 0038 1B78     		ldrb	r3, [r3]	@ zero_extendqisi2
  78 003a 082B     		cmp	r3, #8
  79 003c 06D9     		bls	.L4
  83:VS4210/TOA_Protocol.c **** 			{
  84:VS4210/TOA_Protocol.c **** 					#if(_DEBUG_MESSAGE_UART_Protocol==ON)
  85:VS4210/TOA_Protocol.c **** 					GraphicsPrint(RED,"\r\n(protocol_data_count>8)");
  80              		.loc 1 85 0
  81 003e 0120     		movs	r0, #1
  82              	.LVL6:
  83 0040 A849     		ldr	r1, .L50+16
  84 0042 FFF7FEFF 		bl	GraphicsPrint
  85              	.LVL7:
  86:VS4210/TOA_Protocol.c **** 					#endif
  87:VS4210/TOA_Protocol.c **** 					protocol_state=PROTOCOL_STATE_NONE; 
ARM GAS  /tmp/ccbUCoVk.s 			page 4


  86              		.loc 1 87 0
  87 0046 0022     		movs	r2, #0
  88 0048 A24B     		ldr	r3, .L50
  89 004a 1A70     		strb	r2, [r3]
  90              	.L4:
  88:VS4210/TOA_Protocol.c **** 
  89:VS4210/TOA_Protocol.c **** 			}
  90:VS4210/TOA_Protocol.c **** 	
  91:VS4210/TOA_Protocol.c **** 		
  92:VS4210/TOA_Protocol.c **** 		/*
  93:VS4210/TOA_Protocol.c **** 		if (c == 0x7D)
  94:VS4210/TOA_Protocol.c **** 		{
  95:VS4210/TOA_Protocol.c **** 			protocol_escape_flag = 1;
  96:VS4210/TOA_Protocol.c **** 			return;
  97:VS4210/TOA_Protocol.c **** 		}
  98:VS4210/TOA_Protocol.c **** 	
  99:VS4210/TOA_Protocol.c **** 		if (protocol_escape_flag)
 100:VS4210/TOA_Protocol.c **** 		{
 101:VS4210/TOA_Protocol.c **** 			protocol_escape_flag = 0;
 102:VS4210/TOA_Protocol.c **** 			c |= 0x70;
 103:VS4210/TOA_Protocol.c **** 		}
 104:VS4210/TOA_Protocol.c **** 		*/
 105:VS4210/TOA_Protocol.c **** 
 106:VS4210/TOA_Protocol.c **** 		if ((protocol_state != PROTOCOL_STATE_CHECKSUM)&&(protocol_state != PROTOCOL_STATE_Sync)&&(protoc
  91              		.loc 1 106 0
  92 004c A14B     		ldr	r3, .L50
  93 004e 1B78     		ldrb	r3, [r3]	@ zero_extendqisi2
  94 0050 072B     		cmp	r3, #7
  95 0052 07D0     		beq	.L5
  96              		.loc 1 106 0 is_stmt 0 discriminator 1
  97 0054 012B     		cmp	r3, #1
  98 0056 05D0     		beq	.L5
  99              		.loc 1 106 0 discriminator 2
 100 0058 022B     		cmp	r3, #2
 101 005a 03D0     		beq	.L5
 107:VS4210/TOA_Protocol.c **** 		{
 108:VS4210/TOA_Protocol.c **** 			//protocol_chksum ^= c;
 109:VS4210/TOA_Protocol.c **** 			protocol_chksum += c;
 102              		.loc 1 109 0 is_stmt 1
 103 005c 9F49     		ldr	r1, .L50+8
 104 005e 0A78     		ldrb	r2, [r1]	@ zero_extendqisi2
 105 0060 2244     		add	r2, r2, r4
 106 0062 0A70     		strb	r2, [r1]
 107              	.L5:
 110:VS4210/TOA_Protocol.c **** 		}
 111:VS4210/TOA_Protocol.c **** 
 112:VS4210/TOA_Protocol.c **** 
 113:VS4210/TOA_Protocol.c **** 		switch (protocol_state)
 108              		.loc 1 113 0
 109 0064 013B     		subs	r3, r3, #1
 110 0066 062B     		cmp	r3, #6
 111 0068 00F20983 		bhi	.L6
 112 006c DFE813F0 		tbh	[pc, r3, lsl #1]
 113              	.L8:
 114 0070 0700     		.2byte	(.L7-.L8)/2
 115 0072 0703     		.2byte	(.L6-.L8)/2
 116 0074 1400     		.2byte	(.L9-.L8)/2
ARM GAS  /tmp/ccbUCoVk.s 			page 5


 117 0076 1E00     		.2byte	(.L10-.L8)/2
 118 0078 2B00     		.2byte	(.L11-.L8)/2
 119 007a 3500     		.2byte	(.L12-.L8)/2
 120 007c 4200     		.2byte	(.L13-.L8)/2
 121              		.p2align 1
 122              	.L7:
 114:VS4210/TOA_Protocol.c **** 				{
 115:VS4210/TOA_Protocol.c **** 				case PROTOCOL_STATE_Sync:
 116:VS4210/TOA_Protocol.c **** 
 117:VS4210/TOA_Protocol.c **** 					#if(_DEBUG_MESSAGE_UART_Protocol==ON)
 118:VS4210/TOA_Protocol.c **** 						//GraphicsPrint(YELLOW,"(1=%02x)",(WORD)c);
 119:VS4210/TOA_Protocol.c **** 						#endif
 120:VS4210/TOA_Protocol.c **** 					if(c==MCU_PROTOCOL_CMD_ADDR)
 123              		.loc 1 120 0
 124 007e 1CB9     		cbnz	r4, .L14
 121:VS4210/TOA_Protocol.c **** 						protocol_state=PROTOCOL_STATE_COM1;
 125              		.loc 1 121 0
 126 0080 0322     		movs	r2, #3
 127 0082 944B     		ldr	r3, .L50
 128 0084 1A70     		strb	r2, [r3]
 129 0086 02E0     		b	.L15
 130              	.L14:
 122:VS4210/TOA_Protocol.c **** 					else
 123:VS4210/TOA_Protocol.c **** 						protocol_state=PROTOCOL_STATE_NONE;	
 131              		.loc 1 123 0
 132 0088 0022     		movs	r2, #0
 133 008a 924B     		ldr	r3, .L50
 134 008c 1A70     		strb	r2, [r3]
 135              	.L15:
 124:VS4210/TOA_Protocol.c **** 
 125:VS4210/TOA_Protocol.c **** 					protocol_data_count++;
 136              		.loc 1 125 0
 137 008e 944A     		ldr	r2, .L50+12
 138 0090 1378     		ldrb	r3, [r2]	@ zero_extendqisi2
 139 0092 0133     		adds	r3, r3, #1
 140 0094 1370     		strb	r3, [r2]
 126:VS4210/TOA_Protocol.c **** 					break;
 141              		.loc 1 126 0
 142 0096 F9E2     		b	.L16
 143              	.L9:
 127:VS4210/TOA_Protocol.c **** 					
 128:VS4210/TOA_Protocol.c **** 				case PROTOCOL_STATE_COM1:
 129:VS4210/TOA_Protocol.c **** 
 130:VS4210/TOA_Protocol.c ****                                                #if(_DEBUG_MESSAGE_UART_Protocol==ON)
 131:VS4210/TOA_Protocol.c **** 						//GraphicsPrint(YELLOW,"(2=%02x)",(WORD)c);
 132:VS4210/TOA_Protocol.c **** 	                                        #endif
 133:VS4210/TOA_Protocol.c **** 											
 134:VS4210/TOA_Protocol.c **** 						protocol_cmd=c;
 144              		.loc 1 134 0
 145 0098 934B     		ldr	r3, .L50+20
 146 009a 1C60     		str	r4, [r3]
 135:VS4210/TOA_Protocol.c **** 						protocol_state=PROTOCOL_STATE_COM2;
 147              		.loc 1 135 0
 148 009c 0422     		movs	r2, #4
 149 009e 8D4B     		ldr	r3, .L50
 150 00a0 1A70     		strb	r2, [r3]
 136:VS4210/TOA_Protocol.c **** 						protocol_data_count++;
ARM GAS  /tmp/ccbUCoVk.s 			page 6


 151              		.loc 1 136 0
 152 00a2 8F4A     		ldr	r2, .L50+12
 153 00a4 1378     		ldrb	r3, [r2]	@ zero_extendqisi2
 154 00a6 0133     		adds	r3, r3, #1
 155 00a8 1370     		strb	r3, [r2]
 137:VS4210/TOA_Protocol.c **** 					break;
 156              		.loc 1 137 0
 157 00aa EFE2     		b	.L16
 158              	.L10:
 138:VS4210/TOA_Protocol.c **** 
 139:VS4210/TOA_Protocol.c **** 				case PROTOCOL_STATE_COM2:
 140:VS4210/TOA_Protocol.c **** 					
 141:VS4210/TOA_Protocol.c ****                                                #if(_DEBUG_MESSAGE_UART_Protocol==ON)
 142:VS4210/TOA_Protocol.c **** 						//GraphicsPrint(YELLOW,"(3=%02x)",(WORD)c);
 143:VS4210/TOA_Protocol.c **** 	                                        #endif
 144:VS4210/TOA_Protocol.c **** 				
 145:VS4210/TOA_Protocol.c **** 						protocol_cmd=((protocol_cmd<<8)|c);
 159              		.loc 1 145 0
 160 00ac 8E4A     		ldr	r2, .L50+20
 161 00ae 1368     		ldr	r3, [r2]
 162 00b0 44EA0324 		orr	r4, r4, r3, lsl #8
 163 00b4 1460     		str	r4, [r2]
 146:VS4210/TOA_Protocol.c **** 						protocol_state=PROTOCOL_STATE_DATA1;				
 164              		.loc 1 146 0
 165 00b6 0522     		movs	r2, #5
 166 00b8 864B     		ldr	r3, .L50
 167 00ba 1A70     		strb	r2, [r3]
 147:VS4210/TOA_Protocol.c **** 					protocol_data_count++;
 168              		.loc 1 147 0
 169 00bc 884A     		ldr	r2, .L50+12
 170 00be 1378     		ldrb	r3, [r2]	@ zero_extendqisi2
 171 00c0 0133     		adds	r3, r3, #1
 172 00c2 1370     		strb	r3, [r2]
 148:VS4210/TOA_Protocol.c **** 					break;
 173              		.loc 1 148 0
 174 00c4 E2E2     		b	.L16
 175              	.L11:
 149:VS4210/TOA_Protocol.c **** 				case PROTOCOL_STATE_DATA1:	
 150:VS4210/TOA_Protocol.c **** 					#if(_DEBUG_MESSAGE_UART_Protocol==ON)
 151:VS4210/TOA_Protocol.c **** 						//GraphicsPrint(YELLOW,"(4=%02x)",(WORD)c);
 152:VS4210/TOA_Protocol.c **** 						#endif
 153:VS4210/TOA_Protocol.c **** 				
 154:VS4210/TOA_Protocol.c **** 						protocol_data=c;
 176              		.loc 1 154 0
 177 00c6 894B     		ldr	r3, .L50+24
 178 00c8 1C60     		str	r4, [r3]
 155:VS4210/TOA_Protocol.c **** 						protocol_state=PROTOCOL_STATE_DATA2;				
 179              		.loc 1 155 0
 180 00ca 0622     		movs	r2, #6
 181 00cc 814B     		ldr	r3, .L50
 182 00ce 1A70     		strb	r2, [r3]
 156:VS4210/TOA_Protocol.c **** 						protocol_data_count++;		
 183              		.loc 1 156 0
 184 00d0 834A     		ldr	r2, .L50+12
 185 00d2 1378     		ldrb	r3, [r2]	@ zero_extendqisi2
 186 00d4 0133     		adds	r3, r3, #1
 187 00d6 1370     		strb	r3, [r2]
ARM GAS  /tmp/ccbUCoVk.s 			page 7


 157:VS4210/TOA_Protocol.c **** 					break;
 188              		.loc 1 157 0
 189 00d8 D8E2     		b	.L16
 190              	.L12:
 158:VS4210/TOA_Protocol.c **** 				case PROTOCOL_STATE_DATA2:	
 159:VS4210/TOA_Protocol.c **** 						#if(_DEBUG_MESSAGE_UART_Protocol==ON)
 160:VS4210/TOA_Protocol.c **** 						//GraphicsPrint(YELLOW,"(5=%02x)",(WORD)c);
 161:VS4210/TOA_Protocol.c **** 						#endif
 162:VS4210/TOA_Protocol.c **** 						protocol_data=((protocol_data<<8)|c);
 191              		.loc 1 162 0
 192 00da 844A     		ldr	r2, .L50+24
 193 00dc 1368     		ldr	r3, [r2]
 194 00de 44EA0324 		orr	r4, r4, r3, lsl #8
 195 00e2 1460     		str	r4, [r2]
 163:VS4210/TOA_Protocol.c **** 						protocol_state=PROTOCOL_STATE_CHECKSUM;	
 196              		.loc 1 163 0
 197 00e4 0722     		movs	r2, #7
 198 00e6 7B4B     		ldr	r3, .L50
 199 00e8 1A70     		strb	r2, [r3]
 164:VS4210/TOA_Protocol.c **** 						protocol_data_count++;
 200              		.loc 1 164 0
 201 00ea 7D4A     		ldr	r2, .L50+12
 202 00ec 1378     		ldrb	r3, [r2]	@ zero_extendqisi2
 203 00ee 0133     		adds	r3, r3, #1
 204 00f0 1370     		strb	r3, [r2]
 165:VS4210/TOA_Protocol.c **** 					break;
 205              		.loc 1 165 0
 206 00f2 CBE2     		b	.L16
 207              	.L13:
 166:VS4210/TOA_Protocol.c **** 				case PROTOCOL_STATE_CHECKSUM:		
 167:VS4210/TOA_Protocol.c **** 						if(c==protocol_chksum)
 208              		.loc 1 167 0
 209 00f4 794B     		ldr	r3, .L50+8
 210 00f6 1B78     		ldrb	r3, [r3]	@ zero_extendqisi2
 211 00f8 9C42     		cmp	r4, r3
 212 00fa 40F0B882 		bne	.L17
 168:VS4210/TOA_Protocol.c **** 						{
 169:VS4210/TOA_Protocol.c **** 							protocol_data_count++;
 213              		.loc 1 169 0
 214 00fe 784A     		ldr	r2, .L50+12
 215 0100 1378     		ldrb	r3, [r2]	@ zero_extendqisi2
 216 0102 0133     		adds	r3, r3, #1
 217 0104 1370     		strb	r3, [r2]
 170:VS4210/TOA_Protocol.c **** 							switch(protocol_cmd)
 218              		.loc 1 170 0
 219 0106 784B     		ldr	r3, .L50+20
 220 0108 1B68     		ldr	r3, [r3]
 221 010a 102B     		cmp	r3, #16
 222 010c 00F07581 		beq	.L19
 223 0110 1AD8     		bhi	.L20
 224 0112 042B     		cmp	r3, #4
 225 0114 00F05981 		beq	.L21
 226 0118 08D8     		bhi	.L22
 227 011a 022B     		cmp	r3, #2
 228 011c 00F03D81 		beq	.L23
 229 0120 00F23B82 		bhi	.L24
 230 0124 002B     		cmp	r3, #0
ARM GAS  /tmp/ccbUCoVk.s 			page 8


 231 0126 00F0FB80 		beq	.L25
 232 012a 9CE2     		b	.L18
 233              	.L22:
 234 012c 082B     		cmp	r3, #8
 235 012e 00F01C81 		beq	.L26
 236 0132 02D8     		bhi	.L27
 237 0134 072B     		cmp	r3, #7
 238 0136 29D0     		beq	.L28
 239 0138 95E2     		b	.L18
 240              	.L27:
 241 013a 0A2B     		cmp	r3, #10
 242 013c 00F07581 		beq	.L29
 243 0140 0C2B     		cmp	r3, #12
 244 0142 00F0A281 		beq	.L30
 245 0146 8EE2     		b	.L18
 246              	.L20:
 247 0148 402B     		cmp	r3, #64
 248 014a 00F0E481 		beq	.L31
 249 014e 09D8     		bhi	.L32
 250 0150 142B     		cmp	r3, #20
 251 0152 00F0B281 		beq	.L33
 252 0156 202B     		cmp	r3, #32
 253 0158 00F0C781 		beq	.L34
 254 015c 122B     		cmp	r3, #18
 255 015e 40F08282 		bne	.L18
 256 0162 7AE1     		b	.L35
 257              	.L32:
 258 0164 B3F5807F 		cmp	r3, #256
 259 0168 00F0EB81 		beq	.L36
 260 016c 03D8     		bhi	.L37
 261 016e 802B     		cmp	r3, #128
 262 0170 00F0FD81 		beq	.L38
 263 0174 77E2     		b	.L18
 264              	.L37:
 265 0176 41F21112 		movw	r2, #4369
 266 017a 9342     		cmp	r3, r2
 267 017c 00F05082 		beq	.L39
 268 0180 42F22222 		movw	r2, #8738
 269 0184 9342     		cmp	r3, r2
 270 0186 00F06082 		beq	.L40
 271 018a 6CE2     		b	.L18
 272              	.L28:
 171:VS4210/TOA_Protocol.c **** 							{
 172:VS4210/TOA_Protocol.c **** 							case MCU_PROTOCOL_CMD_VERSION:
 173:VS4210/TOA_Protocol.c **** 
 174:VS4210/TOA_Protocol.c **** 								 if(protocol_data==MCU_PROTOCOL_DATA_VERSION)		
 273              		.loc 1 174 0
 274 018c 574B     		ldr	r3, .L50+24
 275 018e 1B68     		ldr	r3, [r3]
 276 0190 C92B     		cmp	r3, #201
 277 0192 15D1     		bne	.L41
 175:VS4210/TOA_Protocol.c **** 							 	{
 176:VS4210/TOA_Protocol.c **** 								#if(_DEBUG_MESSAGE_UART_Protocol==ON)
 177:VS4210/TOA_Protocol.c **** 								//GraphicsPrint(YELLOW,"\r\n(Sent MCU VER)");
 178:VS4210/TOA_Protocol.c **** 								#endif
 179:VS4210/TOA_Protocol.c **** 						
 180:VS4210/TOA_Protocol.c **** 								RS2_tx(0xFF);
ARM GAS  /tmp/ccbUCoVk.s 			page 9


 278              		.loc 1 180 0
 279 0194 FF20     		movs	r0, #255
 280 0196 FFF7FEFF 		bl	RS2_tx
 281              	.LVL8:
 181:VS4210/TOA_Protocol.c **** 								RS2_tx(0x00);
 282              		.loc 1 181 0
 283 019a 0020     		movs	r0, #0
 284 019c FFF7FEFF 		bl	RS2_tx
 285              	.LVL9:
 182:VS4210/TOA_Protocol.c **** 								RS2_tx(0x00);
 286              		.loc 1 182 0
 287 01a0 0020     		movs	r0, #0
 288 01a2 FFF7FEFF 		bl	RS2_tx
 289              	.LVL10:
 183:VS4210/TOA_Protocol.c **** 								RS2_tx(0x07);
 290              		.loc 1 183 0
 291 01a6 0720     		movs	r0, #7
 292 01a8 FFF7FEFF 		bl	RS2_tx
 293              	.LVL11:
 184:VS4210/TOA_Protocol.c **** 
 185:VS4210/TOA_Protocol.c **** 								//RS2_tx(((MCU_FW_Major0<<4)|(MCU_FW_Major1)));//DATA1
 186:VS4210/TOA_Protocol.c **** 								//RS2_tx(((MCU_FW_Sub0<<4)|(MCU_FW_Sub1)));//DATA2
 187:VS4210/TOA_Protocol.c **** 								//FWVER
 188:VS4210/TOA_Protocol.c **** 								RS2_tx((BYTE)(FWVER>>8));//DATA1
 294              		.loc 1 188 0
 295 01ac 1020     		movs	r0, #16
 296 01ae FFF7FEFF 		bl	RS2_tx
 297              	.LVL12:
 189:VS4210/TOA_Protocol.c **** 								RS2_tx((BYTE)(FWVER));//DATA2
 298              		.loc 1 189 0
 299 01b2 0720     		movs	r0, #7
 300 01b4 FFF7FEFF 		bl	RS2_tx
 301              	.LVL13:
 190:VS4210/TOA_Protocol.c **** 									
 191:VS4210/TOA_Protocol.c **** 								//Check SUM
 192:VS4210/TOA_Protocol.c **** 								//RS2_tx(0x07+((MCU_FW_Major0<<4)|(MCU_FW_Major1))+((MCU_FW_Sub0<<4)|(MCU_FW_Sub1)));
 193:VS4210/TOA_Protocol.c **** 								RS2_tx(0x07+((BYTE)(FWVER>>8))+((BYTE)(FWVER)));
 302              		.loc 1 193 0
 303 01b8 1E20     		movs	r0, #30
 304 01ba FFF7FEFF 		bl	RS2_tx
 305              	.LVL14:
 306 01be 52E2     		b	.L18
 307              	.L41:
 194:VS4210/TOA_Protocol.c **** 
 195:VS4210/TOA_Protocol.c **** 							 	}
 196:VS4210/TOA_Protocol.c **** 						else	if(((protocol_data>=0x00)&&(protocol_data<=0x40))||((protocol_data>=0x64)&&(protocol_dat
 308              		.loc 1 196 0
 309 01c0 402B     		cmp	r3, #64
 310 01c2 03D9     		bls	.L42
 311              		.loc 1 196 0 is_stmt 0 discriminator 1
 312 01c4 A3F16402 		sub	r2, r3, #100
 313 01c8 642A     		cmp	r2, #100
 314 01ca 17D8     		bhi	.L43
 315              	.L42:
 197:VS4210/TOA_Protocol.c **** 						{
 198:VS4210/TOA_Protocol.c **** 							#if(_DEBUG_MESSAGE_UART_Protocol==ON)
 199:VS4210/TOA_Protocol.c **** 							GraphicsPrint(MAGENTA,"(CMD:PRESET_LOAD)");
ARM GAS  /tmp/ccbUCoVk.s 			page 10


 316              		.loc 1 199 0 is_stmt 1
 317 01cc 0520     		movs	r0, #5
 318 01ce 4849     		ldr	r1, .L50+28
 319 01d0 FFF7FEFF 		bl	GraphicsPrint
 320              	.LVL15:
 200:VS4210/TOA_Protocol.c **** 							#endif
 201:VS4210/TOA_Protocol.c **** 
 202:VS4210/TOA_Protocol.c **** 							TVI_Command=0x22;
 321              		.loc 1 202 0
 322 01d4 2222     		movs	r2, #34
 323 01d6 474B     		ldr	r3, .L50+32
 324 01d8 1A70     		strb	r2, [r3]
 203:VS4210/TOA_Protocol.c **** 							presetNum=protocol_data;
 325              		.loc 1 203 0
 326 01da 444B     		ldr	r3, .L50+24
 327 01dc 1A68     		ldr	r2, [r3]
 328 01de 464B     		ldr	r3, .L50+36
 329 01e0 1A70     		strb	r2, [r3]
 204:VS4210/TOA_Protocol.c **** 							TVI_speed=0;
 330              		.loc 1 204 0
 331 01e2 0022     		movs	r2, #0
 332 01e4 454B     		ldr	r3, .L50+40
 333 01e6 1A70     		strb	r2, [r3]
 205:VS4210/TOA_Protocol.c **** 							TVI_Chksum=0xC5;
 334              		.loc 1 205 0
 335 01e8 C522     		movs	r2, #197
 336 01ea 454B     		ldr	r3, .L50+44
 337 01ec 1A70     		strb	r2, [r3]
 206:VS4210/TOA_Protocol.c **** 							ptztxflag=1;	
 338              		.loc 1 206 0
 339 01ee 0122     		movs	r2, #1
 340 01f0 444B     		ldr	r3, .L50+48
 341 01f2 1A60     		str	r2, [r3]
 207:VS4210/TOA_Protocol.c **** 							CMDCount=3;
 342              		.loc 1 207 0
 343 01f4 0322     		movs	r2, #3
 344 01f6 444B     		ldr	r3, .L50+52
 345 01f8 1A70     		strb	r2, [r3]
 346 01fa 34E2     		b	.L18
 347              	.L43:
 208:VS4210/TOA_Protocol.c **** 
 209:VS4210/TOA_Protocol.c **** 						}
 210:VS4210/TOA_Protocol.c **** 					else if(protocol_data==0x42)
 348              		.loc 1 210 0
 349 01fc 422B     		cmp	r3, #66
 350 01fe 16D1     		bne	.L44
 211:VS4210/TOA_Protocol.c **** 						{
 212:VS4210/TOA_Protocol.c **** 								#if(_DEBUG_MESSAGE_UART_Protocol==ON)
 213:VS4210/TOA_Protocol.c **** 								GraphicsPrint(MAGENTA,"(CMD:AUTO_SCAN)");
 351              		.loc 1 213 0
 352 0200 0520     		movs	r0, #5
 353 0202 4249     		ldr	r1, .L50+56
 354 0204 FFF7FEFF 		bl	GraphicsPrint
 355              	.LVL16:
 214:VS4210/TOA_Protocol.c **** 								#endif
 215:VS4210/TOA_Protocol.c **** 							TVI_Command=0x23;
 356              		.loc 1 215 0
ARM GAS  /tmp/ccbUCoVk.s 			page 11


 357 0208 2322     		movs	r2, #35
 358 020a 3A4B     		ldr	r3, .L50+32
 359 020c 1A70     		strb	r2, [r3]
 216:VS4210/TOA_Protocol.c **** 							presetNum=protocol_data;
 360              		.loc 1 216 0
 361 020e 374B     		ldr	r3, .L50+24
 362 0210 1A68     		ldr	r2, [r3]
 363 0212 394B     		ldr	r3, .L50+36
 364 0214 1A70     		strb	r2, [r3]
 217:VS4210/TOA_Protocol.c **** 							TVI_speed=0;
 365              		.loc 1 217 0
 366 0216 0023     		movs	r3, #0
 367 0218 384A     		ldr	r2, .L50+40
 368 021a 1370     		strb	r3, [r2]
 218:VS4210/TOA_Protocol.c **** 							TVI_Chksum=00;
 369              		.loc 1 218 0
 370 021c 384A     		ldr	r2, .L50+44
 371 021e 1370     		strb	r3, [r2]
 219:VS4210/TOA_Protocol.c **** 							ptztxflag=1;
 372              		.loc 1 219 0
 373 0220 0122     		movs	r2, #1
 374 0222 384B     		ldr	r3, .L50+48
 375 0224 1A60     		str	r2, [r3]
 220:VS4210/TOA_Protocol.c **** 							CMDCount=3;
 376              		.loc 1 220 0
 377 0226 0322     		movs	r2, #3
 378 0228 374B     		ldr	r3, .L50+52
 379 022a 1A70     		strb	r2, [r3]
 380 022c 1BE2     		b	.L18
 381              	.L44:
 221:VS4210/TOA_Protocol.c **** 							
 222:VS4210/TOA_Protocol.c **** 						}
 223:VS4210/TOA_Protocol.c **** 					else if(((protocol_data>=0x47)&&(protocol_data<=0x4E)))				
 382              		.loc 1 223 0
 383 022e A3F14702 		sub	r2, r3, #71
 384 0232 072A     		cmp	r2, #7
 385 0234 16D8     		bhi	.L45
 224:VS4210/TOA_Protocol.c **** 						{
 225:VS4210/TOA_Protocol.c **** 							#if(_DEBUG_MESSAGE_UART_Protocol==ON)
 226:VS4210/TOA_Protocol.c **** 							GraphicsPrint(MAGENTA,"(CMD:GROUP_TOUR)");
 386              		.loc 1 226 0
 387 0236 0520     		movs	r0, #5
 388 0238 3549     		ldr	r1, .L50+60
 389 023a FFF7FEFF 		bl	GraphicsPrint
 390              	.LVL17:
 227:VS4210/TOA_Protocol.c **** 							#endif
 228:VS4210/TOA_Protocol.c **** 							TVI_Command=0x24;
 391              		.loc 1 228 0
 392 023e 2422     		movs	r2, #36
 393 0240 2C4B     		ldr	r3, .L50+32
 394 0242 1A70     		strb	r2, [r3]
 229:VS4210/TOA_Protocol.c **** 							presetNum=protocol_data;
 395              		.loc 1 229 0
 396 0244 294B     		ldr	r3, .L50+24
 397 0246 1A68     		ldr	r2, [r3]
 398 0248 2B4B     		ldr	r3, .L50+36
 399 024a 1A70     		strb	r2, [r3]
ARM GAS  /tmp/ccbUCoVk.s 			page 12


 230:VS4210/TOA_Protocol.c **** 							TVI_speed=0;
 400              		.loc 1 230 0
 401 024c 0023     		movs	r3, #0
 402 024e 2B4A     		ldr	r2, .L50+40
 403 0250 1370     		strb	r3, [r2]
 231:VS4210/TOA_Protocol.c **** 							TVI_Chksum=00;
 404              		.loc 1 231 0
 405 0252 2B4A     		ldr	r2, .L50+44
 406 0254 1370     		strb	r3, [r2]
 232:VS4210/TOA_Protocol.c **** 							ptztxflag=1;	
 407              		.loc 1 232 0
 408 0256 0122     		movs	r2, #1
 409 0258 2A4B     		ldr	r3, .L50+48
 410 025a 1A60     		str	r2, [r3]
 233:VS4210/TOA_Protocol.c **** 							CMDCount=3;
 411              		.loc 1 233 0
 412 025c 0322     		movs	r2, #3
 413 025e 2A4B     		ldr	r3, .L50+52
 414 0260 1A70     		strb	r2, [r3]
 415 0262 00E2     		b	.L18
 416              	.L45:
 234:VS4210/TOA_Protocol.c ****                             			}				
 235:VS4210/TOA_Protocol.c **** 					else if(protocol_data==0x5F)
 417              		.loc 1 235 0
 418 0264 5F2B     		cmp	r3, #95
 419 0266 16D1     		bne	.L46
 236:VS4210/TOA_Protocol.c **** 						{
 237:VS4210/TOA_Protocol.c **** 							#if(_DEBUG_MESSAGE_UART_Protocol==ON)
 238:VS4210/TOA_Protocol.c **** 							GraphicsPrint(YELLOW,"(CMD:OSD_MENU)");
 420              		.loc 1 238 0
 421 0268 0320     		movs	r0, #3
 422 026a 2A49     		ldr	r1, .L50+64
 423 026c FFF7FEFF 		bl	GraphicsPrint
 424              	.LVL18:
 239:VS4210/TOA_Protocol.c **** 							#endif
 240:VS4210/TOA_Protocol.c **** 							TVI_Command=0x25;
 425              		.loc 1 240 0
 426 0270 2522     		movs	r2, #37
 427 0272 204B     		ldr	r3, .L50+32
 428 0274 1A70     		strb	r2, [r3]
 241:VS4210/TOA_Protocol.c **** 							presetNum=protocol_data;
 429              		.loc 1 241 0
 430 0276 1D4B     		ldr	r3, .L50+24
 431 0278 1A68     		ldr	r2, [r3]
 432 027a 1F4B     		ldr	r3, .L50+36
 433 027c 1A70     		strb	r2, [r3]
 242:VS4210/TOA_Protocol.c **** 							TVI_speed=0;
 434              		.loc 1 242 0
 435 027e 0023     		movs	r3, #0
 436 0280 1E4A     		ldr	r2, .L50+40
 437 0282 1370     		strb	r3, [r2]
 243:VS4210/TOA_Protocol.c **** 							TVI_Chksum=00;
 438              		.loc 1 243 0
 439 0284 1E4A     		ldr	r2, .L50+44
 440 0286 1370     		strb	r3, [r2]
 244:VS4210/TOA_Protocol.c **** 							ptztxflag=1;	
 441              		.loc 1 244 0
ARM GAS  /tmp/ccbUCoVk.s 			page 13


 442 0288 0122     		movs	r2, #1
 443 028a 1E4B     		ldr	r3, .L50+48
 444 028c 1A60     		str	r2, [r3]
 245:VS4210/TOA_Protocol.c **** 							CMDCount=3;
 445              		.loc 1 245 0
 446 028e 0322     		movs	r2, #3
 447 0290 1D4B     		ldr	r3, .L50+52
 448 0292 1A70     		strb	r2, [r3]
 449 0294 E7E1     		b	.L18
 450              	.L46:
 246:VS4210/TOA_Protocol.c **** 						}
 247:VS4210/TOA_Protocol.c **** 					else if(protocol_data==0x60)
 451              		.loc 1 247 0
 452 0296 602B     		cmp	r3, #96
 453 0298 16D1     		bne	.L47
 248:VS4210/TOA_Protocol.c **** 						{
 249:VS4210/TOA_Protocol.c **** 							#if(_DEBUG_MESSAGE_UART_Protocol==ON)
 250:VS4210/TOA_Protocol.c **** 							GraphicsPrint(CYAN,"(CMD:FOCUS_ADJUST)");
 454              		.loc 1 250 0
 455 029a 0620     		movs	r0, #6
 456 029c 1E49     		ldr	r1, .L50+68
 457 029e FFF7FEFF 		bl	GraphicsPrint
 458              	.LVL19:
 251:VS4210/TOA_Protocol.c **** 							#endif	
 252:VS4210/TOA_Protocol.c **** 							TVI_Command=0x26;
 459              		.loc 1 252 0
 460 02a2 2622     		movs	r2, #38
 461 02a4 134B     		ldr	r3, .L50+32
 462 02a6 1A70     		strb	r2, [r3]
 253:VS4210/TOA_Protocol.c **** 							presetNum=protocol_data;
 463              		.loc 1 253 0
 464 02a8 104B     		ldr	r3, .L50+24
 465 02aa 1A68     		ldr	r2, [r3]
 466 02ac 124B     		ldr	r3, .L50+36
 467 02ae 1A70     		strb	r2, [r3]
 254:VS4210/TOA_Protocol.c **** 							TVI_speed=0;
 468              		.loc 1 254 0
 469 02b0 0023     		movs	r3, #0
 470 02b2 124A     		ldr	r2, .L50+40
 471 02b4 1370     		strb	r3, [r2]
 255:VS4210/TOA_Protocol.c **** 							TVI_Chksum=00;
 472              		.loc 1 255 0
 473 02b6 124A     		ldr	r2, .L50+44
 474 02b8 1370     		strb	r3, [r2]
 256:VS4210/TOA_Protocol.c **** 							ptztxflag=1;	
 475              		.loc 1 256 0
 476 02ba 0122     		movs	r2, #1
 477 02bc 114B     		ldr	r3, .L50+48
 478 02be 1A60     		str	r2, [r3]
 257:VS4210/TOA_Protocol.c **** 							CMDCount=3;
 479              		.loc 1 257 0
 480 02c0 0322     		movs	r2, #3
 481 02c2 114B     		ldr	r3, .L50+52
 482 02c4 1A70     		strb	r2, [r3]
 483 02c6 CEE1     		b	.L18
 484              	.L47:
 258:VS4210/TOA_Protocol.c **** 						}
ARM GAS  /tmp/ccbUCoVk.s 			page 14


 259:VS4210/TOA_Protocol.c **** 					else{
 260:VS4210/TOA_Protocol.c **** 
 261:VS4210/TOA_Protocol.c **** 						#if(_DEBUG_MESSAGE_UART_Protocol==ON)
 262:VS4210/TOA_Protocol.c **** 						GraphicsPrint(RED,"(1CMD: ERROR)");
 485              		.loc 1 262 0
 486 02c8 0120     		movs	r0, #1
 487 02ca 1449     		ldr	r1, .L50+72
 488 02cc FFF7FEFF 		bl	GraphicsPrint
 489              	.LVL20:
 490 02d0 C9E1     		b	.L18
 491              	.L51:
 492 02d2 00BF     		.align	2
 493              	.L50:
 494 02d4 00000000 		.word	.LANCHOR0
 495 02d8 00000000 		.word	.LC0
 496 02dc 00000000 		.word	protocol_chksum
 497 02e0 00000000 		.word	.LANCHOR1
 498 02e4 08000000 		.word	.LC1
 499 02e8 00000000 		.word	.LANCHOR2
 500 02ec 00000000 		.word	.LANCHOR3
 501 02f0 24000000 		.word	.LC2
 502 02f4 00000000 		.word	TVI_Command
 503 02f8 00000000 		.word	presetNum
 504 02fc 00000000 		.word	TVI_speed
 505 0300 00000000 		.word	TVI_Chksum
 506 0304 00000000 		.word	ptztxflag
 507 0308 00000000 		.word	.LANCHOR4
 508 030c 38000000 		.word	.LC3
 509 0310 48000000 		.word	.LC4
 510 0314 5C000000 		.word	.LC5
 511 0318 6C000000 		.word	.LC6
 512 031c 80000000 		.word	.LC7
 513              	.L25:
 263:VS4210/TOA_Protocol.c **** 						#endif	
 264:VS4210/TOA_Protocol.c **** 						}				
 265:VS4210/TOA_Protocol.c **** 						break;
 266:VS4210/TOA_Protocol.c **** case MCU_PROTOCOL_CMD_STOP:		
 267:VS4210/TOA_Protocol.c **** 							if(protocol_data==0x00)
 514              		.loc 1 267 0
 515 0320 A94B     		ldr	r3, .L52
 516 0322 1B68     		ldr	r3, [r3]
 517 0324 002B     		cmp	r3, #0
 518 0326 40F09E81 		bne	.L18
 268:VS4210/TOA_Protocol.c **** 								{
 269:VS4210/TOA_Protocol.c **** 								if(CMDCount>0)
 519              		.loc 1 269 0
 520 032a A84B     		ldr	r3, .L52+4
 521 032c 1B78     		ldrb	r3, [r3]	@ zero_extendqisi2
 522 032e A3B1     		cbz	r3, .L48
 270:VS4210/TOA_Protocol.c **** 									{
 271:VS4210/TOA_Protocol.c **** 									CMDCount--;
 523              		.loc 1 271 0
 524 0330 013B     		subs	r3, r3, #1
 525 0332 A64A     		ldr	r2, .L52+4
 526 0334 1370     		strb	r3, [r2]
 272:VS4210/TOA_Protocol.c **** 								#if(_DEBUG_MESSAGE_UART_Protocol==ON)
 273:VS4210/TOA_Protocol.c **** 								GraphicsPrint(YELLOW,"(CMD:STOP)");
ARM GAS  /tmp/ccbUCoVk.s 			page 15


 527              		.loc 1 273 0
 528 0336 0320     		movs	r0, #3
 529 0338 A549     		ldr	r1, .L52+8
 530 033a FFF7FEFF 		bl	GraphicsPrint
 531              	.LVL21:
 274:VS4210/TOA_Protocol.c **** 								#endif		
 275:VS4210/TOA_Protocol.c **** 								
 276:VS4210/TOA_Protocol.c **** 								TVI_Command=0x14;
 532              		.loc 1 276 0
 533 033e 1422     		movs	r2, #20
 534 0340 A44B     		ldr	r3, .L52+12
 535 0342 1A70     		strb	r2, [r3]
 277:VS4210/TOA_Protocol.c **** 								presetNum=0;
 536              		.loc 1 277 0
 537 0344 0023     		movs	r3, #0
 538 0346 A44A     		ldr	r2, .L52+16
 539 0348 1370     		strb	r3, [r2]
 278:VS4210/TOA_Protocol.c **** 								TVI_speed=0;
 540              		.loc 1 278 0
 541 034a A44A     		ldr	r2, .L52+20
 542 034c 1370     		strb	r3, [r2]
 279:VS4210/TOA_Protocol.c **** 								TVI_Chksum=0;
 543              		.loc 1 279 0
 544 034e A44A     		ldr	r2, .L52+24
 545 0350 1370     		strb	r3, [r2]
 280:VS4210/TOA_Protocol.c **** 								ptztxflag=1;	
 546              		.loc 1 280 0
 547 0352 0122     		movs	r2, #1
 548 0354 A34B     		ldr	r3, .L52+28
 549 0356 1A60     		str	r2, [r3]
 550 0358 85E1     		b	.L18
 551              	.L48:
 281:VS4210/TOA_Protocol.c **** 								
 282:VS4210/TOA_Protocol.c **** 									}
 283:VS4210/TOA_Protocol.c **** 								else
 284:VS4210/TOA_Protocol.c **** 									{
 285:VS4210/TOA_Protocol.c **** 									#if(_DEBUG_MESSAGE_UART_Protocol==ON)
 286:VS4210/TOA_Protocol.c **** 									GraphicsPrint(YELLOW,"(CMD:STOP no work)");
 552              		.loc 1 286 0
 553 035a 0320     		movs	r0, #3
 554 035c A249     		ldr	r1, .L52+32
 555 035e FFF7FEFF 		bl	GraphicsPrint
 556              	.LVL22:
 287:VS4210/TOA_Protocol.c **** 									#endif		
 288:VS4210/TOA_Protocol.c **** 									CMDCount=0;
 557              		.loc 1 288 0
 558 0362 0022     		movs	r2, #0
 559 0364 994B     		ldr	r3, .L52+4
 560 0366 1A70     		strb	r2, [r3]
 561 0368 7DE1     		b	.L18
 562              	.L26:
 289:VS4210/TOA_Protocol.c **** 
 290:VS4210/TOA_Protocol.c **** 									}
 291:VS4210/TOA_Protocol.c **** 								}
 292:VS4210/TOA_Protocol.c ****                              				 break;
 293:VS4210/TOA_Protocol.c **** case MCU_PROTOCOL_CMD_UP:
 294:VS4210/TOA_Protocol.c **** 								#if(_DEBUG_MESSAGE_UART_Protocol==ON)
ARM GAS  /tmp/ccbUCoVk.s 			page 16


 295:VS4210/TOA_Protocol.c **** 								GraphicsPrint(GREEN,"(CMD:UP)");
 563              		.loc 1 295 0
 564 036a 0220     		movs	r0, #2
 565 036c 9F49     		ldr	r1, .L52+36
 566 036e FFF7FEFF 		bl	GraphicsPrint
 567              	.LVL23:
 296:VS4210/TOA_Protocol.c **** 								#endif
 297:VS4210/TOA_Protocol.c **** 								TVI_Command=0x06;
 568              		.loc 1 297 0
 569 0372 0622     		movs	r2, #6
 570 0374 974B     		ldr	r3, .L52+12
 571 0376 1A70     		strb	r2, [r3]
 298:VS4210/TOA_Protocol.c **** 								presetNum=protocol_data;
 572              		.loc 1 298 0
 573 0378 934B     		ldr	r3, .L52
 574 037a 1B68     		ldr	r3, [r3]
 575 037c 964A     		ldr	r2, .L52+16
 576 037e 1370     		strb	r3, [r2]
 299:VS4210/TOA_Protocol.c **** 								TVI_speed=(protocol_data>>8);
 577              		.loc 1 299 0
 578 0380 1B0A     		lsrs	r3, r3, #8
 579 0382 964A     		ldr	r2, .L52+20
 580 0384 1370     		strb	r3, [r2]
 300:VS4210/TOA_Protocol.c **** 								TVI_Chksum=0xDB;
 581              		.loc 1 300 0
 582 0386 DB22     		movs	r2, #219
 583 0388 954B     		ldr	r3, .L52+24
 584 038a 1A70     		strb	r2, [r3]
 301:VS4210/TOA_Protocol.c **** 								ptztxflag=1;
 585              		.loc 1 301 0
 586 038c 0122     		movs	r2, #1
 587 038e 954B     		ldr	r3, .L52+28
 588 0390 1A60     		str	r2, [r3]
 302:VS4210/TOA_Protocol.c **** 								CMDCount=3;
 589              		.loc 1 302 0
 590 0392 0322     		movs	r2, #3
 591 0394 8D4B     		ldr	r3, .L52+4
 592 0396 1A70     		strb	r2, [r3]
 303:VS4210/TOA_Protocol.c ****                             					break;
 593              		.loc 1 303 0
 594 0398 65E1     		b	.L18
 595              	.L23:
 304:VS4210/TOA_Protocol.c **** case MCU_PROTOCOL_CMD_RIGHT:
 305:VS4210/TOA_Protocol.c **** 								#if(_DEBUG_MESSAGE_UART_Protocol==ON)
 306:VS4210/TOA_Protocol.c **** 								GraphicsPrint(GREEN,"(CMD:RIGHT)");
 596              		.loc 1 306 0
 597 039a 0220     		movs	r0, #2
 598 039c 9449     		ldr	r1, .L52+40
 599 039e FFF7FEFF 		bl	GraphicsPrint
 600              	.LVL24:
 307:VS4210/TOA_Protocol.c **** 								#endif
 308:VS4210/TOA_Protocol.c **** 								TVI_Command=0x08;
 601              		.loc 1 308 0
 602 03a2 0822     		movs	r2, #8
 603 03a4 8B4B     		ldr	r3, .L52+12
 604 03a6 1A70     		strb	r2, [r3]
 309:VS4210/TOA_Protocol.c **** 								presetNum=protocol_data;
ARM GAS  /tmp/ccbUCoVk.s 			page 17


 605              		.loc 1 309 0
 606 03a8 874B     		ldr	r3, .L52
 607 03aa 1B68     		ldr	r3, [r3]
 608 03ac 8A4A     		ldr	r2, .L52+16
 609 03ae 1370     		strb	r3, [r2]
 310:VS4210/TOA_Protocol.c **** 								TVI_speed=(protocol_data>>8);
 610              		.loc 1 310 0
 611 03b0 1B0A     		lsrs	r3, r3, #8
 612 03b2 8A4A     		ldr	r2, .L52+20
 613 03b4 1370     		strb	r3, [r2]
 311:VS4210/TOA_Protocol.c **** 								TVI_Chksum=0xDD;
 614              		.loc 1 311 0
 615 03b6 DD22     		movs	r2, #221
 616 03b8 894B     		ldr	r3, .L52+24
 617 03ba 1A70     		strb	r2, [r3]
 312:VS4210/TOA_Protocol.c **** 								ptztxflag=1;
 618              		.loc 1 312 0
 619 03bc 0122     		movs	r2, #1
 620 03be 894B     		ldr	r3, .L52+28
 621 03c0 1A60     		str	r2, [r3]
 313:VS4210/TOA_Protocol.c **** 								CMDCount=3;
 622              		.loc 1 313 0
 623 03c2 0322     		movs	r2, #3
 624 03c4 814B     		ldr	r3, .L52+4
 625 03c6 1A70     		strb	r2, [r3]
 314:VS4210/TOA_Protocol.c ****                         				break;
 626              		.loc 1 314 0
 627 03c8 4DE1     		b	.L18
 628              	.L21:
 315:VS4210/TOA_Protocol.c **** case MCU_PROTOCOL_CMD_LEFT:	
 316:VS4210/TOA_Protocol.c **** 								#if(_DEBUG_MESSAGE_UART_Protocol==ON)
 317:VS4210/TOA_Protocol.c **** 								GraphicsPrint(GREEN,"(CMD:LEFT)");
 629              		.loc 1 317 0
 630 03ca 0220     		movs	r0, #2
 631 03cc 8949     		ldr	r1, .L52+44
 632 03ce FFF7FEFF 		bl	GraphicsPrint
 633              	.LVL25:
 318:VS4210/TOA_Protocol.c **** 								#endif
 319:VS4210/TOA_Protocol.c **** 								TVI_Command=0x09;
 634              		.loc 1 319 0
 635 03d2 0922     		movs	r2, #9
 636 03d4 7F4B     		ldr	r3, .L52+12
 637 03d6 1A70     		strb	r2, [r3]
 320:VS4210/TOA_Protocol.c **** 								presetNum=protocol_data;
 638              		.loc 1 320 0
 639 03d8 7B4B     		ldr	r3, .L52
 640 03da 1B68     		ldr	r3, [r3]
 641 03dc 7E4A     		ldr	r2, .L52+16
 642 03de 1370     		strb	r3, [r2]
 321:VS4210/TOA_Protocol.c **** 								TVI_speed=(protocol_data>>8);
 643              		.loc 1 321 0
 644 03e0 1B0A     		lsrs	r3, r3, #8
 645 03e2 7E4A     		ldr	r2, .L52+20
 646 03e4 1370     		strb	r3, [r2]
 322:VS4210/TOA_Protocol.c **** 								TVI_Chksum=0xDE;
 647              		.loc 1 322 0
 648 03e6 DE22     		movs	r2, #222
ARM GAS  /tmp/ccbUCoVk.s 			page 18


 649 03e8 7D4B     		ldr	r3, .L52+24
 650 03ea 1A70     		strb	r2, [r3]
 323:VS4210/TOA_Protocol.c **** 								ptztxflag=1;	
 651              		.loc 1 323 0
 652 03ec 0122     		movs	r2, #1
 653 03ee 7D4B     		ldr	r3, .L52+28
 654 03f0 1A60     		str	r2, [r3]
 324:VS4210/TOA_Protocol.c **** 								CMDCount=3;
 655              		.loc 1 324 0
 656 03f2 0322     		movs	r2, #3
 657 03f4 754B     		ldr	r3, .L52+4
 658 03f6 1A70     		strb	r2, [r3]
 325:VS4210/TOA_Protocol.c ****                         				break;
 659              		.loc 1 325 0
 660 03f8 35E1     		b	.L18
 661              	.L19:
 326:VS4210/TOA_Protocol.c **** case MCU_PROTOCOL_CMD_DOWN:	
 327:VS4210/TOA_Protocol.c **** 								#if(_DEBUG_MESSAGE_UART_Protocol==ON)
 328:VS4210/TOA_Protocol.c **** 								GraphicsPrint(GREEN,"(CMD:DOWN)");
 662              		.loc 1 328 0
 663 03fa 0220     		movs	r0, #2
 664 03fc 7E49     		ldr	r1, .L52+48
 665 03fe FFF7FEFF 		bl	GraphicsPrint
 666              	.LVL26:
 329:VS4210/TOA_Protocol.c **** 								#endif
 330:VS4210/TOA_Protocol.c **** 								TVI_Command=0x07;
 667              		.loc 1 330 0
 668 0402 0722     		movs	r2, #7
 669 0404 734B     		ldr	r3, .L52+12
 670 0406 1A70     		strb	r2, [r3]
 331:VS4210/TOA_Protocol.c **** 								presetNum=protocol_data;
 671              		.loc 1 331 0
 672 0408 6F4B     		ldr	r3, .L52
 673 040a 1B68     		ldr	r3, [r3]
 674 040c 724A     		ldr	r2, .L52+16
 675 040e 1370     		strb	r3, [r2]
 332:VS4210/TOA_Protocol.c **** 								TVI_speed=(protocol_data>>8);
 676              		.loc 1 332 0
 677 0410 1B0A     		lsrs	r3, r3, #8
 678 0412 724A     		ldr	r2, .L52+20
 679 0414 1370     		strb	r3, [r2]
 333:VS4210/TOA_Protocol.c **** 								TVI_Chksum=0xDC;
 680              		.loc 1 333 0
 681 0416 DC22     		movs	r2, #220
 682 0418 714B     		ldr	r3, .L52+24
 683 041a 1A70     		strb	r2, [r3]
 334:VS4210/TOA_Protocol.c **** 								ptztxflag=1;	
 684              		.loc 1 334 0
 685 041c 0122     		movs	r2, #1
 686 041e 714B     		ldr	r3, .L52+28
 687 0420 1A60     		str	r2, [r3]
 335:VS4210/TOA_Protocol.c **** 								CMDCount=3;
 688              		.loc 1 335 0
 689 0422 0322     		movs	r2, #3
 690 0424 694B     		ldr	r3, .L52+4
 691 0426 1A70     		strb	r2, [r3]
 336:VS4210/TOA_Protocol.c ****                           						break;
ARM GAS  /tmp/ccbUCoVk.s 			page 19


 692              		.loc 1 336 0
 693 0428 1DE1     		b	.L18
 694              	.L29:
 337:VS4210/TOA_Protocol.c **** case MCU_PROTOCOL_CMD_UP_RIGHT:	
 338:VS4210/TOA_Protocol.c **** 								#if(_DEBUG_MESSAGE_UART_Protocol==ON)
 339:VS4210/TOA_Protocol.c **** 								GraphicsPrint(GREEN,"(CMD:UP_RIGHT)");
 695              		.loc 1 339 0
 696 042a 0220     		movs	r0, #2
 697 042c 7349     		ldr	r1, .L52+52
 698 042e FFF7FEFF 		bl	GraphicsPrint
 699              	.LVL27:
 340:VS4210/TOA_Protocol.c **** 								#endif
 341:VS4210/TOA_Protocol.c **** 								TVI_Command=0x0C;
 700              		.loc 1 341 0
 701 0432 0C22     		movs	r2, #12
 702 0434 674B     		ldr	r3, .L52+12
 703 0436 1A70     		strb	r2, [r3]
 342:VS4210/TOA_Protocol.c **** 								presetNum=protocol_data;
 704              		.loc 1 342 0
 705 0438 634B     		ldr	r3, .L52
 706 043a 1B68     		ldr	r3, [r3]
 707 043c 664A     		ldr	r2, .L52+16
 708 043e 1370     		strb	r3, [r2]
 343:VS4210/TOA_Protocol.c **** 								TVI_speed=(protocol_data>>8);
 709              		.loc 1 343 0
 710 0440 1B0A     		lsrs	r3, r3, #8
 711 0442 664A     		ldr	r2, .L52+20
 712 0444 1370     		strb	r3, [r2]
 344:VS4210/TOA_Protocol.c **** 								TVI_Chksum=0x20;
 713              		.loc 1 344 0
 714 0446 2022     		movs	r2, #32
 715 0448 654B     		ldr	r3, .L52+24
 716 044a 1A70     		strb	r2, [r3]
 345:VS4210/TOA_Protocol.c **** 								ptztxflag=1;	
 717              		.loc 1 345 0
 718 044c 0122     		movs	r2, #1
 719 044e 654B     		ldr	r3, .L52+28
 720 0450 1A60     		str	r2, [r3]
 346:VS4210/TOA_Protocol.c **** 								CMDCount=3;
 721              		.loc 1 346 0
 722 0452 0322     		movs	r2, #3
 723 0454 5D4B     		ldr	r3, .L52+4
 724 0456 1A70     		strb	r2, [r3]
 347:VS4210/TOA_Protocol.c ****                           						break;
 725              		.loc 1 347 0
 726 0458 05E1     		b	.L18
 727              	.L35:
 348:VS4210/TOA_Protocol.c **** case MCU_PROTOCOL_CMD_DOWN_RIGHT:
 349:VS4210/TOA_Protocol.c **** 									#if(_DEBUG_MESSAGE_UART_Protocol==ON)
 350:VS4210/TOA_Protocol.c **** 								GraphicsPrint(GREEN,"(CMD:DOWN_RIGHT)");
 728              		.loc 1 350 0
 729 045a 0220     		movs	r0, #2
 730 045c 6849     		ldr	r1, .L52+56
 731 045e FFF7FEFF 		bl	GraphicsPrint
 732              	.LVL28:
 351:VS4210/TOA_Protocol.c **** 								#endif
 352:VS4210/TOA_Protocol.c **** 								TVI_Command=0x0D;
ARM GAS  /tmp/ccbUCoVk.s 			page 20


 733              		.loc 1 352 0
 734 0462 0D22     		movs	r2, #13
 735 0464 5B4B     		ldr	r3, .L52+12
 736 0466 1A70     		strb	r2, [r3]
 353:VS4210/TOA_Protocol.c **** 								presetNum=protocol_data;
 737              		.loc 1 353 0
 738 0468 574B     		ldr	r3, .L52
 739 046a 1B68     		ldr	r3, [r3]
 740 046c 5A4A     		ldr	r2, .L52+16
 741 046e 1370     		strb	r3, [r2]
 354:VS4210/TOA_Protocol.c **** 								TVI_speed=(protocol_data>>8);
 742              		.loc 1 354 0
 743 0470 1B0A     		lsrs	r3, r3, #8
 744 0472 5A4A     		ldr	r2, .L52+20
 745 0474 1370     		strb	r3, [r2]
 355:VS4210/TOA_Protocol.c **** 								TVI_Chksum=0x21;
 746              		.loc 1 355 0
 747 0476 2122     		movs	r2, #33
 748 0478 594B     		ldr	r3, .L52+24
 749 047a 1A70     		strb	r2, [r3]
 356:VS4210/TOA_Protocol.c **** 								ptztxflag=1;
 750              		.loc 1 356 0
 751 047c 0122     		movs	r2, #1
 752 047e 594B     		ldr	r3, .L52+28
 753 0480 1A60     		str	r2, [r3]
 357:VS4210/TOA_Protocol.c **** 								CMDCount=3;
 754              		.loc 1 357 0
 755 0482 0322     		movs	r2, #3
 756 0484 514B     		ldr	r3, .L52+4
 757 0486 1A70     		strb	r2, [r3]
 358:VS4210/TOA_Protocol.c ****                               					break;
 758              		.loc 1 358 0
 759 0488 EDE0     		b	.L18
 760              	.L30:
 359:VS4210/TOA_Protocol.c **** case MCU_PROTOCOL_CMD_UP_LEFT:
 360:VS4210/TOA_Protocol.c **** 								#if(_DEBUG_MESSAGE_UART_Protocol==ON)
 361:VS4210/TOA_Protocol.c **** 								GraphicsPrint(GREEN,"(UP_LEFT)");
 761              		.loc 1 361 0
 762 048a 0220     		movs	r0, #2
 763 048c 5D49     		ldr	r1, .L52+60
 764 048e FFF7FEFF 		bl	GraphicsPrint
 765              	.LVL29:
 362:VS4210/TOA_Protocol.c **** 								#endif
 363:VS4210/TOA_Protocol.c **** 								TVI_Command=0x0A;
 766              		.loc 1 363 0
 767 0492 0A22     		movs	r2, #10
 768 0494 4F4B     		ldr	r3, .L52+12
 769 0496 1A70     		strb	r2, [r3]
 364:VS4210/TOA_Protocol.c **** 								presetNum=protocol_data;
 770              		.loc 1 364 0
 771 0498 4B4B     		ldr	r3, .L52
 772 049a 1B68     		ldr	r3, [r3]
 773 049c 4E4A     		ldr	r2, .L52+16
 774 049e 1370     		strb	r3, [r2]
 365:VS4210/TOA_Protocol.c **** 								TVI_speed=(protocol_data>>8);
 775              		.loc 1 365 0
 776 04a0 1B0A     		lsrs	r3, r3, #8
ARM GAS  /tmp/ccbUCoVk.s 			page 21


 777 04a2 4E4A     		ldr	r2, .L52+20
 778 04a4 1370     		strb	r3, [r2]
 366:VS4210/TOA_Protocol.c **** 								TVI_Chksum=0x1E;
 779              		.loc 1 366 0
 780 04a6 1E22     		movs	r2, #30
 781 04a8 4D4B     		ldr	r3, .L52+24
 782 04aa 1A70     		strb	r2, [r3]
 367:VS4210/TOA_Protocol.c **** 								ptztxflag=1;
 783              		.loc 1 367 0
 784 04ac 0122     		movs	r2, #1
 785 04ae 4D4B     		ldr	r3, .L52+28
 786 04b0 1A60     		str	r2, [r3]
 368:VS4210/TOA_Protocol.c **** 								CMDCount=3;
 787              		.loc 1 368 0
 788 04b2 0322     		movs	r2, #3
 789 04b4 454B     		ldr	r3, .L52+4
 790 04b6 1A70     		strb	r2, [r3]
 369:VS4210/TOA_Protocol.c **** 	                          				break;
 791              		.loc 1 369 0
 792 04b8 D5E0     		b	.L18
 793              	.L33:
 370:VS4210/TOA_Protocol.c **** case MCU_PROTOCOL_CMD_DOWN_LEFT:	
 371:VS4210/TOA_Protocol.c **** 								#if(_DEBUG_MESSAGE_UART_Protocol==ON)
 372:VS4210/TOA_Protocol.c **** 								GraphicsPrint(GREEN,"(CMD:DOWN_LEFT)");
 794              		.loc 1 372 0
 795 04ba 0220     		movs	r0, #2
 796 04bc 5249     		ldr	r1, .L52+64
 797 04be FFF7FEFF 		bl	GraphicsPrint
 798              	.LVL30:
 373:VS4210/TOA_Protocol.c **** 								#endif
 374:VS4210/TOA_Protocol.c **** 								TVI_Command=0x0B;
 799              		.loc 1 374 0
 800 04c2 0B22     		movs	r2, #11
 801 04c4 434B     		ldr	r3, .L52+12
 802 04c6 1A70     		strb	r2, [r3]
 375:VS4210/TOA_Protocol.c **** 								presetNum=protocol_data;
 803              		.loc 1 375 0
 804 04c8 3F4B     		ldr	r3, .L52
 805 04ca 1B68     		ldr	r3, [r3]
 806 04cc 424A     		ldr	r2, .L52+16
 807 04ce 1370     		strb	r3, [r2]
 376:VS4210/TOA_Protocol.c **** 								TVI_speed=(protocol_data>>8);
 808              		.loc 1 376 0
 809 04d0 1B0A     		lsrs	r3, r3, #8
 810 04d2 424A     		ldr	r2, .L52+20
 811 04d4 1370     		strb	r3, [r2]
 377:VS4210/TOA_Protocol.c **** 								TVI_Chksum=0x1F;
 812              		.loc 1 377 0
 813 04d6 1F22     		movs	r2, #31
 814 04d8 414B     		ldr	r3, .L52+24
 815 04da 1A70     		strb	r2, [r3]
 378:VS4210/TOA_Protocol.c **** 								ptztxflag=1;
 816              		.loc 1 378 0
 817 04dc 0122     		movs	r2, #1
 818 04de 414B     		ldr	r3, .L52+28
 819 04e0 1A60     		str	r2, [r3]
 379:VS4210/TOA_Protocol.c **** 								CMDCount=3;
ARM GAS  /tmp/ccbUCoVk.s 			page 22


 820              		.loc 1 379 0
 821 04e2 0322     		movs	r2, #3
 822 04e4 394B     		ldr	r3, .L52+4
 823 04e6 1A70     		strb	r2, [r3]
 380:VS4210/TOA_Protocol.c ****                               					break;
 824              		.loc 1 380 0
 825 04e8 BDE0     		b	.L18
 826              	.L34:
 381:VS4210/TOA_Protocol.c **** case MCU_PROTOCOL_CMD_ZOOM_IN:
 382:VS4210/TOA_Protocol.c **** 								#if(_DEBUG_MESSAGE_UART_Protocol==ON)
 383:VS4210/TOA_Protocol.c **** 								GraphicsPrint(GREEN,"(CMD:ZOOM_IN)");
 827              		.loc 1 383 0
 828 04ea 0220     		movs	r0, #2
 829 04ec 4749     		ldr	r1, .L52+68
 830 04ee FFF7FEFF 		bl	GraphicsPrint
 831              	.LVL31:
 384:VS4210/TOA_Protocol.c **** 								#endif
 385:VS4210/TOA_Protocol.c **** 								TVI_Command=0x13;
 832              		.loc 1 385 0
 833 04f2 1322     		movs	r2, #19
 834 04f4 374B     		ldr	r3, .L52+12
 835 04f6 1A70     		strb	r2, [r3]
 386:VS4210/TOA_Protocol.c **** 								presetNum=0x00;
 836              		.loc 1 386 0
 837 04f8 0023     		movs	r3, #0
 838 04fa 374A     		ldr	r2, .L52+16
 839 04fc 1370     		strb	r3, [r2]
 387:VS4210/TOA_Protocol.c **** 								TVI_speed=0x00;
 840              		.loc 1 387 0
 841 04fe 374A     		ldr	r2, .L52+20
 842 0500 1370     		strb	r3, [r2]
 388:VS4210/TOA_Protocol.c **** 								TVI_Chksum=0xC9;
 843              		.loc 1 388 0
 844 0502 C922     		movs	r2, #201
 845 0504 364B     		ldr	r3, .L52+24
 846 0506 1A70     		strb	r2, [r3]
 389:VS4210/TOA_Protocol.c **** 								ptztxflag=1;
 847              		.loc 1 389 0
 848 0508 0122     		movs	r2, #1
 849 050a 364B     		ldr	r3, .L52+28
 850 050c 1A60     		str	r2, [r3]
 390:VS4210/TOA_Protocol.c **** 								CMDCount=3;
 851              		.loc 1 390 0
 852 050e 0322     		movs	r2, #3
 853 0510 2E4B     		ldr	r3, .L52+4
 854 0512 1A70     		strb	r2, [r3]
 391:VS4210/TOA_Protocol.c ****                           					break;
 855              		.loc 1 391 0
 856 0514 A7E0     		b	.L18
 857              	.L31:
 392:VS4210/TOA_Protocol.c **** case MCU_PROTOCOL_CMD_ZOOM_OUT:
 393:VS4210/TOA_Protocol.c **** 								#if(_DEBUG_MESSAGE_UART_Protocol==ON)
 394:VS4210/TOA_Protocol.c **** 								GraphicsPrint(GREEN,"(CMD:ZOOM_OUT)");
 858              		.loc 1 394 0
 859 0516 0220     		movs	r0, #2
 860 0518 3D49     		ldr	r1, .L52+72
 861 051a FFF7FEFF 		bl	GraphicsPrint
ARM GAS  /tmp/ccbUCoVk.s 			page 23


 862              	.LVL32:
 395:VS4210/TOA_Protocol.c **** 								#endif
 396:VS4210/TOA_Protocol.c **** 								TVI_Command=0x12;
 863              		.loc 1 396 0
 864 051e 1222     		movs	r2, #18
 865 0520 2C4B     		ldr	r3, .L52+12
 866 0522 1A70     		strb	r2, [r3]
 397:VS4210/TOA_Protocol.c **** 								presetNum=0x00;
 867              		.loc 1 397 0
 868 0524 0023     		movs	r3, #0
 869 0526 2C4A     		ldr	r2, .L52+16
 870 0528 1370     		strb	r3, [r2]
 398:VS4210/TOA_Protocol.c **** 								TVI_speed=0x00;
 871              		.loc 1 398 0
 872 052a 2C4A     		ldr	r2, .L52+20
 873 052c 1370     		strb	r3, [r2]
 399:VS4210/TOA_Protocol.c **** 								TVI_Chksum=0xC8;
 874              		.loc 1 399 0
 875 052e C822     		movs	r2, #200
 876 0530 2B4B     		ldr	r3, .L52+24
 877 0532 1A70     		strb	r2, [r3]
 400:VS4210/TOA_Protocol.c **** 								ptztxflag=1;
 878              		.loc 1 400 0
 879 0534 0122     		movs	r2, #1
 880 0536 2B4B     		ldr	r3, .L52+28
 881 0538 1A60     		str	r2, [r3]
 401:VS4210/TOA_Protocol.c **** 								CMDCount=3;
 882              		.loc 1 401 0
 883 053a 0322     		movs	r2, #3
 884 053c 234B     		ldr	r3, .L52+4
 885 053e 1A70     		strb	r2, [r3]
 402:VS4210/TOA_Protocol.c ****                           			  		break;
 886              		.loc 1 402 0
 887 0540 91E0     		b	.L18
 888              	.L36:
 403:VS4210/TOA_Protocol.c **** case MCU_PROTOCOL_CMD_FOCUS_NEAR:	
 404:VS4210/TOA_Protocol.c **** 								#if(_DEBUG_MESSAGE_UART_Protocol==ON)
 405:VS4210/TOA_Protocol.c **** 								GraphicsPrint(GREEN,"(CMD:FOCUS_NEAR)");
 889              		.loc 1 405 0
 890 0542 0220     		movs	r0, #2
 891 0544 3349     		ldr	r1, .L52+76
 892 0546 FFF7FEFF 		bl	GraphicsPrint
 893              	.LVL33:
 406:VS4210/TOA_Protocol.c **** 								#endif
 407:VS4210/TOA_Protocol.c **** 								TVI_Command=0x11;
 894              		.loc 1 407 0
 895 054a 1122     		movs	r2, #17
 896 054c 214B     		ldr	r3, .L52+12
 897 054e 1A70     		strb	r2, [r3]
 408:VS4210/TOA_Protocol.c **** 								presetNum=0x00;
 898              		.loc 1 408 0
 899 0550 0023     		movs	r3, #0
 900 0552 214A     		ldr	r2, .L52+16
 901 0554 1370     		strb	r3, [r2]
 409:VS4210/TOA_Protocol.c **** 								TVI_speed=0x00;
 902              		.loc 1 409 0
 903 0556 214A     		ldr	r2, .L52+20
ARM GAS  /tmp/ccbUCoVk.s 			page 24


 904 0558 1370     		strb	r3, [r2]
 410:VS4210/TOA_Protocol.c **** 								TVI_Chksum=0xC7;
 905              		.loc 1 410 0
 906 055a C722     		movs	r2, #199
 907 055c 204B     		ldr	r3, .L52+24
 908 055e 1A70     		strb	r2, [r3]
 411:VS4210/TOA_Protocol.c **** 								ptztxflag=1;
 909              		.loc 1 411 0
 910 0560 0122     		movs	r2, #1
 911 0562 204B     		ldr	r3, .L52+28
 912 0564 1A60     		str	r2, [r3]
 412:VS4210/TOA_Protocol.c **** 								CMDCount=3;
 913              		.loc 1 412 0
 914 0566 0322     		movs	r2, #3
 915 0568 184B     		ldr	r3, .L52+4
 916 056a 1A70     		strb	r2, [r3]
 413:VS4210/TOA_Protocol.c ****                                 				break;
 917              		.loc 1 413 0
 918 056c 7BE0     		b	.L18
 919              	.L38:
 414:VS4210/TOA_Protocol.c **** case MCU_PROTOCOL_CMD_FOCUS_FAR:
 415:VS4210/TOA_Protocol.c **** 								#if(_DEBUG_MESSAGE_UART_Protocol==ON)
 416:VS4210/TOA_Protocol.c **** 								GraphicsPrint(GREEN,"(CMD:FOCUS_FAR)");
 920              		.loc 1 416 0
 921 056e 0220     		movs	r0, #2
 922 0570 2949     		ldr	r1, .L52+80
 923 0572 FFF7FEFF 		bl	GraphicsPrint
 924              	.LVL34:
 417:VS4210/TOA_Protocol.c **** 								#endif
 418:VS4210/TOA_Protocol.c **** 								TVI_Command=0x10;
 925              		.loc 1 418 0
 926 0576 1022     		movs	r2, #16
 927 0578 164B     		ldr	r3, .L52+12
 928 057a 1A70     		strb	r2, [r3]
 419:VS4210/TOA_Protocol.c **** 								presetNum=0x00;
 929              		.loc 1 419 0
 930 057c 0023     		movs	r3, #0
 931 057e 164A     		ldr	r2, .L52+16
 932 0580 1370     		strb	r3, [r2]
 420:VS4210/TOA_Protocol.c **** 								TVI_speed=0x00;
 933              		.loc 1 420 0
 934 0582 164A     		ldr	r2, .L52+20
 935 0584 1370     		strb	r3, [r2]
 421:VS4210/TOA_Protocol.c **** 								TVI_Chksum=0xC6;
 936              		.loc 1 421 0
 937 0586 C622     		movs	r2, #198
 938 0588 154B     		ldr	r3, .L52+24
 939 058a 1A70     		strb	r2, [r3]
 422:VS4210/TOA_Protocol.c **** 								ptztxflag=1;
 940              		.loc 1 422 0
 941 058c 0122     		movs	r2, #1
 942 058e 154B     		ldr	r3, .L52+28
 943 0590 1A60     		str	r2, [r3]
 423:VS4210/TOA_Protocol.c **** 								CMDCount=3;
 944              		.loc 1 423 0
 945 0592 0322     		movs	r2, #3
 946 0594 0D4B     		ldr	r3, .L52+4
ARM GAS  /tmp/ccbUCoVk.s 			page 25


 947 0596 1A70     		strb	r2, [r3]
 424:VS4210/TOA_Protocol.c ****                                 				break;
 948              		.loc 1 424 0
 949 0598 65E0     		b	.L18
 950              	.L24:
 425:VS4210/TOA_Protocol.c **** case MCU_PROTOCOL_CMD_PRESET_SAVE:	
 426:VS4210/TOA_Protocol.c **** 								#if(_DEBUG_MESSAGE_UART_Protocol==ON)
 427:VS4210/TOA_Protocol.c **** 								GraphicsPrint(MAGENTA,"(CMD:PRESET_SAVE)");
 951              		.loc 1 427 0
 952 059a 0520     		movs	r0, #5
 953 059c 1F49     		ldr	r1, .L52+84
 954 059e FFF7FEFF 		bl	GraphicsPrint
 955              	.LVL35:
 428:VS4210/TOA_Protocol.c **** 								#endif
 429:VS4210/TOA_Protocol.c **** 							TVI_Command=0x21;
 956              		.loc 1 429 0
 957 05a2 2122     		movs	r2, #33
 958 05a4 0B4B     		ldr	r3, .L52+12
 959 05a6 1A70     		strb	r2, [r3]
 430:VS4210/TOA_Protocol.c **** 							presetNum=protocol_data;
 960              		.loc 1 430 0
 961 05a8 074B     		ldr	r3, .L52
 962 05aa 1A68     		ldr	r2, [r3]
 963 05ac 0A4B     		ldr	r3, .L52+16
 964 05ae 1A70     		strb	r2, [r3]
 431:VS4210/TOA_Protocol.c **** 							TVI_speed=0;
 965              		.loc 1 431 0
 966 05b0 0023     		movs	r3, #0
 967 05b2 0A4A     		ldr	r2, .L52+20
 968 05b4 1370     		strb	r3, [r2]
 432:VS4210/TOA_Protocol.c **** 							TVI_Chksum=00;
 969              		.loc 1 432 0
 970 05b6 0A4A     		ldr	r2, .L52+24
 971 05b8 1370     		strb	r3, [r2]
 433:VS4210/TOA_Protocol.c **** 							ptztxflag=1;	
 972              		.loc 1 433 0
 973 05ba 0122     		movs	r2, #1
 974 05bc 094B     		ldr	r3, .L52+28
 975 05be 1A60     		str	r2, [r3]
 434:VS4210/TOA_Protocol.c **** 							CMDCount=3;
 976              		.loc 1 434 0
 977 05c0 0322     		movs	r2, #3
 978 05c2 024B     		ldr	r3, .L52+4
 979 05c4 1A70     		strb	r2, [r3]
 435:VS4210/TOA_Protocol.c ****                                     				break;	
 980              		.loc 1 435 0
 981 05c6 4EE0     		b	.L18
 982              	.L53:
 983              		.align	2
 984              	.L52:
 985 05c8 00000000 		.word	.LANCHOR3
 986 05cc 00000000 		.word	.LANCHOR4
 987 05d0 90000000 		.word	.LC8
 988 05d4 00000000 		.word	TVI_Command
 989 05d8 00000000 		.word	presetNum
 990 05dc 00000000 		.word	TVI_speed
 991 05e0 00000000 		.word	TVI_Chksum
ARM GAS  /tmp/ccbUCoVk.s 			page 26


 992 05e4 00000000 		.word	ptztxflag
 993 05e8 9C000000 		.word	.LC9
 994 05ec B0000000 		.word	.LC10
 995 05f0 BC000000 		.word	.LC11
 996 05f4 C8000000 		.word	.LC12
 997 05f8 D4000000 		.word	.LC13
 998 05fc E0000000 		.word	.LC14
 999 0600 F0000000 		.word	.LC15
 1000 0604 04010000 		.word	.LC16
 1001 0608 10010000 		.word	.LC17
 1002 060c 20010000 		.word	.LC18
 1003 0610 30010000 		.word	.LC19
 1004 0614 40010000 		.word	.LC20
 1005 0618 54010000 		.word	.LC21
 1006 061c 64010000 		.word	.LC22
 1007              	.L39:
 436:VS4210/TOA_Protocol.c **** case MCU_PROTOCOL_CMD_VS4210_W:
 437:VS4210/TOA_Protocol.c **** 	
 438:VS4210/TOA_Protocol.c **** 							#if(_DEBUG_MESSAGE_UART_Protocol==ON)
 439:VS4210/TOA_Protocol.c **** 							GraphicsPrint(BLUE,"\r\n(CMD:VS4210_W)");
 1008              		.loc 1 439 0
 1009 0620 0420     		movs	r0, #4
 1010 0622 2149     		ldr	r1, .L54
 1011 0624 FFF7FEFF 		bl	GraphicsPrint
 1012              	.LVL36:
 440:VS4210/TOA_Protocol.c **** 							#endif
 441:VS4210/TOA_Protocol.c **** 							addr=(BYTE)(protocol_data>>8); 	
 1013              		.loc 1 441 0
 1014 0628 204B     		ldr	r3, .L54+4
 1015 062a 1968     		ldr	r1, [r3]
 1016 062c C1F30724 		ubfx	r4, r1, #8, #8
 1017              	.LVL37:
 442:VS4210/TOA_Protocol.c **** 							dat=	(BYTE)protocol_data; 	
 443:VS4210/TOA_Protocol.c **** 							VXISI2CWrite(addr,dat); 
 1018              		.loc 1 443 0
 1019 0630 2046     		mov	r0, r4
 1020 0632 C9B2     		uxtb	r1, r1
 1021 0634 FFF7FEFF 		bl	VXISI2CWrite
 1022              	.LVL38:
 444:VS4210/TOA_Protocol.c **** 							dat=	VXISI2CRead(addr); 	
 1023              		.loc 1 444 0
 1024 0638 2046     		mov	r0, r4
 1025 063a FFF7FEFF 		bl	VXISI2CRead
 1026              	.LVL39:
 1027 063e 0246     		mov	r2, r0
 1028              	.LVL40:
 445:VS4210/TOA_Protocol.c **** 							 Printf("\r\nVS4210  Write addr=%02x  data=%02x",(WORD)addr,(WORD)dat);
 1029              		.loc 1 445 0
 1030 0640 1B48     		ldr	r0, .L54+8
 1031 0642 2146     		mov	r1, r4
 1032 0644 FFF7FEFF 		bl	Printf
 1033              	.LVL41:
 446:VS4210/TOA_Protocol.c **** 
 447:VS4210/TOA_Protocol.c **** 								break;			
 1034              		.loc 1 447 0
 1035 0648 0DE0     		b	.L18
 1036              	.LVL42:
ARM GAS  /tmp/ccbUCoVk.s 			page 27


 1037              	.L40:
 448:VS4210/TOA_Protocol.c **** case MCU_PROTOCOL_CMD_VS4210_R:	
 449:VS4210/TOA_Protocol.c **** 							#if(_DEBUG_MESSAGE_UART_Protocol==ON)
 450:VS4210/TOA_Protocol.c **** 							GraphicsPrint(CYAN,"\r\n(CMD:VS4210_R)");
 1038              		.loc 1 450 0
 1039 064a 0620     		movs	r0, #6
 1040 064c 1949     		ldr	r1, .L54+12
 1041 064e FFF7FEFF 		bl	GraphicsPrint
 1042              	.LVL43:
 451:VS4210/TOA_Protocol.c **** 							#endif
 452:VS4210/TOA_Protocol.c **** 
 453:VS4210/TOA_Protocol.c **** 							addr=(BYTE)(protocol_data>>8); 	
 1043              		.loc 1 453 0
 1044 0652 164B     		ldr	r3, .L54+4
 1045 0654 5C78     		ldrb	r4, [r3, #1]	@ zero_extendqisi2
 1046              	.LVL44:
 454:VS4210/TOA_Protocol.c **** 							dat=VXISI2CRead(addr); 	
 1047              		.loc 1 454 0
 1048 0656 2046     		mov	r0, r4
 1049 0658 FFF7FEFF 		bl	VXISI2CRead
 1050              	.LVL45:
 1051 065c 0246     		mov	r2, r0
 1052              	.LVL46:
 455:VS4210/TOA_Protocol.c **** 							 Printf("\r\nVS4210  Read addr=%02x  data=%02x",(WORD)addr,(WORD)dat);
 1053              		.loc 1 455 0
 1054 065e 1648     		ldr	r0, .L54+16
 1055 0660 2146     		mov	r1, r4
 1056 0662 FFF7FEFF 		bl	Printf
 1057              	.LVL47:
 1058              	.L18:
 456:VS4210/TOA_Protocol.c **** 
 457:VS4210/TOA_Protocol.c **** 								break;
 458:VS4210/TOA_Protocol.c **** 							}
 459:VS4210/TOA_Protocol.c **** 
 460:VS4210/TOA_Protocol.c **** 						//#if(_DEBUG_MESSAGE_UART_Protocol==ON)
 461:VS4210/TOA_Protocol.c **** 						//GraphicsPrint(RED,"\r\n(CMD: protocol_cmd=%04x)",(WORD)protocol_cmd);
 462:VS4210/TOA_Protocol.c **** 						//#endif
 463:VS4210/TOA_Protocol.c **** 						
 464:VS4210/TOA_Protocol.c **** 						protocol_state=PROTOCOL_STATE_NONE;
 1059              		.loc 1 464 0
 1060 0666 0022     		movs	r2, #0
 1061 0668 144B     		ldr	r3, .L54+20
 1062 066a 1A70     		strb	r2, [r3]
 1063 066c 0EE0     		b	.L16
 1064              	.L17:
 465:VS4210/TOA_Protocol.c **** 						
 466:VS4210/TOA_Protocol.c **** 						
 467:VS4210/TOA_Protocol.c **** 						}
 468:VS4210/TOA_Protocol.c **** 					else
 469:VS4210/TOA_Protocol.c **** 						{
 470:VS4210/TOA_Protocol.c **** 						#if(_DEBUG_MESSAGE_UART_Protocol==ON)
 471:VS4210/TOA_Protocol.c **** 						GraphicsPrint(RED,"(CHECKUSM ERROR)");
 1065              		.loc 1 471 0
 1066 066e 0120     		movs	r0, #1
 1067 0670 1349     		ldr	r1, .L54+24
 1068 0672 FFF7FEFF 		bl	GraphicsPrint
 1069              	.LVL48:
ARM GAS  /tmp/ccbUCoVk.s 			page 28


 472:VS4210/TOA_Protocol.c **** 						#endif
 473:VS4210/TOA_Protocol.c **** 						protocol_state=PROTOCOL_STATE_NONE;									
 1070              		.loc 1 473 0
 1071 0676 0022     		movs	r2, #0
 1072 0678 104B     		ldr	r3, .L54+20
 1073 067a 1A70     		strb	r2, [r3]
 1074 067c 06E0     		b	.L16
 1075              	.L6:
 474:VS4210/TOA_Protocol.c **** 						} 
 475:VS4210/TOA_Protocol.c **** 							break;
 476:VS4210/TOA_Protocol.c **** 
 477:VS4210/TOA_Protocol.c **** 
 478:VS4210/TOA_Protocol.c **** 	
 479:VS4210/TOA_Protocol.c **** 				//		}
 480:VS4210/TOA_Protocol.c **** 					/*
 481:VS4210/TOA_Protocol.c **** 						protocol_state=PROTOCOL_STATE_NONE;
 482:VS4210/TOA_Protocol.c **** 						
 483:VS4210/TOA_Protocol.c **** 						}
 484:VS4210/TOA_Protocol.c **** 					else
 485:VS4210/TOA_Protocol.c **** 						{
 486:VS4210/TOA_Protocol.c **** 						#if(_DEBUG_MESSAGE_UART_Protocol==ON)
 487:VS4210/TOA_Protocol.c **** 						GraphicsPrint(RED,"\r\n(CHECKUSM ERROR)");
 488:VS4210/TOA_Protocol.c **** 						#endif
 489:VS4210/TOA_Protocol.c **** 						protocol_state=PROTOCOL_STATE_NONE;									
 490:VS4210/TOA_Protocol.c **** 						}
 491:VS4210/TOA_Protocol.c **** 					break;
 492:VS4210/TOA_Protocol.c **** 				*/
 493:VS4210/TOA_Protocol.c **** 						default:
 494:VS4210/TOA_Protocol.c **** 						#if(_DEBUG_MESSAGE_UART_Protocol==ON)
 495:VS4210/TOA_Protocol.c **** 						GraphicsPrint(RED,"\r\n(2CMD: ERROR)");
 1076              		.loc 1 495 0
 1077 067e 0120     		movs	r0, #1
 1078 0680 1049     		ldr	r1, .L54+28
 1079 0682 FFF7FEFF 		bl	GraphicsPrint
 1080              	.LVL49:
 496:VS4210/TOA_Protocol.c **** 						#endif
 497:VS4210/TOA_Protocol.c **** 						protocol_state=PROTOCOL_STATE_NONE;	
 1081              		.loc 1 497 0
 1082 0686 0022     		movs	r2, #0
 1083 0688 0C4B     		ldr	r3, .L54+20
 1084 068a 1A70     		strb	r2, [r3]
 1085              	.L16:
 498:VS4210/TOA_Protocol.c **** 							break;
 499:VS4210/TOA_Protocol.c **** 			}
 500:VS4210/TOA_Protocol.c **** 
 501:VS4210/TOA_Protocol.c **** 
 502:VS4210/TOA_Protocol.c **** 			if(ptztxflag==1)
 1086              		.loc 1 502 0
 1087 068c 0E4B     		ldr	r3, .L54+32
 1088 068e 1B68     		ldr	r3, [r3]
 1089 0690 012B     		cmp	r3, #1
 1090 0692 07D1     		bne	.L1
 503:VS4210/TOA_Protocol.c **** 				{
 504:VS4210/TOA_Protocol.c **** 				Get_2824cIrq();//check tp2824 COC
 1091              		.loc 1 504 0
 1092 0694 FFF7FEFF 		bl	Get_2824cIrq
 1093              	.LVL50:
ARM GAS  /tmp/ccbUCoVk.s 			page 29


 505:VS4210/TOA_Protocol.c **** 				#if(_DEBUG_MESSAGE_UART_Protocol==ON)
 506:VS4210/TOA_Protocol.c **** 				//GraphicsPrint(GREEN,"(CMD:ACTION)");
 507:VS4210/TOA_Protocol.c **** 				GraphicsPrint(GREEN,"(A=%d)",(WORD)PtzTxChNum);
 1094              		.loc 1 507 0
 1095 0698 0220     		movs	r0, #2
 1096 069a 0C49     		ldr	r1, .L54+36
 1097 069c 0C4B     		ldr	r3, .L54+40
 1098 069e 1A78     		ldrb	r2, [r3]	@ zero_extendqisi2
 1099 06a0 FFF7FEFF 		bl	GraphicsPrint
 1100              	.LVL51:
 1101              	.L1:
 1102 06a4 10BD     		pop	{r4, pc}
 1103              	.L55:
 1104 06a6 00BF     		.align	2
 1105              	.L54:
 1106 06a8 78010000 		.word	.LC23
 1107 06ac 00000000 		.word	.LANCHOR3
 1108 06b0 8C010000 		.word	.LC24
 1109 06b4 B4010000 		.word	.LC25
 1110 06b8 C8010000 		.word	.LC26
 1111 06bc 00000000 		.word	.LANCHOR0
 1112 06c0 EC010000 		.word	.LC27
 1113 06c4 00020000 		.word	.LC28
 1114 06c8 00000000 		.word	ptztxflag
 1115 06cc 10020000 		.word	.LC29
 1116 06d0 00000000 		.word	PtzTxChNum
 1117              	.LBE2:
 1118              		.cfi_endproc
 1119              	.LFE65:
 1121              		.global	CMDCount
 1122              		.global	protocol_data
 1123              		.global	protocol_cmd
 1124              		.global	protocol_data_count
 1125              		.comm	protocol_chksum,1,1
 1126              		.comm	protocol_param,1,1
 1127              		.comm	protocol_len,1,1
 1128              		.comm	protocol_type,1,1
 1129              		.global	protocol_state
 1130              		.comm	protocol_escape_flag,4,4
 1131              		.comm	newInRes,4,4
 1132              		.section	.bss.protocol_cmd,"aw",%nobits
 1133              		.align	2
 1134              		.set	.LANCHOR2,. + 0
 1137              	protocol_cmd:
 1138 0000 00000000 		.space	4
 1139              		.section	.bss.CMDCount,"aw",%nobits
 1140              		.set	.LANCHOR4,. + 0
 1143              	CMDCount:
 1144 0000 00       		.space	1
 1145              		.section	.bss.protocol_state,"aw",%nobits
 1146              		.set	.LANCHOR0,. + 0
 1149              	protocol_state:
 1150 0000 00       		.space	1
 1151              		.section	.rodata.str1.4,"aMS",%progbits,1
 1152              		.align	2
 1153              	.LC0:
 1154 0000 0D0A2847 		.ascii	"\015\012(GOT)\000"
ARM GAS  /tmp/ccbUCoVk.s 			page 30


 1154      4F542900 
 1155              	.LC1:
 1156 0008 0D0A2870 		.ascii	"\015\012(protocol_data_count>8)\000"
 1156      726F746F 
 1156      636F6C5F 
 1156      64617461 
 1156      5F636F75 
 1157 0022 0000     		.space	2
 1158              	.LC2:
 1159 0024 28434D44 		.ascii	"(CMD:PRESET_LOAD)\000"
 1159      3A505245 
 1159      5345545F 
 1159      4C4F4144 
 1159      2900
 1160 0036 0000     		.space	2
 1161              	.LC3:
 1162 0038 28434D44 		.ascii	"(CMD:AUTO_SCAN)\000"
 1162      3A415554 
 1162      4F5F5343 
 1162      414E2900 
 1163              	.LC4:
 1164 0048 28434D44 		.ascii	"(CMD:GROUP_TOUR)\000"
 1164      3A47524F 
 1164      55505F54 
 1164      4F555229 
 1164      00
 1165 0059 000000   		.space	3
 1166              	.LC5:
 1167 005c 28434D44 		.ascii	"(CMD:OSD_MENU)\000"
 1167      3A4F5344 
 1167      5F4D454E 
 1167      552900
 1168 006b 00       		.space	1
 1169              	.LC6:
 1170 006c 28434D44 		.ascii	"(CMD:FOCUS_ADJUST)\000"
 1170      3A464F43 
 1170      55535F41 
 1170      444A5553 
 1170      542900
 1171 007f 00       		.space	1
 1172              	.LC7:
 1173 0080 2831434D 		.ascii	"(1CMD: ERROR)\000"
 1173      443A2045 
 1173      52524F52 
 1173      2900
 1174 008e 0000     		.space	2
 1175              	.LC8:
 1176 0090 28434D44 		.ascii	"(CMD:STOP)\000"
 1176      3A53544F 
 1176      502900
 1177 009b 00       		.space	1
 1178              	.LC9:
 1179 009c 28434D44 		.ascii	"(CMD:STOP no work)\000"
 1179      3A53544F 
 1179      50206E6F 
 1179      20776F72 
 1179      6B2900
ARM GAS  /tmp/ccbUCoVk.s 			page 31


 1180 00af 00       		.space	1
 1181              	.LC10:
 1182 00b0 28434D44 		.ascii	"(CMD:UP)\000"
 1182      3A555029 
 1182      00
 1183 00b9 000000   		.space	3
 1184              	.LC11:
 1185 00bc 28434D44 		.ascii	"(CMD:RIGHT)\000"
 1185      3A524947 
 1185      48542900 
 1186              	.LC12:
 1187 00c8 28434D44 		.ascii	"(CMD:LEFT)\000"
 1187      3A4C4546 
 1187      542900
 1188 00d3 00       		.space	1
 1189              	.LC13:
 1190 00d4 28434D44 		.ascii	"(CMD:DOWN)\000"
 1190      3A444F57 
 1190      4E2900
 1191 00df 00       		.space	1
 1192              	.LC14:
 1193 00e0 28434D44 		.ascii	"(CMD:UP_RIGHT)\000"
 1193      3A55505F 
 1193      52494748 
 1193      542900
 1194 00ef 00       		.space	1
 1195              	.LC15:
 1196 00f0 28434D44 		.ascii	"(CMD:DOWN_RIGHT)\000"
 1196      3A444F57 
 1196      4E5F5249 
 1196      47485429 
 1196      00
 1197 0101 000000   		.space	3
 1198              	.LC16:
 1199 0104 2855505F 		.ascii	"(UP_LEFT)\000"
 1199      4C454654 
 1199      2900
 1200 010e 0000     		.space	2
 1201              	.LC17:
 1202 0110 28434D44 		.ascii	"(CMD:DOWN_LEFT)\000"
 1202      3A444F57 
 1202      4E5F4C45 
 1202      46542900 
 1203              	.LC18:
 1204 0120 28434D44 		.ascii	"(CMD:ZOOM_IN)\000"
 1204      3A5A4F4F 
 1204      4D5F494E 
 1204      2900
 1205 012e 0000     		.space	2
 1206              	.LC19:
 1207 0130 28434D44 		.ascii	"(CMD:ZOOM_OUT)\000"
 1207      3A5A4F4F 
 1207      4D5F4F55 
 1207      542900
 1208 013f 00       		.space	1
 1209              	.LC20:
 1210 0140 28434D44 		.ascii	"(CMD:FOCUS_NEAR)\000"
ARM GAS  /tmp/ccbUCoVk.s 			page 32


 1210      3A464F43 
 1210      55535F4E 
 1210      45415229 
 1210      00
 1211 0151 000000   		.space	3
 1212              	.LC21:
 1213 0154 28434D44 		.ascii	"(CMD:FOCUS_FAR)\000"
 1213      3A464F43 
 1213      55535F46 
 1213      41522900 
 1214              	.LC22:
 1215 0164 28434D44 		.ascii	"(CMD:PRESET_SAVE)\000"
 1215      3A505245 
 1215      5345545F 
 1215      53415645 
 1215      2900
 1216 0176 0000     		.space	2
 1217              	.LC23:
 1218 0178 0D0A2843 		.ascii	"\015\012(CMD:VS4210_W)\000"
 1218      4D443A56 
 1218      53343231 
 1218      305F5729 
 1218      00
 1219 0189 000000   		.space	3
 1220              	.LC24:
 1221 018c 0D0A5653 		.ascii	"\015\012VS4210  Write addr=%02x  data=%02x\000"
 1221      34323130 
 1221      20205772 
 1221      69746520 
 1221      61646472 
 1222 01b1 000000   		.space	3
 1223              	.LC25:
 1224 01b4 0D0A2843 		.ascii	"\015\012(CMD:VS4210_R)\000"
 1224      4D443A56 
 1224      53343231 
 1224      305F5229 
 1224      00
 1225 01c5 000000   		.space	3
 1226              	.LC26:
 1227 01c8 0D0A5653 		.ascii	"\015\012VS4210  Read addr=%02x  data=%02x\000"
 1227      34323130 
 1227      20205265 
 1227      61642061 
 1227      6464723D 
 1228              	.LC27:
 1229 01ec 28434845 		.ascii	"(CHECKUSM ERROR)\000"
 1229      434B5553 
 1229      4D204552 
 1229      524F5229 
 1229      00
 1230 01fd 000000   		.space	3
 1231              	.LC28:
 1232 0200 0D0A2832 		.ascii	"\015\012(2CMD: ERROR)\000"
 1232      434D443A 
 1232      20455252 
 1232      4F522900 
 1233              	.LC29:
ARM GAS  /tmp/ccbUCoVk.s 			page 33


 1234 0210 28413D25 		.ascii	"(A=%d)\000"
 1234      642900
 1235              		.section	.bss.protocol_data,"aw",%nobits
 1236              		.align	2
 1237              		.set	.LANCHOR3,. + 0
 1240              	protocol_data:
 1241 0000 00000000 		.space	4
 1242              		.section	.bss.protocol_data_count,"aw",%nobits
 1243              		.set	.LANCHOR1,. + 0
 1246              	protocol_data_count:
 1247 0000 00       		.space	1
 1248              		.text
 1249              	.Letext0:
 1250              		.file 2 "/usr/include/newlib/machine/_default_types.h"
 1251              		.file 3 "/usr/include/newlib/sys/_stdint.h"
 1252              		.file 4 "VS4210/VXIS_Extern_Define.h"
 1253              		.file 5 "VS4210/Printf.h"
 1254              		.file 6 "Drivers/CMSIS/Include/core_cm3.h"
 1255              		.file 7 "TP2824/tpinc/TP2802.h"
 1256              		.file 8 "VS4210/TOA_Protocol.h"
 1257              		.file 9 "sw_i2c/VX_swi2c.h"
 1258              		.file 10 "Inc/main.h"
ARM GAS  /tmp/ccbUCoVk.s 			page 34


DEFINED SYMBOLS
                            *ABS*:0000000000000000 TOA_Protocol.c
     /tmp/ccbUCoVk.s:19     .text.TOAReceivePaser:0000000000000000 $t
     /tmp/ccbUCoVk.s:24     .text.TOAReceivePaser:0000000000000000 TOAReceivePaser
     /tmp/ccbUCoVk.s:114    .text.TOAReceivePaser:0000000000000070 $d
     /tmp/ccbUCoVk.s:121    .text.TOAReceivePaser:000000000000007e $t
     /tmp/ccbUCoVk.s:494    .text.TOAReceivePaser:00000000000002d4 $d
                            *COM*:0000000000000001 protocol_chksum
     /tmp/ccbUCoVk.s:515    .text.TOAReceivePaser:0000000000000320 $t
     /tmp/ccbUCoVk.s:985    .text.TOAReceivePaser:00000000000005c8 $d
     /tmp/ccbUCoVk.s:1009   .text.TOAReceivePaser:0000000000000620 $t
     /tmp/ccbUCoVk.s:1106   .text.TOAReceivePaser:00000000000006a8 $d
     /tmp/ccbUCoVk.s:1143   .bss.CMDCount:0000000000000000 CMDCount
     /tmp/ccbUCoVk.s:1240   .bss.protocol_data:0000000000000000 protocol_data
     /tmp/ccbUCoVk.s:1137   .bss.protocol_cmd:0000000000000000 protocol_cmd
     /tmp/ccbUCoVk.s:1246   .bss.protocol_data_count:0000000000000000 protocol_data_count
                            *COM*:0000000000000001 protocol_param
                            *COM*:0000000000000001 protocol_len
                            *COM*:0000000000000001 protocol_type
     /tmp/ccbUCoVk.s:1149   .bss.protocol_state:0000000000000000 protocol_state
                            *COM*:0000000000000004 protocol_escape_flag
                            *COM*:0000000000000004 newInRes
     /tmp/ccbUCoVk.s:1133   .bss.protocol_cmd:0000000000000000 $d
     /tmp/ccbUCoVk.s:1144   .bss.CMDCount:0000000000000000 $d
     /tmp/ccbUCoVk.s:1150   .bss.protocol_state:0000000000000000 $d
     /tmp/ccbUCoVk.s:1152   .rodata.str1.4:0000000000000000 $d
     /tmp/ccbUCoVk.s:1236   .bss.protocol_data:0000000000000000 $d
     /tmp/ccbUCoVk.s:1247   .bss.protocol_data_count:0000000000000000 $d
                     .debug_frame:0000000000000010 $d

UNDEFINED SYMBOLS
RS2_ready
RS2_rx
GraphicsPrint
RS2_tx
TVI_Command
presetNum
TVI_speed
TVI_Chksum
ptztxflag
VXISI2CWrite
VXISI2CRead
Printf
Get_2824cIrq
PtzTxChNum
