Archive member included to satisfy reference by file (symbol)

/usr/lib/gcc/arm-none-eabi/4.9.3/../../../arm-none-eabi/lib/armv7-m/libc_nano.a(lib_a-atexit.o)
                              /usr/lib/gcc/arm-none-eabi/4.9.3/../../../arm-none-eabi/lib/armv7-m/crt0.o (atexit)
/usr/lib/gcc/arm-none-eabi/4.9.3/../../../arm-none-eabi/lib/armv7-m/libc_nano.a(lib_a-errno.o)
                              build/main.o (__errno)
/usr/lib/gcc/arm-none-eabi/4.9.3/../../../arm-none-eabi/lib/armv7-m/libc_nano.a(lib_a-exit.o)
                              /usr/lib/gcc/arm-none-eabi/4.9.3/../../../arm-none-eabi/lib/armv7-m/crt0.o (exit)
/usr/lib/gcc/arm-none-eabi/4.9.3/../../../arm-none-eabi/lib/armv7-m/libc_nano.a(lib_a-fini.o)
                              /usr/lib/gcc/arm-none-eabi/4.9.3/../../../arm-none-eabi/lib/armv7-m/crt0.o (__libc_fini_array)
/usr/lib/gcc/arm-none-eabi/4.9.3/../../../arm-none-eabi/lib/armv7-m/libc_nano.a(lib_a-impure.o)
                              /usr/lib/gcc/arm-none-eabi/4.9.3/../../../arm-none-eabi/lib/armv7-m/libc_nano.a(lib_a-exit.o) (_global_impure_ptr)
/usr/lib/gcc/arm-none-eabi/4.9.3/../../../arm-none-eabi/lib/armv7-m/libc_nano.a(lib_a-init.o)
                              /usr/lib/gcc/arm-none-eabi/4.9.3/../../../arm-none-eabi/lib/armv7-m/crt0.o (__libc_init_array)
/usr/lib/gcc/arm-none-eabi/4.9.3/../../../arm-none-eabi/lib/armv7-m/libc_nano.a(lib_a-memcpy.o)
                              build/VX_OSD_Simple.o (memcpy)
/usr/lib/gcc/arm-none-eabi/4.9.3/../../../arm-none-eabi/lib/armv7-m/libc_nano.a(lib_a-memset.o)
                              /usr/lib/gcc/arm-none-eabi/4.9.3/../../../arm-none-eabi/lib/armv7-m/crt0.o (memset)
/usr/lib/gcc/arm-none-eabi/4.9.3/../../../arm-none-eabi/lib/armv7-m/libc_nano.a(lib_a-printf.o)
                              build/main.o (printf)
/usr/lib/gcc/arm-none-eabi/4.9.3/../../../arm-none-eabi/lib/armv7-m/libc_nano.a(lib_a-puts.o)
                              build/main.o (puts)
/usr/lib/gcc/arm-none-eabi/4.9.3/../../../arm-none-eabi/lib/armv7-m/libc_nano.a(lib_a-strtol.o)
                              build/main.o (strtol)
/usr/lib/gcc/arm-none-eabi/4.9.3/../../../arm-none-eabi/lib/armv7-m/libc_nano.a(lib_a-wbuf.o)
                              /usr/lib/gcc/arm-none-eabi/4.9.3/../../../arm-none-eabi/lib/armv7-m/libc_nano.a(lib_a-puts.o) (__swbuf_r)
/usr/lib/gcc/arm-none-eabi/4.9.3/../../../arm-none-eabi/lib/armv7-m/libc_nano.a(lib_a-wsetup.o)
                              /usr/lib/gcc/arm-none-eabi/4.9.3/../../../arm-none-eabi/lib/armv7-m/libc_nano.a(lib_a-puts.o) (__swsetup_r)
/usr/lib/gcc/arm-none-eabi/4.9.3/../../../arm-none-eabi/lib/armv7-m/libc_nano.a(lib_a-__atexit.o)
                              /usr/lib/gcc/arm-none-eabi/4.9.3/../../../arm-none-eabi/lib/armv7-m/libc_nano.a(lib_a-atexit.o) (__register_exitproc)
/usr/lib/gcc/arm-none-eabi/4.9.3/../../../arm-none-eabi/lib/armv7-m/libc_nano.a(lib_a-__call_atexit.o)
                              /usr/lib/gcc/arm-none-eabi/4.9.3/../../../arm-none-eabi/lib/armv7-m/libc_nano.a(lib_a-__atexit.o) (__call_exitprocs)
/usr/lib/gcc/arm-none-eabi/4.9.3/../../../arm-none-eabi/lib/armv7-m/libc_nano.a(lib_a-ctype_.o)
                              /usr/lib/gcc/arm-none-eabi/4.9.3/../../../arm-none-eabi/lib/armv7-m/libc_nano.a(lib_a-strtol.o) (__ctype_ptr__)
/usr/lib/gcc/arm-none-eabi/4.9.3/../../../arm-none-eabi/lib/armv7-m/libc_nano.a(lib_a-fflush.o)
                              /usr/lib/gcc/arm-none-eabi/4.9.3/../../../arm-none-eabi/lib/armv7-m/libc_nano.a(lib_a-wbuf.o) (_fflush_r)
/usr/lib/gcc/arm-none-eabi/4.9.3/../../../arm-none-eabi/lib/armv7-m/libc_nano.a(lib_a-findfp.o)
                              /usr/lib/gcc/arm-none-eabi/4.9.3/../../../arm-none-eabi/lib/armv7-m/libc_nano.a(lib_a-printf.o) (__sinit)
/usr/lib/gcc/arm-none-eabi/4.9.3/../../../arm-none-eabi/lib/armv7-m/libc_nano.a(lib_a-fwalk.o)
                              /usr/lib/gcc/arm-none-eabi/4.9.3/../../../arm-none-eabi/lib/armv7-m/libc_nano.a(lib_a-findfp.o) (_fwalk)
/usr/lib/gcc/arm-none-eabi/4.9.3/../../../arm-none-eabi/lib/armv7-m/libc_nano.a(lib_a-makebuf.o)
                              /usr/lib/gcc/arm-none-eabi/4.9.3/../../../arm-none-eabi/lib/armv7-m/libc_nano.a(lib_a-wsetup.o) (__smakebuf_r)
/usr/lib/gcc/arm-none-eabi/4.9.3/../../../arm-none-eabi/lib/armv7-m/libc_nano.a(lib_a-nano-freer.o)
                              /usr/lib/gcc/arm-none-eabi/4.9.3/../../../arm-none-eabi/lib/armv7-m/libc_nano.a(lib_a-wsetup.o) (_free_r)
/usr/lib/gcc/arm-none-eabi/4.9.3/../../../arm-none-eabi/lib/armv7-m/libc_nano.a(lib_a-nano-mallocr.o)
                              /usr/lib/gcc/arm-none-eabi/4.9.3/../../../arm-none-eabi/lib/armv7-m/libc_nano.a(lib_a-findfp.o) (_malloc_r)
/usr/lib/gcc/arm-none-eabi/4.9.3/../../../arm-none-eabi/lib/armv7-m/libc_nano.a(lib_a-nano-vfprintf.o)
                              /usr/lib/gcc/arm-none-eabi/4.9.3/../../../arm-none-eabi/lib/armv7-m/libc_nano.a(lib_a-printf.o) (_vfprintf_r)
/usr/lib/gcc/arm-none-eabi/4.9.3/../../../arm-none-eabi/lib/armv7-m/libc_nano.a(lib_a-nano-vfprintf_i.o)
                              /usr/lib/gcc/arm-none-eabi/4.9.3/../../../arm-none-eabi/lib/armv7-m/libc_nano.a(lib_a-nano-vfprintf.o) (_printf_i)
/usr/lib/gcc/arm-none-eabi/4.9.3/../../../arm-none-eabi/lib/armv7-m/libc_nano.a(lib_a-sbrkr.o)
                              /usr/lib/gcc/arm-none-eabi/4.9.3/../../../arm-none-eabi/lib/armv7-m/libc_nano.a(lib_a-nano-mallocr.o) (_sbrk_r)
/usr/lib/gcc/arm-none-eabi/4.9.3/../../../arm-none-eabi/lib/armv7-m/libc_nano.a(lib_a-stdio.o)
                              /usr/lib/gcc/arm-none-eabi/4.9.3/../../../arm-none-eabi/lib/armv7-m/libc_nano.a(lib_a-findfp.o) (__sread)
/usr/lib/gcc/arm-none-eabi/4.9.3/../../../arm-none-eabi/lib/armv7-m/libc_nano.a(lib_a-writer.o)
                              /usr/lib/gcc/arm-none-eabi/4.9.3/../../../arm-none-eabi/lib/armv7-m/libc_nano.a(lib_a-stdio.o) (_write_r)
/usr/lib/gcc/arm-none-eabi/4.9.3/../../../arm-none-eabi/lib/armv7-m/libc_nano.a(lib_a-closer.o)
                              /usr/lib/gcc/arm-none-eabi/4.9.3/../../../arm-none-eabi/lib/armv7-m/libc_nano.a(lib_a-stdio.o) (_close_r)
/usr/lib/gcc/arm-none-eabi/4.9.3/../../../arm-none-eabi/lib/armv7-m/libc_nano.a(lib_a-fstatr.o)
                              /usr/lib/gcc/arm-none-eabi/4.9.3/../../../arm-none-eabi/lib/armv7-m/libc_nano.a(lib_a-makebuf.o) (_fstat_r)
/usr/lib/gcc/arm-none-eabi/4.9.3/../../../arm-none-eabi/lib/armv7-m/libc_nano.a(lib_a-fvwrite.o)
                              /usr/lib/gcc/arm-none-eabi/4.9.3/../../../arm-none-eabi/lib/armv7-m/libc_nano.a(lib_a-nano-vfprintf.o) (__sfvwrite_r)
/usr/lib/gcc/arm-none-eabi/4.9.3/../../../arm-none-eabi/lib/armv7-m/libc_nano.a(lib_a-isattyr.o)
                              /usr/lib/gcc/arm-none-eabi/4.9.3/../../../arm-none-eabi/lib/armv7-m/libc_nano.a(lib_a-makebuf.o) (_isatty_r)
/usr/lib/gcc/arm-none-eabi/4.9.3/../../../arm-none-eabi/lib/armv7-m/libc_nano.a(lib_a-lseekr.o)
                              /usr/lib/gcc/arm-none-eabi/4.9.3/../../../arm-none-eabi/lib/armv7-m/libc_nano.a(lib_a-stdio.o) (_lseek_r)
/usr/lib/gcc/arm-none-eabi/4.9.3/../../../arm-none-eabi/lib/armv7-m/libc_nano.a(lib_a-memchr.o)
                              /usr/lib/gcc/arm-none-eabi/4.9.3/../../../arm-none-eabi/lib/armv7-m/libc_nano.a(lib_a-nano-vfprintf.o) (memchr)
/usr/lib/gcc/arm-none-eabi/4.9.3/../../../arm-none-eabi/lib/armv7-m/libc_nano.a(lib_a-memmove.o)
                              /usr/lib/gcc/arm-none-eabi/4.9.3/../../../arm-none-eabi/lib/armv7-m/libc_nano.a(lib_a-fvwrite.o) (memmove)
/usr/lib/gcc/arm-none-eabi/4.9.3/../../../arm-none-eabi/lib/armv7-m/libc_nano.a(lib_a-nano-reallocr.o)
                              /usr/lib/gcc/arm-none-eabi/4.9.3/../../../arm-none-eabi/lib/armv7-m/libc_nano.a(lib_a-fvwrite.o) (_realloc_r)
/usr/lib/gcc/arm-none-eabi/4.9.3/../../../arm-none-eabi/lib/armv7-m/libc_nano.a(lib_a-readr.o)
                              /usr/lib/gcc/arm-none-eabi/4.9.3/../../../arm-none-eabi/lib/armv7-m/libc_nano.a(lib_a-stdio.o) (_read_r)
/usr/lib/gcc/arm-none-eabi/4.9.3/../../../arm-none-eabi/lib/armv7-m/libc_nano.a(lib_a-reent.o)
                              /usr/lib/gcc/arm-none-eabi/4.9.3/../../../arm-none-eabi/lib/armv7-m/libc_nano.a(lib_a-sbrkr.o) (errno)
/usr/lib/gcc/arm-none-eabi/4.9.3/../../../arm-none-eabi/lib/armv7-m/libc_nano.a(lib_a-nano-msizer.o)
                              /usr/lib/gcc/arm-none-eabi/4.9.3/../../../arm-none-eabi/lib/armv7-m/libc_nano.a(lib_a-nano-reallocr.o) (_malloc_usable_size_r)
/usr/lib/gcc/arm-none-eabi/4.9.3/../../../arm-none-eabi/lib/armv7-m/libnosys.a(close.o)
                              /usr/lib/gcc/arm-none-eabi/4.9.3/../../../arm-none-eabi/lib/armv7-m/libc_nano.a(lib_a-closer.o) (_close)
/usr/lib/gcc/arm-none-eabi/4.9.3/../../../arm-none-eabi/lib/armv7-m/libnosys.a(fstat.o)
                              /usr/lib/gcc/arm-none-eabi/4.9.3/../../../arm-none-eabi/lib/armv7-m/libc_nano.a(lib_a-fstatr.o) (_fstat)
/usr/lib/gcc/arm-none-eabi/4.9.3/../../../arm-none-eabi/lib/armv7-m/libnosys.a(isatty.o)
                              /usr/lib/gcc/arm-none-eabi/4.9.3/../../../arm-none-eabi/lib/armv7-m/libc_nano.a(lib_a-isattyr.o) (_isatty)
/usr/lib/gcc/arm-none-eabi/4.9.3/../../../arm-none-eabi/lib/armv7-m/libnosys.a(lseek.o)
                              /usr/lib/gcc/arm-none-eabi/4.9.3/../../../arm-none-eabi/lib/armv7-m/libc_nano.a(lib_a-lseekr.o) (_lseek)
/usr/lib/gcc/arm-none-eabi/4.9.3/../../../arm-none-eabi/lib/armv7-m/libnosys.a(read.o)
                              /usr/lib/gcc/arm-none-eabi/4.9.3/../../../arm-none-eabi/lib/armv7-m/libc_nano.a(lib_a-readr.o) (_read)
/usr/lib/gcc/arm-none-eabi/4.9.3/../../../arm-none-eabi/lib/armv7-m/libnosys.a(sbrk.o)
                              /usr/lib/gcc/arm-none-eabi/4.9.3/../../../arm-none-eabi/lib/armv7-m/libc_nano.a(lib_a-sbrkr.o) (_sbrk)
/usr/lib/gcc/arm-none-eabi/4.9.3/../../../arm-none-eabi/lib/armv7-m/libnosys.a(_exit.o)
                              /usr/lib/gcc/arm-none-eabi/4.9.3/../../../arm-none-eabi/lib/armv7-m/libc_nano.a(lib_a-exit.o) (_exit)
./Lib/libite66121dvi.a(hdmitx_sys.o)
                              build/main.o (HDMITX_DevLoopProc)
./Lib/libite66121dvi.a(hdmitx_drv.o)
                              ./Lib/libite66121dvi.a(hdmitx_sys.o) (HDMITX_InitTxDev)
./Lib/libite66121dvi.a(tx_csc.o)
                              ./Lib/libite66121dvi.a(hdmitx_drv.o) (bCSCMtx_YUV2RGB_ITU709_0_255)
./Lib/libsw_i2c0.a(sw_i2c0.o)
                              build/main.o (SW_I2C0_Init)
./Lib/libsw_i2c1.a(sw_i2c1.o)
                              build/main.o (SW_I2C1_Init)
./Lib/libsw_i2c2.a(sw_i2c2.o)
                              build/main.o (SW_I2C2_Init)
./Lib/libsw_i2c3.a(sw_i2c3.o)
                              build/main.o (SW_I2C3_Init)
./Lib/libVS4210.a(VS4210.o)   build/main.o (gHDMI_Index)
./Lib/libit6602.a(it6602.o)   build/main.o (GetHDMI_InputMode)
/usr/lib/gcc/arm-none-eabi/4.9.3/armv7-m/libgcc.a(_udivsi3.o)
                              ./Lib/libite66121dvi.a(hdmitx_sys.o) (__aeabi_uidiv)
/usr/lib/gcc/arm-none-eabi/4.9.3/armv7-m/libgcc.a(_divsi3.o)
                              ./Lib/libit6602.a(it6602.o) (__aeabi_idiv)
/usr/lib/gcc/arm-none-eabi/4.9.3/armv7-m/libgcc.a(_dvmd_tls.o)
                              /usr/lib/gcc/arm-none-eabi/4.9.3/armv7-m/libgcc.a(_udivsi3.o) (__aeabi_idiv0)

Allocating common symbols
Common symbol       size              file

COCRX4              0xc               build/TP2802.o
VSDB_Addr           0x1               ./Lib/libit6602.a(it6602.o)
ptcOSDbar           0x4               build/VX_OSD_Simple.o
gaHDMI_MapWindowIndex
                    0x4               ./Lib/libVS4210.a(VS4210.o)
argv                0x1c              build/monitor.o
CurCH               0x1               build/TP2802.o
gWindowNum          0x1               ./Lib/libVS4210.a(VS4210.o)
Priority            0x1               build/main.o
errno               0x4               /usr/lib/gcc/arm-none-eabi/4.9.3/../../../arm-none-eabi/lib/armv7-m/libc_nano.a(lib_a-reent.o)
CurTMDSCLK          0x4               ./Lib/libit6602.a(it6602.o)
std                 0x1               build/TP2802.o
monstr              0x1e              build/monitor.o
AHDcmd2             0x1               build/TP2802.o
TVI_Chksum          0x1               build/TP2802.o
presetNum           0x1               build/TP2802.o
ManVidResRx         0x1               build/TP2802.o
flag_AUDIO          0x4               build/TP2802.o
wrburstoff          0x1               ./Lib/libit6602.a(it6602.o)
ucPortAMPValid      0x2               ./Lib/libit6602.a(it6602.o)
MenuOSDonFlg        0x1               build/VX_OSD_Simple.o
VideoPixelClock     0x4               ./Lib/libite66121dvi.a(hdmitx_sys.o)
PreVState           0x4               ./Lib/libit6602.a(it6602.o)
aviinfoframe        0x10              ./Lib/libit6602.a(it6602.o)
gabVXIS_Input_mirrorH
                    0x4               build/main.o
rxphyC              0x1               ./Lib/libit6602.a(it6602.o)
CAMR_M              0x1               build/main.o
rxphyB              0x1               ./Lib/libit6602.a(it6602.o)
COCRX2              0xc               build/TP2802.o
PTZ_buf             0x10              build/TP2802.o
aspec               0x1               ./Lib/libite66121dvi.a(hdmitx_sys.o)
uwTick              0x4               build/stm32f1xx_hal.o
rxphyadr            0x4               ./Lib/libit6602.a(it6602.o)
pFlash              0x20              build/stm32f1xx_hal_flash.o
gPreAudioSampleFreq
                    0x1               build/main.o
ExOsdContent        0x100             build/main.o
gHDMI_Index         0x1               ./Lib/libVS4210.a(VS4210.o)
protocol_type       0x1               build/TOA_Protocol.o
CAMC_M              0x1               build/main.o
htim3               0x40              build/main.o
state               0x1               build/TP2802.o
egain               0x4               build/TP2802.o
it6602_DEV          0x90              ./Lib/libit6602.a(it6602.o)
gskipsleepflg       0x1               build/VX_swi2c.o
flag_MEGA           0x4               build/TP2802.o
crc                 0x1               build/TP2802.o
tpRxD               0x1a              build/TP2802.o
AHDcmd4             0x1               build/TP2802.o
protocol_len        0x1               build/TOA_Protocol.o
hadc1               0x30              build/main.o
flag_LOCKED         0x1               build/TP2802.o
txphyA              0x1               ./Lib/libit6602.a(it6602.o)
g_stTimerEvent      0x50              build/SysTimer.o
ucChannelG          0x2               ./Lib/libit6602.a(it6602.o)
protocol_param      0x1               build/TOA_Protocol.o
mode                0x1               build/TP2802.o
OSDx2Flg            0x1               build/VX_OSD_Simple.o
ucChannelR          0x2               ./Lib/libit6602.a(it6602.o)
sywd                0x4               build/TP2802.o
flag_CVBS           0x4               build/TP2802.o
BatteryVoltage      0x4               build/SysTimer.o
Colorimetry         0x1               ./Lib/libite66121dvi.a(hdmitx_sys.o)
TVII2CAddress       0x1               build/TP2802.o
huart1              0x40              build/main.o
wrburstnum          0x1               ./Lib/libit6602.a(it6602.o)
VState              0x4               ./Lib/libit6602.a(it6602.o)
MonIndex            0x1               build/monitor.o
rxcurport           0x1               ./Lib/libit6602.a(it6602.o)
ptztxflag           0x4               build/TP2802.o
txphyD              0x1               ./Lib/libit6602.a(it6602.o)
pixelrep            0x1               ./Lib/libite66121dvi.a(hdmitx_sys.o)
TVI_Command         0x1               build/TP2802.o
CameraVolt          0x1               build/SysTimer.o
SelectModeType      0x1               build/main.o
CurVTiming          0x1c              ./Lib/libit6602.a(it6602.o)
Flisheye_COC        0x1               build/TP2802.o
ucChannelB          0x2               ./Lib/libit6602.a(it6602.o)
rxphyA              0x1               ./Lib/libit6602.a(it6602.o)
COCRX1              0xc               build/TP2802.o
DebugLevel          0x1               build/main.o
txphyadr            0x2               ./Lib/libit6602.a(it6602.o)
gbVXIS_InputMode    0x4               ./Lib/libVS4210.a(VS4210.o)
COCRX3              0xc               build/TP2802.o
revision            0x1               build/TP2802.o
rxphyD              0x1               ./Lib/libit6602.a(it6602.o)
txphylevel          0x1               ./Lib/libit6602.a(it6602.o)
RS_buf              0x1e              build/monitor.o
DVR_buf             0x1e              build/monitor.o
RS2_buf             0xc8              build/monitor.o
hdmiTxDev           0x14              ./Lib/libite66121dvi.a(hdmitx_drv.o)
protocol_chksum     0x1               build/TOA_Protocol.o
AState              0x4               ./Lib/libit6602.a(it6602.o)
count               0x1               build/TP2802.o
ucEQMode            0x2               ./Lib/libit6602.a(it6602.o)
gPrebAUDO_INDEX     0x1               build/main.o
PTZ_pelco           0x2               build/TP2802.o
MonWdata            0x1               build/monitor.o
AHDcmd1             0x1               build/TP2802.o
xchMapl             0x4               ./Lib/libVS4210.a(VS4210.o)
bAudioEnable        0x1               ./Lib/libite66121dvi.a(hdmitx_sys.o)
CAMB_M              0x1               build/main.o
htim2               0x40              build/main.o
txphyB              0x1               ./Lib/libit6602.a(it6602.o)
gbVXIS_OuputSize    0x1               ./Lib/libVS4210.a(VS4210.o)
huart2              0x40              build/main.o
CAMA_M              0x1               build/main.o
g_stPowerInfo       0x2               build/SysTimer.o
txphyC              0x1               ./Lib/libit6602.a(it6602.o)
pVS4210_MutiWindows1
                    0xa               build/main.o
AHDcmd3             0x1               build/TP2802.o
protocol_escape_flag
                    0x4               build/TOA_Protocol.o
CommunBuff          0x80              ./Lib/libite66121dvi.a(hdmitx_sys.o)
VideoSave           0x1               build/TP2802.o
TVI_speed           0x1               build/TP2802.o
MonRdata            0x1               build/monitor.o
CurRes              0x1               build/TP2802.o
chip                0x1               build/TP2802.o
ManVidRes           0x1               build/main.o
ucPortAMPOverWrite  0x2               ./Lib/libit6602.a(it6602.o)
pVS4210_JointKind1  0xa               build/main.o
BatteryBTH          0x4               build/SysTimer.o
TimeStep            0x1               build/main.o

Discarded input sections

 .text          0x0000000000000000        0x0 /usr/lib/gcc/arm-none-eabi/4.9.3/armv7-m/crti.o
 .data          0x0000000000000000        0x0 /usr/lib/gcc/arm-none-eabi/4.9.3/armv7-m/crti.o
 .bss           0x0000000000000000        0x0 /usr/lib/gcc/arm-none-eabi/4.9.3/armv7-m/crti.o
 .data          0x0000000000000000        0x4 /usr/lib/gcc/arm-none-eabi/4.9.3/armv7-m/crtbegin.o
 .text          0x0000000000000000       0x68 /usr/lib/gcc/arm-none-eabi/4.9.3/../../../arm-none-eabi/lib/armv7-m/crt0.o
 .data          0x0000000000000000        0x0 /usr/lib/gcc/arm-none-eabi/4.9.3/../../../arm-none-eabi/lib/armv7-m/crt0.o
 .bss           0x0000000000000000        0x0 /usr/lib/gcc/arm-none-eabi/4.9.3/../../../arm-none-eabi/lib/armv7-m/crt0.o
 .ARM.extab     0x0000000000000000        0x0 /usr/lib/gcc/arm-none-eabi/4.9.3/../../../arm-none-eabi/lib/armv7-m/crt0.o
 .ARM.exidx     0x0000000000000000        0x8 /usr/lib/gcc/arm-none-eabi/4.9.3/../../../arm-none-eabi/lib/armv7-m/crt0.o
 .debug_line    0x0000000000000000       0x7b /usr/lib/gcc/arm-none-eabi/4.9.3/../../../arm-none-eabi/lib/armv7-m/crt0.o
 .debug_info    0x0000000000000000       0xa8 /usr/lib/gcc/arm-none-eabi/4.9.3/../../../arm-none-eabi/lib/armv7-m/crt0.o
 .debug_abbrev  0x0000000000000000       0x14 /usr/lib/gcc/arm-none-eabi/4.9.3/../../../arm-none-eabi/lib/armv7-m/crt0.o
 .debug_aranges
                0x0000000000000000       0x20 /usr/lib/gcc/arm-none-eabi/4.9.3/../../../arm-none-eabi/lib/armv7-m/crt0.o
 .ARM.attributes
                0x0000000000000000       0x1b /usr/lib/gcc/arm-none-eabi/4.9.3/../../../arm-none-eabi/lib/armv7-m/crt0.o
 .text          0x0000000000000000        0x0 build/main.o
 .data          0x0000000000000000        0x0 build/main.o
 .bss           0x0000000000000000        0x0 build/main.o
 .text.GetRS232_CMD
                0x0000000000000000       0x74 build/main.o
 .text.setloopoutmode
                0x0000000000000000      0x414 build/main.o
 .text.LCDPowerON
                0x0000000000000000        0x4 build/main.o
 .text.LCDPowerOFF
                0x0000000000000000        0x4 build/main.o
 .text.uComOnChipInitial
                0x0000000000000000       0x28 build/main.o
 .text.AdjustAutoDayNight
                0x0000000000000000       0x98 build/main.o
 .text.LoadEEPROM
                0x0000000000000000        0x4 build/main.o
 .text.WaitPowerOn
                0x0000000000000000       0x90 build/main.o
 .text.SET_VS4210_1280_720_out
                0x0000000000000000      0x784 build/main.o
 .text.SET_AHD_MDOE
                0x0000000000000000      0x814 build/main.o
 .text.Error_Handler
                0x0000000000000000        0x4 build/main.o
 .data.PWMLevel
                0x0000000000000000        0x1 build/main.o
 .bss.DayNightLevel
                0x0000000000000000        0x1 build/main.o
 .bss.IR_Code   0x0000000000000000        0x1 build/main.o
 .bss.DebugFlg  0x0000000000000000        0x4 build/main.o
 .bss.PreIR_IRQ_Index
                0x0000000000000000        0x1 build/main.o
 .bss.RxBufIndex
                0x0000000000000000        0x4 build/main.o
 .data.gRxLoopFlg
                0x0000000000000000        0x1 build/main.o
 .bss.half_scaler
                0x0000000000000000        0x1 build/main.o
 .bss.RxiCount  0x0000000000000000        0x4 build/main.o
 .bss.u16Vendor
                0x0000000000000000        0x2 build/main.o
 .bss.tptic     0x0000000000000000        0x1 build/main.o
 .bss.IR_PlusTimeVal
                0x0000000000000000        0x2 build/main.o
 .bss.IR_4BYTE  0x0000000000000000        0x4 build/main.o
 .bss.IR_END_Flg
                0x0000000000000000        0x1 build/main.o
 .bss.IR_ShiftCount
                0x0000000000000000        0x1 build/main.o
 .bss.LightSensor_ADC
                0x0000000000000000        0x2 build/main.o
 .bss.Transfer_cplt
                0x0000000000000000        0x1 build/main.o
 .bss.AutoDayNightDelay
                0x0000000000000000        0x1 build/main.o
 .bss.keytic    0x0000000000000000        0x1 build/main.o
 .bss.u8IRCheckcode
                0x0000000000000000        0x1 build/main.o
 .bss.u8IRcode  0x0000000000000000        0x1 build/main.o
 .bss.u8PowerFlg
                0x0000000000000000        0x1 build/main.o
 .bss.Rx_indx   0x0000000000000000        0x4 build/main.o
 .data.PowerFlag
                0x0000000000000000        0x1 build/main.o
 .bss.PreIR_Code
                0x0000000000000000        0x1 build/main.o
 .bss.OSD_SPEAKER
                0x0000000000000000        0x4 build/main.o
 .bss.IR_StartFlg
                0x0000000000000000        0x1 build/main.o
 .bss.TxiCount  0x0000000000000000        0x4 build/main.o
 .bss.IR_IRQ_Index
                0x0000000000000000        0x1 build/main.o
 .bss.gRxbuf    0x0000000000000000       0x32 build/main.o
 .bss.IR_IRQFlg
                0x0000000000000000        0x1 build/main.o
 .bss.CURRENT_CH
                0x0000000000000000        0x1 build/main.o
 .bss.OSD_MIRROR
                0x0000000000000000        0x4 build/main.o
 .text          0x0000000000000000        0x0 build/stm32f1xx_it.o
 .data          0x0000000000000000        0x0 build/stm32f1xx_it.o
 .bss           0x0000000000000000        0x0 build/stm32f1xx_it.o
 .text          0x0000000000000000        0x0 build/stm32f1xx_hal_msp.o
 .data          0x0000000000000000        0x0 build/stm32f1xx_hal_msp.o
 .bss           0x0000000000000000        0x0 build/stm32f1xx_hal_msp.o
 .text.HAL_TIM_Base_MspDeInit
                0x0000000000000000       0x24 build/stm32f1xx_hal_msp.o
 .text.HAL_UART_MspDeInit
                0x0000000000000000       0x58 build/stm32f1xx_hal_msp.o
 .text.HAL_ADC_MspInit
                0x0000000000000000       0x5c build/stm32f1xx_hal_msp.o
 .text.HAL_ADC_MspDeInit
                0x0000000000000000       0x2c build/stm32f1xx_hal_msp.o
 .text.HAL_TIM_PWM_MspInit
                0x0000000000000000       0x24 build/stm32f1xx_hal_msp.o
 .text.HAL_TIM_MspPostInit
                0x0000000000000000       0x60 build/stm32f1xx_hal_msp.o
 .text.HAL_TIM_PWM_MspDeInit
                0x0000000000000000       0x18 build/stm32f1xx_hal_msp.o
 .text          0x0000000000000000        0x0 build/stm32f1xx_hal_gpio_ex.o
 .data          0x0000000000000000        0x0 build/stm32f1xx_hal_gpio_ex.o
 .bss           0x0000000000000000        0x0 build/stm32f1xx_hal_gpio_ex.o
 .text.HAL_GPIOEx_ConfigEventout
                0x0000000000000000       0x14 build/stm32f1xx_hal_gpio_ex.o
 .text.HAL_GPIOEx_EnableEventout
                0x0000000000000000       0x10 build/stm32f1xx_hal_gpio_ex.o
 .text.HAL_GPIOEx_DisableEventout
                0x0000000000000000       0x10 build/stm32f1xx_hal_gpio_ex.o
 .debug_info    0x0000000000000000      0x191 build/stm32f1xx_hal_gpio_ex.o
 .debug_abbrev  0x0000000000000000       0xdc build/stm32f1xx_hal_gpio_ex.o
 .debug_loc     0x0000000000000000       0x21 build/stm32f1xx_hal_gpio_ex.o
 .debug_aranges
                0x0000000000000000       0x30 build/stm32f1xx_hal_gpio_ex.o
 .debug_ranges  0x0000000000000000       0x20 build/stm32f1xx_hal_gpio_ex.o
 .debug_line    0x0000000000000000      0x140 build/stm32f1xx_hal_gpio_ex.o
 .debug_str     0x0000000000000000      0x222 build/stm32f1xx_hal_gpio_ex.o
 .comment       0x0000000000000000       0x39 build/stm32f1xx_hal_gpio_ex.o
 .debug_frame   0x0000000000000000       0x40 build/stm32f1xx_hal_gpio_ex.o
 .ARM.attributes
                0x0000000000000000       0x33 build/stm32f1xx_hal_gpio_ex.o
 .text          0x0000000000000000        0x0 build/stm32f1xx_hal_tim.o
 .data          0x0000000000000000        0x0 build/stm32f1xx_hal_tim.o
 .bss           0x0000000000000000        0x0 build/stm32f1xx_hal_tim.o
 .text.TIM_TI2_SetConfig
                0x0000000000000000       0x34 build/stm32f1xx_hal_tim.o
 .text.TIM_TI3_SetConfig
                0x0000000000000000       0x34 build/stm32f1xx_hal_tim.o
 .text.TIM_TI4_SetConfig
                0x0000000000000000       0x34 build/stm32f1xx_hal_tim.o
 .text.HAL_TIM_Base_MspInit
                0x0000000000000000        0x4 build/stm32f1xx_hal_tim.o
 .text.HAL_TIM_Base_MspDeInit
                0x0000000000000000        0x4 build/stm32f1xx_hal_tim.o
 .text.HAL_TIM_Base_DeInit
                0x0000000000000000       0x3c build/stm32f1xx_hal_tim.o
 .text.HAL_TIM_Base_Start
                0x0000000000000000       0x24 build/stm32f1xx_hal_tim.o
 .text.HAL_TIM_Base_Stop
                0x0000000000000000       0x30 build/stm32f1xx_hal_tim.o
 .text.HAL_TIM_Base_Stop_IT
                0x0000000000000000       0x2c build/stm32f1xx_hal_tim.o
 .text.HAL_TIM_Base_Start_DMA
                0x0000000000000000       0x80 build/stm32f1xx_hal_tim.o
 .text.HAL_TIM_Base_Stop_DMA
                0x0000000000000000       0x3c build/stm32f1xx_hal_tim.o
 .text.HAL_TIM_OC_MspInit
                0x0000000000000000        0x4 build/stm32f1xx_hal_tim.o
 .text.HAL_TIM_OC_MspDeInit
                0x0000000000000000        0x4 build/stm32f1xx_hal_tim.o
 .text.HAL_TIM_OC_DeInit
                0x0000000000000000       0x3c build/stm32f1xx_hal_tim.o
 .text.HAL_TIM_PWM_MspInit
                0x0000000000000000        0x4 build/stm32f1xx_hal_tim.o
 .text.HAL_TIM_PWM_MspDeInit
                0x0000000000000000        0x4 build/stm32f1xx_hal_tim.o
 .text.HAL_TIM_PWM_DeInit
                0x0000000000000000       0x3c build/stm32f1xx_hal_tim.o
 .text.HAL_TIM_IC_MspInit
                0x0000000000000000        0x4 build/stm32f1xx_hal_tim.o
 .text.HAL_TIM_IC_MspDeInit
                0x0000000000000000        0x4 build/stm32f1xx_hal_tim.o
 .text.HAL_TIM_IC_DeInit
                0x0000000000000000       0x3c build/stm32f1xx_hal_tim.o
 .text.HAL_TIM_OnePulse_MspInit
                0x0000000000000000        0x4 build/stm32f1xx_hal_tim.o
 .text.HAL_TIM_OnePulse_MspDeInit
                0x0000000000000000        0x4 build/stm32f1xx_hal_tim.o
 .text.HAL_TIM_OnePulse_DeInit
                0x0000000000000000       0x3c build/stm32f1xx_hal_tim.o
 .text.HAL_TIM_Encoder_MspInit
                0x0000000000000000        0x4 build/stm32f1xx_hal_tim.o
 .text.HAL_TIM_Encoder_MspDeInit
                0x0000000000000000        0x4 build/stm32f1xx_hal_tim.o
 .text.HAL_TIM_Encoder_DeInit
                0x0000000000000000       0x3c build/stm32f1xx_hal_tim.o
 .text.HAL_TIM_DMABurst_WriteStart
                0x0000000000000000      0x1e8 build/stm32f1xx_hal_tim.o
 .text.HAL_TIM_DMABurst_WriteStop
                0x0000000000000000       0x80 build/stm32f1xx_hal_tim.o
 .text.HAL_TIM_DMABurst_ReadStart
                0x0000000000000000      0x1e8 build/stm32f1xx_hal_tim.o
 .text.HAL_TIM_DMABurst_ReadStop
                0x0000000000000000       0x80 build/stm32f1xx_hal_tim.o
 .text.HAL_TIM_GenerateEvent
                0x0000000000000000       0x28 build/stm32f1xx_hal_tim.o
 .text.HAL_TIM_ConfigTI1Input
                0x0000000000000000       0x10 build/stm32f1xx_hal_tim.o
 .text.HAL_TIM_ReadCapturedValue
                0x0000000000000000       0x34 build/stm32f1xx_hal_tim.o
 .text.HAL_TIM_PeriodElapsedCallback
                0x0000000000000000        0x4 build/stm32f1xx_hal_tim.o
 .text.TIM_DMAPeriodElapsedCplt
                0x0000000000000000       0x10 build/stm32f1xx_hal_tim.o
 .text.HAL_TIM_PeriodElapsedHalfCpltCallback
                0x0000000000000000        0x4 build/stm32f1xx_hal_tim.o
 .text.TIM_DMAPeriodElapsedHalfCplt
                0x0000000000000000       0x10 build/stm32f1xx_hal_tim.o
 .text.TIM_DMACaptureCplt
                0x0000000000000000       0x44 build/stm32f1xx_hal_tim.o
 .text.HAL_TIM_IC_CaptureHalfCpltCallback
                0x0000000000000000        0x4 build/stm32f1xx_hal_tim.o
 .text.TIM_DMACaptureHalfCplt
                0x0000000000000000       0x44 build/stm32f1xx_hal_tim.o
 .text.TIM_DMADelayPulseCplt
                0x0000000000000000       0x44 build/stm32f1xx_hal_tim.o
 .text.HAL_TIM_PWM_PulseFinishedHalfCpltCallback
                0x0000000000000000        0x4 build/stm32f1xx_hal_tim.o
 .text.TIM_DMADelayPulseHalfCplt
                0x0000000000000000       0x44 build/stm32f1xx_hal_tim.o
 .text.TIM_DMATriggerCplt
                0x0000000000000000       0x10 build/stm32f1xx_hal_tim.o
 .text.HAL_TIM_TriggerHalfCpltCallback
                0x0000000000000000        0x4 build/stm32f1xx_hal_tim.o
 .text.TIM_DMATriggerHalfCplt
                0x0000000000000000       0x10 build/stm32f1xx_hal_tim.o
 .text.HAL_TIM_ErrorCallback
                0x0000000000000000        0x4 build/stm32f1xx_hal_tim.o
 .text.TIM_DMAError
                0x0000000000000000       0x10 build/stm32f1xx_hal_tim.o
 .text.HAL_TIM_Base_GetState
                0x0000000000000000        0x8 build/stm32f1xx_hal_tim.o
 .text.HAL_TIM_OC_GetState
                0x0000000000000000        0x8 build/stm32f1xx_hal_tim.o
 .text.HAL_TIM_PWM_GetState
                0x0000000000000000        0x8 build/stm32f1xx_hal_tim.o
 .text.HAL_TIM_IC_GetState
                0x0000000000000000        0x8 build/stm32f1xx_hal_tim.o
 .text.HAL_TIM_OnePulse_GetState
                0x0000000000000000        0x8 build/stm32f1xx_hal_tim.o
 .text.HAL_TIM_Encoder_GetState
                0x0000000000000000        0x8 build/stm32f1xx_hal_tim.o
 .text.HAL_TIM_OC_Init
                0x0000000000000000       0x38 build/stm32f1xx_hal_tim.o
 .text.HAL_TIM_PWM_Init
                0x0000000000000000       0x38 build/stm32f1xx_hal_tim.o
 .text.HAL_TIM_IC_Init
                0x0000000000000000       0x38 build/stm32f1xx_hal_tim.o
 .text.HAL_TIM_OnePulse_Init
                0x0000000000000000       0x4c build/stm32f1xx_hal_tim.o
 .text.HAL_TIM_Encoder_Init
                0x0000000000000000       0xa0 build/stm32f1xx_hal_tim.o
 .text.HAL_TIM_OC_ConfigChannel
                0x0000000000000000       0x60 build/stm32f1xx_hal_tim.o
 .text.TIM_TI1_SetConfig
                0x0000000000000000       0x6c build/stm32f1xx_hal_tim.o
 .text.HAL_TIM_IC_ConfigChannel
                0x0000000000000000       0xc0 build/stm32f1xx_hal_tim.o
 .text.HAL_TIM_OnePulse_ConfigChannel
                0x0000000000000000       0xf4 build/stm32f1xx_hal_tim.o
 .text.HAL_TIM_ConfigOCrefClear
                0x0000000000000000       0xe4 build/stm32f1xx_hal_tim.o
 .text.TIM_SlaveTimer_SetConfig
                0x0000000000000000       0x90 build/stm32f1xx_hal_tim.o
 .text.HAL_TIM_SlaveConfigSynchro
                0x0000000000000000       0x5c build/stm32f1xx_hal_tim.o
 .text.HAL_TIM_SlaveConfigSynchro_IT
                0x0000000000000000       0x5c build/stm32f1xx_hal_tim.o
 .text.HAL_TIM_OC_Start
                0x0000000000000000       0x38 build/stm32f1xx_hal_tim.o
 .text.HAL_TIM_OC_Stop
                0x0000000000000000       0x58 build/stm32f1xx_hal_tim.o
 .text.HAL_TIM_OC_Start_IT
                0x0000000000000000       0x7c build/stm32f1xx_hal_tim.o
 .text.HAL_TIM_OC_Stop_IT
                0x0000000000000000       0x9c build/stm32f1xx_hal_tim.o
 .text.HAL_TIM_OC_Start_DMA
                0x0000000000000000      0x15c build/stm32f1xx_hal_tim.o
 .text.HAL_TIM_OC_Stop_DMA
                0x0000000000000000       0xbc build/stm32f1xx_hal_tim.o
 .text.HAL_TIM_PWM_Stop
                0x0000000000000000       0x5c build/stm32f1xx_hal_tim.o
 .text.HAL_TIM_PWM_Start_IT
                0x0000000000000000       0x7c build/stm32f1xx_hal_tim.o
 .text.HAL_TIM_PWM_Stop_IT
                0x0000000000000000       0x9c build/stm32f1xx_hal_tim.o
 .text.HAL_TIM_PWM_Start_DMA
                0x0000000000000000      0x15c build/stm32f1xx_hal_tim.o
 .text.HAL_TIM_PWM_Stop_DMA
                0x0000000000000000       0xbc build/stm32f1xx_hal_tim.o
 .text.HAL_TIM_IC_Start
                0x0000000000000000       0x24 build/stm32f1xx_hal_tim.o
 .text.HAL_TIM_IC_Stop
                0x0000000000000000       0x30 build/stm32f1xx_hal_tim.o
 .text.HAL_TIM_IC_Start_IT
                0x0000000000000000       0x68 build/stm32f1xx_hal_tim.o
 .text.HAL_TIM_IC_Stop_IT
                0x0000000000000000       0x74 build/stm32f1xx_hal_tim.o
 .text.HAL_TIM_IC_Start_DMA
                0x0000000000000000      0x134 build/stm32f1xx_hal_tim.o
 .text.HAL_TIM_IC_Stop_DMA
                0x0000000000000000       0x94 build/stm32f1xx_hal_tim.o
 .text.HAL_TIM_OnePulse_Start
                0x0000000000000000       0x30 build/stm32f1xx_hal_tim.o
 .text.HAL_TIM_OnePulse_Stop
                0x0000000000000000       0x64 build/stm32f1xx_hal_tim.o
 .text.HAL_TIM_OnePulse_Start_IT
                0x0000000000000000       0x44 build/stm32f1xx_hal_tim.o
 .text.HAL_TIM_OnePulse_Stop_IT
                0x0000000000000000       0x78 build/stm32f1xx_hal_tim.o
 .text.HAL_TIM_Encoder_Start
                0x0000000000000000       0x48 build/stm32f1xx_hal_tim.o
 .text.HAL_TIM_Encoder_Stop
                0x0000000000000000       0x5c build/stm32f1xx_hal_tim.o
 .text.HAL_TIM_Encoder_Start_IT
                0x0000000000000000       0x70 build/stm32f1xx_hal_tim.o
 .text.HAL_TIM_Encoder_Stop_IT
                0x0000000000000000       0x84 build/stm32f1xx_hal_tim.o
 .text.HAL_TIM_Encoder_Start_DMA
                0x0000000000000000      0x16c build/stm32f1xx_hal_tim.o
 .text.HAL_TIM_Encoder_Stop_DMA
                0x0000000000000000       0x9c build/stm32f1xx_hal_tim.o
 .text          0x0000000000000000        0x0 build/stm32f1xx_hal_tim_ex.o
 .data          0x0000000000000000        0x0 build/stm32f1xx_hal_tim_ex.o
 .bss           0x0000000000000000        0x0 build/stm32f1xx_hal_tim_ex.o
 .text.TIM_CCxNChannelCmd
                0x0000000000000000       0x20 build/stm32f1xx_hal_tim_ex.o
 .text.HAL_TIMEx_HallSensor_MspInit
                0x0000000000000000        0x4 build/stm32f1xx_hal_tim_ex.o
 .text.HAL_TIMEx_HallSensor_Init
                0x0000000000000000       0xc4 build/stm32f1xx_hal_tim_ex.o
 .text.HAL_TIMEx_HallSensor_MspDeInit
                0x0000000000000000        0x4 build/stm32f1xx_hal_tim_ex.o
 .text.HAL_TIMEx_HallSensor_DeInit
                0x0000000000000000       0x3c build/stm32f1xx_hal_tim_ex.o
 .text.HAL_TIMEx_HallSensor_Start
                0x0000000000000000       0x28 build/stm32f1xx_hal_tim_ex.o
 .text.HAL_TIMEx_HallSensor_Stop
                0x0000000000000000       0x30 build/stm32f1xx_hal_tim_ex.o
 .text.HAL_TIMEx_HallSensor_Start_IT
                0x0000000000000000       0x30 build/stm32f1xx_hal_tim_ex.o
 .text.HAL_TIMEx_HallSensor_Stop_IT
                0x0000000000000000       0x3c build/stm32f1xx_hal_tim_ex.o
 .text.HAL_TIMEx_HallSensor_Start_DMA
                0x0000000000000000       0x90 build/stm32f1xx_hal_tim_ex.o
 .text.HAL_TIMEx_HallSensor_Stop_DMA
                0x0000000000000000       0x40 build/stm32f1xx_hal_tim_ex.o
 .text.HAL_TIMEx_OCN_Start
                0x0000000000000000       0x30 build/stm32f1xx_hal_tim_ex.o
 .text.HAL_TIMEx_OCN_Stop
                0x0000000000000000       0x4c build/stm32f1xx_hal_tim_ex.o
 .text.HAL_TIMEx_OCN_Start_IT
                0x0000000000000000       0x64 build/stm32f1xx_hal_tim_ex.o
 .text.HAL_TIMEx_OCN_Stop_IT
                0x0000000000000000       0x8c build/stm32f1xx_hal_tim_ex.o
 .text.HAL_TIMEx_OCN_Start_DMA
                0x0000000000000000      0x110 build/stm32f1xx_hal_tim_ex.o
 .text.HAL_TIMEx_OCN_Stop_DMA
                0x0000000000000000       0x94 build/stm32f1xx_hal_tim_ex.o
 .text.HAL_TIMEx_PWMN_Start
                0x0000000000000000       0x30 build/stm32f1xx_hal_tim_ex.o
 .text.HAL_TIMEx_PWMN_Stop
                0x0000000000000000       0x4c build/stm32f1xx_hal_tim_ex.o
 .text.HAL_TIMEx_PWMN_Start_IT
                0x0000000000000000       0x64 build/stm32f1xx_hal_tim_ex.o
 .text.HAL_TIMEx_PWMN_Stop_IT
                0x0000000000000000       0x8c build/stm32f1xx_hal_tim_ex.o
 .text.HAL_TIMEx_PWMN_Start_DMA
                0x0000000000000000      0x110 build/stm32f1xx_hal_tim_ex.o
 .text.HAL_TIMEx_PWMN_Stop_DMA
                0x0000000000000000       0x94 build/stm32f1xx_hal_tim_ex.o
 .text.HAL_TIMEx_OnePulseN_Start
                0x0000000000000000       0x1c build/stm32f1xx_hal_tim_ex.o
 .text.HAL_TIMEx_OnePulseN_Stop
                0x0000000000000000       0x4c build/stm32f1xx_hal_tim_ex.o
 .text.HAL_TIMEx_OnePulseN_Start_IT
                0x0000000000000000       0x30 build/stm32f1xx_hal_tim_ex.o
 .text.HAL_TIMEx_OnePulseN_Stop_IT
                0x0000000000000000       0x60 build/stm32f1xx_hal_tim_ex.o
 .text.HAL_TIMEx_ConfigCommutEvent
                0x0000000000000000       0x74 build/stm32f1xx_hal_tim_ex.o
 .text.HAL_TIMEx_ConfigCommutEvent_IT
                0x0000000000000000       0x74 build/stm32f1xx_hal_tim_ex.o
 .text.HAL_TIMEx_ConfigCommutEvent_DMA
                0x0000000000000000       0x94 build/stm32f1xx_hal_tim_ex.o
 .text.HAL_TIMEx_ConfigBreakDeadTime
                0x0000000000000000       0x54 build/stm32f1xx_hal_tim_ex.o
 .text.HAL_TIMEx_RemapConfig
                0x0000000000000000        0x4 build/stm32f1xx_hal_tim_ex.o
 .text.TIMEx_DMACommutationCplt
                0x0000000000000000       0x10 build/stm32f1xx_hal_tim_ex.o
 .text.HAL_TIMEx_CommutHalfCpltCallback
                0x0000000000000000        0x4 build/stm32f1xx_hal_tim_ex.o
 .text.TIMEx_DMACommutationHalfCplt
                0x0000000000000000       0x10 build/stm32f1xx_hal_tim_ex.o
 .text.HAL_TIMEx_HallSensor_GetState
                0x0000000000000000        0x8 build/stm32f1xx_hal_tim_ex.o
 .text          0x0000000000000000        0x0 build/stm32f1xx_hal_uart.o
 .data          0x0000000000000000        0x0 build/stm32f1xx_hal_uart.o
 .bss           0x0000000000000000        0x0 build/stm32f1xx_hal_uart.o
 .text.UART_EndTxTransfer
                0x0000000000000000       0x14 build/stm32f1xx_hal_uart.o
 .text.HAL_UART_MspInit
                0x0000000000000000        0x4 build/stm32f1xx_hal_uart.o
 .text.HAL_HalfDuplex_Init
                0x0000000000000000       0x70 build/stm32f1xx_hal_uart.o
 .text.HAL_LIN_Init
                0x0000000000000000       0x84 build/stm32f1xx_hal_uart.o
 .text.HAL_MultiProcessor_Init
                0x0000000000000000       0x8c build/stm32f1xx_hal_uart.o
 .text.HAL_UART_MspDeInit
                0x0000000000000000        0x4 build/stm32f1xx_hal_uart.o
 .text.HAL_UART_DeInit
                0x0000000000000000       0x30 build/stm32f1xx_hal_uart.o
 .text.HAL_UART_Receive
                0x0000000000000000       0xe4 build/stm32f1xx_hal_uart.o
 .text.HAL_UART_Transmit_IT
                0x0000000000000000       0x48 build/stm32f1xx_hal_uart.o
 .text.HAL_UART_Transmit_DMA
                0x0000000000000000       0x8c build/stm32f1xx_hal_uart.o
 .text.HAL_UART_Receive_DMA
                0x0000000000000000       0xac build/stm32f1xx_hal_uart.o
 .text.HAL_UART_DMAPause
                0x0000000000000000       0x68 build/stm32f1xx_hal_uart.o
 .text.HAL_UART_DMAResume
                0x0000000000000000       0x78 build/stm32f1xx_hal_uart.o
 .text.HAL_UART_DMAStop
                0x0000000000000000       0x5c build/stm32f1xx_hal_uart.o
 .text.HAL_UART_Abort
                0x0000000000000000       0x94 build/stm32f1xx_hal_uart.o
 .text.HAL_UART_AbortTransmit
                0x0000000000000000       0x50 build/stm32f1xx_hal_uart.o
 .text.HAL_UART_AbortReceive
                0x0000000000000000       0x58 build/stm32f1xx_hal_uart.o
 .text.UART_DMATransmitCplt
                0x0000000000000000       0x30 build/stm32f1xx_hal_uart.o
 .text.HAL_UART_TxHalfCpltCallback
                0x0000000000000000        0x4 build/stm32f1xx_hal_uart.o
 .text.UART_DMATxHalfCplt
                0x0000000000000000        0xc build/stm32f1xx_hal_uart.o
 .text.HAL_UART_RxCpltCallback
                0x0000000000000000        0x4 build/stm32f1xx_hal_uart.o
 .text.UART_DMAReceiveCplt
                0x0000000000000000       0x40 build/stm32f1xx_hal_uart.o
 .text.HAL_UART_RxHalfCpltCallback
                0x0000000000000000        0x4 build/stm32f1xx_hal_uart.o
 .text.UART_DMARxHalfCplt
                0x0000000000000000        0xc build/stm32f1xx_hal_uart.o
 .text.UART_DMAError
                0x0000000000000000       0x50 build/stm32f1xx_hal_uart.o
 .text.HAL_UART_AbortCpltCallback
                0x0000000000000000        0x4 build/stm32f1xx_hal_uart.o
 .text.HAL_UART_Abort_IT
                0x0000000000000000       0xc8 build/stm32f1xx_hal_uart.o
 .text.UART_DMARxAbortCallback
                0x0000000000000000       0x2c build/stm32f1xx_hal_uart.o
 .text.UART_DMATxAbortCallback
                0x0000000000000000       0x2c build/stm32f1xx_hal_uart.o
 .text.HAL_UART_AbortTransmitCpltCallback
                0x0000000000000000        0x4 build/stm32f1xx_hal_uart.o
 .text.HAL_UART_AbortTransmit_IT
                0x0000000000000000       0x60 build/stm32f1xx_hal_uart.o
 .text.UART_DMATxOnlyAbortCallback
                0x0000000000000000       0x14 build/stm32f1xx_hal_uart.o
 .text.HAL_UART_AbortReceiveCpltCallback
                0x0000000000000000        0x4 build/stm32f1xx_hal_uart.o
 .text.HAL_UART_AbortReceive_IT
                0x0000000000000000       0x68 build/stm32f1xx_hal_uart.o
 .text.UART_DMARxOnlyAbortCallback
                0x0000000000000000       0x14 build/stm32f1xx_hal_uart.o
 .text.HAL_LIN_SendBreak
                0x0000000000000000       0x34 build/stm32f1xx_hal_uart.o
 .text.HAL_MultiProcessor_EnterMuteMode
                0x0000000000000000       0x34 build/stm32f1xx_hal_uart.o
 .text.HAL_MultiProcessor_ExitMuteMode
                0x0000000000000000       0x34 build/stm32f1xx_hal_uart.o
 .text.HAL_HalfDuplex_EnableTransmitter
                0x0000000000000000       0x38 build/stm32f1xx_hal_uart.o
 .text.HAL_HalfDuplex_EnableReceiver
                0x0000000000000000       0x38 build/stm32f1xx_hal_uart.o
 .text.HAL_UART_GetState
                0x0000000000000000        0xc build/stm32f1xx_hal_uart.o
 .text.HAL_UART_GetError
                0x0000000000000000        0x4 build/stm32f1xx_hal_uart.o
 .text          0x0000000000000000        0x0 build/stm32f1xx_hal.o
 .data          0x0000000000000000        0x0 build/stm32f1xx_hal.o
 .bss           0x0000000000000000        0x0 build/stm32f1xx_hal.o
 .text.HAL_MspInit
                0x0000000000000000        0x4 build/stm32f1xx_hal.o
 .text.HAL_MspDeInit
                0x0000000000000000        0x4 build/stm32f1xx_hal.o
 .text.HAL_DeInit
                0x0000000000000000       0x20 build/stm32f1xx_hal.o
 .text.HAL_GetTickPrio
                0x0000000000000000        0xc build/stm32f1xx_hal.o
 .text.HAL_SetTickFreq
                0x0000000000000000       0x2c build/stm32f1xx_hal.o
 .text.HAL_GetTickFreq
                0x0000000000000000        0xc build/stm32f1xx_hal.o
 .text.HAL_SuspendTick
                0x0000000000000000       0x10 build/stm32f1xx_hal.o
 .text.HAL_ResumeTick
                0x0000000000000000       0x10 build/stm32f1xx_hal.o
 .text.HAL_GetHalVersion
                0x0000000000000000        0x8 build/stm32f1xx_hal.o
 .text.HAL_GetREVID
                0x0000000000000000        0xc build/stm32f1xx_hal.o
 .text.HAL_GetDEVID
                0x0000000000000000       0x10 build/stm32f1xx_hal.o
 .text.HAL_GetUIDw0
                0x0000000000000000        0xc build/stm32f1xx_hal.o
 .text.HAL_GetUIDw1
                0x0000000000000000        0xc build/stm32f1xx_hal.o
 .text.HAL_GetUIDw2
                0x0000000000000000        0xc build/stm32f1xx_hal.o
 .text.HAL_DBGMCU_EnableDBGSleepMode
                0x0000000000000000       0x10 build/stm32f1xx_hal.o
 .text.HAL_DBGMCU_DisableDBGSleepMode
                0x0000000000000000       0x10 build/stm32f1xx_hal.o
 .text.HAL_DBGMCU_EnableDBGStopMode
                0x0000000000000000       0x10 build/stm32f1xx_hal.o
 .text.HAL_DBGMCU_DisableDBGStopMode
                0x0000000000000000       0x10 build/stm32f1xx_hal.o
 .text.HAL_DBGMCU_EnableDBGStandbyMode
                0x0000000000000000       0x10 build/stm32f1xx_hal.o
 .text.HAL_DBGMCU_DisableDBGStandbyMode
                0x0000000000000000       0x10 build/stm32f1xx_hal.o
 .text          0x0000000000000000        0x0 build/stm32f1xx_hal_rcc.o
 .data          0x0000000000000000        0x0 build/stm32f1xx_hal_rcc.o
 .bss           0x0000000000000000        0x0 build/stm32f1xx_hal_rcc.o
 .text.HAL_RCC_DeInit
                0x0000000000000000       0xfc build/stm32f1xx_hal_rcc.o
 .text.HAL_RCC_MCOConfig
                0x0000000000000000       0x4c build/stm32f1xx_hal_rcc.o
 .text.HAL_RCC_EnableCSS
                0x0000000000000000        0xc build/stm32f1xx_hal_rcc.o
 .text.HAL_RCC_DisableCSS
                0x0000000000000000        0xc build/stm32f1xx_hal_rcc.o
 .text.HAL_RCC_GetOscConfig
                0x0000000000000000       0xb4 build/stm32f1xx_hal_rcc.o
 .text.HAL_RCC_GetClockConfig
                0x0000000000000000       0x3c build/stm32f1xx_hal_rcc.o
 .text.HAL_RCC_CSSCallback
                0x0000000000000000        0x4 build/stm32f1xx_hal_rcc.o
 .text.HAL_RCC_NMI_IRQHandler
                0x0000000000000000       0x20 build/stm32f1xx_hal_rcc.o
 .text          0x0000000000000000        0x0 build/stm32f1xx_hal_rcc_ex.o
 .data          0x0000000000000000        0x0 build/stm32f1xx_hal_rcc_ex.o
 .bss           0x0000000000000000        0x0 build/stm32f1xx_hal_rcc_ex.o
 .text.HAL_RCCEx_PeriphCLKConfig
                0x0000000000000000      0x114 build/stm32f1xx_hal_rcc_ex.o
 .text.HAL_RCCEx_GetPeriphCLKConfig
                0x0000000000000000       0x2c build/stm32f1xx_hal_rcc_ex.o
 .text.HAL_RCCEx_GetPeriphCLKFreq
                0x0000000000000000      0x108 build/stm32f1xx_hal_rcc_ex.o
 .rodata        0x0000000000000000       0x12 build/stm32f1xx_hal_rcc_ex.o
 .debug_info    0x0000000000000000      0x431 build/stm32f1xx_hal_rcc_ex.o
 .debug_abbrev  0x0000000000000000      0x1b5 build/stm32f1xx_hal_rcc_ex.o
 .debug_loc     0x0000000000000000      0x344 build/stm32f1xx_hal_rcc_ex.o
 .debug_aranges
                0x0000000000000000       0x30 build/stm32f1xx_hal_rcc_ex.o
 .debug_ranges  0x0000000000000000       0x38 build/stm32f1xx_hal_rcc_ex.o
 .debug_line    0x0000000000000000      0x25a build/stm32f1xx_hal_rcc_ex.o
 .debug_str     0x0000000000000000      0x39e build/stm32f1xx_hal_rcc_ex.o
 .comment       0x0000000000000000       0x39 build/stm32f1xx_hal_rcc_ex.o
 .debug_frame   0x0000000000000000       0x70 build/stm32f1xx_hal_rcc_ex.o
 .ARM.attributes
                0x0000000000000000       0x33 build/stm32f1xx_hal_rcc_ex.o
 .text          0x0000000000000000        0x0 build/stm32f1xx_hal_gpio.o
 .data          0x0000000000000000        0x0 build/stm32f1xx_hal_gpio.o
 .bss           0x0000000000000000        0x0 build/stm32f1xx_hal_gpio.o
 .text.HAL_GPIO_DeInit
                0x0000000000000000       0xe0 build/stm32f1xx_hal_gpio.o
 .text.HAL_GPIO_TogglePin
                0x0000000000000000       0x10 build/stm32f1xx_hal_gpio.o
 .text.HAL_GPIO_LockPin
                0x0000000000000000       0x30 build/stm32f1xx_hal_gpio.o
 .text.HAL_GPIO_EXTI_Callback
                0x0000000000000000        0x4 build/stm32f1xx_hal_gpio.o
 .text          0x0000000000000000        0x0 build/stm32f1xx_hal_dma.o
 .data          0x0000000000000000        0x0 build/stm32f1xx_hal_dma.o
 .bss           0x0000000000000000        0x0 build/stm32f1xx_hal_dma.o
 .text.DMA_SetConfig
                0x0000000000000000       0x2c build/stm32f1xx_hal_dma.o
 .text.HAL_DMA_Init
                0x0000000000000000       0x70 build/stm32f1xx_hal_dma.o
 .text.HAL_DMA_DeInit
                0x0000000000000000       0x6c build/stm32f1xx_hal_dma.o
 .text.HAL_DMA_Start
                0x0000000000000000       0x50 build/stm32f1xx_hal_dma.o
 .text.HAL_DMA_Start_IT
                0x0000000000000000       0x74 build/stm32f1xx_hal_dma.o
 .text.HAL_DMA_Abort
                0x0000000000000000       0x44 build/stm32f1xx_hal_dma.o
 .text.HAL_DMA_PollForTransfer
                0x0000000000000000      0x230 build/stm32f1xx_hal_dma.o
 .text.HAL_DMA_IRQHandler
                0x0000000000000000      0x140 build/stm32f1xx_hal_dma.o
 .text.HAL_DMA_RegisterCallback
                0x0000000000000000       0x50 build/stm32f1xx_hal_dma.o
 .text.HAL_DMA_UnRegisterCallback
                0x0000000000000000       0x5c build/stm32f1xx_hal_dma.o
 .text.HAL_DMA_GetState
                0x0000000000000000        0x8 build/stm32f1xx_hal_dma.o
 .text.HAL_DMA_GetError
                0x0000000000000000        0x4 build/stm32f1xx_hal_dma.o
 .text          0x0000000000000000        0x0 build/stm32f1xx_hal_cortex.o
 .data          0x0000000000000000        0x0 build/stm32f1xx_hal_cortex.o
 .bss           0x0000000000000000        0x0 build/stm32f1xx_hal_cortex.o
 .text.HAL_NVIC_DisableIRQ
                0x0000000000000000       0x24 build/stm32f1xx_hal_cortex.o
 .text.HAL_NVIC_SystemReset
                0x0000000000000000       0x24 build/stm32f1xx_hal_cortex.o
 .text.HAL_NVIC_GetPriorityGrouping
                0x0000000000000000       0x10 build/stm32f1xx_hal_cortex.o
 .text.HAL_NVIC_GetPriority
                0x0000000000000000       0x5c build/stm32f1xx_hal_cortex.o
 .text.HAL_NVIC_SetPendingIRQ
                0x0000000000000000       0x1c build/stm32f1xx_hal_cortex.o
 .text.HAL_NVIC_GetPendingIRQ
                0x0000000000000000       0x24 build/stm32f1xx_hal_cortex.o
 .text.HAL_NVIC_ClearPendingIRQ
                0x0000000000000000       0x1c build/stm32f1xx_hal_cortex.o
 .text.HAL_NVIC_GetActive
                0x0000000000000000       0x24 build/stm32f1xx_hal_cortex.o
 .text.HAL_SYSTICK_CLKSourceConfig
                0x0000000000000000       0x20 build/stm32f1xx_hal_cortex.o
 .text.HAL_SYSTICK_Callback
                0x0000000000000000        0x4 build/stm32f1xx_hal_cortex.o
 .text.HAL_SYSTICK_IRQHandler
                0x0000000000000000        0x8 build/stm32f1xx_hal_cortex.o
 .text          0x0000000000000000        0x0 build/stm32f1xx_hal_pwr.o
 .data          0x0000000000000000        0x0 build/stm32f1xx_hal_pwr.o
 .bss           0x0000000000000000        0x0 build/stm32f1xx_hal_pwr.o
 .text.PWR_OverloadWfe
                0x0000000000000000        0x8 build/stm32f1xx_hal_pwr.o
 .text.HAL_PWR_DeInit
                0x0000000000000000       0x18 build/stm32f1xx_hal_pwr.o
 .text.HAL_PWR_EnableBkUpAccess
                0x0000000000000000        0xc build/stm32f1xx_hal_pwr.o
 .text.HAL_PWR_DisableBkUpAccess
                0x0000000000000000        0xc build/stm32f1xx_hal_pwr.o
 .text.HAL_PWR_ConfigPVD
                0x0000000000000000       0x84 build/stm32f1xx_hal_pwr.o
 .text.HAL_PWR_EnablePVD
                0x0000000000000000        0xc build/stm32f1xx_hal_pwr.o
 .text.HAL_PWR_DisablePVD
                0x0000000000000000        0xc build/stm32f1xx_hal_pwr.o
 .text.HAL_PWR_EnableWakeUpPin
                0x0000000000000000       0x18 build/stm32f1xx_hal_pwr.o
 .text.HAL_PWR_DisableWakeUpPin
                0x0000000000000000       0x18 build/stm32f1xx_hal_pwr.o
 .text.HAL_PWR_EnterSLEEPMode
                0x0000000000000000       0x20 build/stm32f1xx_hal_pwr.o
 .text.HAL_PWR_EnterSTOPMode
                0x0000000000000000       0x48 build/stm32f1xx_hal_pwr.o
 .text.HAL_PWR_EnterSTANDBYMode
                0x0000000000000000       0x20 build/stm32f1xx_hal_pwr.o
 .text.HAL_PWR_EnableSleepOnExit
                0x0000000000000000       0x10 build/stm32f1xx_hal_pwr.o
 .text.HAL_PWR_DisableSleepOnExit
                0x0000000000000000       0x10 build/stm32f1xx_hal_pwr.o
 .text.HAL_PWR_EnableSEVOnPend
                0x0000000000000000       0x10 build/stm32f1xx_hal_pwr.o
 .text.HAL_PWR_DisableSEVOnPend
                0x0000000000000000       0x10 build/stm32f1xx_hal_pwr.o
 .text.HAL_PWR_PVDCallback
                0x0000000000000000        0x4 build/stm32f1xx_hal_pwr.o
 .text.HAL_PWR_PVD_IRQHandler
                0x0000000000000000       0x20 build/stm32f1xx_hal_pwr.o
 .debug_info    0x0000000000000000      0x6e9 build/stm32f1xx_hal_pwr.o
 .debug_abbrev  0x0000000000000000      0x1e0 build/stm32f1xx_hal_pwr.o
 .debug_loc     0x0000000000000000       0xea build/stm32f1xx_hal_pwr.o
 .debug_aranges
                0x0000000000000000       0xa8 build/stm32f1xx_hal_pwr.o
 .debug_ranges  0x0000000000000000       0x98 build/stm32f1xx_hal_pwr.o
 .debug_line    0x0000000000000000      0x2c8 build/stm32f1xx_hal_pwr.o
 .debug_str     0x0000000000000000      0x466 build/stm32f1xx_hal_pwr.o
 .comment       0x0000000000000000       0x39 build/stm32f1xx_hal_pwr.o
 .debug_frame   0x0000000000000000      0x148 build/stm32f1xx_hal_pwr.o
 .ARM.attributes
                0x0000000000000000       0x33 build/stm32f1xx_hal_pwr.o
 .text          0x0000000000000000        0x0 build/stm32f1xx_hal_flash.o
 .data          0x0000000000000000        0x0 build/stm32f1xx_hal_flash.o
 .bss           0x0000000000000000        0x0 build/stm32f1xx_hal_flash.o
 .text.FLASH_Program_HalfWord
                0x0000000000000000       0x1c build/stm32f1xx_hal_flash.o
 .text.FLASH_SetErrorCode
                0x0000000000000000       0x60 build/stm32f1xx_hal_flash.o
 .text.HAL_FLASH_Program_IT
                0x0000000000000000       0x64 build/stm32f1xx_hal_flash.o
 .text.HAL_FLASH_EndOfOperationCallback
                0x0000000000000000        0x4 build/stm32f1xx_hal_flash.o
 .text.HAL_FLASH_OperationErrorCallback
                0x0000000000000000        0x4 build/stm32f1xx_hal_flash.o
 .text.HAL_FLASH_IRQHandler
                0x0000000000000000      0x15c build/stm32f1xx_hal_flash.o
 .text.HAL_FLASH_Unlock
                0x0000000000000000       0x34 build/stm32f1xx_hal_flash.o
 .text.HAL_FLASH_Lock
                0x0000000000000000       0x14 build/stm32f1xx_hal_flash.o
 .text.HAL_FLASH_OB_Unlock
                0x0000000000000000       0x28 build/stm32f1xx_hal_flash.o
 .text.HAL_FLASH_OB_Lock
                0x0000000000000000       0x14 build/stm32f1xx_hal_flash.o
 .text.HAL_FLASH_OB_Launch
                0x0000000000000000        0x8 build/stm32f1xx_hal_flash.o
 .text.HAL_FLASH_GetError
                0x0000000000000000        0xc build/stm32f1xx_hal_flash.o
 .text.FLASH_WaitForLastOperation
                0x0000000000000000       0x70 build/stm32f1xx_hal_flash.o
 .text.HAL_FLASH_Program
                0x0000000000000000       0xa0 build/stm32f1xx_hal_flash.o
 .debug_info    0x0000000000000000      0x69e build/stm32f1xx_hal_flash.o
 .debug_abbrev  0x0000000000000000      0x256 build/stm32f1xx_hal_flash.o
 .debug_loc     0x0000000000000000      0x389 build/stm32f1xx_hal_flash.o
 .debug_aranges
                0x0000000000000000       0x88 build/stm32f1xx_hal_flash.o
 .debug_ranges  0x0000000000000000       0x78 build/stm32f1xx_hal_flash.o
 .debug_line    0x0000000000000000      0x380 build/stm32f1xx_hal_flash.o
 .debug_str     0x0000000000000000      0x4fa build/stm32f1xx_hal_flash.o
 .comment       0x0000000000000000       0x39 build/stm32f1xx_hal_flash.o
 .debug_frame   0x0000000000000000      0x150 build/stm32f1xx_hal_flash.o
 .ARM.attributes
                0x0000000000000000       0x33 build/stm32f1xx_hal_flash.o
 COMMON         0x0000000000000000       0x20 build/stm32f1xx_hal_flash.o
 .text          0x0000000000000000        0x0 build/stm32f1xx_hal_flash_ex.o
 .data          0x0000000000000000        0x0 build/stm32f1xx_hal_flash_ex.o
 .bss           0x0000000000000000        0x0 build/stm32f1xx_hal_flash_ex.o
 .text.FLASH_MassErase
                0x0000000000000000       0x24 build/stm32f1xx_hal_flash_ex.o
 .text.FLASH_OB_GetWRP
                0x0000000000000000        0xc build/stm32f1xx_hal_flash_ex.o
 .text.FLASH_OB_GetRDP
                0x0000000000000000       0x18 build/stm32f1xx_hal_flash_ex.o
 .text.FLASH_OB_GetUser
                0x0000000000000000       0x10 build/stm32f1xx_hal_flash_ex.o
 .text.FLASH_OB_RDP_LevelConfig
                0x0000000000000000       0x6c build/stm32f1xx_hal_flash_ex.o
 .text.FLASH_OB_UserConfig
                0x0000000000000000       0x4c build/stm32f1xx_hal_flash_ex.o
 .text.FLASH_OB_ProgramData
                0x0000000000000000       0x44 build/stm32f1xx_hal_flash_ex.o
 .text.HAL_FLASHEx_OBErase
                0x0000000000000000       0x54 build/stm32f1xx_hal_flash_ex.o
 .text.FLASH_OB_EnableWRP
                0x0000000000000000       0xb8 build/stm32f1xx_hal_flash_ex.o
 .text.FLASH_OB_DisableWRP
                0x0000000000000000       0xc0 build/stm32f1xx_hal_flash_ex.o
 .text.HAL_FLASHEx_OBProgram
                0x0000000000000000       0xa4 build/stm32f1xx_hal_flash_ex.o
 .text.HAL_FLASHEx_OBGetConfig
                0x0000000000000000       0x1c build/stm32f1xx_hal_flash_ex.o
 .text.HAL_FLASHEx_OBGetUserData
                0x0000000000000000       0x24 build/stm32f1xx_hal_flash_ex.o
 .text.FLASH_PageErase
                0x0000000000000000       0x24 build/stm32f1xx_hal_flash_ex.o
 .text.HAL_FLASHEx_Erase
                0x0000000000000000       0xa4 build/stm32f1xx_hal_flash_ex.o
 .text.HAL_FLASHEx_Erase_IT
                0x0000000000000000       0x60 build/stm32f1xx_hal_flash_ex.o
 .debug_info    0x0000000000000000      0xabc build/stm32f1xx_hal_flash_ex.o
 .debug_abbrev  0x0000000000000000      0x264 build/stm32f1xx_hal_flash_ex.o
 .debug_loc     0x0000000000000000      0x830 build/stm32f1xx_hal_flash_ex.o
 .debug_aranges
                0x0000000000000000       0x98 build/stm32f1xx_hal_flash_ex.o
 .debug_ranges  0x0000000000000000       0x88 build/stm32f1xx_hal_flash_ex.o
 .debug_line    0x0000000000000000      0x3bc build/stm32f1xx_hal_flash_ex.o
 .debug_str     0x0000000000000000      0x610 build/stm32f1xx_hal_flash_ex.o
 .comment       0x0000000000000000       0x39 build/stm32f1xx_hal_flash_ex.o
 .debug_frame   0x0000000000000000      0x1c8 build/stm32f1xx_hal_flash_ex.o
 .ARM.attributes
                0x0000000000000000       0x33 build/stm32f1xx_hal_flash_ex.o
 .text          0x0000000000000000        0x0 build/stm32f1xx_hal_exti.o
 .data          0x0000000000000000        0x0 build/stm32f1xx_hal_exti.o
 .bss           0x0000000000000000        0x0 build/stm32f1xx_hal_exti.o
 .text.HAL_EXTI_SetConfigLine
                0x0000000000000000       0xd8 build/stm32f1xx_hal_exti.o
 .text.HAL_EXTI_GetConfigLine
                0x0000000000000000       0xac build/stm32f1xx_hal_exti.o
 .text.HAL_EXTI_ClearConfigLine
                0x0000000000000000       0x78 build/stm32f1xx_hal_exti.o
 .text.HAL_EXTI_RegisterCallback
                0x0000000000000000        0xc build/stm32f1xx_hal_exti.o
 .text.HAL_EXTI_GetHandle
                0x0000000000000000        0xc build/stm32f1xx_hal_exti.o
 .text.HAL_EXTI_IRQHandler
                0x0000000000000000       0x24 build/stm32f1xx_hal_exti.o
 .text.HAL_EXTI_GetPending
                0x0000000000000000       0x18 build/stm32f1xx_hal_exti.o
 .text.HAL_EXTI_ClearPending
                0x0000000000000000       0x14 build/stm32f1xx_hal_exti.o
 .text.HAL_EXTI_GenerateSWI
                0x0000000000000000       0x14 build/stm32f1xx_hal_exti.o
 .debug_info    0x0000000000000000      0x573 build/stm32f1xx_hal_exti.o
 .debug_abbrev  0x0000000000000000      0x1ce build/stm32f1xx_hal_exti.o
 .debug_loc     0x0000000000000000      0x541 build/stm32f1xx_hal_exti.o
 .debug_aranges
                0x0000000000000000       0x60 build/stm32f1xx_hal_exti.o
 .debug_ranges  0x0000000000000000       0x50 build/stm32f1xx_hal_exti.o
 .debug_line    0x0000000000000000      0x27f build/stm32f1xx_hal_exti.o
 .debug_str     0x0000000000000000      0x3a1 build/stm32f1xx_hal_exti.o
 .comment       0x0000000000000000       0x39 build/stm32f1xx_hal_exti.o
 .debug_frame   0x0000000000000000      0x110 build/stm32f1xx_hal_exti.o
 .ARM.attributes
                0x0000000000000000       0x33 build/stm32f1xx_hal_exti.o
 .text          0x0000000000000000        0x0 build/stm32f1xx_hal_adc.o
 .data          0x0000000000000000        0x0 build/stm32f1xx_hal_adc.o
 .bss           0x0000000000000000        0x0 build/stm32f1xx_hal_adc.o
 .text.HAL_ADC_MspInit
                0x0000000000000000        0x4 build/stm32f1xx_hal_adc.o
 .text.HAL_ADC_MspDeInit
                0x0000000000000000        0x4 build/stm32f1xx_hal_adc.o
 .text.HAL_ADC_PollForConversion
                0x0000000000000000      0x174 build/stm32f1xx_hal_adc.o
 .text.HAL_ADC_PollForEvent
                0x0000000000000000       0x50 build/stm32f1xx_hal_adc.o
 .text.HAL_ADC_GetValue
                0x0000000000000000        0x8 build/stm32f1xx_hal_adc.o
 .text.HAL_ADC_ConvCpltCallback
                0x0000000000000000        0x4 build/stm32f1xx_hal_adc.o
 .text.ADC_DMAConvCplt
                0x0000000000000000       0x50 build/stm32f1xx_hal_adc.o
 .text.HAL_ADC_ConvHalfCpltCallback
                0x0000000000000000        0x4 build/stm32f1xx_hal_adc.o
 .text.ADC_DMAHalfConvCplt
                0x0000000000000000        0xc build/stm32f1xx_hal_adc.o
 .text.HAL_ADC_LevelOutOfWindowCallback
                0x0000000000000000        0x4 build/stm32f1xx_hal_adc.o
 .text.HAL_ADC_IRQHandler
                0x0000000000000000      0x104 build/stm32f1xx_hal_adc.o
 .text.HAL_ADC_ErrorCallback
                0x0000000000000000        0x4 build/stm32f1xx_hal_adc.o
 .text.ADC_DMAError
                0x0000000000000000       0x1c build/stm32f1xx_hal_adc.o
 .text.HAL_ADC_ConfigChannel
                0x0000000000000000      0x12c build/stm32f1xx_hal_adc.o
 .text.HAL_ADC_AnalogWDGConfig
                0x0000000000000000       0x60 build/stm32f1xx_hal_adc.o
 .text.HAL_ADC_GetState
                0x0000000000000000        0x4 build/stm32f1xx_hal_adc.o
 .text.HAL_ADC_GetError
                0x0000000000000000        0x4 build/stm32f1xx_hal_adc.o
 .text.ADC_Enable
                0x0000000000000000       0x80 build/stm32f1xx_hal_adc.o
 .text.HAL_ADC_Start
                0x0000000000000000       0xf8 build/stm32f1xx_hal_adc.o
 .text.HAL_ADC_Start_IT
                0x0000000000000000      0x100 build/stm32f1xx_hal_adc.o
 .text.HAL_ADC_Start_DMA
                0x0000000000000000      0x144 build/stm32f1xx_hal_adc.o
 .text.ADC_ConversionStop_Disable
                0x0000000000000000       0x50 build/stm32f1xx_hal_adc.o
 .text.HAL_ADC_Init
                0x0000000000000000      0x10c build/stm32f1xx_hal_adc.o
 .text.HAL_ADC_DeInit
                0x0000000000000000       0xfc build/stm32f1xx_hal_adc.o
 .text.HAL_ADC_Stop
                0x0000000000000000       0x38 build/stm32f1xx_hal_adc.o
 .text.HAL_ADC_Stop_IT
                0x0000000000000000       0x44 build/stm32f1xx_hal_adc.o
 .text.HAL_ADC_Stop_DMA
                0x0000000000000000       0x58 build/stm32f1xx_hal_adc.o
 .debug_info    0x0000000000000000      0xeef build/stm32f1xx_hal_adc.o
 .debug_abbrev  0x0000000000000000      0x252 build/stm32f1xx_hal_adc.o
 .debug_loc     0x0000000000000000      0xbd1 build/stm32f1xx_hal_adc.o
 .debug_aranges
                0x0000000000000000       0xf0 build/stm32f1xx_hal_adc.o
 .debug_ranges  0x0000000000000000       0xe0 build/stm32f1xx_hal_adc.o
 .debug_line    0x0000000000000000      0x6be build/stm32f1xx_hal_adc.o
 .debug_str     0x0000000000000000      0x89e build/stm32f1xx_hal_adc.o
 .comment       0x0000000000000000       0x39 build/stm32f1xx_hal_adc.o
 .debug_frame   0x0000000000000000      0x32c build/stm32f1xx_hal_adc.o
 .ARM.attributes
                0x0000000000000000       0x33 build/stm32f1xx_hal_adc.o
 .text          0x0000000000000000        0x0 build/stm32f1xx_hal_adc_ex.o
 .data          0x0000000000000000        0x0 build/stm32f1xx_hal_adc_ex.o
 .bss           0x0000000000000000        0x0 build/stm32f1xx_hal_adc_ex.o
 .text.HAL_ADCEx_Calibration_Start
                0x0000000000000000       0xf0 build/stm32f1xx_hal_adc_ex.o
 .text.HAL_ADCEx_InjectedStart
                0x0000000000000000       0xb8 build/stm32f1xx_hal_adc_ex.o
 .text.HAL_ADCEx_InjectedStop
                0x0000000000000000       0x58 build/stm32f1xx_hal_adc_ex.o
 .text.HAL_ADCEx_InjectedPollForConversion
                0x0000000000000000      0x16c build/stm32f1xx_hal_adc_ex.o
 .text.HAL_ADCEx_InjectedStart_IT
                0x0000000000000000       0xc4 build/stm32f1xx_hal_adc_ex.o
 .text.HAL_ADCEx_InjectedStop_IT
                0x0000000000000000       0x60 build/stm32f1xx_hal_adc_ex.o
 .text.HAL_ADCEx_MultiModeStart_DMA
                0x0000000000000000       0xf0 build/stm32f1xx_hal_adc_ex.o
 .text.HAL_ADCEx_MultiModeStop_DMA
                0x0000000000000000       0x80 build/stm32f1xx_hal_adc_ex.o
 .text.HAL_ADCEx_InjectedGetValue
                0x0000000000000000       0x28 build/stm32f1xx_hal_adc_ex.o
 .text.HAL_ADCEx_MultiModeGetValue
                0x0000000000000000       0x20 build/stm32f1xx_hal_adc_ex.o
 .text.HAL_ADCEx_InjectedConvCpltCallback
                0x0000000000000000        0x4 build/stm32f1xx_hal_adc_ex.o
 .text.HAL_ADCEx_InjectedConfigChannel
                0x0000000000000000      0x20c build/stm32f1xx_hal_adc_ex.o
 .text.HAL_ADCEx_MultiModeConfigChannel
                0x0000000000000000       0x6c build/stm32f1xx_hal_adc_ex.o
 .debug_info    0x0000000000000000      0xbf3 build/stm32f1xx_hal_adc_ex.o
 .debug_abbrev  0x0000000000000000      0x261 build/stm32f1xx_hal_adc_ex.o
 .debug_loc     0x0000000000000000      0x9ce build/stm32f1xx_hal_adc_ex.o
 .debug_aranges
                0x0000000000000000       0x80 build/stm32f1xx_hal_adc_ex.o
 .debug_ranges  0x0000000000000000       0x70 build/stm32f1xx_hal_adc_ex.o
 .debug_line    0x0000000000000000      0x528 build/stm32f1xx_hal_adc_ex.o
 .debug_str     0x0000000000000000      0x83f build/stm32f1xx_hal_adc_ex.o
 .comment       0x0000000000000000       0x39 build/stm32f1xx_hal_adc_ex.o
 .debug_frame   0x0000000000000000      0x1e0 build/stm32f1xx_hal_adc_ex.o
 .ARM.attributes
                0x0000000000000000       0x33 build/stm32f1xx_hal_adc_ex.o
 .text          0x0000000000000000        0x0 build/system_stm32f1xx.o
 .data          0x0000000000000000        0x0 build/system_stm32f1xx.o
 .bss           0x0000000000000000        0x0 build/system_stm32f1xx.o
 .text.SystemCoreClockUpdate
                0x0000000000000000       0x94 build/system_stm32f1xx.o
 .text          0x0000000000000000        0x0 build/VX_swi2c.o
 .data          0x0000000000000000        0x0 build/VX_swi2c.o
 .bss           0x0000000000000000        0x0 build/VX_swi2c.o
 .text.GET_PCA9554PW
                0x0000000000000000        0xc build/VX_swi2c.o
 .text.SET_PCA9554PW
                0x0000000000000000       0x78 build/VX_swi2c.o
 .text          0x0000000000000000        0x0 build/VS4210_param_Modex26.o
 .data          0x0000000000000000        0x0 build/VS4210_param_Modex26.o
 .bss           0x0000000000000000        0x0 build/VS4210_param_Modex26.o
 .rodata.VS4210_hdmi1920x1080_720P_mode24_w1_param
                0x0000000000000000       0x19 build/VS4210_param_Modex26.o
 .rodata.VS4210_hdmi1920x1200_1080P_mode6pip_w3_param
                0x0000000000000000       0x19 build/VS4210_param_Modex26.o
 .rodata.VS4210_hdmi1920x1080_720P_mode24_w0_param
                0x0000000000000000       0x19 build/VS4210_param_Modex26.o
 .rodata.VS4210_hdmi1600x1200_1080P_mode6pip_w3_param
                0x0000000000000000       0x19 build/VS4210_param_Modex26.o
 .text          0x0000000000000000        0x0 build/VS4210_param_Mode88.o
 .data          0x0000000000000000        0x0 build/VS4210_param_Mode88.o
 .bss           0x0000000000000000        0x0 build/VS4210_param_Mode88.o
 .text          0x0000000000000000        0x0 build/VX_OSD.o
 .data          0x0000000000000000        0x0 build/VX_OSD.o
 .bss           0x0000000000000000        0x0 build/VX_OSD.o
 .text.ClearDisplayedOSD
                0x0000000000000000       0x10 build/VX_OSD.o
 .text.SetDisplayedOSD
                0x0000000000000000       0x10 build/VX_OSD.o
 .text.GetDisplayedOSD
                0x0000000000000000        0xc build/VX_OSD.o
 .bss.DisplayedOSD
                0x0000000000000000        0x1 build/VX_OSD.o
 .text          0x0000000000000000        0x0 build/VX_OSD_Simple.o
 .data          0x0000000000000000        0x0 build/VX_OSD_Simple.o
 .bss           0x0000000000000000        0x0 build/VX_OSD_Simple.o
 .text.VXOSD_ShowExContent
                0x0000000000000000       0x84 build/VX_OSD_Simple.o
 .text.VXOSD_SelectExContent
                0x0000000000000000       0x34 build/VX_OSD_Simple.o
 .rodata.Mode2_w0_1080P_param
                0x0000000000000000        0x4 build/VX_OSD_Simple.o
 .rodata.OSD_1360X768P_param
                0x0000000000000000        0xb build/VX_OSD_Simple.o
 .rodata.Mode1_w1_720P_param
                0x0000000000000000        0x4 build/VX_OSD_Simple.o
 .rodata.Mode12_w1_720P_param
                0x0000000000000000        0x4 build/VX_OSD_Simple.o
 .rodata.Mode0_1080P_param
                0x0000000000000000        0x4 build/VX_OSD_Simple.o
 .rodata.Mode24_w0_1080P_param
                0x0000000000000000        0x4 build/VX_OSD_Simple.o
 .rodata.Mode2_w3_1080P_param
                0x0000000000000000        0x4 build/VX_OSD_Simple.o
 .rodata.Mode13_w1_1080P_param
                0x0000000000000000        0x4 build/VX_OSD_Simple.o
 .rodata.Mode12_w1_1080P_param
                0x0000000000000000        0x4 build/VX_OSD_Simple.o
 .rodata.Mode1_w1_1080P_param
                0x0000000000000000        0x4 build/VX_OSD_Simple.o
 .rodata.Mode2_w2_1080P_param
                0x0000000000000000        0x4 build/VX_OSD_Simple.o
 .rodata.Mode12_w0_1080P_param
                0x0000000000000000        0x4 build/VX_OSD_Simple.o
 .rodata.Mode6_w2_720P_param
                0x0000000000000000        0x4 build/VX_OSD_Simple.o
 .rodata.Mode24_w1_720P_param
                0x0000000000000000        0x4 build/VX_OSD_Simple.o
 .rodata.Mode2_w0_720P_param
                0x0000000000000000        0x4 build/VX_OSD_Simple.o
 .rodata.Mode6_w2_1080P_param
                0x0000000000000000        0x4 build/VX_OSD_Simple.o
 .rodata.Mode1_w0_720P_param
                0x0000000000000000        0x4 build/VX_OSD_Simple.o
 .rodata.Mode13_w0_1080P_param
                0x0000000000000000        0x4 build/VX_OSD_Simple.o
 .rodata.Mode6_w0_720P_param
                0x0000000000000000        0x4 build/VX_OSD_Simple.o
 .rodata.Mode2_w2_720P_param
                0x0000000000000000        0x4 build/VX_OSD_Simple.o
 .rodata.Mode13_w0_720P_param
                0x0000000000000000        0x4 build/VX_OSD_Simple.o
 .rodata.Mode2_w1_1080P_param
                0x0000000000000000        0x4 build/VX_OSD_Simple.o
 .rodata.Mode1_w3_1080P_param
                0x0000000000000000        0x4 build/VX_OSD_Simple.o
 .rodata.Mode1_w2_1080P_param
                0x0000000000000000        0x4 build/VX_OSD_Simple.o
 .rodata.Mode0_720P_param
                0x0000000000000000        0x4 build/VX_OSD_Simple.o
 .rodata.Mode12_w0_720P_param
                0x0000000000000000        0x4 build/VX_OSD_Simple.o
 .rodata.Mode1_w2_720P_param
                0x0000000000000000        0x4 build/VX_OSD_Simple.o
 .rodata.Mode1_w0_1080P_param
                0x0000000000000000        0x4 build/VX_OSD_Simple.o
 .rodata.Mode24_w1_1080P_param
                0x0000000000000000        0x4 build/VX_OSD_Simple.o
 .rodata.Mode1_w3_720P_param
                0x0000000000000000        0x4 build/VX_OSD_Simple.o
 .rodata.Mode6_w0_1080P_param
                0x0000000000000000        0x4 build/VX_OSD_Simple.o
 .rodata.Mode6_w1_1080P_param
                0x0000000000000000        0x4 build/VX_OSD_Simple.o
 .rodata.Mode24_w0_720P_param
                0x0000000000000000        0x4 build/VX_OSD_Simple.o
 .rodata.Mode6_w3_1080P_param
                0x0000000000000000        0x4 build/VX_OSD_Simple.o
 .rodata.Mode13_w1_720P_param
                0x0000000000000000        0x4 build/VX_OSD_Simple.o
 .rodata.Mode6_w1_720P_param
                0x0000000000000000        0x4 build/VX_OSD_Simple.o
 .rodata.Mode6_w3_720P_param
                0x0000000000000000        0x4 build/VX_OSD_Simple.o
 .rodata.Mode2_w3_720P_param
                0x0000000000000000        0x4 build/VX_OSD_Simple.o
 .rodata.Mode2_w1_720P_param
                0x0000000000000000        0x4 build/VX_OSD_Simple.o
 .text          0x0000000000000000        0x0 build/TP2802.o
 .data          0x0000000000000000        0x0 build/TP2802.o
 .bss           0x0000000000000000        0x0 build/TP2802.o
 .text.Det_VidRes
                0x0000000000000000       0x50 build/TP2802.o
 .text.Det_VideoLoss
                0x0000000000000000       0x30 build/TP2802.o
 .text.INPUT_VIDEO_CHECK
                0x0000000000000000      0x11c build/TP2802.o
 .text.Det_HLock
                0x0000000000000000       0x18 build/TP2802.o
 .text.Set_ResWithAutoDet
                0x0000000000000000       0x48 build/TP2802.o
 .text.Scan_Channels
                0x0000000000000000       0x24 build/TP2802.o
 .text.ConvertData
                0x0000000000000000       0x58 build/TP2802.o
 .text.SwapBit  0x0000000000000000       0x60 build/TP2802.o
 .text.HDC_SetData
                0x0000000000000000       0x48 build/TP2802.o
 .text.HDA_SetData
                0x0000000000000000       0x30 build/TP2802.o
 .text.ACPSTOPCOMMAND
                0x0000000000000000       0x70 build/TP2802.o
 .text.TP2824_PTZ_init
                0x0000000000000000      0x10c build/TP2802.o
 .text.TP2824_PTZ_mode
                0x0000000000000000       0x34 build/TP2802.o
 .text.TP2824C_RX_init
                0x0000000000000000       0x24 build/TP2802.o
 .text.TP2824C_PTZ_mode
                0x0000000000000000       0x2c build/TP2802.o
 .text.HDA_SetACPV2Data
                0x0000000000000000       0x4c build/TP2802.o
 .text.TP2824C_StartTX
                0x0000000000000000       0x50 build/TP2802.o
 .text.Set_Mirror_COC
                0x0000000000000000       0x1c build/TP2802.o
 .rodata.PTZ_RX_dat.8672
                0x0000000000000000       0x4b build/TP2802.o
 .data.PreCOCSelectModeType
                0x0000000000000000        0x4 build/TP2802.o
 .rodata.PTZ_reg.8661
                0x0000000000000000       0x1c build/TP2802.o
 .bss.QuadBoxMode
                0x0000000000000000        0x1 build/TP2802.o
 .bss.Flisheye_CAM
                0x0000000000000000        0x4 build/TP2802.o
 .rodata.PTZ_reg.8683
                0x0000000000000000        0xc build/TP2802.o
 .data.COCSelectModeType
                0x0000000000000000        0x4 build/TP2802.o
 .bss.Flisheye_VLOSS_Count
                0x0000000000000000       0x10 build/TP2802.o
 .rodata.PTZ_dat.8662
                0x0000000000000000       0x38 build/TP2802.o
 .rodata.TP2822_DataSet
                0x0000000000000000       0x18 build/TP2802.o
 .rodata.PTZ_dat.8684
                0x0000000000000000       0x48 build/TP2802.o
 .rodata.TP2823_MODE_DataSet
                0x0000000000000000       0x41 build/TP2802.o
 .rodata.TP2802D_DataSet
                0x0000000000000000       0x50 build/TP2802.o
 .text          0x0000000000000000        0x0 build/monitor.o
 .data          0x0000000000000000        0x0 build/monitor.o
 .bss           0x0000000000000000        0x0 build/monitor.o
 .text.a2i      0x0000000000000000       0x1c build/monitor.o
 .text.MonReadI2C
                0x0000000000000000        0x4 build/monitor.o
 .text.MonWriteI2C
                0x0000000000000000        0x4 build/monitor.o
 .text.MonDumpI2C
                0x0000000000000000        0x4 build/monitor.o
 .text.MonNewReadI2C
                0x0000000000000000        0x4 build/monitor.o
 .text.MonNewWriteI2C
                0x0000000000000000        0x4 build/monitor.o
 .text.MonNewDumpI2C
                0x0000000000000000        0x4 build/monitor.o
 .text.MonWriteBit
                0x0000000000000000        0x4 build/monitor.o
 .text.MonTxDump
                0x0000000000000000        0x4 build/monitor.o
 .data.MonAddress
                0x0000000000000000        0x1 build/monitor.o
 .bss.RS_Xbusy  0x0000000000000000        0x4 build/monitor.o
 .data.echo     0x0000000000000000        0x4 build/monitor.o
 .bss.RS2_Xbusy
                0x0000000000000000        0x4 build/monitor.o
 .text          0x0000000000000000        0x0 build/Printf.o
 .data          0x0000000000000000        0x0 build/Printf.o
 .bss           0x0000000000000000        0x0 build/Printf.o
 .text.Puts     0x0000000000000000       0x14 build/Printf.o
 .text          0x0000000000000000        0x0 build/SysTimer.o
 .data          0x0000000000000000        0x0 build/SysTimer.o
 .bss           0x0000000000000000        0x0 build/SysTimer.o
 .text.MCUTimerDelayXms
                0x0000000000000000       0x24 build/SysTimer.o
 .text.MCUTimerCancelTimerEvent
                0x0000000000000000       0x3c build/SysTimer.o
 .text.PowerLED
                0x0000000000000000       0x68 build/SysTimer.o
 .text.UserInterfaceTimerEventProc
                0x0000000000000000        0x4 build/SysTimer.o
 .text.MCUTimerEventProc
                0x0000000000000000        0x4 build/SysTimer.o
 .bss.led_Flag  0x0000000000000000        0x1 build/SysTimer.o
 .bss.tic05     0x0000000000000000        0x4 build/SysTimer.o
 .bss.PSW_Flag  0x0000000000000000        0x1 build/SysTimer.o
 .bss.WDT_Echo_Count
                0x0000000000000000        0x1 build/SysTimer.o
 .bss.year1     0x0000000000000000        0x1 build/SysTimer.o
 .bss.year2     0x0000000000000000        0x1 build/SysTimer.o
 .bss.month     0x0000000000000000        0x1 build/SysTimer.o
 .text          0x0000000000000000        0x0 build/exosd.o
 .data          0x0000000000000000        0x0 build/exosd.o
 .bss           0x0000000000000000        0x0 build/exosd.o
 .text          0x0000000000000000        0x0 build/TOA_Protocol.o
 .data          0x0000000000000000        0x0 build/TOA_Protocol.o
 .bss           0x0000000000000000        0x0 build/TOA_Protocol.o
 .text          0x0000000000000000        0x0 build/etc_eep.o
 .data          0x0000000000000000        0x0 build/etc_eep.o
 .bss           0x0000000000000000        0x0 build/etc_eep.o
 .text.GetDebugLevelEE
                0x0000000000000000        0xc build/etc_eep.o
 .text.GetAudioVolEE
                0x0000000000000000        0xc build/etc_eep.o
 .text.SetAudioVolEE
                0x0000000000000000        0xc build/etc_eep.o
 .text.GetPCAudioVolEE
                0x0000000000000000        0xc build/etc_eep.o
 .text.SetPCAudioVolEE
                0x0000000000000000        0xc build/etc_eep.o
 .text          0x0000000000000000       0x14 build/startup_stm32f103xb.o
 .data          0x0000000000000000        0x0 build/startup_stm32f103xb.o
 .bss           0x0000000000000000        0x0 build/startup_stm32f103xb.o
 .text          0x0000000000000000        0x0 /usr/lib/gcc/arm-none-eabi/4.9.3/../../../arm-none-eabi/lib/armv7-m/libc_nano.a(lib_a-atexit.o)
 .data          0x0000000000000000        0x0 /usr/lib/gcc/arm-none-eabi/4.9.3/../../../arm-none-eabi/lib/armv7-m/libc_nano.a(lib_a-atexit.o)
 .bss           0x0000000000000000        0x0 /usr/lib/gcc/arm-none-eabi/4.9.3/../../../arm-none-eabi/lib/armv7-m/libc_nano.a(lib_a-atexit.o)
 .text.atexit   0x0000000000000000        0xc /usr/lib/gcc/arm-none-eabi/4.9.3/../../../arm-none-eabi/lib/armv7-m/libc_nano.a(lib_a-atexit.o)
 .debug_info    0x0000000000000000      0x10a /usr/lib/gcc/arm-none-eabi/4.9.3/../../../arm-none-eabi/lib/armv7-m/libc_nano.a(lib_a-atexit.o)
 .debug_abbrev  0x0000000000000000       0xb8 /usr/lib/gcc/arm-none-eabi/4.9.3/../../../arm-none-eabi/lib/armv7-m/libc_nano.a(lib_a-atexit.o)
 .debug_loc     0x0000000000000000       0x2c /usr/lib/gcc/arm-none-eabi/4.9.3/../../../arm-none-eabi/lib/armv7-m/libc_nano.a(lib_a-atexit.o)
 .debug_aranges
                0x0000000000000000       0x20 /usr/lib/gcc/arm-none-eabi/4.9.3/../../../arm-none-eabi/lib/armv7-m/libc_nano.a(lib_a-atexit.o)
 .debug_ranges  0x0000000000000000       0x10 /usr/lib/gcc/arm-none-eabi/4.9.3/../../../arm-none-eabi/lib/armv7-m/libc_nano.a(lib_a-atexit.o)
 .debug_line    0x0000000000000000       0xc1 /usr/lib/gcc/arm-none-eabi/4.9.3/../../../arm-none-eabi/lib/armv7-m/libc_nano.a(lib_a-atexit.o)
 .debug_str     0x0000000000000000      0x20f /usr/lib/gcc/arm-none-eabi/4.9.3/../../../arm-none-eabi/lib/armv7-m/libc_nano.a(lib_a-atexit.o)
 .comment       0x0000000000000000       0x39 /usr/lib/gcc/arm-none-eabi/4.9.3/../../../arm-none-eabi/lib/armv7-m/libc_nano.a(lib_a-atexit.o)
 .debug_frame   0x0000000000000000       0x20 /usr/lib/gcc/arm-none-eabi/4.9.3/../../../arm-none-eabi/lib/armv7-m/libc_nano.a(lib_a-atexit.o)
 .ARM.attributes
                0x0000000000000000       0x2d /usr/lib/gcc/arm-none-eabi/4.9.3/../../../arm-none-eabi/lib/armv7-m/libc_nano.a(lib_a-atexit.o)
 .text          0x0000000000000000        0x0 /usr/lib/gcc/arm-none-eabi/4.9.3/../../../arm-none-eabi/lib/armv7-m/libc_nano.a(lib_a-errno.o)
 .data          0x0000000000000000        0x0 /usr/lib/gcc/arm-none-eabi/4.9.3/../../../arm-none-eabi/lib/armv7-m/libc_nano.a(lib_a-errno.o)
 .bss           0x0000000000000000        0x0 /usr/lib/gcc/arm-none-eabi/4.9.3/../../../arm-none-eabi/lib/armv7-m/libc_nano.a(lib_a-errno.o)
 .text          0x0000000000000000        0x0 /usr/lib/gcc/arm-none-eabi/4.9.3/../../../arm-none-eabi/lib/armv7-m/libc_nano.a(lib_a-exit.o)
 .data          0x0000000000000000        0x0 /usr/lib/gcc/arm-none-eabi/4.9.3/../../../arm-none-eabi/lib/armv7-m/libc_nano.a(lib_a-exit.o)
 .bss           0x0000000000000000        0x0 /usr/lib/gcc/arm-none-eabi/4.9.3/../../../arm-none-eabi/lib/armv7-m/libc_nano.a(lib_a-exit.o)
 .text.exit     0x0000000000000000       0x28 /usr/lib/gcc/arm-none-eabi/4.9.3/../../../arm-none-eabi/lib/armv7-m/libc_nano.a(lib_a-exit.o)
 .debug_info    0x0000000000000000      0x7a6 /usr/lib/gcc/arm-none-eabi/4.9.3/../../../arm-none-eabi/lib/armv7-m/libc_nano.a(lib_a-exit.o)
 .debug_abbrev  0x0000000000000000      0x18b /usr/lib/gcc/arm-none-eabi/4.9.3/../../../arm-none-eabi/lib/armv7-m/libc_nano.a(lib_a-exit.o)
 .debug_loc     0x0000000000000000       0x1e /usr/lib/gcc/arm-none-eabi/4.9.3/../../../arm-none-eabi/lib/armv7-m/libc_nano.a(lib_a-exit.o)
 .debug_aranges
                0x0000000000000000       0x20 /usr/lib/gcc/arm-none-eabi/4.9.3/../../../arm-none-eabi/lib/armv7-m/libc_nano.a(lib_a-exit.o)
 .debug_ranges  0x0000000000000000       0x10 /usr/lib/gcc/arm-none-eabi/4.9.3/../../../arm-none-eabi/lib/armv7-m/libc_nano.a(lib_a-exit.o)
 .debug_line    0x0000000000000000      0x168 /usr/lib/gcc/arm-none-eabi/4.9.3/../../../arm-none-eabi/lib/armv7-m/libc_nano.a(lib_a-exit.o)
 .debug_str     0x0000000000000000      0x544 /usr/lib/gcc/arm-none-eabi/4.9.3/../../../arm-none-eabi/lib/armv7-m/libc_nano.a(lib_a-exit.o)
 .comment       0x0000000000000000       0x39 /usr/lib/gcc/arm-none-eabi/4.9.3/../../../arm-none-eabi/lib/armv7-m/libc_nano.a(lib_a-exit.o)
 .debug_frame   0x0000000000000000       0x28 /usr/lib/gcc/arm-none-eabi/4.9.3/../../../arm-none-eabi/lib/armv7-m/libc_nano.a(lib_a-exit.o)
 .ARM.attributes
                0x0000000000000000       0x2d /usr/lib/gcc/arm-none-eabi/4.9.3/../../../arm-none-eabi/lib/armv7-m/libc_nano.a(lib_a-exit.o)
 .text          0x0000000000000000        0x0 /usr/lib/gcc/arm-none-eabi/4.9.3/../../../arm-none-eabi/lib/armv7-m/libc_nano.a(lib_a-fini.o)
 .data          0x0000000000000000        0x0 /usr/lib/gcc/arm-none-eabi/4.9.3/../../../arm-none-eabi/lib/armv7-m/libc_nano.a(lib_a-fini.o)
 .bss           0x0000000000000000        0x0 /usr/lib/gcc/arm-none-eabi/4.9.3/../../../arm-none-eabi/lib/armv7-m/libc_nano.a(lib_a-fini.o)
 .text.__libc_fini_array
                0x0000000000000000       0x28 /usr/lib/gcc/arm-none-eabi/4.9.3/../../../arm-none-eabi/lib/armv7-m/libc_nano.a(lib_a-fini.o)
 .debug_info    0x0000000000000000       0xeb /usr/lib/gcc/arm-none-eabi/4.9.3/../../../arm-none-eabi/lib/armv7-m/libc_nano.a(lib_a-fini.o)
 .debug_abbrev  0x0000000000000000       0xbb /usr/lib/gcc/arm-none-eabi/4.9.3/../../../arm-none-eabi/lib/armv7-m/libc_nano.a(lib_a-fini.o)
 .debug_loc     0x0000000000000000       0x2b /usr/lib/gcc/arm-none-eabi/4.9.3/../../../arm-none-eabi/lib/armv7-m/libc_nano.a(lib_a-fini.o)
 .debug_aranges
                0x0000000000000000       0x20 /usr/lib/gcc/arm-none-eabi/4.9.3/../../../arm-none-eabi/lib/armv7-m/libc_nano.a(lib_a-fini.o)
 .debug_ranges  0x0000000000000000       0x10 /usr/lib/gcc/arm-none-eabi/4.9.3/../../../arm-none-eabi/lib/armv7-m/libc_nano.a(lib_a-fini.o)
 .debug_line    0x0000000000000000       0x9b /usr/lib/gcc/arm-none-eabi/4.9.3/../../../arm-none-eabi/lib/armv7-m/libc_nano.a(lib_a-fini.o)
 .debug_str     0x0000000000000000      0x207 /usr/lib/gcc/arm-none-eabi/4.9.3/../../../arm-none-eabi/lib/armv7-m/libc_nano.a(lib_a-fini.o)
 .comment       0x0000000000000000       0x39 /usr/lib/gcc/arm-none-eabi/4.9.3/../../../arm-none-eabi/lib/armv7-m/libc_nano.a(lib_a-fini.o)
 .debug_frame   0x0000000000000000       0x34 /usr/lib/gcc/arm-none-eabi/4.9.3/../../../arm-none-eabi/lib/armv7-m/libc_nano.a(lib_a-fini.o)
 .ARM.attributes
                0x0000000000000000       0x2d /usr/lib/gcc/arm-none-eabi/4.9.3/../../../arm-none-eabi/lib/armv7-m/libc_nano.a(lib_a-fini.o)
 .text          0x0000000000000000        0x0 /usr/lib/gcc/arm-none-eabi/4.9.3/../../../arm-none-eabi/lib/armv7-m/libc_nano.a(lib_a-impure.o)
 .data          0x0000000000000000        0x0 /usr/lib/gcc/arm-none-eabi/4.9.3/../../../arm-none-eabi/lib/armv7-m/libc_nano.a(lib_a-impure.o)
 .bss           0x0000000000000000        0x0 /usr/lib/gcc/arm-none-eabi/4.9.3/../../../arm-none-eabi/lib/armv7-m/libc_nano.a(lib_a-impure.o)
 .text          0x0000000000000000        0x0 /usr/lib/gcc/arm-none-eabi/4.9.3/../../../arm-none-eabi/lib/armv7-m/libc_nano.a(lib_a-init.o)
 .data          0x0000000000000000        0x0 /usr/lib/gcc/arm-none-eabi/4.9.3/../../../arm-none-eabi/lib/armv7-m/libc_nano.a(lib_a-init.o)
 .bss           0x0000000000000000        0x0 /usr/lib/gcc/arm-none-eabi/4.9.3/../../../arm-none-eabi/lib/armv7-m/libc_nano.a(lib_a-init.o)
 .text          0x0000000000000000        0x0 /usr/lib/gcc/arm-none-eabi/4.9.3/../../../arm-none-eabi/lib/armv7-m/libc_nano.a(lib_a-memcpy.o)
 .data          0x0000000000000000        0x0 /usr/lib/gcc/arm-none-eabi/4.9.3/../../../arm-none-eabi/lib/armv7-m/libc_nano.a(lib_a-memcpy.o)
 .bss           0x0000000000000000        0x0 /usr/lib/gcc/arm-none-eabi/4.9.3/../../../arm-none-eabi/lib/armv7-m/libc_nano.a(lib_a-memcpy.o)
 .text          0x0000000000000000        0x0 /usr/lib/gcc/arm-none-eabi/4.9.3/../../../arm-none-eabi/lib/armv7-m/libc_nano.a(lib_a-memset.o)
 .data          0x0000000000000000        0x0 /usr/lib/gcc/arm-none-eabi/4.9.3/../../../arm-none-eabi/lib/armv7-m/libc_nano.a(lib_a-memset.o)
 .bss           0x0000000000000000        0x0 /usr/lib/gcc/arm-none-eabi/4.9.3/../../../arm-none-eabi/lib/armv7-m/libc_nano.a(lib_a-memset.o)
 .text          0x0000000000000000        0x0 /usr/lib/gcc/arm-none-eabi/4.9.3/../../../arm-none-eabi/lib/armv7-m/libc_nano.a(lib_a-printf.o)
 .data          0x0000000000000000        0x0 /usr/lib/gcc/arm-none-eabi/4.9.3/../../../arm-none-eabi/lib/armv7-m/libc_nano.a(lib_a-printf.o)
 .bss           0x0000000000000000        0x0 /usr/lib/gcc/arm-none-eabi/4.9.3/../../../arm-none-eabi/lib/armv7-m/libc_nano.a(lib_a-printf.o)
 .text._printf_r
                0x0000000000000000       0x28 /usr/lib/gcc/arm-none-eabi/4.9.3/../../../arm-none-eabi/lib/armv7-m/libc_nano.a(lib_a-printf.o)
 .text          0x0000000000000000        0x0 /usr/lib/gcc/arm-none-eabi/4.9.3/../../../arm-none-eabi/lib/armv7-m/libc_nano.a(lib_a-puts.o)
 .data          0x0000000000000000        0x0 /usr/lib/gcc/arm-none-eabi/4.9.3/../../../arm-none-eabi/lib/armv7-m/libc_nano.a(lib_a-puts.o)
 .bss           0x0000000000000000        0x0 /usr/lib/gcc/arm-none-eabi/4.9.3/../../../arm-none-eabi/lib/armv7-m/libc_nano.a(lib_a-puts.o)
 .text          0x0000000000000000        0x0 /usr/lib/gcc/arm-none-eabi/4.9.3/../../../arm-none-eabi/lib/armv7-m/libc_nano.a(lib_a-strtol.o)
 .data          0x0000000000000000        0x0 /usr/lib/gcc/arm-none-eabi/4.9.3/../../../arm-none-eabi/lib/armv7-m/libc_nano.a(lib_a-strtol.o)
 .bss           0x0000000000000000        0x0 /usr/lib/gcc/arm-none-eabi/4.9.3/../../../arm-none-eabi/lib/armv7-m/libc_nano.a(lib_a-strtol.o)
 .text._strtol_r
                0x0000000000000000      0x10c /usr/lib/gcc/arm-none-eabi/4.9.3/../../../arm-none-eabi/lib/armv7-m/libc_nano.a(lib_a-strtol.o)
 .text.strtol   0x0000000000000000       0x1c /usr/lib/gcc/arm-none-eabi/4.9.3/../../../arm-none-eabi/lib/armv7-m/libc_nano.a(lib_a-strtol.o)
 .debug_info    0x0000000000000000      0x853 /usr/lib/gcc/arm-none-eabi/4.9.3/../../../arm-none-eabi/lib/armv7-m/libc_nano.a(lib_a-strtol.o)
 .debug_abbrev  0x0000000000000000      0x1ac /usr/lib/gcc/arm-none-eabi/4.9.3/../../../arm-none-eabi/lib/armv7-m/libc_nano.a(lib_a-strtol.o)
 .debug_loc     0x0000000000000000      0x354 /usr/lib/gcc/arm-none-eabi/4.9.3/../../../arm-none-eabi/lib/armv7-m/libc_nano.a(lib_a-strtol.o)
 .debug_aranges
                0x0000000000000000       0x28 /usr/lib/gcc/arm-none-eabi/4.9.3/../../../arm-none-eabi/lib/armv7-m/libc_nano.a(lib_a-strtol.o)
 .debug_ranges  0x0000000000000000       0x18 /usr/lib/gcc/arm-none-eabi/4.9.3/../../../arm-none-eabi/lib/armv7-m/libc_nano.a(lib_a-strtol.o)
 .debug_line    0x0000000000000000      0x1de /usr/lib/gcc/arm-none-eabi/4.9.3/../../../arm-none-eabi/lib/armv7-m/libc_nano.a(lib_a-strtol.o)
 .debug_str     0x0000000000000000      0x561 /usr/lib/gcc/arm-none-eabi/4.9.3/../../../arm-none-eabi/lib/armv7-m/libc_nano.a(lib_a-strtol.o)
 .comment       0x0000000000000000       0x39 /usr/lib/gcc/arm-none-eabi/4.9.3/../../../arm-none-eabi/lib/armv7-m/libc_nano.a(lib_a-strtol.o)
 .debug_frame   0x0000000000000000       0x54 /usr/lib/gcc/arm-none-eabi/4.9.3/../../../arm-none-eabi/lib/armv7-m/libc_nano.a(lib_a-strtol.o)
 .ARM.attributes
                0x0000000000000000       0x2d /usr/lib/gcc/arm-none-eabi/4.9.3/../../../arm-none-eabi/lib/armv7-m/libc_nano.a(lib_a-strtol.o)
 .text          0x0000000000000000        0x0 /usr/lib/gcc/arm-none-eabi/4.9.3/../../../arm-none-eabi/lib/armv7-m/libc_nano.a(lib_a-wbuf.o)
 .data          0x0000000000000000        0x0 /usr/lib/gcc/arm-none-eabi/4.9.3/../../../arm-none-eabi/lib/armv7-m/libc_nano.a(lib_a-wbuf.o)
 .bss           0x0000000000000000        0x0 /usr/lib/gcc/arm-none-eabi/4.9.3/../../../arm-none-eabi/lib/armv7-m/libc_nano.a(lib_a-wbuf.o)
 .text.__swbuf  0x0000000000000000       0x14 /usr/lib/gcc/arm-none-eabi/4.9.3/../../../arm-none-eabi/lib/armv7-m/libc_nano.a(lib_a-wbuf.o)
 .text          0x0000000000000000        0x0 /usr/lib/gcc/arm-none-eabi/4.9.3/../../../arm-none-eabi/lib/armv7-m/libc_nano.a(lib_a-wsetup.o)
 .data          0x0000000000000000        0x0 /usr/lib/gcc/arm-none-eabi/4.9.3/../../../arm-none-eabi/lib/armv7-m/libc_nano.a(lib_a-wsetup.o)
 .bss           0x0000000000000000        0x0 /usr/lib/gcc/arm-none-eabi/4.9.3/../../../arm-none-eabi/lib/armv7-m/libc_nano.a(lib_a-wsetup.o)
 .text          0x0000000000000000        0x0 /usr/lib/gcc/arm-none-eabi/4.9.3/../../../arm-none-eabi/lib/armv7-m/libc_nano.a(lib_a-__atexit.o)
 .data          0x0000000000000000        0x0 /usr/lib/gcc/arm-none-eabi/4.9.3/../../../arm-none-eabi/lib/armv7-m/libc_nano.a(lib_a-__atexit.o)
 .bss           0x0000000000000000        0x0 /usr/lib/gcc/arm-none-eabi/4.9.3/../../../arm-none-eabi/lib/armv7-m/libc_nano.a(lib_a-__atexit.o)
 .text.__register_exitproc
                0x0000000000000000       0xb8 /usr/lib/gcc/arm-none-eabi/4.9.3/../../../arm-none-eabi/lib/armv7-m/libc_nano.a(lib_a-__atexit.o)
 .bss._global_atexit0
                0x0000000000000000       0x8c /usr/lib/gcc/arm-none-eabi/4.9.3/../../../arm-none-eabi/lib/armv7-m/libc_nano.a(lib_a-__atexit.o)
 .data.__atexit_dummy
                0x0000000000000000        0x4 /usr/lib/gcc/arm-none-eabi/4.9.3/../../../arm-none-eabi/lib/armv7-m/libc_nano.a(lib_a-__atexit.o)
 .debug_info    0x0000000000000000      0x23b /usr/lib/gcc/arm-none-eabi/4.9.3/../../../arm-none-eabi/lib/armv7-m/libc_nano.a(lib_a-__atexit.o)
 .debug_abbrev  0x0000000000000000      0x180 /usr/lib/gcc/arm-none-eabi/4.9.3/../../../arm-none-eabi/lib/armv7-m/libc_nano.a(lib_a-__atexit.o)
 .debug_loc     0x0000000000000000      0x1a2 /usr/lib/gcc/arm-none-eabi/4.9.3/../../../arm-none-eabi/lib/armv7-m/libc_nano.a(lib_a-__atexit.o)
 .debug_aranges
                0x0000000000000000       0x20 /usr/lib/gcc/arm-none-eabi/4.9.3/../../../arm-none-eabi/lib/armv7-m/libc_nano.a(lib_a-__atexit.o)
 .debug_ranges  0x0000000000000000       0x10 /usr/lib/gcc/arm-none-eabi/4.9.3/../../../arm-none-eabi/lib/armv7-m/libc_nano.a(lib_a-__atexit.o)
 .debug_line    0x0000000000000000      0x17c /usr/lib/gcc/arm-none-eabi/4.9.3/../../../arm-none-eabi/lib/armv7-m/libc_nano.a(lib_a-__atexit.o)
 .debug_str     0x0000000000000000      0x2b5 /usr/lib/gcc/arm-none-eabi/4.9.3/../../../arm-none-eabi/lib/armv7-m/libc_nano.a(lib_a-__atexit.o)
 .comment       0x0000000000000000       0x39 /usr/lib/gcc/arm-none-eabi/4.9.3/../../../arm-none-eabi/lib/armv7-m/libc_nano.a(lib_a-__atexit.o)
 .debug_frame   0x0000000000000000       0x34 /usr/lib/gcc/arm-none-eabi/4.9.3/../../../arm-none-eabi/lib/armv7-m/libc_nano.a(lib_a-__atexit.o)
 .ARM.attributes
                0x0000000000000000       0x2d /usr/lib/gcc/arm-none-eabi/4.9.3/../../../arm-none-eabi/lib/armv7-m/libc_nano.a(lib_a-__atexit.o)
 .text          0x0000000000000000        0x0 /usr/lib/gcc/arm-none-eabi/4.9.3/../../../arm-none-eabi/lib/armv7-m/libc_nano.a(lib_a-__call_atexit.o)
 .data          0x0000000000000000        0x0 /usr/lib/gcc/arm-none-eabi/4.9.3/../../../arm-none-eabi/lib/armv7-m/libc_nano.a(lib_a-__call_atexit.o)
 .bss           0x0000000000000000        0x0 /usr/lib/gcc/arm-none-eabi/4.9.3/../../../arm-none-eabi/lib/armv7-m/libc_nano.a(lib_a-__call_atexit.o)
 .text.__call_exitprocs
                0x0000000000000000       0xd4 /usr/lib/gcc/arm-none-eabi/4.9.3/../../../arm-none-eabi/lib/armv7-m/libc_nano.a(lib_a-__call_atexit.o)
 .bss._global_atexit
                0x0000000000000000        0x4 /usr/lib/gcc/arm-none-eabi/4.9.3/../../../arm-none-eabi/lib/armv7-m/libc_nano.a(lib_a-__call_atexit.o)
 .debug_info    0x0000000000000000      0x241 /usr/lib/gcc/arm-none-eabi/4.9.3/../../../arm-none-eabi/lib/armv7-m/libc_nano.a(lib_a-__call_atexit.o)
 .debug_abbrev  0x0000000000000000      0x16d /usr/lib/gcc/arm-none-eabi/4.9.3/../../../arm-none-eabi/lib/armv7-m/libc_nano.a(lib_a-__call_atexit.o)
 .debug_loc     0x0000000000000000      0x16c /usr/lib/gcc/arm-none-eabi/4.9.3/../../../arm-none-eabi/lib/armv7-m/libc_nano.a(lib_a-__call_atexit.o)
 .debug_aranges
                0x0000000000000000       0x20 /usr/lib/gcc/arm-none-eabi/4.9.3/../../../arm-none-eabi/lib/armv7-m/libc_nano.a(lib_a-__call_atexit.o)
 .debug_ranges  0x0000000000000000       0x10 /usr/lib/gcc/arm-none-eabi/4.9.3/../../../arm-none-eabi/lib/armv7-m/libc_nano.a(lib_a-__call_atexit.o)
 .debug_line    0x0000000000000000      0x180 /usr/lib/gcc/arm-none-eabi/4.9.3/../../../arm-none-eabi/lib/armv7-m/libc_nano.a(lib_a-__call_atexit.o)
 .debug_str     0x0000000000000000      0x27b /usr/lib/gcc/arm-none-eabi/4.9.3/../../../arm-none-eabi/lib/armv7-m/libc_nano.a(lib_a-__call_atexit.o)
 .comment       0x0000000000000000       0x39 /usr/lib/gcc/arm-none-eabi/4.9.3/../../../arm-none-eabi/lib/armv7-m/libc_nano.a(lib_a-__call_atexit.o)
 .debug_frame   0x0000000000000000       0x3c /usr/lib/gcc/arm-none-eabi/4.9.3/../../../arm-none-eabi/lib/armv7-m/libc_nano.a(lib_a-__call_atexit.o)
 .ARM.attributes
                0x0000000000000000       0x2d /usr/lib/gcc/arm-none-eabi/4.9.3/../../../arm-none-eabi/lib/armv7-m/libc_nano.a(lib_a-__call_atexit.o)
 .text          0x0000000000000000        0x0 /usr/lib/gcc/arm-none-eabi/4.9.3/../../../arm-none-eabi/lib/armv7-m/libc_nano.a(lib_a-ctype_.o)
 .data          0x0000000000000000        0x0 /usr/lib/gcc/arm-none-eabi/4.9.3/../../../arm-none-eabi/lib/armv7-m/libc_nano.a(lib_a-ctype_.o)
 .bss           0x0000000000000000        0x0 /usr/lib/gcc/arm-none-eabi/4.9.3/../../../arm-none-eabi/lib/armv7-m/libc_nano.a(lib_a-ctype_.o)
 .data.__ctype_ptr__
                0x0000000000000000        0x4 /usr/lib/gcc/arm-none-eabi/4.9.3/../../../arm-none-eabi/lib/armv7-m/libc_nano.a(lib_a-ctype_.o)
 .rodata._ctype_
                0x0000000000000000      0x101 /usr/lib/gcc/arm-none-eabi/4.9.3/../../../arm-none-eabi/lib/armv7-m/libc_nano.a(lib_a-ctype_.o)
 .debug_info    0x0000000000000000       0x6f /usr/lib/gcc/arm-none-eabi/4.9.3/../../../arm-none-eabi/lib/armv7-m/libc_nano.a(lib_a-ctype_.o)
 .debug_abbrev  0x0000000000000000       0x4e /usr/lib/gcc/arm-none-eabi/4.9.3/../../../arm-none-eabi/lib/armv7-m/libc_nano.a(lib_a-ctype_.o)
 .debug_aranges
                0x0000000000000000       0x18 /usr/lib/gcc/arm-none-eabi/4.9.3/../../../arm-none-eabi/lib/armv7-m/libc_nano.a(lib_a-ctype_.o)
 .debug_line    0x0000000000000000       0x72 /usr/lib/gcc/arm-none-eabi/4.9.3/../../../arm-none-eabi/lib/armv7-m/libc_nano.a(lib_a-ctype_.o)
 .debug_str     0x0000000000000000      0x154 /usr/lib/gcc/arm-none-eabi/4.9.3/../../../arm-none-eabi/lib/armv7-m/libc_nano.a(lib_a-ctype_.o)
 .comment       0x0000000000000000       0x39 /usr/lib/gcc/arm-none-eabi/4.9.3/../../../arm-none-eabi/lib/armv7-m/libc_nano.a(lib_a-ctype_.o)
 .ARM.attributes
                0x0000000000000000       0x2d /usr/lib/gcc/arm-none-eabi/4.9.3/../../../arm-none-eabi/lib/armv7-m/libc_nano.a(lib_a-ctype_.o)
 .text          0x0000000000000000        0x0 /usr/lib/gcc/arm-none-eabi/4.9.3/../../../arm-none-eabi/lib/armv7-m/libc_nano.a(lib_a-fflush.o)
 .data          0x0000000000000000        0x0 /usr/lib/gcc/arm-none-eabi/4.9.3/../../../arm-none-eabi/lib/armv7-m/libc_nano.a(lib_a-fflush.o)
 .bss           0x0000000000000000        0x0 /usr/lib/gcc/arm-none-eabi/4.9.3/../../../arm-none-eabi/lib/armv7-m/libc_nano.a(lib_a-fflush.o)
 .text.fflush   0x0000000000000000       0x24 /usr/lib/gcc/arm-none-eabi/4.9.3/../../../arm-none-eabi/lib/armv7-m/libc_nano.a(lib_a-fflush.o)
 .text          0x0000000000000000        0x0 /usr/lib/gcc/arm-none-eabi/4.9.3/../../../arm-none-eabi/lib/armv7-m/libc_nano.a(lib_a-findfp.o)
 .data          0x0000000000000000        0x0 /usr/lib/gcc/arm-none-eabi/4.9.3/../../../arm-none-eabi/lib/armv7-m/libc_nano.a(lib_a-findfp.o)
 .bss           0x0000000000000000        0x0 /usr/lib/gcc/arm-none-eabi/4.9.3/../../../arm-none-eabi/lib/armv7-m/libc_nano.a(lib_a-findfp.o)
 .text.__fp_lock
                0x0000000000000000        0x4 /usr/lib/gcc/arm-none-eabi/4.9.3/../../../arm-none-eabi/lib/armv7-m/libc_nano.a(lib_a-findfp.o)
 .text.__fp_unlock
                0x0000000000000000        0x4 /usr/lib/gcc/arm-none-eabi/4.9.3/../../../arm-none-eabi/lib/armv7-m/libc_nano.a(lib_a-findfp.o)
 .text._cleanup
                0x0000000000000000        0xc /usr/lib/gcc/arm-none-eabi/4.9.3/../../../arm-none-eabi/lib/armv7-m/libc_nano.a(lib_a-findfp.o)
 .text.__sfp_lock_acquire
                0x0000000000000000        0x2 /usr/lib/gcc/arm-none-eabi/4.9.3/../../../arm-none-eabi/lib/armv7-m/libc_nano.a(lib_a-findfp.o)
 .text.__sfp_lock_release
                0x0000000000000000        0x2 /usr/lib/gcc/arm-none-eabi/4.9.3/../../../arm-none-eabi/lib/armv7-m/libc_nano.a(lib_a-findfp.o)
 .text.__sinit_lock_acquire
                0x0000000000000000        0x2 /usr/lib/gcc/arm-none-eabi/4.9.3/../../../arm-none-eabi/lib/armv7-m/libc_nano.a(lib_a-findfp.o)
 .text.__sinit_lock_release
                0x0000000000000000        0x2 /usr/lib/gcc/arm-none-eabi/4.9.3/../../../arm-none-eabi/lib/armv7-m/libc_nano.a(lib_a-findfp.o)
 .text.__fp_lock_all
                0x0000000000000000       0x14 /usr/lib/gcc/arm-none-eabi/4.9.3/../../../arm-none-eabi/lib/armv7-m/libc_nano.a(lib_a-findfp.o)
 .text.__fp_unlock_all
                0x0000000000000000       0x14 /usr/lib/gcc/arm-none-eabi/4.9.3/../../../arm-none-eabi/lib/armv7-m/libc_nano.a(lib_a-findfp.o)
 .text          0x0000000000000000        0x0 /usr/lib/gcc/arm-none-eabi/4.9.3/../../../arm-none-eabi/lib/armv7-m/libc_nano.a(lib_a-fwalk.o)
 .data          0x0000000000000000        0x0 /usr/lib/gcc/arm-none-eabi/4.9.3/../../../arm-none-eabi/lib/armv7-m/libc_nano.a(lib_a-fwalk.o)
 .bss           0x0000000000000000        0x0 /usr/lib/gcc/arm-none-eabi/4.9.3/../../../arm-none-eabi/lib/armv7-m/libc_nano.a(lib_a-fwalk.o)
 .text._fwalk   0x0000000000000000       0x38 /usr/lib/gcc/arm-none-eabi/4.9.3/../../../arm-none-eabi/lib/armv7-m/libc_nano.a(lib_a-fwalk.o)
 .text          0x0000000000000000        0x0 /usr/lib/gcc/arm-none-eabi/4.9.3/../../../arm-none-eabi/lib/armv7-m/libc_nano.a(lib_a-makebuf.o)
 .data          0x0000000000000000        0x0 /usr/lib/gcc/arm-none-eabi/4.9.3/../../../arm-none-eabi/lib/armv7-m/libc_nano.a(lib_a-makebuf.o)
 .bss           0x0000000000000000        0x0 /usr/lib/gcc/arm-none-eabi/4.9.3/../../../arm-none-eabi/lib/armv7-m/libc_nano.a(lib_a-makebuf.o)
 .text          0x0000000000000000        0x0 /usr/lib/gcc/arm-none-eabi/4.9.3/../../../arm-none-eabi/lib/armv7-m/libc_nano.a(lib_a-nano-freer.o)
 .data          0x0000000000000000        0x0 /usr/lib/gcc/arm-none-eabi/4.9.3/../../../arm-none-eabi/lib/armv7-m/libc_nano.a(lib_a-nano-freer.o)
 .bss           0x0000000000000000        0x0 /usr/lib/gcc/arm-none-eabi/4.9.3/../../../arm-none-eabi/lib/armv7-m/libc_nano.a(lib_a-nano-freer.o)
 .text          0x0000000000000000        0x0 /usr/lib/gcc/arm-none-eabi/4.9.3/../../../arm-none-eabi/lib/armv7-m/libc_nano.a(lib_a-nano-mallocr.o)
 .data          0x0000000000000000        0x0 /usr/lib/gcc/arm-none-eabi/4.9.3/../../../arm-none-eabi/lib/armv7-m/libc_nano.a(lib_a-nano-mallocr.o)
 .bss           0x0000000000000000        0x0 /usr/lib/gcc/arm-none-eabi/4.9.3/../../../arm-none-eabi/lib/armv7-m/libc_nano.a(lib_a-nano-mallocr.o)
 .text          0x0000000000000000        0x0 /usr/lib/gcc/arm-none-eabi/4.9.3/../../../arm-none-eabi/lib/armv7-m/libc_nano.a(lib_a-nano-vfprintf.o)
 .data          0x0000000000000000        0x0 /usr/lib/gcc/arm-none-eabi/4.9.3/../../../arm-none-eabi/lib/armv7-m/libc_nano.a(lib_a-nano-vfprintf.o)
 .bss           0x0000000000000000        0x0 /usr/lib/gcc/arm-none-eabi/4.9.3/../../../arm-none-eabi/lib/armv7-m/libc_nano.a(lib_a-nano-vfprintf.o)
 .text.__sprint_r
                0x0000000000000000       0x1a /usr/lib/gcc/arm-none-eabi/4.9.3/../../../arm-none-eabi/lib/armv7-m/libc_nano.a(lib_a-nano-vfprintf.o)
 .text.vfprintf
                0x0000000000000000       0x1c /usr/lib/gcc/arm-none-eabi/4.9.3/../../../arm-none-eabi/lib/armv7-m/libc_nano.a(lib_a-nano-vfprintf.o)
 .text          0x0000000000000000        0x0 /usr/lib/gcc/arm-none-eabi/4.9.3/../../../arm-none-eabi/lib/armv7-m/libc_nano.a(lib_a-nano-vfprintf_i.o)
 .data          0x0000000000000000        0x0 /usr/lib/gcc/arm-none-eabi/4.9.3/../../../arm-none-eabi/lib/armv7-m/libc_nano.a(lib_a-nano-vfprintf_i.o)
 .bss           0x0000000000000000        0x0 /usr/lib/gcc/arm-none-eabi/4.9.3/../../../arm-none-eabi/lib/armv7-m/libc_nano.a(lib_a-nano-vfprintf_i.o)
 .text          0x0000000000000000        0x0 /usr/lib/gcc/arm-none-eabi/4.9.3/../../../arm-none-eabi/lib/armv7-m/libc_nano.a(lib_a-sbrkr.o)
 .data          0x0000000000000000        0x0 /usr/lib/gcc/arm-none-eabi/4.9.3/../../../arm-none-eabi/lib/armv7-m/libc_nano.a(lib_a-sbrkr.o)
 .bss           0x0000000000000000        0x0 /usr/lib/gcc/arm-none-eabi/4.9.3/../../../arm-none-eabi/lib/armv7-m/libc_nano.a(lib_a-sbrkr.o)
 .text          0x0000000000000000        0x0 /usr/lib/gcc/arm-none-eabi/4.9.3/../../../arm-none-eabi/lib/armv7-m/libc_nano.a(lib_a-stdio.o)
 .data          0x0000000000000000        0x0 /usr/lib/gcc/arm-none-eabi/4.9.3/../../../arm-none-eabi/lib/armv7-m/libc_nano.a(lib_a-stdio.o)
 .bss           0x0000000000000000        0x0 /usr/lib/gcc/arm-none-eabi/4.9.3/../../../arm-none-eabi/lib/armv7-m/libc_nano.a(lib_a-stdio.o)
 .text.__seofread
                0x0000000000000000        0x4 /usr/lib/gcc/arm-none-eabi/4.9.3/../../../arm-none-eabi/lib/armv7-m/libc_nano.a(lib_a-stdio.o)
 .text          0x0000000000000000        0x0 /usr/lib/gcc/arm-none-eabi/4.9.3/../../../arm-none-eabi/lib/armv7-m/libc_nano.a(lib_a-writer.o)
 .data          0x0000000000000000        0x0 /usr/lib/gcc/arm-none-eabi/4.9.3/../../../arm-none-eabi/lib/armv7-m/libc_nano.a(lib_a-writer.o)
 .bss           0x0000000000000000        0x0 /usr/lib/gcc/arm-none-eabi/4.9.3/../../../arm-none-eabi/lib/armv7-m/libc_nano.a(lib_a-writer.o)
 .text          0x0000000000000000        0x0 /usr/lib/gcc/arm-none-eabi/4.9.3/../../../arm-none-eabi/lib/armv7-m/libc_nano.a(lib_a-closer.o)
 .data          0x0000000000000000        0x0 /usr/lib/gcc/arm-none-eabi/4.9.3/../../../arm-none-eabi/lib/armv7-m/libc_nano.a(lib_a-closer.o)
 .bss           0x0000000000000000        0x0 /usr/lib/gcc/arm-none-eabi/4.9.3/../../../arm-none-eabi/lib/armv7-m/libc_nano.a(lib_a-closer.o)
 .text          0x0000000000000000        0x0 /usr/lib/gcc/arm-none-eabi/4.9.3/../../../arm-none-eabi/lib/armv7-m/libc_nano.a(lib_a-fstatr.o)
 .data          0x0000000000000000        0x0 /usr/lib/gcc/arm-none-eabi/4.9.3/../../../arm-none-eabi/lib/armv7-m/libc_nano.a(lib_a-fstatr.o)
 .bss           0x0000000000000000        0x0 /usr/lib/gcc/arm-none-eabi/4.9.3/../../../arm-none-eabi/lib/armv7-m/libc_nano.a(lib_a-fstatr.o)
 .text          0x0000000000000000        0x0 /usr/lib/gcc/arm-none-eabi/4.9.3/../../../arm-none-eabi/lib/armv7-m/libc_nano.a(lib_a-fvwrite.o)
 .data          0x0000000000000000        0x0 /usr/lib/gcc/arm-none-eabi/4.9.3/../../../arm-none-eabi/lib/armv7-m/libc_nano.a(lib_a-fvwrite.o)
 .bss           0x0000000000000000        0x0 /usr/lib/gcc/arm-none-eabi/4.9.3/../../../arm-none-eabi/lib/armv7-m/libc_nano.a(lib_a-fvwrite.o)
 .text.__sfvwrite_r
                0x0000000000000000      0x2a0 /usr/lib/gcc/arm-none-eabi/4.9.3/../../../arm-none-eabi/lib/armv7-m/libc_nano.a(lib_a-fvwrite.o)
 .debug_info    0x0000000000000000      0xb1e /usr/lib/gcc/arm-none-eabi/4.9.3/../../../arm-none-eabi/lib/armv7-m/libc_nano.a(lib_a-fvwrite.o)
 .debug_abbrev  0x0000000000000000      0x1f1 /usr/lib/gcc/arm-none-eabi/4.9.3/../../../arm-none-eabi/lib/armv7-m/libc_nano.a(lib_a-fvwrite.o)
 .debug_loc     0x0000000000000000      0x51c /usr/lib/gcc/arm-none-eabi/4.9.3/../../../arm-none-eabi/lib/armv7-m/libc_nano.a(lib_a-fvwrite.o)
 .debug_aranges
                0x0000000000000000       0x20 /usr/lib/gcc/arm-none-eabi/4.9.3/../../../arm-none-eabi/lib/armv7-m/libc_nano.a(lib_a-fvwrite.o)
 .debug_ranges  0x0000000000000000       0x10 /usr/lib/gcc/arm-none-eabi/4.9.3/../../../arm-none-eabi/lib/armv7-m/libc_nano.a(lib_a-fvwrite.o)
 .debug_line    0x0000000000000000      0x273 /usr/lib/gcc/arm-none-eabi/4.9.3/../../../arm-none-eabi/lib/armv7-m/libc_nano.a(lib_a-fvwrite.o)
 .debug_str     0x0000000000000000      0x5cd /usr/lib/gcc/arm-none-eabi/4.9.3/../../../arm-none-eabi/lib/armv7-m/libc_nano.a(lib_a-fvwrite.o)
 .comment       0x0000000000000000       0x39 /usr/lib/gcc/arm-none-eabi/4.9.3/../../../arm-none-eabi/lib/armv7-m/libc_nano.a(lib_a-fvwrite.o)
 .debug_frame   0x0000000000000000       0x3c /usr/lib/gcc/arm-none-eabi/4.9.3/../../../arm-none-eabi/lib/armv7-m/libc_nano.a(lib_a-fvwrite.o)
 .ARM.attributes
                0x0000000000000000       0x2d /usr/lib/gcc/arm-none-eabi/4.9.3/../../../arm-none-eabi/lib/armv7-m/libc_nano.a(lib_a-fvwrite.o)
 .text          0x0000000000000000        0x0 /usr/lib/gcc/arm-none-eabi/4.9.3/../../../arm-none-eabi/lib/armv7-m/libc_nano.a(lib_a-isattyr.o)
 .data          0x0000000000000000        0x0 /usr/lib/gcc/arm-none-eabi/4.9.3/../../../arm-none-eabi/lib/armv7-m/libc_nano.a(lib_a-isattyr.o)
 .bss           0x0000000000000000        0x0 /usr/lib/gcc/arm-none-eabi/4.9.3/../../../arm-none-eabi/lib/armv7-m/libc_nano.a(lib_a-isattyr.o)
 .text          0x0000000000000000        0x0 /usr/lib/gcc/arm-none-eabi/4.9.3/../../../arm-none-eabi/lib/armv7-m/libc_nano.a(lib_a-lseekr.o)
 .data          0x0000000000000000        0x0 /usr/lib/gcc/arm-none-eabi/4.9.3/../../../arm-none-eabi/lib/armv7-m/libc_nano.a(lib_a-lseekr.o)
 .bss           0x0000000000000000        0x0 /usr/lib/gcc/arm-none-eabi/4.9.3/../../../arm-none-eabi/lib/armv7-m/libc_nano.a(lib_a-lseekr.o)
 .text          0x0000000000000000        0x0 /usr/lib/gcc/arm-none-eabi/4.9.3/../../../arm-none-eabi/lib/armv7-m/libc_nano.a(lib_a-memchr.o)
 .data          0x0000000000000000        0x0 /usr/lib/gcc/arm-none-eabi/4.9.3/../../../arm-none-eabi/lib/armv7-m/libc_nano.a(lib_a-memchr.o)
 .bss           0x0000000000000000        0x0 /usr/lib/gcc/arm-none-eabi/4.9.3/../../../arm-none-eabi/lib/armv7-m/libc_nano.a(lib_a-memchr.o)
 .text          0x0000000000000000        0x0 /usr/lib/gcc/arm-none-eabi/4.9.3/../../../arm-none-eabi/lib/armv7-m/libc_nano.a(lib_a-memmove.o)
 .data          0x0000000000000000        0x0 /usr/lib/gcc/arm-none-eabi/4.9.3/../../../arm-none-eabi/lib/armv7-m/libc_nano.a(lib_a-memmove.o)
 .bss           0x0000000000000000        0x0 /usr/lib/gcc/arm-none-eabi/4.9.3/../../../arm-none-eabi/lib/armv7-m/libc_nano.a(lib_a-memmove.o)
 .text.memmove  0x0000000000000000       0x36 /usr/lib/gcc/arm-none-eabi/4.9.3/../../../arm-none-eabi/lib/armv7-m/libc_nano.a(lib_a-memmove.o)
 .debug_info    0x0000000000000000      0x102 /usr/lib/gcc/arm-none-eabi/4.9.3/../../../arm-none-eabi/lib/armv7-m/libc_nano.a(lib_a-memmove.o)
 .debug_abbrev  0x0000000000000000       0x9c /usr/lib/gcc/arm-none-eabi/4.9.3/../../../arm-none-eabi/lib/armv7-m/libc_nano.a(lib_a-memmove.o)
 .debug_loc     0x0000000000000000       0xde /usr/lib/gcc/arm-none-eabi/4.9.3/../../../arm-none-eabi/lib/armv7-m/libc_nano.a(lib_a-memmove.o)
 .debug_aranges
                0x0000000000000000       0x20 /usr/lib/gcc/arm-none-eabi/4.9.3/../../../arm-none-eabi/lib/armv7-m/libc_nano.a(lib_a-memmove.o)
 .debug_ranges  0x0000000000000000       0x10 /usr/lib/gcc/arm-none-eabi/4.9.3/../../../arm-none-eabi/lib/armv7-m/libc_nano.a(lib_a-memmove.o)
 .debug_line    0x0000000000000000       0xfb /usr/lib/gcc/arm-none-eabi/4.9.3/../../../arm-none-eabi/lib/armv7-m/libc_nano.a(lib_a-memmove.o)
 .debug_str     0x0000000000000000      0x1ed /usr/lib/gcc/arm-none-eabi/4.9.3/../../../arm-none-eabi/lib/armv7-m/libc_nano.a(lib_a-memmove.o)
 .comment       0x0000000000000000       0x39 /usr/lib/gcc/arm-none-eabi/4.9.3/../../../arm-none-eabi/lib/armv7-m/libc_nano.a(lib_a-memmove.o)
 .debug_frame   0x0000000000000000       0x28 /usr/lib/gcc/arm-none-eabi/4.9.3/../../../arm-none-eabi/lib/armv7-m/libc_nano.a(lib_a-memmove.o)
 .ARM.attributes
                0x0000000000000000       0x2d /usr/lib/gcc/arm-none-eabi/4.9.3/../../../arm-none-eabi/lib/armv7-m/libc_nano.a(lib_a-memmove.o)
 .text          0x0000000000000000        0x0 /usr/lib/gcc/arm-none-eabi/4.9.3/../../../arm-none-eabi/lib/armv7-m/libc_nano.a(lib_a-nano-reallocr.o)
 .data          0x0000000000000000        0x0 /usr/lib/gcc/arm-none-eabi/4.9.3/../../../arm-none-eabi/lib/armv7-m/libc_nano.a(lib_a-nano-reallocr.o)
 .bss           0x0000000000000000        0x0 /usr/lib/gcc/arm-none-eabi/4.9.3/../../../arm-none-eabi/lib/armv7-m/libc_nano.a(lib_a-nano-reallocr.o)
 .text._realloc_r
                0x0000000000000000       0x4c /usr/lib/gcc/arm-none-eabi/4.9.3/../../../arm-none-eabi/lib/armv7-m/libc_nano.a(lib_a-nano-reallocr.o)
 .debug_info    0x0000000000000000      0x8b5 /usr/lib/gcc/arm-none-eabi/4.9.3/../../../arm-none-eabi/lib/armv7-m/libc_nano.a(lib_a-nano-reallocr.o)
 .debug_abbrev  0x0000000000000000      0x1cb /usr/lib/gcc/arm-none-eabi/4.9.3/../../../arm-none-eabi/lib/armv7-m/libc_nano.a(lib_a-nano-reallocr.o)
 .debug_loc     0x0000000000000000      0x11b /usr/lib/gcc/arm-none-eabi/4.9.3/../../../arm-none-eabi/lib/armv7-m/libc_nano.a(lib_a-nano-reallocr.o)
 .debug_aranges
                0x0000000000000000       0x20 /usr/lib/gcc/arm-none-eabi/4.9.3/../../../arm-none-eabi/lib/armv7-m/libc_nano.a(lib_a-nano-reallocr.o)
 .debug_ranges  0x0000000000000000       0x10 /usr/lib/gcc/arm-none-eabi/4.9.3/../../../arm-none-eabi/lib/armv7-m/libc_nano.a(lib_a-nano-reallocr.o)
 .debug_line    0x0000000000000000      0x17e /usr/lib/gcc/arm-none-eabi/4.9.3/../../../arm-none-eabi/lib/armv7-m/libc_nano.a(lib_a-nano-reallocr.o)
 .debug_str     0x0000000000000000      0x59b /usr/lib/gcc/arm-none-eabi/4.9.3/../../../arm-none-eabi/lib/armv7-m/libc_nano.a(lib_a-nano-reallocr.o)
 .comment       0x0000000000000000       0x39 /usr/lib/gcc/arm-none-eabi/4.9.3/../../../arm-none-eabi/lib/armv7-m/libc_nano.a(lib_a-nano-reallocr.o)
 .debug_frame   0x0000000000000000       0x3c /usr/lib/gcc/arm-none-eabi/4.9.3/../../../arm-none-eabi/lib/armv7-m/libc_nano.a(lib_a-nano-reallocr.o)
 .ARM.attributes
                0x0000000000000000       0x2d /usr/lib/gcc/arm-none-eabi/4.9.3/../../../arm-none-eabi/lib/armv7-m/libc_nano.a(lib_a-nano-reallocr.o)
 .text          0x0000000000000000        0x0 /usr/lib/gcc/arm-none-eabi/4.9.3/../../../arm-none-eabi/lib/armv7-m/libc_nano.a(lib_a-readr.o)
 .data          0x0000000000000000        0x0 /usr/lib/gcc/arm-none-eabi/4.9.3/../../../arm-none-eabi/lib/armv7-m/libc_nano.a(lib_a-readr.o)
 .bss           0x0000000000000000        0x0 /usr/lib/gcc/arm-none-eabi/4.9.3/../../../arm-none-eabi/lib/armv7-m/libc_nano.a(lib_a-readr.o)
 .text          0x0000000000000000        0x0 /usr/lib/gcc/arm-none-eabi/4.9.3/../../../arm-none-eabi/lib/armv7-m/libc_nano.a(lib_a-reent.o)
 .data          0x0000000000000000        0x0 /usr/lib/gcc/arm-none-eabi/4.9.3/../../../arm-none-eabi/lib/armv7-m/libc_nano.a(lib_a-reent.o)
 .bss           0x0000000000000000        0x0 /usr/lib/gcc/arm-none-eabi/4.9.3/../../../arm-none-eabi/lib/armv7-m/libc_nano.a(lib_a-reent.o)
 .text.cleanup_glue
                0x0000000000000000       0x1a /usr/lib/gcc/arm-none-eabi/4.9.3/../../../arm-none-eabi/lib/armv7-m/libc_nano.a(lib_a-reent.o)
 .text._reclaim_reent
                0x0000000000000000       0xb4 /usr/lib/gcc/arm-none-eabi/4.9.3/../../../arm-none-eabi/lib/armv7-m/libc_nano.a(lib_a-reent.o)
 .text          0x0000000000000000        0x0 /usr/lib/gcc/arm-none-eabi/4.9.3/../../../arm-none-eabi/lib/armv7-m/libc_nano.a(lib_a-nano-msizer.o)
 .data          0x0000000000000000        0x0 /usr/lib/gcc/arm-none-eabi/4.9.3/../../../arm-none-eabi/lib/armv7-m/libc_nano.a(lib_a-nano-msizer.o)
 .bss           0x0000000000000000        0x0 /usr/lib/gcc/arm-none-eabi/4.9.3/../../../arm-none-eabi/lib/armv7-m/libc_nano.a(lib_a-nano-msizer.o)
 .text._malloc_usable_size_r
                0x0000000000000000       0x14 /usr/lib/gcc/arm-none-eabi/4.9.3/../../../arm-none-eabi/lib/armv7-m/libc_nano.a(lib_a-nano-msizer.o)
 .debug_info    0x0000000000000000      0x7b9 /usr/lib/gcc/arm-none-eabi/4.9.3/../../../arm-none-eabi/lib/armv7-m/libc_nano.a(lib_a-nano-msizer.o)
 .debug_abbrev  0x0000000000000000      0x161 /usr/lib/gcc/arm-none-eabi/4.9.3/../../../arm-none-eabi/lib/armv7-m/libc_nano.a(lib_a-nano-msizer.o)
 .debug_loc     0x0000000000000000       0xb5 /usr/lib/gcc/arm-none-eabi/4.9.3/../../../arm-none-eabi/lib/armv7-m/libc_nano.a(lib_a-nano-msizer.o)
 .debug_aranges
                0x0000000000000000       0x20 /usr/lib/gcc/arm-none-eabi/4.9.3/../../../arm-none-eabi/lib/armv7-m/libc_nano.a(lib_a-nano-msizer.o)
 .debug_ranges  0x0000000000000000       0x10 /usr/lib/gcc/arm-none-eabi/4.9.3/../../../arm-none-eabi/lib/armv7-m/libc_nano.a(lib_a-nano-msizer.o)
 .debug_line    0x0000000000000000      0x10d /usr/lib/gcc/arm-none-eabi/4.9.3/../../../arm-none-eabi/lib/armv7-m/libc_nano.a(lib_a-nano-msizer.o)
 .debug_str     0x0000000000000000      0x579 /usr/lib/gcc/arm-none-eabi/4.9.3/../../../arm-none-eabi/lib/armv7-m/libc_nano.a(lib_a-nano-msizer.o)
 .comment       0x0000000000000000       0x39 /usr/lib/gcc/arm-none-eabi/4.9.3/../../../arm-none-eabi/lib/armv7-m/libc_nano.a(lib_a-nano-msizer.o)
 .debug_frame   0x0000000000000000       0x20 /usr/lib/gcc/arm-none-eabi/4.9.3/../../../arm-none-eabi/lib/armv7-m/libc_nano.a(lib_a-nano-msizer.o)
 .ARM.attributes
                0x0000000000000000       0x2d /usr/lib/gcc/arm-none-eabi/4.9.3/../../../arm-none-eabi/lib/armv7-m/libc_nano.a(lib_a-nano-msizer.o)
 .text          0x0000000000000000        0x0 /usr/lib/gcc/arm-none-eabi/4.9.3/../../../arm-none-eabi/lib/armv7-m/libnosys.a(close.o)
 .data          0x0000000000000000        0x0 /usr/lib/gcc/arm-none-eabi/4.9.3/../../../arm-none-eabi/lib/armv7-m/libnosys.a(close.o)
 .bss           0x0000000000000000        0x0 /usr/lib/gcc/arm-none-eabi/4.9.3/../../../arm-none-eabi/lib/armv7-m/libnosys.a(close.o)
 .text          0x0000000000000000        0x0 /usr/lib/gcc/arm-none-eabi/4.9.3/../../../arm-none-eabi/lib/armv7-m/libnosys.a(fstat.o)
 .data          0x0000000000000000        0x0 /usr/lib/gcc/arm-none-eabi/4.9.3/../../../arm-none-eabi/lib/armv7-m/libnosys.a(fstat.o)
 .bss           0x0000000000000000        0x0 /usr/lib/gcc/arm-none-eabi/4.9.3/../../../arm-none-eabi/lib/armv7-m/libnosys.a(fstat.o)
 .text          0x0000000000000000        0x0 /usr/lib/gcc/arm-none-eabi/4.9.3/../../../arm-none-eabi/lib/armv7-m/libnosys.a(isatty.o)
 .data          0x0000000000000000        0x0 /usr/lib/gcc/arm-none-eabi/4.9.3/../../../arm-none-eabi/lib/armv7-m/libnosys.a(isatty.o)
 .bss           0x0000000000000000        0x0 /usr/lib/gcc/arm-none-eabi/4.9.3/../../../arm-none-eabi/lib/armv7-m/libnosys.a(isatty.o)
 .text          0x0000000000000000        0x0 /usr/lib/gcc/arm-none-eabi/4.9.3/../../../arm-none-eabi/lib/armv7-m/libnosys.a(lseek.o)
 .data          0x0000000000000000        0x0 /usr/lib/gcc/arm-none-eabi/4.9.3/../../../arm-none-eabi/lib/armv7-m/libnosys.a(lseek.o)
 .bss           0x0000000000000000        0x0 /usr/lib/gcc/arm-none-eabi/4.9.3/../../../arm-none-eabi/lib/armv7-m/libnosys.a(lseek.o)
 .text          0x0000000000000000        0x0 /usr/lib/gcc/arm-none-eabi/4.9.3/../../../arm-none-eabi/lib/armv7-m/libnosys.a(read.o)
 .data          0x0000000000000000        0x0 /usr/lib/gcc/arm-none-eabi/4.9.3/../../../arm-none-eabi/lib/armv7-m/libnosys.a(read.o)
 .bss           0x0000000000000000        0x0 /usr/lib/gcc/arm-none-eabi/4.9.3/../../../arm-none-eabi/lib/armv7-m/libnosys.a(read.o)
 .text          0x0000000000000000        0x0 /usr/lib/gcc/arm-none-eabi/4.9.3/../../../arm-none-eabi/lib/armv7-m/libnosys.a(sbrk.o)
 .data          0x0000000000000000        0x0 /usr/lib/gcc/arm-none-eabi/4.9.3/../../../arm-none-eabi/lib/armv7-m/libnosys.a(sbrk.o)
 .bss           0x0000000000000000        0x0 /usr/lib/gcc/arm-none-eabi/4.9.3/../../../arm-none-eabi/lib/armv7-m/libnosys.a(sbrk.o)
 .text          0x0000000000000000        0x0 /usr/lib/gcc/arm-none-eabi/4.9.3/../../../arm-none-eabi/lib/armv7-m/libnosys.a(_exit.o)
 .data          0x0000000000000000        0x0 /usr/lib/gcc/arm-none-eabi/4.9.3/../../../arm-none-eabi/lib/armv7-m/libnosys.a(_exit.o)
 .bss           0x0000000000000000        0x0 /usr/lib/gcc/arm-none-eabi/4.9.3/../../../arm-none-eabi/lib/armv7-m/libnosys.a(_exit.o)
 .text._exit    0x0000000000000000        0x4 /usr/lib/gcc/arm-none-eabi/4.9.3/../../../arm-none-eabi/lib/armv7-m/libnosys.a(_exit.o)
 .debug_info    0x0000000000000000       0x58 /usr/lib/gcc/arm-none-eabi/4.9.3/../../../arm-none-eabi/lib/armv7-m/libnosys.a(_exit.o)
 .debug_abbrev  0x0000000000000000       0x55 /usr/lib/gcc/arm-none-eabi/4.9.3/../../../arm-none-eabi/lib/armv7-m/libnosys.a(_exit.o)
 .debug_aranges
                0x0000000000000000       0x20 /usr/lib/gcc/arm-none-eabi/4.9.3/../../../arm-none-eabi/lib/armv7-m/libnosys.a(_exit.o)
 .debug_ranges  0x0000000000000000       0x10 /usr/lib/gcc/arm-none-eabi/4.9.3/../../../arm-none-eabi/lib/armv7-m/libnosys.a(_exit.o)
 .debug_line    0x0000000000000000       0x5d /usr/lib/gcc/arm-none-eabi/4.9.3/../../../arm-none-eabi/lib/armv7-m/libnosys.a(_exit.o)
 .debug_str     0x0000000000000000      0x102 /usr/lib/gcc/arm-none-eabi/4.9.3/../../../arm-none-eabi/lib/armv7-m/libnosys.a(_exit.o)
 .comment       0x0000000000000000       0x39 /usr/lib/gcc/arm-none-eabi/4.9.3/../../../arm-none-eabi/lib/armv7-m/libnosys.a(_exit.o)
 .debug_frame   0x0000000000000000       0x20 /usr/lib/gcc/arm-none-eabi/4.9.3/../../../arm-none-eabi/lib/armv7-m/libnosys.a(_exit.o)
 .ARM.attributes
                0x0000000000000000       0x2d /usr/lib/gcc/arm-none-eabi/4.9.3/../../../arm-none-eabi/lib/armv7-m/libnosys.a(_exit.o)
 .text          0x0000000000000000        0x0 ./Lib/libite66121dvi.a(hdmitx_sys.o)
 .data          0x0000000000000000        0x0 ./Lib/libite66121dvi.a(hdmitx_sys.o)
 .bss           0x0000000000000000        0x0 ./Lib/libite66121dvi.a(hdmitx_sys.o)
 .text.InitHDMITX_Variable
                0x0000000000000000       0x50 ./Lib/libite66121dvi.a(hdmitx_sys.o)
 .text.HDMITX_ChangeDisplayOption
                0x0000000000000000      0x328 ./Lib/libite66121dvi.a(hdmitx_sys.o)
 .rodata.HDMITX_ChangeDisplayOption
                0x0000000000000000       0xf8 ./Lib/libite66121dvi.a(hdmitx_sys.o)
 .text.HDMI_Tx_Init
                0x0000000000000000       0x2c ./Lib/libite66121dvi.a(hdmitx_sys.o)
 .text.HDMI_Tx_SetAudioMute
                0x0000000000000000       0x2a ./Lib/libite66121dvi.a(hdmitx_sys.o)
 .rodata.CA     0x0000000000000000        0x9 ./Lib/libite66121dvi.a(hdmitx_sys.o)
 .rodata.InstanceData
                0x0000000000000000       0x14 ./Lib/libite66121dvi.a(hdmitx_sys.o)
 .text          0x0000000000000000        0x0 ./Lib/libite66121dvi.a(hdmitx_drv.o)
 .data          0x0000000000000000        0x0 ./Lib/libite66121dvi.a(hdmitx_drv.o)
 .bss           0x0000000000000000        0x0 ./Lib/libite66121dvi.a(hdmitx_drv.o)
 .text.HDMITX_InitTxDev
                0x0000000000000000       0x28 ./Lib/libite66121dvi.a(hdmitx_drv.o)
 .text.InitHDMITX
                0x0000000000000000       0x74 ./Lib/libite66121dvi.a(hdmitx_drv.o)
 .rodata.HDMITX_AUD_I2S_2ch_24bit
                0x0000000000000000       0x1e ./Lib/libite66121dvi.a(hdmitx_drv.o)
 .rodata.HDMITX_AUD_SPDIF_2ch_24bit
                0x0000000000000000       0x1e ./Lib/libite66121dvi.a(hdmitx_drv.o)
 .rodata.HDMITX_Aud_CHStatus_LPCM_20bit_48Khz
                0x0000000000000000       0x24 ./Lib/libite66121dvi.a(hdmitx_drv.o)
 .rodata.HDMITX_DeaultAudioInfo_Table
                0x0000000000000000       0x1e ./Lib/libite66121dvi.a(hdmitx_drv.o)
 .rodata.HDMITX_DefaultAVIInfo_Table
                0x0000000000000000       0x36 ./Lib/libite66121dvi.a(hdmitx_drv.o)
 .rodata.HDMITX_DefaultAudio_Table
                0x0000000000000000       0x3f ./Lib/libite66121dvi.a(hdmitx_drv.o)
 .rodata.HDMITX_DefaultVideo_Table
                0x0000000000000000       0x51 ./Lib/libite66121dvi.a(hdmitx_drv.o)
 .rodata.HDMITX_Init_Table
                0x0000000000000000       0x69 ./Lib/libite66121dvi.a(hdmitx_drv.o)
 .rodata.HDMITX_SetDVI_Table
                0x0000000000000000       0x15 ./Lib/libite66121dvi.a(hdmitx_drv.o)
 .rodata.HDMITX_SetHDMI_Table
                0x0000000000000000        0xc ./Lib/libite66121dvi.a(hdmitx_drv.o)
 .text          0x0000000000000000        0x0 ./Lib/libite66121dvi.a(tx_csc.o)
 .data          0x0000000000000000        0x0 ./Lib/libite66121dvi.a(tx_csc.o)
 .bss           0x0000000000000000        0x0 ./Lib/libite66121dvi.a(tx_csc.o)
 .text          0x0000000000000000        0x0 ./Lib/libsw_i2c0.a(sw_i2c0.o)
 .data          0x0000000000000000        0x0 ./Lib/libsw_i2c0.a(sw_i2c0.o)
 .bss           0x0000000000000000        0x0 ./Lib/libsw_i2c0.a(sw_i2c0.o)
 .rodata.TWI_ACK
                0x0000000000000000        0x1 ./Lib/libsw_i2c0.a(sw_i2c0.o)
 .rodata.TWI_READY
                0x0000000000000000        0x1 ./Lib/libsw_i2c0.a(sw_i2c0.o)
 .rodata.TWI_NACK
                0x0000000000000000        0x1 ./Lib/libsw_i2c0.a(sw_i2c0.o)
 .rodata.TWI_BUS_BUSY
                0x0000000000000000        0x1 ./Lib/libsw_i2c0.a(sw_i2c0.o)
 .rodata.TWI_BUS_ERROR
                0x0000000000000000        0x1 ./Lib/libsw_i2c0.a(sw_i2c0.o)
 .text.TWI_SendACK
                0x0000000000000000       0x24 ./Lib/libsw_i2c0.a(sw_i2c0.o)
 .text.I2C0_Write
                0x0000000000000000       0x46 ./Lib/libsw_i2c0.a(sw_i2c0.o)
 .text.I2C0_WriteNByte
                0x0000000000000000       0x5c ./Lib/libsw_i2c0.a(sw_i2c0.o)
 .text.I2C0_Read
                0x0000000000000000       0x54 ./Lib/libsw_i2c0.a(sw_i2c0.o)
 .text.I2C0_nRead
                0x0000000000000000       0x88 ./Lib/libsw_i2c0.a(sw_i2c0.o)
 .text.HDMITX_ReadI2C_ByteN
                0x0000000000000000       0x40 ./Lib/libsw_i2c0.a(sw_i2c0.o)
 .text          0x0000000000000000        0x0 ./Lib/libsw_i2c1.a(sw_i2c1.o)
 .data          0x0000000000000000        0x0 ./Lib/libsw_i2c1.a(sw_i2c1.o)
 .bss           0x0000000000000000        0x0 ./Lib/libsw_i2c1.a(sw_i2c1.o)
 .rodata.TWI_ACK
                0x0000000000000000        0x1 ./Lib/libsw_i2c1.a(sw_i2c1.o)
 .rodata.TWI_READY
                0x0000000000000000        0x1 ./Lib/libsw_i2c1.a(sw_i2c1.o)
 .rodata.TWI_NACK
                0x0000000000000000        0x1 ./Lib/libsw_i2c1.a(sw_i2c1.o)
 .rodata.TWI_BUS_BUSY
                0x0000000000000000        0x1 ./Lib/libsw_i2c1.a(sw_i2c1.o)
 .rodata.TWI_BUS_ERROR
                0x0000000000000000        0x1 ./Lib/libsw_i2c1.a(sw_i2c1.o)
 .text.TWI_SendACK
                0x0000000000000000       0x24 ./Lib/libsw_i2c1.a(sw_i2c1.o)
 .text.SW_I2C1nRead
                0x0000000000000000       0x88 ./Lib/libsw_i2c1.a(sw_i2c1.o)
 .text          0x0000000000000000        0x0 ./Lib/libsw_i2c2.a(sw_i2c2.o)
 .data          0x0000000000000000        0x0 ./Lib/libsw_i2c2.a(sw_i2c2.o)
 .bss           0x0000000000000000        0x0 ./Lib/libsw_i2c2.a(sw_i2c2.o)
 .rodata.TWI_ACK
                0x0000000000000000        0x1 ./Lib/libsw_i2c2.a(sw_i2c2.o)
 .rodata.TWI_READY
                0x0000000000000000        0x1 ./Lib/libsw_i2c2.a(sw_i2c2.o)
 .rodata.TWI_NACK
                0x0000000000000000        0x1 ./Lib/libsw_i2c2.a(sw_i2c2.o)
 .rodata.TWI_BUS_BUSY
                0x0000000000000000        0x1 ./Lib/libsw_i2c2.a(sw_i2c2.o)
 .rodata.TWI_BUS_ERROR
                0x0000000000000000        0x1 ./Lib/libsw_i2c2.a(sw_i2c2.o)
 .text.TWI_SendACK
                0x0000000000000000       0x24 ./Lib/libsw_i2c2.a(sw_i2c2.o)
 .text.SW_I2C2nRead
                0x0000000000000000       0x88 ./Lib/libsw_i2c2.a(sw_i2c2.o)
 .text.I2CWriteData
                0x0000000000000000       0x70 ./Lib/libsw_i2c2.a(sw_i2c2.o)
 .text.I2CReadData
                0x0000000000000000       0x6e ./Lib/libsw_i2c2.a(sw_i2c2.o)
 .text.I2CWriteData4
                0x0000000000000000       0x58 ./Lib/libsw_i2c2.a(sw_i2c2.o)
 .text.ReadI2C  0x0000000000000000       0x4c ./Lib/libsw_i2c2.a(sw_i2c2.o)
 .text.WriteI2C
                0x0000000000000000       0x3a ./Lib/libsw_i2c2.a(sw_i2c2.o)
 .text.I2CReStart2
                0x0000000000000000       0x20 ./Lib/libsw_i2c2.a(sw_i2c2.o)
 .text          0x0000000000000000        0x0 ./Lib/libsw_i2c3.a(sw_i2c3.o)
 .data          0x0000000000000000        0x0 ./Lib/libsw_i2c3.a(sw_i2c3.o)
 .bss           0x0000000000000000        0x0 ./Lib/libsw_i2c3.a(sw_i2c3.o)
 .text.TWI_SCL_1
                0x0000000000000000       0x18 ./Lib/libsw_i2c3.a(sw_i2c3.o)
 .text.TWI_SDA_0
                0x0000000000000000       0x18 ./Lib/libsw_i2c3.a(sw_i2c3.o)
 .text.TWI_SDA_STATE
                0x0000000000000000       0x24 ./Lib/libsw_i2c3.a(sw_i2c3.o)
 .rodata.TWI_ACK
                0x0000000000000000        0x1 ./Lib/libsw_i2c3.a(sw_i2c3.o)
 .rodata.TWI_READY
                0x0000000000000000        0x1 ./Lib/libsw_i2c3.a(sw_i2c3.o)
 .rodata.TWI_NACK
                0x0000000000000000        0x1 ./Lib/libsw_i2c3.a(sw_i2c3.o)
 .rodata.TWI_BUS_BUSY
                0x0000000000000000        0x1 ./Lib/libsw_i2c3.a(sw_i2c3.o)
 .rodata.TWI_BUS_ERROR
                0x0000000000000000        0x1 ./Lib/libsw_i2c3.a(sw_i2c3.o)
 .text.TWI_NOP  0x0000000000000000       0x22 ./Lib/libsw_i2c3.a(sw_i2c3.o)
 .text.TWI_START
                0x0000000000000000       0x46 ./Lib/libsw_i2c3.a(sw_i2c3.o)
 .text.TWI_STOP
                0x0000000000000000       0x20 ./Lib/libsw_i2c3.a(sw_i2c3.o)
 .text.TWI_SendACK
                0x0000000000000000       0x24 ./Lib/libsw_i2c3.a(sw_i2c3.o)
 .text.TWI_SendNACK
                0x0000000000000000       0x20 ./Lib/libsw_i2c3.a(sw_i2c3.o)
 .text.TWI_SendByte
                0x0000000000000000       0x80 ./Lib/libsw_i2c3.a(sw_i2c3.o)
 .text.I2Cdelay3
                0x0000000000000000       0x22 ./Lib/libsw_i2c3.a(sw_i2c3.o)
 .text.I2CStart3
                0x0000000000000000       0x20 ./Lib/libsw_i2c3.a(sw_i2c3.o)
 .text.I2CReStart3
                0x0000000000000000       0x20 ./Lib/libsw_i2c3.a(sw_i2c3.o)
 .text.I2CStop3
                0x0000000000000000       0x28 ./Lib/libsw_i2c3.a(sw_i2c3.o)
 .text.TWI_ReceiveByte
                0x0000000000000000       0x56 ./Lib/libsw_i2c3.a(sw_i2c3.o)
 .text.I2C3_Write
                0x0000000000000000       0x46 ./Lib/libsw_i2c3.a(sw_i2c3.o)
 .text.I2CWriteData5
                0x0000000000000000       0x70 ./Lib/libsw_i2c3.a(sw_i2c3.o)
 .text.I2C3_WriteNByte
                0x0000000000000000       0x68 ./Lib/libsw_i2c3.a(sw_i2c3.o)
 .text.I2C3_Read
                0x0000000000000000       0x54 ./Lib/libsw_i2c3.a(sw_i2c3.o)
 .text.I2C3_nRead
                0x0000000000000000       0xa0 ./Lib/libsw_i2c3.a(sw_i2c3.o)
 .text.I2CWriteData6
                0x0000000000000000       0x58 ./Lib/libsw_i2c3.a(sw_i2c3.o)
 .text.I2CReadData5
                0x0000000000000000       0x56 ./Lib/libsw_i2c3.a(sw_i2c3.o)
 .text.I2CACK3  0x0000000000000000       0x28 ./Lib/libsw_i2c3.a(sw_i2c3.o)
 .text.I2CNACK3
                0x0000000000000000       0x24 ./Lib/libsw_i2c3.a(sw_i2c3.o)
 .text.I2C4_nRead
                0x0000000000000000       0x90 ./Lib/libsw_i2c3.a(sw_i2c3.o)
 .text          0x0000000000000000        0x0 ./Lib/libVS4210.a(VS4210.o)
 .data          0x0000000000000000        0x0 ./Lib/libVS4210.a(VS4210.o)
 .bss           0x0000000000000000        0x0 ./Lib/libVS4210.a(VS4210.o)
 .bss.gChannel0HDMIindex
                0x0000000000000000        0x1 ./Lib/libVS4210.a(VS4210.o)
 .text          0x0000000000000000        0x0 ./Lib/libit6602.a(it6602.o)
 .data          0x0000000000000000        0x0 ./Lib/libit6602.a(it6602.o)
 .bss           0x0000000000000000        0x0 ./Lib/libit6602.a(it6602.o)
 .bss.TxWrBstSeq
                0x0000000000000000        0x1 ./Lib/libit6602.a(it6602.o)
 .bss.V3D_EntryCnt
                0x0000000000000000        0x1 ./Lib/libit6602.a(it6602.o)
 .bss.wakeupcnt
                0x0000000000000000        0x1 ./Lib/libit6602.a(it6602.o)
 .data          0x0000000000000000        0x0 /usr/lib/gcc/arm-none-eabi/4.9.3/armv7-m/libgcc.a(_udivsi3.o)
 .bss           0x0000000000000000        0x0 /usr/lib/gcc/arm-none-eabi/4.9.3/armv7-m/libgcc.a(_udivsi3.o)
 .data          0x0000000000000000        0x0 /usr/lib/gcc/arm-none-eabi/4.9.3/armv7-m/libgcc.a(_divsi3.o)
 .bss           0x0000000000000000        0x0 /usr/lib/gcc/arm-none-eabi/4.9.3/armv7-m/libgcc.a(_divsi3.o)
 .data          0x0000000000000000        0x0 /usr/lib/gcc/arm-none-eabi/4.9.3/armv7-m/libgcc.a(_dvmd_tls.o)
 .bss           0x0000000000000000        0x0 /usr/lib/gcc/arm-none-eabi/4.9.3/armv7-m/libgcc.a(_dvmd_tls.o)
 .text          0x0000000000000000        0x0 /usr/lib/gcc/arm-none-eabi/4.9.3/armv7-m/crtend.o
 .data          0x0000000000000000        0x0 /usr/lib/gcc/arm-none-eabi/4.9.3/armv7-m/crtend.o
 .bss           0x0000000000000000        0x0 /usr/lib/gcc/arm-none-eabi/4.9.3/armv7-m/crtend.o
 .eh_frame      0x0000000000000000        0x4 /usr/lib/gcc/arm-none-eabi/4.9.3/armv7-m/crtend.o
 .jcr           0x0000000000000000        0x4 /usr/lib/gcc/arm-none-eabi/4.9.3/armv7-m/crtend.o
 .text          0x0000000000000000        0x0 /usr/lib/gcc/arm-none-eabi/4.9.3/armv7-m/crtn.o
 .data          0x0000000000000000        0x0 /usr/lib/gcc/arm-none-eabi/4.9.3/armv7-m/crtn.o
 .bss           0x0000000000000000        0x0 /usr/lib/gcc/arm-none-eabi/4.9.3/armv7-m/crtn.o

Memory Configuration

Name             Origin             Length             Attributes
RAM              0x0000000020000000 0x0000000000005000 xrw
FLASH            0x0000000008000000 0x0000000000020000 xr
*default*        0x0000000000000000 0xffffffffffffffff

Linker script and memory map

LOAD /usr/lib/gcc/arm-none-eabi/4.9.3/armv7-m/crti.o
LOAD /usr/lib/gcc/arm-none-eabi/4.9.3/armv7-m/crtbegin.o
LOAD /usr/lib/gcc/arm-none-eabi/4.9.3/../../../arm-none-eabi/lib/armv7-m/crt0.o
LOAD build/main.o
LOAD build/stm32f1xx_it.o
LOAD build/stm32f1xx_hal_msp.o
LOAD build/stm32f1xx_hal_gpio_ex.o
LOAD build/stm32f1xx_hal_tim.o
LOAD build/stm32f1xx_hal_tim_ex.o
LOAD build/stm32f1xx_hal_uart.o
LOAD build/stm32f1xx_hal.o
LOAD build/stm32f1xx_hal_rcc.o
LOAD build/stm32f1xx_hal_rcc_ex.o
LOAD build/stm32f1xx_hal_gpio.o
LOAD build/stm32f1xx_hal_dma.o
LOAD build/stm32f1xx_hal_cortex.o
LOAD build/stm32f1xx_hal_pwr.o
LOAD build/stm32f1xx_hal_flash.o
LOAD build/stm32f1xx_hal_flash_ex.o
LOAD build/stm32f1xx_hal_exti.o
LOAD build/stm32f1xx_hal_adc.o
LOAD build/stm32f1xx_hal_adc_ex.o
LOAD build/system_stm32f1xx.o
LOAD build/VX_swi2c.o
LOAD build/VS4210_param_Modex26.o
LOAD build/VS4210_param_Mode88.o
LOAD build/VX_OSD.o
LOAD build/VX_OSD_Simple.o
LOAD build/TP2802.o
LOAD build/monitor.o
LOAD build/Printf.o
LOAD build/SysTimer.o
LOAD build/exosd.o
LOAD build/TOA_Protocol.o
LOAD build/etc_eep.o
LOAD build/startup_stm32f103xb.o
LOAD /usr/lib/gcc/arm-none-eabi/4.9.3/../../../arm-none-eabi/lib/armv7-m/libc_nano.a
LOAD /usr/lib/gcc/arm-none-eabi/4.9.3/../../../arm-none-eabi/lib/armv7-m/libm.a
LOAD /usr/lib/gcc/arm-none-eabi/4.9.3/../../../arm-none-eabi/lib/armv7-m/libnosys.a
LOAD ./Lib/libite66121dvi.a
LOAD ./Lib/libsw_i2c0.a
LOAD ./Lib/libsw_i2c1.a
LOAD ./Lib/libsw_i2c2.a
LOAD ./Lib/libsw_i2c3.a
LOAD ./Lib/libVS4210.a
LOAD ./Lib/libit6602.a
START GROUP
LOAD /usr/lib/gcc/arm-none-eabi/4.9.3/armv7-m/libgcc.a
LOAD /usr/lib/gcc/arm-none-eabi/4.9.3/../../../arm-none-eabi/lib/armv7-m/libc_nano.a
END GROUP
START GROUP
LOAD /usr/lib/gcc/arm-none-eabi/4.9.3/armv7-m/libgcc.a
LOAD /usr/lib/gcc/arm-none-eabi/4.9.3/../../../arm-none-eabi/lib/armv7-m/libc_nano.a
END GROUP
LOAD /usr/lib/gcc/arm-none-eabi/4.9.3/armv7-m/crtend.o
LOAD /usr/lib/gcc/arm-none-eabi/4.9.3/armv7-m/crtn.o
                0x0000000020005000                _estack = 0x20005000
                0x0000000000000200                _Min_Heap_Size = 0x200
                0x0000000000000400                _Min_Stack_Size = 0x400

.isr_vector     0x0000000008000000      0x10c
                0x0000000008000000                . = ALIGN (0x4)
 *(.isr_vector)
 .isr_vector    0x0000000008000000      0x10c build/startup_stm32f103xb.o
                0x0000000008000000                g_pfnVectors
                0x000000000800010c                . = ALIGN (0x4)

.text           0x000000000800010c    0x121d0
                0x000000000800010c                . = ALIGN (0x4)
 *(.text)
 .text          0x000000000800010c       0xa4 /usr/lib/gcc/arm-none-eabi/4.9.3/armv7-m/crtbegin.o
 .text          0x00000000080001b0       0x24 /usr/lib/gcc/arm-none-eabi/4.9.3/armv7-m/libgcc.a(_udivsi3.o)
                0x00000000080001b0                __udivsi3
                0x00000000080001b0                __aeabi_uidiv
                0x00000000080001c4                __aeabi_uidivmod
 .text          0x00000000080001d4       0x2c /usr/lib/gcc/arm-none-eabi/4.9.3/armv7-m/libgcc.a(_divsi3.o)
                0x00000000080001d4                __aeabi_idiv
                0x00000000080001d4                __divsi3
                0x00000000080001f0                __aeabi_idivmod
 .text          0x0000000008000200        0x4 /usr/lib/gcc/arm-none-eabi/4.9.3/armv7-m/libgcc.a(_dvmd_tls.o)
                0x0000000008000200                __aeabi_ldiv0
                0x0000000008000200                __aeabi_idiv0
 *(.text*)
 .text.MX_GPIO_Init
                0x0000000008000204       0xd8 build/main.o
 .text.MX_TIM3_Init
                0x00000000080002dc       0x58 build/main.o
 .text.MX_USART1_UART_Init
                0x0000000008000334       0x2c build/main.o
 .text.MX_USART2_UART_Init
                0x0000000008000360       0x2c build/main.o
 .text.HDMI_AudioModeDetect
                0x000000000800038c       0x5c build/main.o
 .text._write   0x00000000080003e8       0x34 build/main.o
                0x00000000080003e8                _write
 .text.Audio_Sel
                0x000000000800041c      0x184 build/main.o
                0x000000000800041c                Audio_Sel
 .text.SET_Audio_Mute
                0x00000000080005a0       0x30 build/main.o
                0x00000000080005a0                SET_Audio_Mute
 .text.InitialTimerEvent
                0x00000000080005d0        0x8 build/main.o
                0x00000000080005d0                InitialTimerEvent
 .text.CHECK_HDMI720P50
                0x00000000080005d8       0x7c build/main.o
                0x00000000080005d8                CHECK_HDMI720P50
 .text.HDMI_VideoModeDetect
                0x0000000008000654      0x228 build/main.o
 .text.main_init
                0x000000000800087c       0x8c build/main.o
                0x000000000800087c                main_init
 .text.user_pwm_setvalue
                0x0000000008000908       0x2c build/main.o
                0x0000000008000908                user_pwm_setvalue
 .text.VS4210_FULL88init2
                0x0000000008000934       0x20 build/main.o
                0x0000000008000934                VS4210_FULL88init2
 .text.TP_bt1120_1080P_1080P_mode0_w0
                0x0000000008000954       0x18 build/main.o
                0x0000000008000954                TP_bt1120_1080P_1080P_mode0_w0
 .text.TP_bt1120_720P_1080P_mode0_w0
                0x000000000800096c       0x20 build/main.o
                0x000000000800096c                TP_bt1120_720P_1080P_mode0_w0
 .text.TP_bt1120_NTSC_1080P_mode0_w0
                0x000000000800098c       0x18 build/main.o
                0x000000000800098c                TP_bt1120_NTSC_1080P_mode0_w0
 .text.TP_bt1120_PAL_1080P_mode0_w0
                0x00000000080009a4       0x18 build/main.o
                0x00000000080009a4                TP_bt1120_PAL_1080P_mode0_w0
 .text.SET_VS4210_720_480_out
                0x00000000080009bc      0x784 build/main.o
                0x00000000080009bc                SET_VS4210_720_480_out
 .text.SystemClock_Config
                0x0000000008001140       0x4c build/main.o
                0x0000000008001140                SystemClock_Config
 .text.HAL_TIM_PeriodElapsedCallback
                0x000000000800118c       0x8c build/main.o
                0x000000000800118c                HAL_TIM_PeriodElapsedCallback
 .text.HAL_UART_RxCpltCallback
                0x0000000008001218       0x8c build/main.o
                0x0000000008001218                HAL_UART_RxCpltCallback
 .text.HAL_GPIO_EXTI_Callback
                0x00000000080012a4        0x4 build/main.o
                0x00000000080012a4                HAL_GPIO_EXTI_Callback
 .text.HS_Select_Win
                0x00000000080012a8      0x154 build/main.o
                0x00000000080012a8                HS_Select_Win
 .text.main_loop
                0x00000000080013fc      0x1c4 build/main.o
                0x00000000080013fc                main_loop
 .text.main     0x00000000080015c0      0x20c build/main.o
                0x00000000080015c0                main
 .text.NMI_Handler
                0x00000000080017cc        0x4 build/stm32f1xx_it.o
                0x00000000080017cc                NMI_Handler
 .text.HardFault_Handler
                0x00000000080017d0        0x4 build/stm32f1xx_it.o
                0x00000000080017d0                HardFault_Handler
 .text.MemManage_Handler
                0x00000000080017d4        0x4 build/stm32f1xx_it.o
                0x00000000080017d4                MemManage_Handler
 .text.BusFault_Handler
                0x00000000080017d8        0x4 build/stm32f1xx_it.o
                0x00000000080017d8                BusFault_Handler
 .text.UsageFault_Handler
                0x00000000080017dc        0x4 build/stm32f1xx_it.o
                0x00000000080017dc                UsageFault_Handler
 .text.SVC_Handler
                0x00000000080017e0        0x4 build/stm32f1xx_it.o
                0x00000000080017e0                SVC_Handler
 .text.DebugMon_Handler
                0x00000000080017e4        0x4 build/stm32f1xx_it.o
                0x00000000080017e4                DebugMon_Handler
 .text.PendSV_Handler
                0x00000000080017e8        0x4 build/stm32f1xx_it.o
                0x00000000080017e8                PendSV_Handler
 .text.SysTick_Handler
                0x00000000080017ec        0x8 build/stm32f1xx_it.o
                0x00000000080017ec                SysTick_Handler
 .text.EXTI2_IRQHandler
                0x00000000080017f4        0xc build/stm32f1xx_it.o
                0x00000000080017f4                EXTI2_IRQHandler
 .text.TIM3_IRQHandler
                0x0000000008001800       0x10 build/stm32f1xx_it.o
                0x0000000008001800                TIM3_IRQHandler
 .text.USART1_IRQHandler
                0x0000000008001810       0x10 build/stm32f1xx_it.o
                0x0000000008001810                USART1_IRQHandler
 .text.USART2_IRQHandler
                0x0000000008001820       0x10 build/stm32f1xx_it.o
                0x0000000008001820                USART2_IRQHandler
 .text.HAL_MspInit
                0x0000000008001830       0x44 build/stm32f1xx_hal_msp.o
                0x0000000008001830                HAL_MspInit
 .text.HAL_TIM_Base_MspInit
                0x0000000008001874       0x40 build/stm32f1xx_hal_msp.o
                0x0000000008001874                HAL_TIM_Base_MspInit
 .text.HAL_UART_MspInit
                0x00000000080018b4       0xf4 build/stm32f1xx_hal_msp.o
                0x00000000080018b4                HAL_UART_MspInit
 .text.TIM_OC1_SetConfig
                0x00000000080019a8       0x58 build/stm32f1xx_hal_tim.o
 .text.TIM_OC3_SetConfig
                0x0000000008001a00       0x60 build/stm32f1xx_hal_tim.o
 .text.TIM_OC4_SetConfig
                0x0000000008001a60       0x48 build/stm32f1xx_hal_tim.o
 .text.TIM_TI1_ConfigInputStage
                0x0000000008001aa8       0x28 build/stm32f1xx_hal_tim.o
 .text.TIM_TI2_ConfigInputStage
                0x0000000008001ad0       0x28 build/stm32f1xx_hal_tim.o
 .text.TIM_ITRx_SetConfig
                0x0000000008001af8       0x10 build/stm32f1xx_hal_tim.o
 .text.HAL_TIM_Base_Start_IT
                0x0000000008001b08       0x24 build/stm32f1xx_hal_tim.o
                0x0000000008001b08                HAL_TIM_Base_Start_IT
 .text.HAL_TIM_OC_DelayElapsedCallback
                0x0000000008001b2c        0x4 build/stm32f1xx_hal_tim.o
                0x0000000008001b2c                HAL_TIM_OC_DelayElapsedCallback
 .text.HAL_TIM_IC_CaptureCallback
                0x0000000008001b30        0x4 build/stm32f1xx_hal_tim.o
                0x0000000008001b30                HAL_TIM_IC_CaptureCallback
 .text.HAL_TIM_PWM_PulseFinishedCallback
                0x0000000008001b34        0x4 build/stm32f1xx_hal_tim.o
                0x0000000008001b34                HAL_TIM_PWM_PulseFinishedCallback
 .text.HAL_TIM_TriggerCallback
                0x0000000008001b38        0x4 build/stm32f1xx_hal_tim.o
                0x0000000008001b38                HAL_TIM_TriggerCallback
 .text.HAL_TIM_IRQHandler
                0x0000000008001b3c      0x174 build/stm32f1xx_hal_tim.o
                0x0000000008001b3c                HAL_TIM_IRQHandler
 .text.TIM_Base_SetConfig
                0x0000000008001cb0       0x70 build/stm32f1xx_hal_tim.o
                0x0000000008001cb0                TIM_Base_SetConfig
 .text.HAL_TIM_Base_Init
                0x0000000008001d20       0x38 build/stm32f1xx_hal_tim.o
                0x0000000008001d20                HAL_TIM_Base_Init
 .text.TIM_OC2_SetConfig
                0x0000000008001d58       0x60 build/stm32f1xx_hal_tim.o
                0x0000000008001d58                TIM_OC2_SetConfig
 .text.HAL_TIM_PWM_ConfigChannel
                0x0000000008001db8       0xdc build/stm32f1xx_hal_tim.o
                0x0000000008001db8                HAL_TIM_PWM_ConfigChannel
 .text.TIM_ETR_SetConfig
                0x0000000008001e94       0x18 build/stm32f1xx_hal_tim.o
                0x0000000008001e94                TIM_ETR_SetConfig
 .text.HAL_TIM_ConfigClockSource
                0x0000000008001eac       0xe4 build/stm32f1xx_hal_tim.o
                0x0000000008001eac                HAL_TIM_ConfigClockSource
 .text.TIM_CCxChannelCmd
                0x0000000008001f90       0x20 build/stm32f1xx_hal_tim.o
                0x0000000008001f90                TIM_CCxChannelCmd
 .text.HAL_TIM_PWM_Start
                0x0000000008001fb0       0x38 build/stm32f1xx_hal_tim.o
                0x0000000008001fb0                HAL_TIM_PWM_Start
 .text.HAL_TIMEx_MasterConfigSynchronization
                0x0000000008001fe8       0x48 build/stm32f1xx_hal_tim_ex.o
                0x0000000008001fe8                HAL_TIMEx_MasterConfigSynchronization
 .text.HAL_TIMEx_CommutCallback
                0x0000000008002030        0x4 build/stm32f1xx_hal_tim_ex.o
                0x0000000008002030                HAL_TIMEx_CommutCallback
 .text.HAL_TIMEx_BreakCallback
                0x0000000008002034        0x4 build/stm32f1xx_hal_tim_ex.o
                0x0000000008002034                HAL_TIMEx_BreakCallback
 .text.UART_EndRxTransfer
                0x0000000008002038       0x1c build/stm32f1xx_hal_uart.o
 .text.UART_Transmit_IT
                0x0000000008002054       0x68 build/stm32f1xx_hal_uart.o
 .text.UART_SetConfig
                0x00000000080020bc       0xcc build/stm32f1xx_hal_uart.o
 .text.UART_WaitOnFlagUntilTimeout
                0x0000000008002188       0x68 build/stm32f1xx_hal_uart.o
 .text.HAL_UART_Init
                0x00000000080021f0       0x64 build/stm32f1xx_hal_uart.o
                0x00000000080021f0                HAL_UART_Init
 .text.HAL_UART_Transmit
                0x0000000008002254       0xe0 build/stm32f1xx_hal_uart.o
                0x0000000008002254                HAL_UART_Transmit
 .text.HAL_UART_Receive_IT
                0x0000000008002334       0x5c build/stm32f1xx_hal_uart.o
                0x0000000008002334                HAL_UART_Receive_IT
 .text.HAL_UART_TxCpltCallback
                0x0000000008002390        0x4 build/stm32f1xx_hal_uart.o
                0x0000000008002390                HAL_UART_TxCpltCallback
 .text.UART_EndTransmit_IT
                0x0000000008002394       0x1c build/stm32f1xx_hal_uart.o
 .text.UART_Receive_IT
                0x00000000080023b0       0x9c build/stm32f1xx_hal_uart.o
 .text.HAL_UART_ErrorCallback
                0x000000000800244c        0x4 build/stm32f1xx_hal_uart.o
                0x000000000800244c                HAL_UART_ErrorCallback
 .text.HAL_UART_IRQHandler
                0x0000000008002450      0x11c build/stm32f1xx_hal_uart.o
                0x0000000008002450                HAL_UART_IRQHandler
 .text.UART_DMAAbortOnError
                0x000000000800256c       0x10 build/stm32f1xx_hal_uart.o
 .text.HAL_InitTick
                0x000000000800257c       0x4c build/stm32f1xx_hal.o
                0x000000000800257c                HAL_InitTick
 .text.HAL_Init
                0x00000000080025c8       0x24 build/stm32f1xx_hal.o
                0x00000000080025c8                HAL_Init
 .text.HAL_IncTick
                0x00000000080025ec       0x18 build/stm32f1xx_hal.o
                0x00000000080025ec                HAL_IncTick
 .text.HAL_GetTick
                0x0000000008002604        0xc build/stm32f1xx_hal.o
                0x0000000008002604                HAL_GetTick
 .text.HAL_Delay
                0x0000000008002610       0x28 build/stm32f1xx_hal.o
                0x0000000008002610                HAL_Delay
 .text.RCC_Delay
                0x0000000008002638       0x2c build/stm32f1xx_hal_rcc.o
 .text.HAL_RCC_OscConfig
                0x0000000008002664      0x434 build/stm32f1xx_hal_rcc.o
                0x0000000008002664                HAL_RCC_OscConfig
 .text.HAL_RCC_GetSysClockFreq
                0x0000000008002a98       0x70 build/stm32f1xx_hal_rcc.o
                0x0000000008002a98                HAL_RCC_GetSysClockFreq
 .text.HAL_RCC_ClockConfig
                0x0000000008002b08      0x170 build/stm32f1xx_hal_rcc.o
                0x0000000008002b08                HAL_RCC_ClockConfig
 .text.HAL_RCC_GetHCLKFreq
                0x0000000008002c78        0xc build/stm32f1xx_hal_rcc.o
                0x0000000008002c78                HAL_RCC_GetHCLKFreq
 .text.HAL_RCC_GetPCLK1Freq
                0x0000000008002c84       0x20 build/stm32f1xx_hal_rcc.o
                0x0000000008002c84                HAL_RCC_GetPCLK1Freq
 .text.HAL_RCC_GetPCLK2Freq
                0x0000000008002ca4       0x20 build/stm32f1xx_hal_rcc.o
                0x0000000008002ca4                HAL_RCC_GetPCLK2Freq
 .text.HAL_GPIO_Init
                0x0000000008002cc4      0x1ec build/stm32f1xx_hal_gpio.o
                0x0000000008002cc4                HAL_GPIO_Init
 .text.HAL_GPIO_ReadPin
                0x0000000008002eb0       0x10 build/stm32f1xx_hal_gpio.o
                0x0000000008002eb0                HAL_GPIO_ReadPin
 .text.HAL_GPIO_WritePin
                0x0000000008002ec0        0xc build/stm32f1xx_hal_gpio.o
                0x0000000008002ec0                HAL_GPIO_WritePin
 .text.HAL_GPIO_EXTI_IRQHandler
                0x0000000008002ecc       0x18 build/stm32f1xx_hal_gpio.o
                0x0000000008002ecc                HAL_GPIO_EXTI_IRQHandler
 .text.HAL_DMA_Abort_IT
                0x0000000008002ee4       0x98 build/stm32f1xx_hal_dma.o
                0x0000000008002ee4                HAL_DMA_Abort_IT
 .text.HAL_NVIC_SetPriorityGrouping
                0x0000000008002f7c       0x24 build/stm32f1xx_hal_cortex.o
                0x0000000008002f7c                HAL_NVIC_SetPriorityGrouping
 .text.HAL_NVIC_SetPriority
                0x0000000008002fa0       0x64 build/stm32f1xx_hal_cortex.o
                0x0000000008002fa0                HAL_NVIC_SetPriority
 .text.HAL_NVIC_EnableIRQ
                0x0000000008003004       0x1c build/stm32f1xx_hal_cortex.o
                0x0000000008003004                HAL_NVIC_EnableIRQ
 .text.HAL_SYSTICK_Config
                0x0000000008003020       0x2c build/stm32f1xx_hal_cortex.o
                0x0000000008003020                HAL_SYSTICK_Config
 .text.SystemInit
                0x000000000800304c       0x4c build/system_stm32f1xx.o
                0x000000000800304c                SystemInit
 .text.msleep   0x0000000008003098       0x14 build/VX_swi2c.o
                0x0000000008003098                msleep
 .text.delayTX1ms
                0x00000000080030ac        0x8 build/VX_swi2c.o
                0x00000000080030ac                delayTX1ms
 .text.VXISI2CRead
                0x00000000080030b4       0x14 build/VX_swi2c.o
                0x00000000080030b4                VXISI2CRead
 .text.VXISI2CWrite
                0x00000000080030c8       0x18 build/VX_swi2c.o
                0x00000000080030c8                VXISI2CWrite
 .text.VS8812Read
                0x00000000080030e0       0x14 build/VX_swi2c.o
                0x00000000080030e0                VS8812Read
 .text.VS8812Write
                0x00000000080030f4       0x18 build/VX_swi2c.o
                0x00000000080030f4                VS8812Write
 .text.ReadEEP  0x000000000800310c        0x8 build/VX_swi2c.o
                0x000000000800310c                ReadEEP
 .text.WriteEEP
                0x0000000008003114        0x8 build/VX_swi2c.o
                0x0000000008003114                WriteEEP
 .text.I2CMultiWrite
                0x000000000800311c       0x10 build/VX_swi2c.o
                0x000000000800311c                I2CMultiWrite
 .text.I2CMultiAttribute
                0x000000000800312c       0x24 build/VX_swi2c.o
                0x000000000800312c                I2CMultiAttribute
 .text.delay    0x0000000008003150       0x18 build/VX_swi2c.o
                0x0000000008003150                delay
 .text.tp28xx_byte_read
                0x0000000008003168       0x14 build/VX_swi2c.o
                0x0000000008003168                tp28xx_byte_read
 .text.tp28xx_byte_write
                0x000000000800317c       0x18 build/VX_swi2c.o
                0x000000000800317c                tp28xx_byte_write
 .text.delay1ms
                0x0000000008003194        0x8 build/VX_swi2c.o
                0x0000000008003194                delay1ms
 .text.GET_ALC122
                0x000000000800319c        0xc build/VX_swi2c.o
                0x000000000800319c                GET_ALC122
 .text.SET_ALC122
                0x00000000080031a8       0x10 build/VX_swi2c.o
                0x00000000080031a8                SET_ALC122
 .text.SetOsdStartAddress
                0x00000000080031b8       0x2c build/VX_OSD.o
                0x00000000080031b8                SetOsdStartAddress
 .text.SetOsdSize
                0x00000000080031e4       0xec build/VX_OSD.o
                0x00000000080031e4                SetOsdSize
 .text.SetOsdPosition
                0x00000000080032d0       0x70 build/VX_OSD.o
                0x00000000080032d0                SetOsdPosition
 .text.OsdDumpString
                0x0000000008003340       0x30 build/VX_OSD.o
                0x0000000008003340                OsdDumpString
 .text.OsdDumpAttribute
                0x0000000008003370       0x34 build/VX_OSD.o
                0x0000000008003370                OsdDumpAttribute
 .text.VXIS_fSetOsdOnOff
                0x00000000080033a4       0x50 build/VX_OSD.o
                0x00000000080033a4                VXIS_fSetOsdOnOff
 .text.VXIS_fSetOsdx2
                0x00000000080033f4       0x20 build/VX_OSD.o
                0x00000000080033f4                VXIS_fSetOsdx2
 .text.setTransParentIndex
                0x0000000008003414       0x24 build/VX_OSD.o
                0x0000000008003414                setTransParentIndex
 .text.GetconvertBarStr
                0x0000000008003438      0x124 build/VX_OSD_Simple.o
 .text.VX_Write_OSD_In_OutString
                0x000000000800355c      0x580 build/VX_OSD_Simple.o
 .text.VXIS_fShowInOutMode
                0x0000000008003adc       0xcc build/VX_OSD_Simple.o
                0x0000000008003adc                VXIS_fShowInOutMode
 .text.VXIS_fShowInOutMode0Fast
                0x0000000008003ba8       0x70 build/VX_OSD_Simple.o
                0x0000000008003ba8                VXIS_fShowInOutMode0Fast
 .text.OSD_Clear
                0x0000000008003c18       0xa4 build/VX_OSD_Simple.o
                0x0000000008003c18                OSD_Clear
 .text.OSD_Clear_4
                0x0000000008003cbc        0xc build/VX_OSD_Simple.o
                0x0000000008003cbc                OSD_Clear_4
 .text.OSD_Clear_34
                0x0000000008003cc8       0x18 build/VX_OSD_Simple.o
                0x0000000008003cc8                OSD_Clear_34
 .text.OSD_Clear_234
                0x0000000008003ce0       0x18 build/VX_OSD_Simple.o
                0x0000000008003ce0                OSD_Clear_234
 .text.OSD_Clear_All
                0x0000000008003cf8       0x18 build/VX_OSD_Simple.o
                0x0000000008003cf8                OSD_Clear_All
 .text.osd_cont_write
                0x0000000008003d10       0x30 build/VX_OSD_Simple.o
                0x0000000008003d10                osd_cont_write
 .text.VXOSD_UseFont_init
                0x0000000008003d40       0x40 build/VX_OSD_Simple.o
                0x0000000008003d40                VXOSD_UseFont_init
 .text.Set_Video_Loss_OSD
                0x0000000008003d80       0x8c build/VX_OSD_Simple.o
                0x0000000008003d80                Set_Video_Loss_OSD
 .text.tp2824_reset_default
                0x0000000008003e0c        0xc build/TP2802.o
 .text.tp28xx_SYSCLK_V1
                0x0000000008003e18       0x2c build/TP2802.o
 .text.tp28xx_SYSCLK_V2
                0x0000000008003e44       0x30 build/TP2802.o
 .text.tp2853C_reset_default
                0x0000000008003e74       0x34 build/TP2802.o
 .text.TP28xx_reset_default
                0x0000000008003ea8       0x28 build/TP2802.o
 .text.I2CDeviceSet1
                0x0000000008003ed0       0x1c build/TP2802.o
                0x0000000008003ed0                I2CDeviceSet1
 .text.I2CDeviceSet2
                0x0000000008003eec       0x20 build/TP2802.o
                0x0000000008003eec                I2CDeviceSet2
 .text.SetRegPage
                0x0000000008003f0c        0xc build/TP2802.o
                0x0000000008003f0c                SetRegPage
 .text.Set_VidRes
                0x0000000008003f18      0x2bc build/TP2802.o
                0x0000000008003f18                Set_VidRes
 .text.Set_HDA  0x00000000080041d4       0xc0 build/TP2802.o
                0x00000000080041d4                Set_HDA
 .text.Set_HDC  0x0000000008004294       0xb8 build/TP2802.o
                0x0000000008004294                Set_HDC
 .text.ManualAGC
                0x000000000800434c       0x6c build/TP2802.o
                0x000000000800434c                ManualAGC
 .text.ReadGain
                0x00000000080043b8       0x14 build/TP2802.o
                0x00000000080043b8                ReadGain
 .text.SetCGain
                0x00000000080043cc       0xa4 build/TP2802.o
                0x00000000080043cc                SetCGain
 .text.Set_PLL_StartUp
                0x0000000008004470       0x24 build/TP2802.o
                0x0000000008004470                Set_PLL_StartUp
 .text.Init_TP280x_RegSet
                0x0000000008004494      0x1f0 build/TP2802.o
                0x0000000008004494                Init_TP280x_RegSet
 .text.AHDBitsReverse
                0x0000000008004684       0x48 build/TP2802.o
                0x0000000008004684                AHDBitsReverse
 .text.TVICommandToAHData
                0x00000000080046cc      0x1c8 build/TP2802.o
                0x00000000080046cc                TVICommandToAHData
 .text.Get_2824cIrq
                0x0000000008004894      0x788 build/TP2802.o
                0x0000000008004894                Get_2824cIrq
 .text.COC_test
                0x000000000800501c       0x34 build/TP2802.o
                0x000000000800501c                COC_test
 .text.Init_COC_PTZOUT1
                0x0000000008005050      0x118 build/TP2802.o
                0x0000000008005050                Init_COC_PTZOUT1
 .text.EQ_Detect
                0x0000000008005168      0x8a4 build/TP2802.o
                0x0000000008005168                EQ_Detect
 .text.RS_ready
                0x0000000008005a0c       0x1c build/monitor.o
                0x0000000008005a0c                RS_ready
 .text.RS2_ready
                0x0000000008005a28       0x1c build/monitor.o
                0x0000000008005a28                RS2_ready
 .text.RS_rx    0x0000000008005a44       0x24 build/monitor.o
                0x0000000008005a44                RS_rx
 .text.RS2_rx   0x0000000008005a68       0x24 build/monitor.o
                0x0000000008005a68                RS2_rx
 .text.RS_tx    0x0000000008005a8c       0x20 build/monitor.o
                0x0000000008005a8c                RS_tx
 .text.RS2_tx   0x0000000008005aac       0x20 build/monitor.o
                0x0000000008005aac                RS2_tx
 .text.Prompt   0x0000000008005acc       0x90 build/monitor.o
                0x0000000008005acc                Prompt
 .text.Mon_tx   0x0000000008005b5c        0x8 build/monitor.o
                0x0000000008005b5c                Mon_tx
 .text.Asc1Bin  0x0000000008005b64       0x34 build/monitor.o
                0x0000000008005b64                Asc1Bin
 .text.Asc2Bin  0x0000000008005b98       0x20 build/monitor.o
                0x0000000008005b98                Asc2Bin
 .text.hs_toupper
                0x0000000008005bb8       0x10 build/monitor.o
                0x0000000008005bb8                hs_toupper
 .text.stricmp  0x0000000008005bc8       0x28 build/monitor.o
                0x0000000008005bc8                stricmp
 .text.MonIncDecI2C
                0x0000000008005bf0      0x128 build/monitor.o
                0x0000000008005bf0                MonIncDecI2C
 .text.MonHelp  0x0000000008005d18       0x80 build/monitor.o
                0x0000000008005d18                MonHelp
 .text.MonGetCommand
                0x0000000008005d98      0x29c build/monitor.o
                0x0000000008005d98                MonGetCommand
 .text.SET_AHD_SYNC_PARA
                0x0000000008006034      0x158 build/monitor.o
                0x0000000008006034                SET_AHD_SYNC_PARA
 .text.SET_HDMI_640_480P_PARA
                0x000000000800618c      0x784 build/monitor.o
                0x000000000800618c                SET_HDMI_640_480P_PARA
 .text.SET_HDMI_SYNC_PARA
                0x0000000008006910       0x10 build/monitor.o
                0x0000000008006910                SET_HDMI_SYNC_PARA
 .text.Monitor  0x0000000008006920      0xe1c build/monitor.o
                0x0000000008006920                Monitor
 .text.DoPrint  0x000000000800773c      0x218 build/Printf.o
                0x000000000800773c                DoPrint
 .text.Printf   0x0000000008007954       0x1c build/Printf.o
                0x0000000008007954                Printf
 .text.DEBUG_MESSAGE
                0x0000000008007970       0x1c build/Printf.o
                0x0000000008007970                DEBUG_MESSAGE
 .text.GraphicsPrint
                0x000000000800798c       0x40 build/Printf.o
                0x000000000800798c                GraphicsPrint
 .text.MCUTimerGetEventTime
                0x00000000080079cc       0x10 build/SysTimer.o
                0x00000000080079cc                MCUTimerGetEventTime
 .text.MCUTimerGetEventID
                0x00000000080079dc       0x10 build/SysTimer.o
                0x00000000080079dc                MCUTimerGetEventID
 .text.MCUTimerClrEventValid
                0x00000000080079ec       0x14 build/SysTimer.o
                0x00000000080079ec                MCUTimerClrEventValid
 .text.MCUTimerCheckEventValid
                0x0000000008007a00       0x10 build/SysTimer.o
                0x0000000008007a00                MCUTimerCheckEventValid
 .text.MCUTimerGetTimerCounter
                0x0000000008007a10       0x1c build/SysTimer.o
                0x0000000008007a10                MCUTimerGetTimerCounter
 .text.MCUTimerCheckTimerEvent
                0x0000000008007a2c       0x6c build/SysTimer.o
                0x0000000008007a2c                MCUTimerCheckTimerEvent
 .text.MCUTimerInitialTimerEvent
                0x0000000008007a98       0x20 build/SysTimer.o
                0x0000000008007a98                MCUTimerInitialTimerEvent
 .text.MCUTimerActiveTimerEvent
                0x0000000008007ab8       0x74 build/SysTimer.o
                0x0000000008007ab8                MCUTimerActiveTimerEvent
 .text.MCUTimerReactiveTimerEvent
                0x0000000008007b2c       0x7c build/SysTimer.o
                0x0000000008007b2c                MCUTimerReactiveTimerEvent
 .text.ShowWorkingTimer
                0x0000000008007ba8       0x84 build/SysTimer.o
                0x0000000008007ba8                ShowWorkingTimer
 .text.SysTimerEventProc
                0x0000000008007c2c      0x1d0 build/SysTimer.o
                0x0000000008007c2c                SysTimerEventProc
 .text.SysTimerHandler
                0x0000000008007dfc       0x40 build/SysTimer.o
                0x0000000008007dfc                SysTimerHandler
 .text.TOAReceivePaser
                0x0000000008007e3c      0x6d4 build/TOA_Protocol.o
                0x0000000008007e3c                TOAReceivePaser
 .text.GetFWRevEE
                0x0000000008008510       0x4c build/etc_eep.o
                0x0000000008008510                GetFWRevEE
 .text.SaveFWRevEE
                0x000000000800855c       0x38 build/etc_eep.o
                0x000000000800855c                SaveFWRevEE
 .text.ResetOSDValue
                0x0000000008008594       0x10 build/etc_eep.o
                0x0000000008008594                ResetOSDValue
 .text.ClearBasicEE
                0x00000000080085a4       0x24 build/etc_eep.o
                0x00000000080085a4                ClearBasicEE
 .text.Reset_Handler
                0x00000000080085c8       0x48 build/startup_stm32f103xb.o
                0x00000000080085c8                Reset_Handler
 .text.Default_Handler
                0x0000000008008610        0x2 build/startup_stm32f103xb.o
                0x0000000008008610                RTC_Alarm_IRQHandler
                0x0000000008008610                TIM1_CC_IRQHandler
                0x0000000008008610                PVD_IRQHandler
                0x0000000008008610                EXTI3_IRQHandler
                0x0000000008008610                EXTI0_IRQHandler
                0x0000000008008610                I2C2_EV_IRQHandler
                0x0000000008008610                ADC1_2_IRQHandler
                0x0000000008008610                SPI1_IRQHandler
                0x0000000008008610                TAMPER_IRQHandler
                0x0000000008008610                DMA1_Channel4_IRQHandler
                0x0000000008008610                USART3_IRQHandler
                0x0000000008008610                RTC_IRQHandler
                0x0000000008008610                DMA1_Channel7_IRQHandler
                0x0000000008008610                CAN1_RX1_IRQHandler
                0x0000000008008610                TIM4_IRQHandler
                0x0000000008008610                I2C1_EV_IRQHandler
                0x0000000008008610                DMA1_Channel6_IRQHandler
                0x0000000008008610                RCC_IRQHandler
                0x0000000008008610                TIM1_TRG_COM_IRQHandler
                0x0000000008008610                DMA1_Channel1_IRQHandler
                0x0000000008008610                Default_Handler
                0x0000000008008610                EXTI15_10_IRQHandler
                0x0000000008008610                EXTI9_5_IRQHandler
                0x0000000008008610                SPI2_IRQHandler
                0x0000000008008610                DMA1_Channel5_IRQHandler
                0x0000000008008610                EXTI4_IRQHandler
                0x0000000008008610                USB_LP_CAN1_RX0_IRQHandler
                0x0000000008008610                USB_HP_CAN1_TX_IRQHandler
                0x0000000008008610                DMA1_Channel3_IRQHandler
                0x0000000008008610                TIM1_UP_IRQHandler
                0x0000000008008610                WWDG_IRQHandler
                0x0000000008008610                TIM2_IRQHandler
                0x0000000008008610                TIM1_BRK_IRQHandler
                0x0000000008008610                EXTI1_IRQHandler
                0x0000000008008610                I2C2_ER_IRQHandler
                0x0000000008008610                DMA1_Channel2_IRQHandler
                0x0000000008008610                CAN1_SCE_IRQHandler
                0x0000000008008610                FLASH_IRQHandler
                0x0000000008008610                I2C1_ER_IRQHandler
                0x0000000008008610                USBWakeUp_IRQHandler
 *fill*         0x0000000008008612        0x2 
 .text.__errno  0x0000000008008614        0xc /usr/lib/gcc/arm-none-eabi/4.9.3/../../../arm-none-eabi/lib/armv7-m/libc_nano.a(lib_a-errno.o)
                0x0000000008008614                __errno
 .text.__libc_init_array
                0x0000000008008620       0x4c /usr/lib/gcc/arm-none-eabi/4.9.3/../../../arm-none-eabi/lib/armv7-m/libc_nano.a(lib_a-init.o)
                0x0000000008008620                __libc_init_array
 .text.memcpy   0x000000000800866c       0x16 /usr/lib/gcc/arm-none-eabi/4.9.3/../../../arm-none-eabi/lib/armv7-m/libc_nano.a(lib_a-memcpy.o)
                0x000000000800866c                memcpy
 .text.memset   0x0000000008008682       0x10 /usr/lib/gcc/arm-none-eabi/4.9.3/../../../arm-none-eabi/lib/armv7-m/libc_nano.a(lib_a-memset.o)
                0x0000000008008682                memset
 *fill*         0x0000000008008692        0x2 
 .text.printf   0x0000000008008694       0x30 /usr/lib/gcc/arm-none-eabi/4.9.3/../../../arm-none-eabi/lib/armv7-m/libc_nano.a(lib_a-printf.o)
                0x0000000008008694                printf
                0x0000000008008694                iprintf
 .text._puts_r  0x00000000080086c4       0xf0 /usr/lib/gcc/arm-none-eabi/4.9.3/../../../arm-none-eabi/lib/armv7-m/libc_nano.a(lib_a-puts.o)
                0x00000000080086c4                _puts_r
 .text.puts     0x00000000080087b4       0x10 /usr/lib/gcc/arm-none-eabi/4.9.3/../../../arm-none-eabi/lib/armv7-m/libc_nano.a(lib_a-puts.o)
                0x00000000080087b4                puts
 .text.__swbuf_r
                0x00000000080087c4       0xa8 /usr/lib/gcc/arm-none-eabi/4.9.3/../../../arm-none-eabi/lib/armv7-m/libc_nano.a(lib_a-wbuf.o)
                0x00000000080087c4                __swbuf_r
 .text.__swsetup_r
                0x000000000800886c       0xd8 /usr/lib/gcc/arm-none-eabi/4.9.3/../../../arm-none-eabi/lib/armv7-m/libc_nano.a(lib_a-wsetup.o)
                0x000000000800886c                __swsetup_r
 .text.__sflush_r
                0x0000000008008944      0x106 /usr/lib/gcc/arm-none-eabi/4.9.3/../../../arm-none-eabi/lib/armv7-m/libc_nano.a(lib_a-fflush.o)
                0x0000000008008944                __sflush_r
 *fill*         0x0000000008008a4a        0x2 
 .text._fflush_r
                0x0000000008008a4c       0x54 /usr/lib/gcc/arm-none-eabi/4.9.3/../../../arm-none-eabi/lib/armv7-m/libc_nano.a(lib_a-fflush.o)
                0x0000000008008a4c                _fflush_r
 .text._cleanup_r
                0x0000000008008aa0        0xc /usr/lib/gcc/arm-none-eabi/4.9.3/../../../arm-none-eabi/lib/armv7-m/libc_nano.a(lib_a-findfp.o)
                0x0000000008008aa0                _cleanup_r
 .text.std.isra.0
                0x0000000008008aac       0x48 /usr/lib/gcc/arm-none-eabi/4.9.3/../../../arm-none-eabi/lib/armv7-m/libc_nano.a(lib_a-findfp.o)
 .text.__sfmoreglue
                0x0000000008008af4       0x2c /usr/lib/gcc/arm-none-eabi/4.9.3/../../../arm-none-eabi/lib/armv7-m/libc_nano.a(lib_a-findfp.o)
                0x0000000008008af4                __sfmoreglue
 .text.__sinit  0x0000000008008b20       0x60 /usr/lib/gcc/arm-none-eabi/4.9.3/../../../arm-none-eabi/lib/armv7-m/libc_nano.a(lib_a-findfp.o)
                0x0000000008008b20                __sinit
 .text.__sfp    0x0000000008008b80       0x74 /usr/lib/gcc/arm-none-eabi/4.9.3/../../../arm-none-eabi/lib/armv7-m/libc_nano.a(lib_a-findfp.o)
                0x0000000008008b80                __sfp
 .text._fwalk_reent
                0x0000000008008bf4       0x3c /usr/lib/gcc/arm-none-eabi/4.9.3/../../../arm-none-eabi/lib/armv7-m/libc_nano.a(lib_a-fwalk.o)
                0x0000000008008bf4                _fwalk_reent
 .text.__smakebuf_r
                0x0000000008008c30       0x98 /usr/lib/gcc/arm-none-eabi/4.9.3/../../../arm-none-eabi/lib/armv7-m/libc_nano.a(lib_a-makebuf.o)
                0x0000000008008c30                __smakebuf_r
 .text._free_r  0x0000000008008cc8       0x88 /usr/lib/gcc/arm-none-eabi/4.9.3/../../../arm-none-eabi/lib/armv7-m/libc_nano.a(lib_a-nano-freer.o)
                0x0000000008008cc8                _free_r
 .text._malloc_r
                0x0000000008008d50       0xac /usr/lib/gcc/arm-none-eabi/4.9.3/../../../arm-none-eabi/lib/armv7-m/libc_nano.a(lib_a-nano-mallocr.o)
                0x0000000008008d50                _malloc_r
 .text.__sfputc_r
                0x0000000008008dfc       0x2c /usr/lib/gcc/arm-none-eabi/4.9.3/../../../arm-none-eabi/lib/armv7-m/libc_nano.a(lib_a-nano-vfprintf.o)
 .text.__sfputs_r
                0x0000000008008e28       0x24 /usr/lib/gcc/arm-none-eabi/4.9.3/../../../arm-none-eabi/lib/armv7-m/libc_nano.a(lib_a-nano-vfprintf.o)
                0x0000000008008e28                __sfputs_r
 .text._vfprintf_r
                0x0000000008008e4c      0x210 /usr/lib/gcc/arm-none-eabi/4.9.3/../../../arm-none-eabi/lib/armv7-m/libc_nano.a(lib_a-nano-vfprintf.o)
                0x0000000008008e4c                _vfiprintf_r
                0x0000000008008e4c                _vfprintf_r
 .text._printf_common
                0x000000000800905c       0xea /usr/lib/gcc/arm-none-eabi/4.9.3/../../../arm-none-eabi/lib/armv7-m/libc_nano.a(lib_a-nano-vfprintf_i.o)
                0x000000000800905c                _printf_common
 *fill*         0x0000000008009146        0x2 
 .text._printf_i
                0x0000000008009148      0x240 /usr/lib/gcc/arm-none-eabi/4.9.3/../../../arm-none-eabi/lib/armv7-m/libc_nano.a(lib_a-nano-vfprintf_i.o)
                0x0000000008009148                _printf_i
 .text._sbrk_r  0x0000000008009388       0x20 /usr/lib/gcc/arm-none-eabi/4.9.3/../../../arm-none-eabi/lib/armv7-m/libc_nano.a(lib_a-sbrkr.o)
                0x0000000008009388                _sbrk_r
 .text.__sread  0x00000000080093a8       0x22 /usr/lib/gcc/arm-none-eabi/4.9.3/../../../arm-none-eabi/lib/armv7-m/libc_nano.a(lib_a-stdio.o)
                0x00000000080093a8                __sread
 .text.__swrite
                0x00000000080093ca       0x38 /usr/lib/gcc/arm-none-eabi/4.9.3/../../../arm-none-eabi/lib/armv7-m/libc_nano.a(lib_a-stdio.o)
                0x00000000080093ca                __swrite
 .text.__sseek  0x0000000008009402       0x24 /usr/lib/gcc/arm-none-eabi/4.9.3/../../../arm-none-eabi/lib/armv7-m/libc_nano.a(lib_a-stdio.o)
                0x0000000008009402                __sseek
 .text.__sclose
                0x0000000008009426        0x8 /usr/lib/gcc/arm-none-eabi/4.9.3/../../../arm-none-eabi/lib/armv7-m/libc_nano.a(lib_a-stdio.o)
                0x0000000008009426                __sclose
 *fill*         0x000000000800942e        0x2 
 .text._write_r
                0x0000000008009430       0x24 /usr/lib/gcc/arm-none-eabi/4.9.3/../../../arm-none-eabi/lib/armv7-m/libc_nano.a(lib_a-writer.o)
                0x0000000008009430                _write_r
 .text._close_r
                0x0000000008009454       0x20 /usr/lib/gcc/arm-none-eabi/4.9.3/../../../arm-none-eabi/lib/armv7-m/libc_nano.a(lib_a-closer.o)
                0x0000000008009454                _close_r
 .text._fstat_r
                0x0000000008009474       0x24 /usr/lib/gcc/arm-none-eabi/4.9.3/../../../arm-none-eabi/lib/armv7-m/libc_nano.a(lib_a-fstatr.o)
                0x0000000008009474                _fstat_r
 .text._isatty_r
                0x0000000008009498       0x20 /usr/lib/gcc/arm-none-eabi/4.9.3/../../../arm-none-eabi/lib/armv7-m/libc_nano.a(lib_a-isattyr.o)
                0x0000000008009498                _isatty_r
 .text._lseek_r
                0x00000000080094b8       0x24 /usr/lib/gcc/arm-none-eabi/4.9.3/../../../arm-none-eabi/lib/armv7-m/libc_nano.a(lib_a-lseekr.o)
                0x00000000080094b8                _lseek_r
 .text.memchr   0x00000000080094dc       0x1c /usr/lib/gcc/arm-none-eabi/4.9.3/../../../arm-none-eabi/lib/armv7-m/libc_nano.a(lib_a-memchr.o)
                0x00000000080094dc                memchr
 .text._read_r  0x00000000080094f8       0x24 /usr/lib/gcc/arm-none-eabi/4.9.3/../../../arm-none-eabi/lib/armv7-m/libc_nano.a(lib_a-readr.o)
                0x00000000080094f8                _read_r
 .text._close   0x000000000800951c       0x10 /usr/lib/gcc/arm-none-eabi/4.9.3/../../../arm-none-eabi/lib/armv7-m/libnosys.a(close.o)
                0x000000000800951c                _close
 .text._fstat   0x000000000800952c       0x10 /usr/lib/gcc/arm-none-eabi/4.9.3/../../../arm-none-eabi/lib/armv7-m/libnosys.a(fstat.o)
                0x000000000800952c                _fstat
 .text._isatty  0x000000000800953c       0x10 /usr/lib/gcc/arm-none-eabi/4.9.3/../../../arm-none-eabi/lib/armv7-m/libnosys.a(isatty.o)
                0x000000000800953c                _isatty
 .text._lseek   0x000000000800954c       0x10 /usr/lib/gcc/arm-none-eabi/4.9.3/../../../arm-none-eabi/lib/armv7-m/libnosys.a(lseek.o)
                0x000000000800954c                _lseek
 .text._read    0x000000000800955c       0x10 /usr/lib/gcc/arm-none-eabi/4.9.3/../../../arm-none-eabi/lib/armv7-m/libnosys.a(read.o)
                0x000000000800955c                _read
 .text._sbrk    0x000000000800956c       0x1c /usr/lib/gcc/arm-none-eabi/4.9.3/../../../arm-none-eabi/lib/armv7-m/libnosys.a(sbrk.o)
                0x000000000800956c                _sbrk
 .text.ParseCEAEDID
                0x0000000008009588      0x268 ./Lib/libite66121dvi.a(hdmitx_sys.o)
 .text.ConfigAVIInfoFrame
                0x00000000080097f0       0x94 ./Lib/libite66121dvi.a(hdmitx_sys.o)
                0x00000000080097f0                ConfigAVIInfoFrame
 .text.ConfigAudioInfoFrm
                0x0000000008009884       0x38 ./Lib/libite66121dvi.a(hdmitx_sys.o)
                0x0000000008009884                ConfigAudioInfoFrm
 .text.HDMITX_SetAudioOutput
                0x00000000080098bc       0x6c ./Lib/libite66121dvi.a(hdmitx_sys.o)
                0x00000000080098bc                HDMITX_SetAudioOutput
 .text.HDMITX_SetOutput
                0x0000000008009928       0xb0 ./Lib/libite66121dvi.a(hdmitx_sys.o)
                0x0000000008009928                HDMITX_SetOutput
 .text.ParseEDID
                0x00000000080099d8       0xf8 ./Lib/libite66121dvi.a(hdmitx_sys.o)
                0x00000000080099d8                ParseEDID
 .text.HDMITX_DevLoopProc
                0x0000000008009ad0      0x1b4 ./Lib/libite66121dvi.a(hdmitx_sys.o)
                0x0000000008009ad0                HDMITX_DevLoopProc
 .text.HDMI_Tx_SetAudioFs
                0x0000000008009c84       0x98 ./Lib/libite66121dvi.a(hdmitx_sys.o)
                0x0000000008009c84                HDMI_Tx_SetAudioFs
 .text.getHDMITX_LinkStatus
                0x0000000008009d1c       0x22 ./Lib/libite66121dvi.a(hdmitx_drv.o)
                0x0000000008009d1c                getHDMITX_LinkStatus
 .text.setHDMITX_AVMute
                0x0000000008009d3e       0x3e ./Lib/libite66121dvi.a(hdmitx_drv.o)
                0x0000000008009d3e                setHDMITX_AVMute
 .text.hdmitx_LoadRegSetting
                0x0000000008009d7c       0x48 ./Lib/libite66121dvi.a(hdmitx_drv.o)
                0x0000000008009d7c                hdmitx_LoadRegSetting
 .text.HDMITX_PowerOn
                0x0000000008009dc4       0x10 ./Lib/libite66121dvi.a(hdmitx_drv.o)
                0x0000000008009dc4                HDMITX_PowerOn
 .text.HDMITX_PowerDown
                0x0000000008009dd4       0x10 ./Lib/libite66121dvi.a(hdmitx_drv.o)
                0x0000000008009dd4                HDMITX_PowerDown
 .text.hdmitx_ClearDDCFIFO
                0x0000000008009de4       0x14 ./Lib/libite66121dvi.a(hdmitx_drv.o)
                0x0000000008009de4                hdmitx_ClearDDCFIFO
 .text.hdmitx_AbortDDC
                0x0000000008009df8       0x54 ./Lib/libite66121dvi.a(hdmitx_drv.o)
                0x0000000008009df8                hdmitx_AbortDDC
 .text.CheckHDMITX
                0x0000000008009e4c      0x160 ./Lib/libite66121dvi.a(hdmitx_drv.o)
                0x0000000008009e4c                CheckHDMITX
 .text.getHDMITX_EDIDBytes
                0x0000000008009fac      0x11e ./Lib/libite66121dvi.a(hdmitx_drv.o)
                0x0000000008009fac                getHDMITX_EDIDBytes
 .text.getHDMITX_EDIDBlock
                0x000000000800a0ca       0x34 ./Lib/libite66121dvi.a(hdmitx_drv.o)
                0x000000000800a0ca                getHDMITX_EDIDBlock
 .text.HDMITX_DisableVideoOutput
                0x000000000800a0fe       0x32 ./Lib/libite66121dvi.a(hdmitx_drv.o)
                0x000000000800a0fe                HDMITX_DisableVideoOutput
 .text.setHDMITX_VideoSignalType
                0x000000000800a130       0x1c ./Lib/libite66121dvi.a(hdmitx_drv.o)
                0x000000000800a130                setHDMITX_VideoSignalType
 .text.hdmitx_SetInputMode
                0x000000000800a14c       0x56 ./Lib/libite66121dvi.a(hdmitx_drv.o)
                0x000000000800a14c                hdmitx_SetInputMode
 *fill*         0x000000000800a1a2        0x2 
 .text.hdmitx_SetCSCScale
                0x000000000800a1a4      0x124 ./Lib/libite66121dvi.a(hdmitx_drv.o)
                0x000000000800a1a4                hdmitx_SetCSCScale
 .text.hdmitx_SetupAFE
                0x000000000800a2c8       0x68 ./Lib/libite66121dvi.a(hdmitx_drv.o)
                0x000000000800a2c8                hdmitx_SetupAFE
 .text.hdmitx_FireAFE
                0x000000000800a330       0x16 ./Lib/libite66121dvi.a(hdmitx_drv.o)
                0x000000000800a330                hdmitx_FireAFE
 .text.setHDMITX_ChStat
                0x000000000800a346       0x56 ./Lib/libite66121dvi.a(hdmitx_drv.o)
                0x000000000800a346                setHDMITX_ChStat
 .text.setHDMITX_LPCMAudio
                0x000000000800a39c       0xf4 ./Lib/libite66121dvi.a(hdmitx_drv.o)
                0x000000000800a39c                setHDMITX_LPCMAudio
 .text.setHDMITX_NLPCMAudio
                0x000000000800a490       0x6c ./Lib/libite66121dvi.a(hdmitx_drv.o)
                0x000000000800a490                setHDMITX_NLPCMAudio
 .text.setHDMITX_HBRAudio
                0x000000000800a4fc       0xb4 ./Lib/libite66121dvi.a(hdmitx_drv.o)
                0x000000000800a4fc                setHDMITX_HBRAudio
 .text.setHDMITX_DSDAudio
                0x000000000800a5b0       0x3c ./Lib/libite66121dvi.a(hdmitx_drv.o)
                0x000000000800a5b0                setHDMITX_DSDAudio
 .text.HDMITX_DisableAudioOutput
                0x000000000800a5ec       0x2c ./Lib/libite66121dvi.a(hdmitx_drv.o)
                0x000000000800a5ec                HDMITX_DisableAudioOutput
 .text.setHDMITX_NCTS
                0x000000000800a618      0x1a0 ./Lib/libite66121dvi.a(hdmitx_drv.o)
                0x000000000800a618                setHDMITX_NCTS
 .text.HDMITX_EnableAudioOutput
                0x000000000800a7b8      0x238 ./Lib/libite66121dvi.a(hdmitx_drv.o)
                0x000000000800a7b8                HDMITX_EnableAudioOutput
 .text.setHDMITX_AudioChannelEnable
                0x000000000800a9f0       0xb0 ./Lib/libite66121dvi.a(hdmitx_drv.o)
                0x000000000800a9f0                setHDMITX_AudioChannelEnable
 .text.HDMITX_EnableVideoOutput
                0x000000000800aaa0       0xa8 ./Lib/libite66121dvi.a(hdmitx_drv.o)
                0x000000000800aaa0                HDMITX_EnableVideoOutput
 .text.hdmitx_SetAVIInfoFrame
                0x000000000800ab48       0xb0 ./Lib/libite66121dvi.a(hdmitx_drv.o)
                0x000000000800ab48                hdmitx_SetAVIInfoFrame
 .text.HDMITX_EnableAVIInfoFrame
                0x000000000800abf8       0x24 ./Lib/libite66121dvi.a(hdmitx_drv.o)
                0x000000000800abf8                HDMITX_EnableAVIInfoFrame
 .text.hdmitx_SetAudioInfoFrame
                0x000000000800ac1c       0x7a ./Lib/libite66121dvi.a(hdmitx_drv.o)
                0x000000000800ac1c                hdmitx_SetAudioInfoFrame
 .text.HDMITX_EnableAudioInfoFrame
                0x000000000800ac96       0x24 ./Lib/libite66121dvi.a(hdmitx_drv.o)
                0x000000000800ac96                HDMITX_EnableAudioInfoFrame
 .text.hdmitx_SetVSIInfoFrame
                0x000000000800acba       0x6a ./Lib/libite66121dvi.a(hdmitx_drv.o)
                0x000000000800acba                hdmitx_SetVSIInfoFrame
 .text.HDMITX_EnableVSInfoFrame
                0x000000000800ad24       0x24 ./Lib/libite66121dvi.a(hdmitx_drv.o)
                0x000000000800ad24                HDMITX_EnableVSInfoFrame
 .text.TWI_SCL_0
                0x000000000800ad48       0x18 ./Lib/libsw_i2c0.a(sw_i2c0.o)
 .text.TWI_SCL_1
                0x000000000800ad60       0x18 ./Lib/libsw_i2c0.a(sw_i2c0.o)
 .text.TWI_SDA_0
                0x000000000800ad78       0x18 ./Lib/libsw_i2c0.a(sw_i2c0.o)
 .text.TWI_SDA_1
                0x000000000800ad90       0x18 ./Lib/libsw_i2c0.a(sw_i2c0.o)
 .text.TWI_SDA_STATE
                0x000000000800ada8       0x24 ./Lib/libsw_i2c0.a(sw_i2c0.o)
 .text.TWI_NOP  0x000000000800adcc       0x22 ./Lib/libsw_i2c0.a(sw_i2c0.o)
 *fill*         0x000000000800adee        0x2 
 .text.TWI_Initialize
                0x000000000800adf0       0x4c ./Lib/libsw_i2c0.a(sw_i2c0.o)
 .text.TWI_START
                0x000000000800ae3c       0x46 ./Lib/libsw_i2c0.a(sw_i2c0.o)
 .text.TWI_STOP
                0x000000000800ae82       0x20 ./Lib/libsw_i2c0.a(sw_i2c0.o)
 .text.TWI_SendNACK
                0x000000000800aea2       0x20 ./Lib/libsw_i2c0.a(sw_i2c0.o)
 .text.TWI_SendByte
                0x000000000800aec2       0x80 ./Lib/libsw_i2c0.a(sw_i2c0.o)
 .text.TWI_ReceiveByte
                0x000000000800af42       0x56 ./Lib/libsw_i2c0.a(sw_i2c0.o)
 .text.SW_I2C0_Init
                0x000000000800af98        0xc ./Lib/libsw_i2c0.a(sw_i2c0.o)
                0x000000000800af98                SW_I2C0_Init
 .text.SW_I2C0Write
                0x000000000800afa4       0x3a ./Lib/libsw_i2c0.a(sw_i2c0.o)
                0x000000000800afa4                SW_I2C0Write
 .text.SW_I2C0WriteNByte
                0x000000000800afde       0x5c ./Lib/libsw_i2c0.a(sw_i2c0.o)
                0x000000000800afde                SW_I2C0WriteNByte
 .text.SW_I2C0Read
                0x000000000800b03a       0x5c ./Lib/libsw_i2c0.a(sw_i2c0.o)
                0x000000000800b03a                SW_I2C0Read
 *fill*         0x000000000800b096        0x2 
 .text.HDMIRX_ReadI2C_Byte
                0x000000000800b098       0x78 ./Lib/libsw_i2c0.a(sw_i2c0.o)
                0x000000000800b098                HDMIRX_ReadI2C_Byte
 .text.HDMIRX_WriteI2C_Byte
                0x000000000800b110       0x74 ./Lib/libsw_i2c0.a(sw_i2c0.o)
                0x000000000800b110                HDMIRX_WriteI2C_Byte
 .text.HDMIRX_WriteI2C_ByteN
                0x000000000800b184       0x7c ./Lib/libsw_i2c0.a(sw_i2c0.o)
                0x000000000800b184                HDMIRX_WriteI2C_ByteN
 .text.HDMITX_ReadI2C_Byte
                0x000000000800b200       0x1e ./Lib/libsw_i2c0.a(sw_i2c0.o)
                0x000000000800b200                HDMITX_ReadI2C_Byte
 .text.HDMITX_WriteI2C_Byte
                0x000000000800b21e       0x26 ./Lib/libsw_i2c0.a(sw_i2c0.o)
                0x000000000800b21e                HDMITX_WriteI2C_Byte
 .text.HDMITX_SetI2C_Byte
                0x000000000800b244       0x60 ./Lib/libsw_i2c0.a(sw_i2c0.o)
                0x000000000800b244                HDMITX_SetI2C_Byte
 .text.TWI_SCL_0
                0x000000000800b2a4       0x18 ./Lib/libsw_i2c1.a(sw_i2c1.o)
 .text.TWI_SCL_1
                0x000000000800b2bc       0x18 ./Lib/libsw_i2c1.a(sw_i2c1.o)
 .text.TWI_SDA_0
                0x000000000800b2d4       0x18 ./Lib/libsw_i2c1.a(sw_i2c1.o)
 .text.TWI_SDA_1
                0x000000000800b2ec       0x18 ./Lib/libsw_i2c1.a(sw_i2c1.o)
 .text.TWI_SDA_STATE
                0x000000000800b304       0x24 ./Lib/libsw_i2c1.a(sw_i2c1.o)
 .text.TWI_NOP  0x000000000800b328       0x22 ./Lib/libsw_i2c1.a(sw_i2c1.o)
 *fill*         0x000000000800b34a        0x2 
 .text.TWI_Initialize
                0x000000000800b34c       0x48 ./Lib/libsw_i2c1.a(sw_i2c1.o)
 .text.TWI_START
                0x000000000800b394       0x46 ./Lib/libsw_i2c1.a(sw_i2c1.o)
 .text.TWI_STOP
                0x000000000800b3da       0x20 ./Lib/libsw_i2c1.a(sw_i2c1.o)
 .text.TWI_SendNACK
                0x000000000800b3fa       0x20 ./Lib/libsw_i2c1.a(sw_i2c1.o)
 .text.TWI_SendByte
                0x000000000800b41a       0x80 ./Lib/libsw_i2c1.a(sw_i2c1.o)
 .text.TWI_ReceiveByte
                0x000000000800b49a       0x56 ./Lib/libsw_i2c1.a(sw_i2c1.o)
 .text.SW_I2C1_Init
                0x000000000800b4f0        0xc ./Lib/libsw_i2c1.a(sw_i2c1.o)
                0x000000000800b4f0                SW_I2C1_Init
 .text.SW_I2C1Write
                0x000000000800b4fc       0x3a ./Lib/libsw_i2c1.a(sw_i2c1.o)
                0x000000000800b4fc                SW_I2C1Write
 .text.SW_I2C1WriteNByte
                0x000000000800b536       0x5c ./Lib/libsw_i2c1.a(sw_i2c1.o)
                0x000000000800b536                SW_I2C1WriteNByte
 .text.SW_I2C1Read
                0x000000000800b592       0x5c ./Lib/libsw_i2c1.a(sw_i2c1.o)
                0x000000000800b592                SW_I2C1Read
 *fill*         0x000000000800b5ee        0x2 
 .text.TWI_SCL_0
                0x000000000800b5f0       0x18 ./Lib/libsw_i2c2.a(sw_i2c2.o)
 .text.TWI_SCL_1
                0x000000000800b608       0x18 ./Lib/libsw_i2c2.a(sw_i2c2.o)
 .text.TWI_SDA_0
                0x000000000800b620       0x18 ./Lib/libsw_i2c2.a(sw_i2c2.o)
 .text.TWI_SDA_1
                0x000000000800b638       0x18 ./Lib/libsw_i2c2.a(sw_i2c2.o)
 .text.TWI_SDA_STATE
                0x000000000800b650       0x24 ./Lib/libsw_i2c2.a(sw_i2c2.o)
 .text.TWI_NOP  0x000000000800b674       0x22 ./Lib/libsw_i2c2.a(sw_i2c2.o)
 *fill*         0x000000000800b696        0x2 
 .text.TWI_Initialize
                0x000000000800b698       0x4c ./Lib/libsw_i2c2.a(sw_i2c2.o)
 .text.TWI_START
                0x000000000800b6e4       0x46 ./Lib/libsw_i2c2.a(sw_i2c2.o)
 .text.TWI_STOP
                0x000000000800b72a       0x20 ./Lib/libsw_i2c2.a(sw_i2c2.o)
 .text.TWI_SendNACK
                0x000000000800b74a       0x20 ./Lib/libsw_i2c2.a(sw_i2c2.o)
 .text.TWI_SendByte
                0x000000000800b76a       0x80 ./Lib/libsw_i2c2.a(sw_i2c2.o)
 .text.TWI_ReceiveByte
                0x000000000800b7ea       0x56 ./Lib/libsw_i2c2.a(sw_i2c2.o)
 .text.SW_I2C2_Init
                0x000000000800b840        0xc ./Lib/libsw_i2c2.a(sw_i2c2.o)
                0x000000000800b840                SW_I2C2_Init
 .text.SW_I2C2Write
                0x000000000800b84c       0x3a ./Lib/libsw_i2c2.a(sw_i2c2.o)
                0x000000000800b84c                SW_I2C2Write
 .text.SW_I2C2WriteNByte
                0x000000000800b886       0x5c ./Lib/libsw_i2c2.a(sw_i2c2.o)
                0x000000000800b886                SW_I2C2WriteNByte
 .text.SW_I2C2Read
                0x000000000800b8e2       0x5c ./Lib/libsw_i2c2.a(sw_i2c2.o)
                0x000000000800b8e2                SW_I2C2Read
 .text.I2Cdelay
                0x000000000800b93e       0x22 ./Lib/libsw_i2c2.a(sw_i2c2.o)
                0x000000000800b93e                I2Cdelay
 .text.I2CStart
                0x000000000800b960       0x20 ./Lib/libsw_i2c2.a(sw_i2c2.o)
                0x000000000800b960                I2CStart
 .text.I2CReStart
                0x000000000800b980       0x20 ./Lib/libsw_i2c2.a(sw_i2c2.o)
                0x000000000800b980                I2CReStart
 .text.I2CStop  0x000000000800b9a0       0x28 ./Lib/libsw_i2c2.a(sw_i2c2.o)
                0x000000000800b9a0                I2CStop
 .text.I2CWriteData3
                0x000000000800b9c8       0x70 ./Lib/libsw_i2c2.a(sw_i2c2.o)
                0x000000000800b9c8                I2CWriteData3
 .text.I2CReadData3
                0x000000000800ba38       0x56 ./Lib/libsw_i2c2.a(sw_i2c2.o)
                0x000000000800ba38                I2CReadData3
 .text.I2CACK   0x000000000800ba8e       0x28 ./Lib/libsw_i2c2.a(sw_i2c2.o)
 .text.I2CNACK  0x000000000800bab6       0x24 ./Lib/libsw_i2c2.a(sw_i2c2.o)
 .text.ReadI2C3
                0x000000000800bada       0x68 ./Lib/libsw_i2c2.a(sw_i2c2.o)
                0x000000000800bada                ReadI2C3
 .text.WriteI2C3
                0x000000000800bb42       0x46 ./Lib/libsw_i2c2.a(sw_i2c2.o)
                0x000000000800bb42                WriteI2C3
 .text.I2Cdelay2
                0x000000000800bb88       0x22 ./Lib/libsw_i2c2.a(sw_i2c2.o)
                0x000000000800bb88                I2Cdelay2
 .text.I2CStart2
                0x000000000800bbaa       0x20 ./Lib/libsw_i2c2.a(sw_i2c2.o)
                0x000000000800bbaa                I2CStart2
 .text.I2CStop2
                0x000000000800bbca       0x28 ./Lib/libsw_i2c2.a(sw_i2c2.o)
                0x000000000800bbca                I2CStop2
 .text.I2CWriteData2
                0x000000000800bbf2       0x70 ./Lib/libsw_i2c2.a(sw_i2c2.o)
                0x000000000800bbf2                I2CWriteData2
 .text.I2CReadData2
                0x000000000800bc62       0x66 ./Lib/libsw_i2c2.a(sw_i2c2.o)
                0x000000000800bc62                I2CReadData2
 .text.ReadI2C2
                0x000000000800bcc8       0x4c ./Lib/libsw_i2c2.a(sw_i2c2.o)
                0x000000000800bcc8                ReadI2C2
 .text.EEPWrite
                0x000000000800bd14       0x4e ./Lib/libsw_i2c2.a(sw_i2c2.o)
                0x000000000800bd14                EEPWrite
 .text.EEPRead  0x000000000800bd62       0x3c ./Lib/libsw_i2c2.a(sw_i2c2.o)
                0x000000000800bd62                EEPRead
 *fill*         0x000000000800bd9e        0x2 
 .text.TWI_SCL_0
                0x000000000800bda0       0x18 ./Lib/libsw_i2c3.a(sw_i2c3.o)
 .text.TWI_SDA_1
                0x000000000800bdb8       0x18 ./Lib/libsw_i2c3.a(sw_i2c3.o)
 .text.TWI_Initialize
                0x000000000800bdd0       0x48 ./Lib/libsw_i2c3.a(sw_i2c3.o)
 .text.SW_I2C3_Init
                0x000000000800be18        0xc ./Lib/libsw_i2c3.a(sw_i2c3.o)
                0x000000000800be18                SW_I2C3_Init
 .text.Get_WindowNum
                0x000000000800be24       0x2c ./Lib/libVS4210.a(VS4210.o)
 .text.VS4210_FULL88init
                0x000000000800be50       0x64 ./Lib/libVS4210.a(VS4210.o)
 .text.VS4210_PIP_1080I_w0_ReSet
                0x000000000800beb4       0x14 ./Lib/libVS4210.a(VS4210.o)
 .text.VS4210_init
                0x000000000800bec8       0x64 ./Lib/libVS4210.a(VS4210.o)
 .text.VS4210_init_Input_MODE1_w0
                0x000000000800bf2c      0x264 ./Lib/libVS4210.a(VS4210.o)
 .text.VS4210_init_Input_MODE1_w1
                0x000000000800c190      0x264 ./Lib/libVS4210.a(VS4210.o)
 .text.VS4210_init_Input_MODE1_w2
                0x000000000800c3f4      0x264 ./Lib/libVS4210.a(VS4210.o)
 .text.VS4210_init_Input_MODE1_w3
                0x000000000800c658      0x264 ./Lib/libVS4210.a(VS4210.o)
 .text.VS4210_init_Input_MODE2_w0
                0x000000000800c8bc      0x264 ./Lib/libVS4210.a(VS4210.o)
 .text.VS4210_init_Input_MODE2_w1
                0x000000000800cb20      0x264 ./Lib/libVS4210.a(VS4210.o)
 .text.VS4210_init_Input_MODE2_w2
                0x000000000800cd84      0x264 ./Lib/libVS4210.a(VS4210.o)
 .text.VS4210_init_Input_MODE2_w3
                0x000000000800cfe8      0x264 ./Lib/libVS4210.a(VS4210.o)
 .text.VS4210_init_Input_MODE6_w0
                0x000000000800d24c      0x264 ./Lib/libVS4210.a(VS4210.o)
 .text.VS4210_init_Input_MODE6_w1
                0x000000000800d4b0      0x264 ./Lib/libVS4210.a(VS4210.o)
 .text.VS4210_init_Input_MODE6_w2
                0x000000000800d714      0x264 ./Lib/libVS4210.a(VS4210.o)
 .text.VS4210_init_Input_MODE6_w3
                0x000000000800d978      0x264 ./Lib/libVS4210.a(VS4210.o)
 .text.VS4210_init_Input_MODE12_w0
                0x000000000800dbdc      0x264 ./Lib/libVS4210.a(VS4210.o)
 .text.VS4210_init_Input_MODE12_w1
                0x000000000800de40      0x264 ./Lib/libVS4210.a(VS4210.o)
 .text.VS4210_init_Input_MODE13_w0
                0x000000000800e0a4      0x264 ./Lib/libVS4210.a(VS4210.o)
 .text.VS4210_init_Input_MODE13_w1
                0x000000000800e308      0x264 ./Lib/libVS4210.a(VS4210.o)
 .text.VS4210_init_Input_MODE24_w1
                0x000000000800e56c      0x248 ./Lib/libVS4210.a(VS4210.o)
 .text.VS4210_PIP_1080I_w0_Set
                0x000000000800e7b4       0x34 ./Lib/libVS4210.a(VS4210.o)
 .text.VS4210_init_Input_MODE24_w0
                0x000000000800e7e8      0x43c ./Lib/libVS4210.a(VS4210.o)
 .text.VS4210_OpenWindowsPIP0
                0x000000000800ec24       0xcc ./Lib/libVS4210.a(VS4210.o)
                0x000000000800ec24                VS4210_OpenWindowsPIP0
 .text.VS4210_init_Input_MODE88
                0x000000000800ecf0       0x50 ./Lib/libVS4210.a(VS4210.o)
                0x000000000800ecf0                VS4210_init_Input_MODE88
 .text.VS4210_Line_Clear
                0x000000000800ed40       0x14 ./Lib/libVS4210.a(VS4210.o)
                0x000000000800ed40                VS4210_Line_Clear
 .text.VS4210_Line_Draw
                0x000000000800ed54      0x240 ./Lib/libVS4210.a(VS4210.o)
                0x000000000800ed54                VS4210_Line_Draw
 .text.VS4210_SwitchChannel
                0x000000000800ef94       0x34 ./Lib/libVS4210.a(VS4210.o)
                0x000000000800ef94                VS4210_SwitchChannel
 .text.VS4210_OpenWindowsX
                0x000000000800efc8       0x5c ./Lib/libVS4210.a(VS4210.o)
                0x000000000800efc8                VS4210_OpenWindowsX
 .text.VS4210_CloseWindowsX
                0x000000000800f024       0x48 ./Lib/libVS4210.a(VS4210.o)
                0x000000000800f024                VS4210_CloseWindowsX
 .text.VS4210_CloseAllWindows
                0x000000000800f06c       0x4a ./Lib/libVS4210.a(VS4210.o)
                0x000000000800f06c                VS4210_CloseAllWindows
 .text.VS4210_channel0clear
                0x000000000800f0b6       0x6a ./Lib/libVS4210.a(VS4210.o)
                0x000000000800f0b6                VS4210_channel0clear
 .text.VS4210_clearAllsignal
                0x000000000800f120       0x48 ./Lib/libVS4210.a(VS4210.o)
                0x000000000800f120                VS4210_clearAllsignal
 .text.VS4210_SetHVLenght
                0x000000000800f168       0x80 ./Lib/libVS4210.a(VS4210.o)
                0x000000000800f168                VS4210_SetHVLenght
 .text.VS4210_Mode0FastChange
                0x000000000800f1e8       0x98 ./Lib/libVS4210.a(VS4210.o)
 .text.VS4210_displayoff
                0x000000000800f280       0x20 ./Lib/libVS4210.a(VS4210.o)
                0x000000000800f280                VS4210_displayoff
 .text.VS4210_init_Input_MODE0_w0
                0x000000000800f2a0      0x27c ./Lib/libVS4210.a(VS4210.o)
 .text.VS4210_displayon
                0x000000000800f51c       0x18 ./Lib/libVS4210.a(VS4210.o)
                0x000000000800f51c                VS4210_displayon
 .text.VS4210_init_mode
                0x000000000800f534      0x31c ./Lib/libVS4210.a(VS4210.o)
                0x000000000800f534                VS4210_init_mode
 .text.VS4210_SetInModeOutMode
                0x000000000800f850      0x20c ./Lib/libVS4210.a(VS4210.o)
                0x000000000800f850                VS4210_SetInModeOutMode
 .text.VS4210_StartInit
                0x000000000800fa5c       0xe8 ./Lib/libVS4210.a(VS4210.o)
                0x000000000800fa5c                VS4210_StartInit
 .text.VS4210_No_Signal_Init
                0x000000000800fb44       0x24 ./Lib/libVS4210.a(VS4210.o)
                0x000000000800fb44                VS4210_No_Signal_Init
 .text.VS4210_Rx_NoSignal
                0x000000000800fb68      0x13c ./Lib/libVS4210.a(VS4210.o)
                0x000000000800fb68                VS4210_Rx_NoSignal
 .text.VS4210_PowerDown
                0x000000000800fca4        0xc ./Lib/libVS4210.a(VS4210.o)
                0x000000000800fca4                VS4210_PowerDown
 .text.VS4210_PowerResume
                0x000000000800fcb0        0xc ./Lib/libVS4210.a(VS4210.o)
                0x000000000800fcb0                VS4210_PowerResume
 .text.VS4210_SetMutiWindows
                0x000000000800fcbc      0x70c ./Lib/libVS4210.a(VS4210.o)
                0x000000000800fcbc                VS4210_SetMutiWindows
 .text.VS4210_SetInputSizeHV
                0x00000000080103c8       0x2c ./Lib/libVS4210.a(VS4210.o)
                0x00000000080103c8                VS4210_SetInputSizeHV
 .text.get_it6602_dev_data
                0x00000000080103f4       0x18 ./Lib/libit6602.a(it6602.o)
 .text.IT6602_VideoOutputConfigure_Init
                0x000000000801040c       0xd4 ./Lib/libit6602.a(it6602.o)
 .text.hdmirx_Var_init
                0x00000000080104e0       0x70 ./Lib/libit6602.a(it6602.o)
 .text.hdmirxrd
                0x0000000008010550        0x8 ./Lib/libit6602.a(it6602.o)
 .text.IsHDMIMode
                0x0000000008010558       0x3c ./Lib/libit6602.a(it6602.o)
 .text.SetColorimetryByMode
                0x0000000008010594       0x1c ./Lib/libit6602.a(it6602.o)
 .text.CheckAVMute
                0x00000000080105b0       0x30 ./Lib/libit6602.a(it6602.o)
 .text.CLKCheck
                0x00000000080105e0       0x28 ./Lib/libit6602.a(it6602.o)
 .text.CheckPlg5VPwr
                0x0000000008010608       0x30 ./Lib/libit6602.a(it6602.o)
 .text.CheckSCDT
                0x0000000008010638       0x2a ./Lib/libit6602.a(it6602.o)
 .text.getHDMIRXInputAudio
                0x0000000008010662       0x50 ./Lib/libit6602.a(it6602.o)
 .text.hdmirxwr
                0x00000000080106b2        0xa ./Lib/libit6602.a(it6602.o)
 .text.hdmirxset
                0x00000000080106bc       0x1e ./Lib/libit6602.a(it6602.o)
 .text.hdimrx_write_init
                0x00000000080106da       0x20 ./Lib/libit6602.a(it6602.o)
 *fill*         0x00000000080106fa        0x2 
 .text.IT6602_Rst
                0x00000000080106fc       0x14 ./Lib/libit6602.a(it6602.o)
 .text.chgbank  0x0000000008010710       0x44 ./Lib/libit6602.a(it6602.o)
 .text.GetAVIInfoFrame
                0x0000000008010754       0x74 ./Lib/libit6602.a(it6602.o)
 .text.SetColorimetryByInfoFrame
                0x00000000080107c8       0x36 ./Lib/libit6602.a(it6602.o)
 .text.SetVideoOutputColorFormat
                0x00000000080107fe       0x3a ./Lib/libit6602.a(it6602.o)
 .text.IT6602VideoOutputEnable
                0x0000000008010838       0x1e ./Lib/libit6602.a(it6602.o)
 .text.hdmirx_SetHWMuteClr
                0x0000000008010856        0xe ./Lib/libit6602.a(it6602.o)
 .text.hdmirx_ClearHWMuteClr
                0x0000000008010864        0xe ./Lib/libit6602.a(it6602.o)
 .text.IT6602AudioOutputEnable
                0x0000000008010872       0x1e ./Lib/libit6602.a(it6602.o)
 .text.IT6602SwitchAudioState
                0x0000000008010890       0x4e ./Lib/libit6602.a(it6602.o)
 .text.IT6602_SetVideoMute
                0x00000000080108de       0x80 ./Lib/libit6602.a(it6602.o)
 *fill*         0x000000000801095e        0x2 
 .text.DisableOverWriteRS
                0x0000000008010960       0x80 ./Lib/libit6602.a(it6602.o)
 .text.TogglePolarity
                0x00000000080109e0      0x110 ./Lib/libit6602.a(it6602.o)
 .text.hdmirx_SetHWMuteClrMode
                0x0000000008010af0        0xe ./Lib/libit6602.a(it6602.o)
 .text.SetVideoInputFormatWithoutInfoFrame
                0x0000000008010afe       0x4e ./Lib/libit6602.a(it6602.o)
 .text.SetVideoInputFormatWithInfoFrame
                0x0000000008010b4c       0x56 ./Lib/libit6602.a(it6602.o)
 .text.IT6602_VideoOutputModeSet
                0x0000000008010ba2       0xba ./Lib/libit6602.a(it6602.o)
 .text.TMDSCheck
                0x0000000008010c5c      0x220 ./Lib/libit6602.a(it6602.o)
 .text.IT6602HDMIEventManager
                0x0000000008010e7c       0xa6 ./Lib/libit6602.a(it6602.o)
 .text.hdmirx_INT_P1_Deskew
                0x0000000008010f22       0x30 ./Lib/libit6602.a(it6602.o)
 .text.hdmirx_INT_P0_Deskew
                0x0000000008010f52       0x30 ./Lib/libit6602.a(it6602.o)
 *fill*         0x0000000008010f82        0x2 
 .text.OverWriteAmpValue2EQ
                0x0000000008010f84      0x1cc ./Lib/libit6602.a(it6602.o)
 .text.AmpValidCheck
                0x0000000008011150      0x13c ./Lib/libit6602.a(it6602.o)
 .text.hdmirx_INT_EQ_FAIL
                0x000000000801128c      0x11c ./Lib/libit6602.a(it6602.o)
 .text.hdmirx_ResetAudio
                0x00000000080113a8       0x40 ./Lib/libit6602.a(it6602.o)
 .text.IT6602AudioHandler
                0x00000000080113e8       0xd4 ./Lib/libit6602.a(it6602.o)
 .text.hdmirxbwr
                0x00000000080114bc        0xe ./Lib/libit6602.a(it6602.o)
 *fill*         0x00000000080114ca        0x2 
 .text.SetColorSpaceConvert
                0x00000000080114cc       0xbc ./Lib/libit6602.a(it6602.o)
 .text.SetDVIVideoOutput
                0x0000000008011588       0x1e ./Lib/libit6602.a(it6602.o)
 .text.hdmirx_INT_HDMIMode_Chg
                0x00000000080115a6       0x4e ./Lib/libit6602.a(it6602.o)
 .text.SetNewInfoVideoOutput
                0x00000000080115f4       0x1c ./Lib/libit6602.a(it6602.o)
 .text.IT6602VideoOutputConfigure
                0x0000000008011610       0x6c ./Lib/libit6602.a(it6602.o)
 .text.aud_fiforst
                0x000000000801167c       0x5a ./Lib/libit6602.a(it6602.o)
 .text.it6602HPDCtrl
                0x00000000080116d6       0x44 ./Lib/libit6602.a(it6602.o)
                0x00000000080116d6                it6602HPDCtrl
 .text.hdmirx_ECCTimingOut
                0x000000000801171a       0x60 ./Lib/libit6602.a(it6602.o)
 .text.hdmirx_INT_P0_ECC
                0x000000000801177a       0x1a ./Lib/libit6602.a(it6602.o)
 .text.hdmirx_INT_P1_ECC
                0x0000000008011794       0x1a ./Lib/libit6602.a(it6602.o)
 *fill*         0x00000000080117ae        0x2 
 .text.get_vid_info
                0x00000000080117b0      0x1f4 ./Lib/libit6602.a(it6602.o)
                0x00000000080117b0                get_vid_info
 .text.show_vid_info
                0x00000000080119a4       0xa8 ./Lib/libit6602.a(it6602.o)
                0x00000000080119a4                show_vid_info
 .text.IT6602SwitchVideoState
                0x0000000008011a4c       0x74 ./Lib/libit6602.a(it6602.o)
 .text.it6602PortSelect
                0x0000000008011ac0       0x2a ./Lib/libit6602.a(it6602.o)
                0x0000000008011ac0                it6602PortSelect
 .text.IT6602_fsm_init
                0x0000000008011aea       0x1c ./Lib/libit6602.a(it6602.o)
                0x0000000008011aea                IT6602_fsm_init
 .text.hdmirx_INT_5V_Pwr_Chg
                0x0000000008011b06       0x66 ./Lib/libit6602.a(it6602.o)
 .text.hdmirx_INT_SCDT_Chg
                0x0000000008011b6c       0x28 ./Lib/libit6602.a(it6602.o)
 .text.IT6602HDMIInterruptHandler
                0x0000000008011b94      0x418 ./Lib/libit6602.a(it6602.o)
 .text.WaitingForSCDT
                0x0000000008011fac       0x80 ./Lib/libit6602.a(it6602.o)
 .text.IT6602VideoHandler
                0x000000000801202c       0x5c ./Lib/libit6602.a(it6602.o)
 .text.IT6602_fsm
                0x0000000008012088       0x2c ./Lib/libit6602.a(it6602.o)
                0x0000000008012088                IT6602_fsm
 .text.GetHDMI_InputMode
                0x00000000080120b4      0x1e4 ./Lib/libit6602.a(it6602.o)
                0x00000000080120b4                GetHDMI_InputMode
 .text.getHDMIRXAudioInfo
                0x0000000008012298       0x16 ./Lib/libit6602.a(it6602.o)
                0x0000000008012298                getHDMIRXAudioInfo
 .text.InitHDMIRX
                0x00000000080122ae        0xe ./Lib/libit6602.a(it6602.o)
                0x00000000080122ae                InitHDMIRX
 .text.CheckHDMIRX
                0x00000000080122bc        0x8 ./Lib/libit6602.a(it6602.o)
                0x00000000080122bc                CheckHDMIRX
 *(.glue_7)
 .glue_7        0x00000000080122c4        0x0 linker stubs
 *(.glue_7t)
 .glue_7t       0x00000000080122c4        0x0 linker stubs
 *(.eh_frame)
 .eh_frame      0x00000000080122c4        0x0 /usr/lib/gcc/arm-none-eabi/4.9.3/armv7-m/crtbegin.o
 *(.init)
 .init          0x00000000080122c4        0x4 /usr/lib/gcc/arm-none-eabi/4.9.3/armv7-m/crti.o
                0x00000000080122c4                _init
 .init          0x00000000080122c8        0x8 /usr/lib/gcc/arm-none-eabi/4.9.3/armv7-m/crtn.o
 *(.fini)
 .fini          0x00000000080122d0        0x4 /usr/lib/gcc/arm-none-eabi/4.9.3/armv7-m/crti.o
                0x00000000080122d0                _fini
 .fini          0x00000000080122d4        0x8 /usr/lib/gcc/arm-none-eabi/4.9.3/armv7-m/crtn.o
                0x00000000080122dc                . = ALIGN (0x4)
                0x00000000080122dc                _etext = .

.vfp11_veneer   0x00000000080122dc        0x0
 .vfp11_veneer  0x00000000080122dc        0x0 linker stubs

.v4_bx          0x00000000080122dc        0x0
 .v4_bx         0x00000000080122dc        0x0 linker stubs

.iplt           0x00000000080122dc        0x0
 .iplt          0x00000000080122dc        0x0 /usr/lib/gcc/arm-none-eabi/4.9.3/armv7-m/crtbegin.o

.rodata         0x00000000080122dc     0x921c
                0x00000000080122dc                . = ALIGN (0x4)
 *(.rodata)
 .rodata        0x00000000080122dc       0x12 build/stm32f1xx_hal_rcc.o
 *(.rodata*)
 *fill*         0x00000000080122ee        0x2 
 .rodata.str1.4
                0x00000000080122f0      0x51b build/main.o
 *fill*         0x000000000801280b        0x1 
 .rodata.__FUNCTION__.9082
                0x000000000801280c       0x15 build/main.o
 *fill*         0x0000000008012821        0x3 
 .rodata.__FUNCTION__.9219
                0x0000000008012824        0xe build/main.o
 *fill*         0x0000000008012832        0x2 
 .rodata.__FUNCTION__.9140
                0x0000000008012834        0xa build/main.o
 *fill*         0x000000000801283e        0x2 
 .rodata.__FUNCTION__.9129
                0x0000000008012840        0x5 build/main.o
 *fill*         0x0000000008012845        0x3 
 .rodata.__FUNCTION__.9077
                0x0000000008012848       0x11 build/main.o
 *fill*         0x0000000008012859        0x3 
 .rodata.AHBPrescTable
                0x000000000801285c       0x10 build/system_stm32f1xx.o
                0x000000000801285c                AHBPrescTable
 .rodata.APBPrescTable
                0x000000000801286c        0x8 build/system_stm32f1xx.o
                0x000000000801286c                APBPrescTable
 .rodata.VS4210_hdmi1280x768_1080P_mode6pip_w3_param
                0x0000000008012874       0x19 build/VS4210_param_Modex26.o
                0x0000000008012874                VS4210_hdmi1280x768_1080P_mode6pip_w3_param
 *fill*         0x000000000801288d        0x3 
 .rodata.VS4210_hdmi1366x768_720P_mode2_w1_param
                0x0000000008012890       0x19 build/VS4210_param_Modex26.o
                0x0000000008012890                VS4210_hdmi1366x768_720P_mode2_w1_param
 *fill*         0x00000000080128a9        0x3 
 .rodata.VS4210_hdmi1080P_1080P_mode6_w1_param
                0x00000000080128ac       0x19 build/VS4210_param_Modex26.o
                0x00000000080128ac                VS4210_hdmi1080P_1080P_mode6_w1_param
 *fill*         0x00000000080128c5        0x3 
 .rodata.VS4210_hdmi1280x1024_720P_mode13_w1_param
                0x00000000080128c8       0x19 build/VS4210_param_Modex26.o
                0x00000000080128c8                VS4210_hdmi1280x1024_720P_mode13_w1_param
 *fill*         0x00000000080128e1        0x3 
 .rodata.VS4210_hdmi640x480_1080P_mode6_w2_param
                0x00000000080128e4       0x19 build/VS4210_param_Modex26.o
                0x00000000080128e4                VS4210_hdmi640x480_1080P_mode6_w2_param
 *fill*         0x00000000080128fd        0x3 
 .rodata.VS4210_hdmi1366x768_1080P_mode2_w2_param
                0x0000000008012900       0x19 build/VS4210_param_Modex26.o
                0x0000000008012900                VS4210_hdmi1366x768_1080P_mode2_w2_param
 *fill*         0x0000000008012919        0x3 
 .rodata.VS4210_hdmi480i_1080P_mode6_w3_param
                0x000000000801291c       0x19 build/VS4210_param_Modex26.o
                0x000000000801291c                VS4210_hdmi480i_1080P_mode6_w3_param
 *fill*         0x0000000008012935        0x3 
 .rodata.VS4210_hdmi1280x1024_720P_mode6_w0_param
                0x0000000008012938       0x19 build/VS4210_param_Modex26.o
                0x0000000008012938                VS4210_hdmi1280x1024_720P_mode6_w0_param
 *fill*         0x0000000008012951        0x3 
 .rodata.VS4210_hdmi1680x1050_720P_mode24_w1_param
                0x0000000008012954       0x19 build/VS4210_param_Modex26.o
                0x0000000008012954                VS4210_hdmi1680x1050_720P_mode24_w1_param
 *fill*         0x000000000801296d        0x3 
 .rodata.VS4210_hdmi1280x800_720P_mode13_w1_param
                0x0000000008012970       0x19 build/VS4210_param_Modex26.o
                0x0000000008012970                VS4210_hdmi1280x800_720P_mode13_w1_param
 *fill*         0x0000000008012989        0x3 
 .rodata.VS4210_hdmi1024x768_720P_mode24_w1_param
                0x000000000801298c       0x19 build/VS4210_param_Modex26.o
                0x000000000801298c                VS4210_hdmi1024x768_720P_mode24_w1_param
 *fill*         0x00000000080129a5        0x3 
 .rodata.VS4210_hdmi1360x768_1080P_mode2_w1_param
                0x00000000080129a8       0x19 build/VS4210_param_Modex26.o
                0x00000000080129a8                VS4210_hdmi1360x768_1080P_mode2_w1_param
 *fill*         0x00000000080129c1        0x3 
 .rodata.VS4210_hdmi640x480_720P_mode6_w3_param
                0x00000000080129c4       0x19 build/VS4210_param_Modex26.o
                0x00000000080129c4                VS4210_hdmi640x480_720P_mode6_w3_param
 *fill*         0x00000000080129dd        0x3 
 .rodata.VS4210_hdmi1400x1050_1080P_mode2_w0_param
                0x00000000080129e0       0x19 build/VS4210_param_Modex26.o
                0x00000000080129e0                VS4210_hdmi1400x1050_1080P_mode2_w0_param
 *fill*         0x00000000080129f9        0x3 
 .rodata.VS4210_hdmi480P_1080P_mode6_w0_param
                0x00000000080129fc       0x19 build/VS4210_param_Modex26.o
                0x00000000080129fc                VS4210_hdmi480P_1080P_mode6_w0_param
 *fill*         0x0000000008012a15        0x3 
 .rodata.VS4210_hdmi1280x768_1080P_mode13_w0_param
                0x0000000008012a18       0x19 build/VS4210_param_Modex26.o
                0x0000000008012a18                VS4210_hdmi1280x768_1080P_mode13_w0_param
 *fill*         0x0000000008012a31        0x3 
 .rodata.VS4210_hdmi1600x1200_720P_mode2_w1_param
                0x0000000008012a34       0x19 build/VS4210_param_Modex26.o
                0x0000000008012a34                VS4210_hdmi1600x1200_720P_mode2_w1_param
 *fill*         0x0000000008012a4d        0x3 
 .rodata.VS4210_hdmi1680x1050_720P_mode2_w3_param
                0x0000000008012a50       0x19 build/VS4210_param_Modex26.o
                0x0000000008012a50                VS4210_hdmi1680x1050_720P_mode2_w3_param
 *fill*         0x0000000008012a69        0x3 
 .rodata.VS4210_hdmi1280x1024_1080P_mode2_w0_param
                0x0000000008012a6c       0x19 build/VS4210_param_Modex26.o
                0x0000000008012a6c                VS4210_hdmi1280x1024_1080P_mode2_w0_param
 *fill*         0x0000000008012a85        0x3 
 .rodata.VS4210_hdmi720P_1080P_mode2_w3_param
                0x0000000008012a88       0x19 build/VS4210_param_Modex26.o
                0x0000000008012a88                VS4210_hdmi720P_1080P_mode2_w3_param
 *fill*         0x0000000008012aa1        0x3 
 .rodata.VS4210_hdmi1360x768_720P_mode2_w3_param
                0x0000000008012aa4       0x19 build/VS4210_param_Modex26.o
                0x0000000008012aa4                VS4210_hdmi1360x768_720P_mode2_w3_param
 *fill*         0x0000000008012abd        0x3 
 .rodata.VS4210_hdmi576i_1080P_mode6_w1_param
                0x0000000008012ac0       0x19 build/VS4210_param_Modex26.o
                0x0000000008012ac0                VS4210_hdmi576i_1080P_mode6_w1_param
 *fill*         0x0000000008012ad9        0x3 
 .rodata.VS4210_hdmi576P_1080P_mode1_w0_param
                0x0000000008012adc       0x19 build/VS4210_param_Modex26.o
                0x0000000008012adc                VS4210_hdmi576P_1080P_mode1_w0_param
 *fill*         0x0000000008012af5        0x3 
 .rodata.VS4210_hdmi576i_1080P_mode6pip_w3_param
                0x0000000008012af8       0x19 build/VS4210_param_Modex26.o
                0x0000000008012af8                VS4210_hdmi576i_1080P_mode6pip_w3_param
 *fill*         0x0000000008012b11        0x3 
 .rodata.VS4210_hdmi1360x768_1080P_mode2_w3_param
                0x0000000008012b14       0x19 build/VS4210_param_Modex26.o
                0x0000000008012b14                VS4210_hdmi1360x768_1080P_mode2_w3_param
 *fill*         0x0000000008012b2d        0x3 
 .rodata.VS4210_hdmi1024x768_720P_mode13_w1_param
                0x0000000008012b30       0x19 build/VS4210_param_Modex26.o
                0x0000000008012b30                VS4210_hdmi1024x768_720P_mode13_w1_param
 *fill*         0x0000000008012b49        0x3 
 .rodata.VS4210_hdmi800x600_720P_mode1_w2_param
                0x0000000008012b4c       0x19 build/VS4210_param_Modex26.o
                0x0000000008012b4c                VS4210_hdmi800x600_720P_mode1_w2_param
 *fill*         0x0000000008012b65        0x3 
 .rodata.VS4210_hdmi1080P_1080P_mode1_w2_param
                0x0000000008012b68       0x19 build/VS4210_param_Modex26.o
                0x0000000008012b68                VS4210_hdmi1080P_1080P_mode1_w2_param
 *fill*         0x0000000008012b81        0x3 
 .rodata.VS4210_hdmi640x480_720P_mode24_w1_param
                0x0000000008012b84       0x19 build/VS4210_param_Modex26.o
                0x0000000008012b84                VS4210_hdmi640x480_720P_mode24_w1_param
 *fill*         0x0000000008012b9d        0x3 
 .rodata.VS4210_hdmi1920x1200_1080P_mode1_w1_param
                0x0000000008012ba0       0x19 build/VS4210_param_Modex26.o
                0x0000000008012ba0                VS4210_hdmi1920x1200_1080P_mode1_w1_param
 *fill*         0x0000000008012bb9        0x3 
 .rodata.VS4210_hdmi720P_1080P_mode6_w3_param
                0x0000000008012bbc       0x19 build/VS4210_param_Modex26.o
                0x0000000008012bbc                VS4210_hdmi720P_1080P_mode6_w3_param
 *fill*         0x0000000008012bd5        0x3 
 .rodata.VS4210_hdmi1440x900_720P_mode12_w0_param
                0x0000000008012bd8       0x19 build/VS4210_param_Modex26.o
                0x0000000008012bd8                VS4210_hdmi1440x900_720P_mode12_w0_param
 *fill*         0x0000000008012bf1        0x3 
 .rodata.VS4210_hdmi1080i_720P_mode6_w0_param
                0x0000000008012bf4       0x19 build/VS4210_param_Modex26.o
                0x0000000008012bf4                VS4210_hdmi1080i_720P_mode6_w0_param
 *fill*         0x0000000008012c0d        0x3 
 .rodata.VS4210_hdmi1600x1200_1080P_mode12_w0_param
                0x0000000008012c10       0x19 build/VS4210_param_Modex26.o
                0x0000000008012c10                VS4210_hdmi1600x1200_1080P_mode12_w0_param
 *fill*         0x0000000008012c29        0x3 
 .rodata.VS4210_hdmi1440x900_720P_mode6_w0_param
                0x0000000008012c2c       0x19 build/VS4210_param_Modex26.o
                0x0000000008012c2c                VS4210_hdmi1440x900_720P_mode6_w0_param
 *fill*         0x0000000008012c45        0x3 
 .rodata.VS4210_hdmi1280x1024_1080P_mode1_w0_param
                0x0000000008012c48       0x19 build/VS4210_param_Modex26.o
                0x0000000008012c48                VS4210_hdmi1280x1024_1080P_mode1_w0_param
 *fill*         0x0000000008012c61        0x3 
 .rodata.VS4210_hdmi1280x1024_1080P_mode13_w0_param
                0x0000000008012c64       0x19 build/VS4210_param_Modex26.o
                0x0000000008012c64                VS4210_hdmi1280x1024_1080P_mode13_w0_param
 *fill*         0x0000000008012c7d        0x3 
 .rodata.VS4210_hdmi720P_1080P_mode6pip_w0_param
                0x0000000008012c80       0x19 build/VS4210_param_Modex26.o
                0x0000000008012c80                VS4210_hdmi720P_1080P_mode6pip_w0_param
 *fill*         0x0000000008012c99        0x3 
 .rodata.VS4210_hdmi1360x768_1080P_mode6_w0_param
                0x0000000008012c9c       0x19 build/VS4210_param_Modex26.o
                0x0000000008012c9c                VS4210_hdmi1360x768_1080P_mode6_w0_param
 *fill*         0x0000000008012cb5        0x3 
 .rodata.VS4210_hdmi720P_1080P_mode6pip_w2_param
                0x0000000008012cb8       0x19 build/VS4210_param_Modex26.o
                0x0000000008012cb8                VS4210_hdmi720P_1080P_mode6pip_w2_param
 *fill*         0x0000000008012cd1        0x3 
 .rodata.VS4210_hdmi1280x1024_1080P_mode2_w2_param
                0x0000000008012cd4       0x19 build/VS4210_param_Modex26.o
                0x0000000008012cd4                VS4210_hdmi1280x1024_1080P_mode2_w2_param
 *fill*         0x0000000008012ced        0x3 
 .rodata.VS4210_hdmi1400x1050_720P_mode24_w0_param
                0x0000000008012cf0       0x19 build/VS4210_param_Modex26.o
                0x0000000008012cf0                VS4210_hdmi1400x1050_720P_mode24_w0_param
 *fill*         0x0000000008012d09        0x3 
 .rodata.VS4210_hdmi1080P_720P_mode2_w1_param
                0x0000000008012d0c       0x19 build/VS4210_param_Modex26.o
                0x0000000008012d0c                VS4210_hdmi1080P_720P_mode2_w1_param
 *fill*         0x0000000008012d25        0x3 
 .rodata.VS4210_hdmi1920x1200_720P_mode12_w0_param
                0x0000000008012d28       0x19 build/VS4210_param_Modex26.o
                0x0000000008012d28                VS4210_hdmi1920x1200_720P_mode12_w0_param
 *fill*         0x0000000008012d41        0x3 
 .rodata.VS4210_hdmi1600x1200_720P_mode24_w0_param
                0x0000000008012d44       0x19 build/VS4210_param_Modex26.o
                0x0000000008012d44                VS4210_hdmi1600x1200_720P_mode24_w0_param
 *fill*         0x0000000008012d5d        0x3 
 .rodata.VS4210_hdmi1600x1200_720P_mode13_w1_param
                0x0000000008012d60       0x19 build/VS4210_param_Modex26.o
                0x0000000008012d60                VS4210_hdmi1600x1200_720P_mode13_w1_param
 *fill*         0x0000000008012d79        0x3 
 .rodata.VS4210_hdmi1280x1024_720P_mode1_w3_param
                0x0000000008012d7c       0x19 build/VS4210_param_Modex26.o
                0x0000000008012d7c                VS4210_hdmi1280x1024_720P_mode1_w3_param
 *fill*         0x0000000008012d95        0x3 
 .rodata.VS4210_hdmi1920x1200_720P_mode13_w1_param
                0x0000000008012d98       0x19 build/VS4210_param_Modex26.o
                0x0000000008012d98                VS4210_hdmi1920x1200_720P_mode13_w1_param
 *fill*         0x0000000008012db1        0x3 
 .rodata.VS4210_hdmi1280x1024_1080P_mode6_w2_param
                0x0000000008012db4       0x19 build/VS4210_param_Modex26.o
                0x0000000008012db4                VS4210_hdmi1280x1024_1080P_mode6_w2_param
 *fill*         0x0000000008012dcd        0x3 
 .rodata.VS4210_hdmi576i_720P_mode24_w0_param
                0x0000000008012dd0       0x19 build/VS4210_param_Modex26.o
                0x0000000008012dd0                VS4210_hdmi576i_720P_mode24_w0_param
 *fill*         0x0000000008012de9        0x3 
 .rodata.VS4210_hdmi800x600_720P_mode13_w1_param
                0x0000000008012dec       0x19 build/VS4210_param_Modex26.o
                0x0000000008012dec                VS4210_hdmi800x600_720P_mode13_w1_param
 *fill*         0x0000000008012e05        0x3 
 .rodata.VS4210_hdmi480i_720P_mode2_w3_param
                0x0000000008012e08       0x19 build/VS4210_param_Modex26.o
                0x0000000008012e08                VS4210_hdmi480i_720P_mode2_w3_param
 *fill*         0x0000000008012e21        0x3 
 .rodata.VS4210_hdmi1280x800_1080P_mode6_w2_param
                0x0000000008012e24       0x19 build/VS4210_param_Modex26.o
                0x0000000008012e24                VS4210_hdmi1280x800_1080P_mode6_w2_param
 *fill*         0x0000000008012e3d        0x3 
 .rodata.VS4210_hdmi1440x900_720P_mode6_w2_param
                0x0000000008012e40       0x19 build/VS4210_param_Modex26.o
                0x0000000008012e40                VS4210_hdmi1440x900_720P_mode6_w2_param
 *fill*         0x0000000008012e59        0x3 
 .rodata.VS4210_hdmi1080i_1080P_mode1_w2_param
                0x0000000008012e5c       0x19 build/VS4210_param_Modex26.o
                0x0000000008012e5c                VS4210_hdmi1080i_1080P_mode1_w2_param
 *fill*         0x0000000008012e75        0x3 
 .rodata.VS4210_hdmi1280x768_720P_mode12_w0_param
                0x0000000008012e78       0x19 build/VS4210_param_Modex26.o
                0x0000000008012e78                VS4210_hdmi1280x768_720P_mode12_w0_param
 *fill*         0x0000000008012e91        0x3 
 .rodata.VS4210_hdmi1600x1200_1080P_mode13_w0_param
                0x0000000008012e94       0x19 build/VS4210_param_Modex26.o
                0x0000000008012e94                VS4210_hdmi1600x1200_1080P_mode13_w0_param
 *fill*         0x0000000008012ead        0x3 
 .rodata.VS4210_hdmi1600x1200_1080P_mode2_w0_param
                0x0000000008012eb0       0x19 build/VS4210_param_Modex26.o
                0x0000000008012eb0                VS4210_hdmi1600x1200_1080P_mode2_w0_param
 *fill*         0x0000000008012ec9        0x3 
 .rodata.VS4210_hdmi576i_1080P_mode2_w2_param
                0x0000000008012ecc       0x19 build/VS4210_param_Modex26.o
                0x0000000008012ecc                VS4210_hdmi576i_1080P_mode2_w2_param
 *fill*         0x0000000008012ee5        0x3 
 .rodata.VS4210_hdmi480i_1080P_mode1_w0_param
                0x0000000008012ee8       0x19 build/VS4210_param_Modex26.o
                0x0000000008012ee8                VS4210_hdmi480i_1080P_mode1_w0_param
 *fill*         0x0000000008012f01        0x3 
 .rodata.VS4210_hdmi800x600_1080P_mode6pip_w1_param
                0x0000000008012f04       0x19 build/VS4210_param_Modex26.o
                0x0000000008012f04                VS4210_hdmi800x600_1080P_mode6pip_w1_param
 *fill*         0x0000000008012f1d        0x3 
 .rodata.VS4210_hdmi720P_1080P_mode12_w0_param
                0x0000000008012f20       0x19 build/VS4210_param_Modex26.o
                0x0000000008012f20                VS4210_hdmi720P_1080P_mode12_w0_param
 *fill*         0x0000000008012f39        0x3 
 .rodata.VS4210_hdmi800x600_1080P_mode2_w0_param
                0x0000000008012f3c       0x19 build/VS4210_param_Modex26.o
                0x0000000008012f3c                VS4210_hdmi800x600_1080P_mode2_w0_param
 *fill*         0x0000000008012f55        0x3 
 .rodata.VS4210_hdmi1400x1050_720P_mode2_w1_param
                0x0000000008012f58       0x19 build/VS4210_param_Modex26.o
                0x0000000008012f58                VS4210_hdmi1400x1050_720P_mode2_w1_param
 *fill*         0x0000000008012f71        0x3 
 .rodata.VS4210_hdmi720P_720P_mode1_w2_param
                0x0000000008012f74       0x19 build/VS4210_param_Modex26.o
                0x0000000008012f74                VS4210_hdmi720P_720P_mode1_w2_param
 *fill*         0x0000000008012f8d        0x3 
 .rodata.VS4210_hdmi480P_720P_mode2_w0_param
                0x0000000008012f90       0x19 build/VS4210_param_Modex26.o
                0x0000000008012f90                VS4210_hdmi480P_720P_mode2_w0_param
 *fill*         0x0000000008012fa9        0x3 
 .rodata.VS4210_hdmi1400x1050_1080P_mode12_w1_param
                0x0000000008012fac       0x19 build/VS4210_param_Modex26.o
                0x0000000008012fac                VS4210_hdmi1400x1050_1080P_mode12_w1_param
 *fill*         0x0000000008012fc5        0x3 
 .rodata.VS4210_hdmi576i_1080P_mode1_w1_param
                0x0000000008012fc8       0x19 build/VS4210_param_Modex26.o
                0x0000000008012fc8                VS4210_hdmi576i_1080P_mode1_w1_param
 *fill*         0x0000000008012fe1        0x3 
 .rodata.VS4210_hdmi1080P_720P_mode6_w2_param
                0x0000000008012fe4       0x19 build/VS4210_param_Modex26.o
                0x0000000008012fe4                VS4210_hdmi1080P_720P_mode6_w2_param
 *fill*         0x0000000008012ffd        0x3 
 .rodata.VS4210_hdmi720P_720P_mode6_w0_param
                0x0000000008013000       0x19 build/VS4210_param_Modex26.o
                0x0000000008013000                VS4210_hdmi720P_720P_mode6_w0_param
 *fill*         0x0000000008013019        0x3 
 .rodata.VS4210_hdmi1360x768_720P_mode2_w1_param
                0x000000000801301c       0x19 build/VS4210_param_Modex26.o
                0x000000000801301c                VS4210_hdmi1360x768_720P_mode2_w1_param
 *fill*         0x0000000008013035        0x3 
 .rodata.VS4210_hdmi1080P_720P_mode6_w3_param
                0x0000000008013038       0x19 build/VS4210_param_Modex26.o
                0x0000000008013038                VS4210_hdmi1080P_720P_mode6_w3_param
 *fill*         0x0000000008013051        0x3 
 .rodata.VS4210_hdmi1600x1200_720P_mode2_w0_param
                0x0000000008013054       0x19 build/VS4210_param_Modex26.o
                0x0000000008013054                VS4210_hdmi1600x1200_720P_mode2_w0_param
 *fill*         0x000000000801306d        0x3 
 .rodata.VS4210_Addr_param
                0x0000000008013070       0x19 build/VS4210_param_Modex26.o
                0x0000000008013070                VS4210_Addr_param
 *fill*         0x0000000008013089        0x3 
 .rodata.VS4210_hdmi576P_720P_mode6_w1_param
                0x000000000801308c       0x19 build/VS4210_param_Modex26.o
                0x000000000801308c                VS4210_hdmi576P_720P_mode6_w1_param
 *fill*         0x00000000080130a5        0x3 
 .rodata.VS4210_hdmi480P_1080P_mode6_w2_param
                0x00000000080130a8       0x19 build/VS4210_param_Modex26.o
                0x00000000080130a8                VS4210_hdmi480P_1080P_mode6_w2_param
 *fill*         0x00000000080130c1        0x3 
 .rodata.VS4210_hdmi480P_720P_mode6_w0_param
                0x00000000080130c4       0x19 build/VS4210_param_Modex26.o
                0x00000000080130c4                VS4210_hdmi480P_720P_mode6_w0_param
 *fill*         0x00000000080130dd        0x3 
 .rodata.VS4210_hdmi1680x1050_720P_mode12_w0_param
                0x00000000080130e0       0x19 build/VS4210_param_Modex26.o
                0x00000000080130e0                VS4210_hdmi1680x1050_720P_mode12_w0_param
 *fill*         0x00000000080130f9        0x3 
 .rodata.VS4210_hdmi1280x800_720P_mode6_w0_param
                0x00000000080130fc       0x19 build/VS4210_param_Modex26.o
                0x00000000080130fc                VS4210_hdmi1280x800_720P_mode6_w0_param
 *fill*         0x0000000008013115        0x3 
 .rodata.VS4210_hdmi1680x1050_720P_mode1_w0_param
                0x0000000008013118       0x19 build/VS4210_param_Modex26.o
                0x0000000008013118                VS4210_hdmi1680x1050_720P_mode1_w0_param
 *fill*         0x0000000008013131        0x3 
 .rodata.VS4210_hdmi1440x900_720P_mode2_w2_param
                0x0000000008013134       0x19 build/VS4210_param_Modex26.o
                0x0000000008013134                VS4210_hdmi1440x900_720P_mode2_w2_param
 *fill*         0x000000000801314d        0x3 
 .rodata.VS4210_hdmi1280x800_1080P_mode1_w2_param
                0x0000000008013150       0x19 build/VS4210_param_Modex26.o
                0x0000000008013150                VS4210_hdmi1280x800_1080P_mode1_w2_param
 *fill*         0x0000000008013169        0x3 
 .rodata.VS4210_hdmi1600x1200_720P_mode1_w2_param
                0x000000000801316c       0x19 build/VS4210_param_Modex26.o
                0x000000000801316c                VS4210_hdmi1600x1200_720P_mode1_w2_param
 *fill*         0x0000000008013185        0x3 
 .rodata.VS4210_hdmi1280x768_720P_mode24_w1_param
                0x0000000008013188       0x19 build/VS4210_param_Modex26.o
                0x0000000008013188                VS4210_hdmi1280x768_720P_mode24_w1_param
 *fill*         0x00000000080131a1        0x3 
 .rodata.VS4210_hdmi640x480_720P_mode2_w3_param
                0x00000000080131a4       0x19 build/VS4210_param_Modex26.o
                0x00000000080131a4                VS4210_hdmi640x480_720P_mode2_w3_param
 *fill*         0x00000000080131bd        0x3 
 .rodata.VS4210_hdmi720P_1080P_mode1_w0_param
                0x00000000080131c0       0x19 build/VS4210_param_Modex26.o
                0x00000000080131c0                VS4210_hdmi720P_1080P_mode1_w0_param
 *fill*         0x00000000080131d9        0x3 
 .rodata.VS4210_hdmi1280x1024_720P_mode2_w0_param
                0x00000000080131dc       0x19 build/VS4210_param_Modex26.o
                0x00000000080131dc                VS4210_hdmi1280x1024_720P_mode2_w0_param
 *fill*         0x00000000080131f5        0x3 
 .rodata.VS4210_hdmi480P_1080P_mode2_w0_param
                0x00000000080131f8       0x19 build/VS4210_param_Modex26.o
                0x00000000080131f8                VS4210_hdmi480P_1080P_mode2_w0_param
 *fill*         0x0000000008013211        0x3 
 .rodata.VS4210_hdmi1600x1200_1080P_mode6_w2_param
                0x0000000008013214       0x19 build/VS4210_param_Modex26.o
                0x0000000008013214                VS4210_hdmi1600x1200_1080P_mode6_w2_param
 *fill*         0x000000000801322d        0x3 
 .rodata.VS4210_hdmi1400x1050_1080P_mode2_w1_param
                0x0000000008013230       0x19 build/VS4210_param_Modex26.o
                0x0000000008013230                VS4210_hdmi1400x1050_1080P_mode2_w1_param
 *fill*         0x0000000008013249        0x3 
 .rodata.VS4210_hdmi1920x1200_720P_mode1_w3_param
                0x000000000801324c       0x19 build/VS4210_param_Modex26.o
                0x000000000801324c                VS4210_hdmi1920x1200_720P_mode1_w3_param
 *fill*         0x0000000008013265        0x3 
 .rodata.VS4210_hdmi1360x768_1080P_mode6pip_w2_param
                0x0000000008013268       0x19 build/VS4210_param_Modex26.o
                0x0000000008013268                VS4210_hdmi1360x768_1080P_mode6pip_w2_param
 *fill*         0x0000000008013281        0x3 
 .rodata.VS4210_hdmi800x600_1080P_mode6_w2_param
                0x0000000008013284       0x19 build/VS4210_param_Modex26.o
                0x0000000008013284                VS4210_hdmi800x600_1080P_mode6_w2_param
 *fill*         0x000000000801329d        0x3 
 .rodata.VS4210_hdmi1920x1200_1080P_mode13_w1_param
                0x00000000080132a0       0x19 build/VS4210_param_Modex26.o
                0x00000000080132a0                VS4210_hdmi1920x1200_1080P_mode13_w1_param
 *fill*         0x00000000080132b9        0x3 
 .rodata.VS4210_hdmi576P_720P_mode12_w1_param
                0x00000000080132bc       0x19 build/VS4210_param_Modex26.o
                0x00000000080132bc                VS4210_hdmi576P_720P_mode12_w1_param
 *fill*         0x00000000080132d5        0x3 
 .rodata.VS4210_hdmi576i_1080P_mode2_w1_param
                0x00000000080132d8       0x19 build/VS4210_param_Modex26.o
                0x00000000080132d8                VS4210_hdmi576i_1080P_mode2_w1_param
 *fill*         0x00000000080132f1        0x3 
 .rodata.VS4210_hdmi1280x768_1080P_mode12_w1_param
                0x00000000080132f4       0x19 build/VS4210_param_Modex26.o
                0x00000000080132f4                VS4210_hdmi1280x768_1080P_mode12_w1_param
 *fill*         0x000000000801330d        0x3 
 .rodata.VS4210_hdmi1400x1050_720P_mode13_w1_param
                0x0000000008013310       0x19 build/VS4210_param_Modex26.o
                0x0000000008013310                VS4210_hdmi1400x1050_720P_mode13_w1_param
 *fill*         0x0000000008013329        0x3 
 .rodata.VS4210_hdmi1920x1200_720P_mode13_w0_param
                0x000000000801332c       0x19 build/VS4210_param_Modex26.o
                0x000000000801332c                VS4210_hdmi1920x1200_720P_mode13_w0_param
 *fill*         0x0000000008013345        0x3 
 .rodata.VS4210_hdmi576i_720P_mode1_w1_param
                0x0000000008013348       0x19 build/VS4210_param_Modex26.o
                0x0000000008013348                VS4210_hdmi576i_720P_mode1_w1_param
 *fill*         0x0000000008013361        0x3 
 .rodata.VS4210_hdmi576i_1080P_mode1_w0_param
                0x0000000008013364       0x19 build/VS4210_param_Modex26.o
                0x0000000008013364                VS4210_hdmi576i_1080P_mode1_w0_param
 *fill*         0x000000000801337d        0x3 
 .rodata.VS4210_hdmi1280x1024_1080P_mode6_w1_param
                0x0000000008013380       0x19 build/VS4210_param_Modex26.o
                0x0000000008013380                VS4210_hdmi1280x1024_1080P_mode6_w1_param
 *fill*         0x0000000008013399        0x3 
 .rodata.VS4210_hdmi1360x768_720P_mode12_w1_param
                0x000000000801339c       0x19 build/VS4210_param_Modex26.o
                0x000000000801339c                VS4210_hdmi1360x768_720P_mode12_w1_param
 *fill*         0x00000000080133b5        0x3 
 .rodata.VS4210_hdmi1400x1050_1080P_mode2_w3_param
                0x00000000080133b8       0x19 build/VS4210_param_Modex26.o
                0x00000000080133b8                VS4210_hdmi1400x1050_1080P_mode2_w3_param
 *fill*         0x00000000080133d1        0x3 
 .rodata.VS4210_hdmi1680x1050_1080P_mode2_w0_param
                0x00000000080133d4       0x19 build/VS4210_param_Modex26.o
                0x00000000080133d4                VS4210_hdmi1680x1050_1080P_mode2_w0_param
 *fill*         0x00000000080133ed        0x3 
 .rodata.VS4210_hdmi1680x1050_720P_mode2_w2_param
                0x00000000080133f0       0x19 build/VS4210_param_Modex26.o
                0x00000000080133f0                VS4210_hdmi1680x1050_720P_mode2_w2_param
 *fill*         0x0000000008013409        0x3 
 .rodata.VS4210_hdmi1680x1050_1080P_mode1_w1_param
                0x000000000801340c       0x19 build/VS4210_param_Modex26.o
                0x000000000801340c                VS4210_hdmi1680x1050_1080P_mode1_w1_param
 *fill*         0x0000000008013425        0x3 
 .rodata.VS4210_hdmi1360x768_720P_mode2_w0_param
                0x0000000008013428       0x19 build/VS4210_param_Modex26.o
                0x0000000008013428                VS4210_hdmi1360x768_720P_mode2_w0_param
 *fill*         0x0000000008013441        0x3 
 .rodata.VS4210_hdmi1080i_720P_mode1_w3_param
                0x0000000008013444       0x19 build/VS4210_param_Modex26.o
                0x0000000008013444                VS4210_hdmi1080i_720P_mode1_w3_param
 *fill*         0x000000000801345d        0x3 
 .rodata.VS4210_hdmi1280x800_1080P_mode12_w0_param
                0x0000000008013460       0x19 build/VS4210_param_Modex26.o
                0x0000000008013460                VS4210_hdmi1280x800_1080P_mode12_w0_param
 *fill*         0x0000000008013479        0x3 
 .rodata.VS4210_hdmi1400x1050_1080P_mode6_w1_param
                0x000000000801347c       0x19 build/VS4210_param_Modex26.o
                0x000000000801347c                VS4210_hdmi1400x1050_1080P_mode6_w1_param
 *fill*         0x0000000008013495        0x3 
 .rodata.VS4210_hdmi1600x1200_720P_mode24_w1_param
                0x0000000008013498       0x19 build/VS4210_param_Modex26.o
                0x0000000008013498                VS4210_hdmi1600x1200_720P_mode24_w1_param
 *fill*         0x00000000080134b1        0x3 
 .rodata.VS4210_hdmi1920x1200_1080P_mode1_w2_param
                0x00000000080134b4       0x19 build/VS4210_param_Modex26.o
                0x00000000080134b4                VS4210_hdmi1920x1200_1080P_mode1_w2_param
 *fill*         0x00000000080134cd        0x3 
 .rodata.VS4210_hdmi480i_720P_mode1_w0_param
                0x00000000080134d0       0x19 build/VS4210_param_Modex26.o
                0x00000000080134d0                VS4210_hdmi480i_720P_mode1_w0_param
 *fill*         0x00000000080134e9        0x3 
 .rodata.VS4210_hdmi480P_1080P_mode6pip_w2_param
                0x00000000080134ec       0x19 build/VS4210_param_Modex26.o
                0x00000000080134ec                VS4210_hdmi480P_1080P_mode6pip_w2_param
 *fill*         0x0000000008013505        0x3 
 .rodata.VS4210_hdmi800x600_720P_mode24_w1_param
                0x0000000008013508       0x19 build/VS4210_param_Modex26.o
                0x0000000008013508                VS4210_hdmi800x600_720P_mode24_w1_param
 *fill*         0x0000000008013521        0x3 
 .rodata.VS4210_hdmi1080P_720P_mode13_w1_param
                0x0000000008013524       0x19 build/VS4210_param_Modex26.o
                0x0000000008013524                VS4210_hdmi1080P_720P_mode13_w1_param
 *fill*         0x000000000801353d        0x3 
 .rodata.VS4210_hdmi1280x768_1080P_mode2_w0_param
                0x0000000008013540       0x19 build/VS4210_param_Modex26.o
                0x0000000008013540                VS4210_hdmi1280x768_1080P_mode2_w0_param
 *fill*         0x0000000008013559        0x3 
 .rodata.VS4210_hdmi1366x768_1080P_mode2_w3_param
                0x000000000801355c       0x19 build/VS4210_param_Modex26.o
                0x000000000801355c                VS4210_hdmi1366x768_1080P_mode2_w3_param
 *fill*         0x0000000008013575        0x3 
 .rodata.VS4210_hdmi1280x1024_720P_mode12_w1_param
                0x0000000008013578       0x19 build/VS4210_param_Modex26.o
                0x0000000008013578                VS4210_hdmi1280x1024_720P_mode12_w1_param
 *fill*         0x0000000008013591        0x3 
 .rodata.VS4210_hdmi1280x1024_720P_mode2_w2_param
                0x0000000008013594       0x19 build/VS4210_param_Modex26.o
                0x0000000008013594                VS4210_hdmi1280x1024_720P_mode2_w2_param
 *fill*         0x00000000080135ad        0x3 
 .rodata.VS4210_hdmi576i_1080P_mode6_w3_param
                0x00000000080135b0       0x19 build/VS4210_param_Modex26.o
                0x00000000080135b0                VS4210_hdmi576i_1080P_mode6_w3_param
 *fill*         0x00000000080135c9        0x3 
 .rodata.VS4210_hdmi576P_1080P_mode1_w2_param
                0x00000000080135cc       0x19 build/VS4210_param_Modex26.o
                0x00000000080135cc                VS4210_hdmi576P_1080P_mode1_w2_param
 *fill*         0x00000000080135e5        0x3 
 .rodata.VS4210_hdmi480i_1080P_mode12_w1_param
                0x00000000080135e8       0x19 build/VS4210_param_Modex26.o
                0x00000000080135e8                VS4210_hdmi480i_1080P_mode12_w1_param
 *fill*         0x0000000008013601        0x3 
 .rodata.VS4210_hdmi1280x768_720P_mode1_w0_param
                0x0000000008013604       0x19 build/VS4210_param_Modex26.o
                0x0000000008013604                VS4210_hdmi1280x768_720P_mode1_w0_param
 *fill*         0x000000000801361d        0x3 
 .rodata.VS4210_hdmi640x480_720P_mode12_w0_param
                0x0000000008013620       0x19 build/VS4210_param_Modex26.o
                0x0000000008013620                VS4210_hdmi640x480_720P_mode12_w0_param
 *fill*         0x0000000008013639        0x3 
 .rodata.VS4210_hdmi1366x768_1080P_mode1_w0_param
                0x000000000801363c       0x19 build/VS4210_param_Modex26.o
                0x000000000801363c                VS4210_hdmi1366x768_1080P_mode1_w0_param
 *fill*         0x0000000008013655        0x3 
 .rodata.VS4210_hdmi480i_720P_mode12_w1_param
                0x0000000008013658       0x19 build/VS4210_param_Modex26.o
                0x0000000008013658                VS4210_hdmi480i_720P_mode12_w1_param
 *fill*         0x0000000008013671        0x3 
 .rodata.VS4210_hdmi1280x1024_1080P_mode6pip_w2_param
                0x0000000008013674       0x19 build/VS4210_param_Modex26.o
                0x0000000008013674                VS4210_hdmi1280x1024_1080P_mode6pip_w2_param
 *fill*         0x000000000801368d        0x3 
 .rodata.VS4210_hdmi480i_1080P_mode6pip_w1_param
                0x0000000008013690       0x19 build/VS4210_param_Modex26.o
                0x0000000008013690                VS4210_hdmi480i_1080P_mode6pip_w1_param
 *fill*         0x00000000080136a9        0x3 
 .rodata.VS4210_hdmi1280x800_720P_mode24_w1_param
                0x00000000080136ac       0x19 build/VS4210_param_Modex26.o
                0x00000000080136ac                VS4210_hdmi1280x800_720P_mode24_w1_param
 *fill*         0x00000000080136c5        0x3 
 .rodata.VS4210_hdmi1080i_1080P_mode2_w0_param
                0x00000000080136c8       0x19 build/VS4210_param_Modex26.o
                0x00000000080136c8                VS4210_hdmi1080i_1080P_mode2_w0_param
 *fill*         0x00000000080136e1        0x3 
 .rodata.VS4210_hdmi640x480_1080P_mode6pip_w1_param
                0x00000000080136e4       0x19 build/VS4210_param_Modex26.o
                0x00000000080136e4                VS4210_hdmi640x480_1080P_mode6pip_w1_param
 *fill*         0x00000000080136fd        0x3 
 .rodata.VS4210_hdmi1080i_720P_mode12_w1_param
                0x0000000008013700       0x19 build/VS4210_param_Modex26.o
                0x0000000008013700                VS4210_hdmi1080i_720P_mode12_w1_param
 *fill*         0x0000000008013719        0x3 
 .rodata.VS4210_hdmi1080P_1080P_mode1_w3_param
                0x000000000801371c       0x19 build/VS4210_param_Modex26.o
                0x000000000801371c                VS4210_hdmi1080P_1080P_mode1_w3_param
 *fill*         0x0000000008013735        0x3 
 .rodata.VS4210_hdmi800x600_720P_mode12_w0_param
                0x0000000008013738       0x19 build/VS4210_param_Modex26.o
                0x0000000008013738                VS4210_hdmi800x600_720P_mode12_w0_param
 *fill*         0x0000000008013751        0x3 
 .rodata.VS4210_hdmi576i_1080P_mode13_w0_param
                0x0000000008013754       0x19 build/VS4210_param_Modex26.o
                0x0000000008013754                VS4210_hdmi576i_1080P_mode13_w0_param
 *fill*         0x000000000801376d        0x3 
 .rodata.VS4210_hdmi1360x768_1080P_mode6_w2_param
                0x0000000008013770       0x19 build/VS4210_param_Modex26.o
                0x0000000008013770                VS4210_hdmi1360x768_1080P_mode6_w2_param
 *fill*         0x0000000008013789        0x3 
 .rodata.VS4210_hdmi1920x1200_1080P_mode6_w1_param
                0x000000000801378c       0x19 build/VS4210_param_Modex26.o
                0x000000000801378c                VS4210_hdmi1920x1200_1080P_mode6_w1_param
 *fill*         0x00000000080137a5        0x3 
 .rodata.VS4210_hdmi1680x1050_1080P_mode12_w1_param
                0x00000000080137a8       0x19 build/VS4210_param_Modex26.o
                0x00000000080137a8                VS4210_hdmi1680x1050_1080P_mode12_w1_param
 *fill*         0x00000000080137c1        0x3 
 .rodata.VS4210_hdmi480P_720P_mode24_w1_param
                0x00000000080137c4       0x19 build/VS4210_param_Modex26.o
                0x00000000080137c4                VS4210_hdmi480P_720P_mode24_w1_param
 *fill*         0x00000000080137dd        0x3 
 .rodata.VS4210_hdmi720P_720P_mode2_w0_param
                0x00000000080137e0       0x19 build/VS4210_param_Modex26.o
                0x00000000080137e0                VS4210_hdmi720P_720P_mode2_w0_param
 *fill*         0x00000000080137f9        0x3 
 .rodata.VS4210_hdmi1080P_1080P_mode6pip_w3_param
                0x00000000080137fc       0x19 build/VS4210_param_Modex26.o
                0x00000000080137fc                VS4210_hdmi1080P_1080P_mode6pip_w3_param
 *fill*         0x0000000008013815        0x3 
 .rodata.VS4210_hdmi1080P_720P_mode2_w3_param
                0x0000000008013818       0x19 build/VS4210_param_Modex26.o
                0x0000000008013818                VS4210_hdmi1080P_720P_mode2_w3_param
 *fill*         0x0000000008013831        0x3 
 .rodata.VS4210_hdmi576P_720P_mode2_w1_param
                0x0000000008013834       0x19 build/VS4210_param_Modex26.o
                0x0000000008013834                VS4210_hdmi576P_720P_mode2_w1_param
 *fill*         0x000000000801384d        0x3 
 .rodata.VS4210_hdmi640x480_720P_mode1_w0_param
                0x0000000008013850       0x19 build/VS4210_param_Modex26.o
                0x0000000008013850                VS4210_hdmi640x480_720P_mode1_w0_param
 *fill*         0x0000000008013869        0x3 
 .rodata.VS4210_hdmi1440x900_1080P_mode1_w1_param
                0x000000000801386c       0x19 build/VS4210_param_Modex26.o
                0x000000000801386c                VS4210_hdmi1440x900_1080P_mode1_w1_param
 *fill*         0x0000000008013885        0x3 
 .rodata.VS4210_hdmi480i_1080P_mode6pip_w3_param
                0x0000000008013888       0x19 build/VS4210_param_Modex26.o
                0x0000000008013888                VS4210_hdmi480i_1080P_mode6pip_w3_param
 *fill*         0x00000000080138a1        0x3 
 .rodata.VS4210_hdmi1280x1024_1080P_mode12_w0_param
                0x00000000080138a4       0x19 build/VS4210_param_Modex26.o
                0x00000000080138a4                VS4210_hdmi1280x1024_1080P_mode12_w0_param
 *fill*         0x00000000080138bd        0x3 
 .rodata.VS4210_hdmi640x480_1080P_mode6pip_w3_param
                0x00000000080138c0       0x19 build/VS4210_param_Modex26.o
                0x00000000080138c0                VS4210_hdmi640x480_1080P_mode6pip_w3_param
 *fill*         0x00000000080138d9        0x3 
 .rodata.VS4210_hdmi1280x768_1080P_mode2_w3_param
                0x00000000080138dc       0x19 build/VS4210_param_Modex26.o
                0x00000000080138dc                VS4210_hdmi1280x768_1080P_mode2_w3_param
 *fill*         0x00000000080138f5        0x3 
 .rodata.VS4210_hdmi800x600_1080P_mode13_w1_param
                0x00000000080138f8       0x19 build/VS4210_param_Modex26.o
                0x00000000080138f8                VS4210_hdmi800x600_1080P_mode13_w1_param
 *fill*         0x0000000008013911        0x3 
 .rodata.VS4210_hdmi720P_720P_mode12_w1_param
                0x0000000008013914       0x19 build/VS4210_param_Modex26.o
                0x0000000008013914                VS4210_hdmi720P_720P_mode12_w1_param
 *fill*         0x000000000801392d        0x3 
 .rodata.VS4210_hdmi1440x900_720P_mode2_w0_param
                0x0000000008013930       0x19 build/VS4210_param_Modex26.o
                0x0000000008013930                VS4210_hdmi1440x900_720P_mode2_w0_param
 *fill*         0x0000000008013949        0x3 
 .rodata.VS4210_hdmi1080i_1080P_mode13_w1_param
                0x000000000801394c       0x19 build/VS4210_param_Modex26.o
                0x000000000801394c                VS4210_hdmi1080i_1080P_mode13_w1_param
 *fill*         0x0000000008013965        0x3 
 .rodata.VS4210_hdmi1024x768_720P_mode1_w1_param
                0x0000000008013968       0x19 build/VS4210_param_Modex26.o
                0x0000000008013968                VS4210_hdmi1024x768_720P_mode1_w1_param
 *fill*         0x0000000008013981        0x3 
 .rodata.VS4210_hdmi640x480_1080P_mode1_w1_param
                0x0000000008013984       0x19 build/VS4210_param_Modex26.o
                0x0000000008013984                VS4210_hdmi640x480_1080P_mode1_w1_param
 *fill*         0x000000000801399d        0x3 
 .rodata.VS4210_hdmi1280x800_1080P_mode12_w1_param
                0x00000000080139a0       0x19 build/VS4210_param_Modex26.o
                0x00000000080139a0                VS4210_hdmi1280x800_1080P_mode12_w1_param
 *fill*         0x00000000080139b9        0x3 
 .rodata.VS4210_hdmi480i_1080P_mode1_w2_param
                0x00000000080139bc       0x19 build/VS4210_param_Modex26.o
                0x00000000080139bc                VS4210_hdmi480i_1080P_mode1_w2_param
 *fill*         0x00000000080139d5        0x3 
 .rodata.VS4210_hdmi800x600_1080P_mode6pip_w3_param
                0x00000000080139d8       0x19 build/VS4210_param_Modex26.o
                0x00000000080139d8                VS4210_hdmi800x600_1080P_mode6pip_w3_param
 *fill*         0x00000000080139f1        0x3 
 .rodata.VS4210_hdmi1080P_1080P_mode1_w1_param
                0x00000000080139f4       0x19 build/VS4210_param_Modex26.o
                0x00000000080139f4                VS4210_hdmi1080P_1080P_mode1_w1_param
 *fill*         0x0000000008013a0d        0x3 
 .rodata.VS4210_hdmi800x600_1080P_mode2_w2_param
                0x0000000008013a10       0x19 build/VS4210_param_Modex26.o
                0x0000000008013a10                VS4210_hdmi800x600_1080P_mode2_w2_param
 *fill*         0x0000000008013a29        0x3 
 .rodata.VS4210_hdmi1920x1200_720P_mode24_w0_param
                0x0000000008013a2c       0x19 build/VS4210_param_Modex26.o
                0x0000000008013a2c                VS4210_hdmi1920x1200_720P_mode24_w0_param
 *fill*         0x0000000008013a45        0x3 
 .rodata.VS4210_hdmi480P_720P_mode2_w2_param
                0x0000000008013a48       0x19 build/VS4210_param_Modex26.o
                0x0000000008013a48                VS4210_hdmi480P_720P_mode2_w2_param
 *fill*         0x0000000008013a61        0x3 
 .rodata.VS4210_hdmi1920x1200_720P_mode2_w1_param
                0x0000000008013a64       0x19 build/VS4210_param_Modex26.o
                0x0000000008013a64                VS4210_hdmi1920x1200_720P_mode2_w1_param
 *fill*         0x0000000008013a7d        0x3 
 .rodata.VS4210_hdmi1280x800_720P_mode2_w2_param
                0x0000000008013a80       0x19 build/VS4210_param_Modex26.o
                0x0000000008013a80                VS4210_hdmi1280x800_720P_mode2_w2_param
 *fill*         0x0000000008013a99        0x3 
 .rodata.VS4210_hdmi1400x1050_1080P_mode1_w0_param
                0x0000000008013a9c       0x19 build/VS4210_param_Modex26.o
                0x0000000008013a9c                VS4210_hdmi1400x1050_1080P_mode1_w0_param
 *fill*         0x0000000008013ab5        0x3 
 .rodata.VS4210_hdmi1280x1024_720P_mode12_w0_param
                0x0000000008013ab8       0x19 build/VS4210_param_Modex26.o
                0x0000000008013ab8                VS4210_hdmi1280x1024_720P_mode12_w0_param
 *fill*         0x0000000008013ad1        0x3 
 .rodata.VS4210_hdmi640x480_1080P_mode13_w1_param
                0x0000000008013ad4       0x19 build/VS4210_param_Modex26.o
                0x0000000008013ad4                VS4210_hdmi640x480_1080P_mode13_w1_param
 *fill*         0x0000000008013aed        0x3 
 .rodata.VS4210_hdmi1280x768_720P_mode2_w1_param
                0x0000000008013af0       0x19 build/VS4210_param_Modex26.o
                0x0000000008013af0                VS4210_hdmi1280x768_720P_mode2_w1_param
 *fill*         0x0000000008013b09        0x3 
 .rodata.VS4210_hdmi1280x800_720P_mode12_w0_param
                0x0000000008013b0c       0x19 build/VS4210_param_Modex26.o
                0x0000000008013b0c                VS4210_hdmi1280x800_720P_mode12_w0_param
 *fill*         0x0000000008013b25        0x3 
 .rodata.VS4210_hdmi1024x768_720P_mode6_w0_param
                0x0000000008013b28       0x19 build/VS4210_param_Modex26.o
                0x0000000008013b28                VS4210_hdmi1024x768_720P_mode6_w0_param
 *fill*         0x0000000008013b41        0x3 
 .rodata.VS4210_hdmi576P_720P_mode6_w3_param
                0x0000000008013b44       0x19 build/VS4210_param_Modex26.o
                0x0000000008013b44                VS4210_hdmi576P_720P_mode6_w3_param
 *fill*         0x0000000008013b5d        0x3 
 .rodata.VS4210_hdmi480P_720P_mode6_w2_param
                0x0000000008013b60       0x19 build/VS4210_param_Modex26.o
                0x0000000008013b60                VS4210_hdmi480P_720P_mode6_w2_param
 *fill*         0x0000000008013b79        0x3 
 .rodata.VS4210_hdmi1280x800_720P_mode6_w2_param
                0x0000000008013b7c       0x19 build/VS4210_param_Modex26.o
                0x0000000008013b7c                VS4210_hdmi1280x800_720P_mode6_w2_param
 *fill*         0x0000000008013b95        0x3 
 .rodata.VS4210_hdmi1680x1050_720P_mode1_w2_param
                0x0000000008013b98       0x19 build/VS4210_param_Modex26.o
                0x0000000008013b98                VS4210_hdmi1680x1050_720P_mode1_w2_param
 *fill*         0x0000000008013bb1        0x3 
 .rodata.VS4210_hdmi576i_720P_mode6_w3_param
                0x0000000008013bb4       0x19 build/VS4210_param_Modex26.o
                0x0000000008013bb4                VS4210_hdmi576i_720P_mode6_w3_param
 *fill*         0x0000000008013bcd        0x3 
 .rodata.VS4210_hdmi1680x1050_1080P_mode6pip_w0_param
                0x0000000008013bd0       0x19 build/VS4210_param_Modex26.o
                0x0000000008013bd0                VS4210_hdmi1680x1050_1080P_mode6pip_w0_param
 *fill*         0x0000000008013be9        0x3 
 .rodata.VS4210_hdmi720P_1080P_mode1_w2_param
                0x0000000008013bec       0x19 build/VS4210_param_Modex26.o
                0x0000000008013bec                VS4210_hdmi720P_1080P_mode1_w2_param
 *fill*         0x0000000008013c05        0x3 
 .rodata.VS4210_hdmi480P_1080P_mode2_w2_param
                0x0000000008013c08       0x19 build/VS4210_param_Modex26.o
                0x0000000008013c08                VS4210_hdmi480P_1080P_mode2_w2_param
 *fill*         0x0000000008013c21        0x3 
 .rodata.VS4210_hdmi1280x768_1080P_mode1_w3_param
                0x0000000008013c24       0x19 build/VS4210_param_Modex26.o
                0x0000000008013c24                VS4210_hdmi1280x768_1080P_mode1_w3_param
 *fill*         0x0000000008013c3d        0x3 
 .rodata.VS4210_hdmi1366x768_1080P_mode1_w3_param
                0x0000000008013c40       0x19 build/VS4210_param_Modex26.o
                0x0000000008013c40                VS4210_hdmi1366x768_1080P_mode1_w3_param
 *fill*         0x0000000008013c59        0x3 
 .rodata.VS4210_hdmi1600x1200_720P_mode6_w2_param
                0x0000000008013c5c       0x19 build/VS4210_param_Modex26.o
                0x0000000008013c5c                VS4210_hdmi1600x1200_720P_mode6_w2_param
 *fill*         0x0000000008013c75        0x3 
 .rodata.VS4210_hdmi1024x768_720P_mode12_w0_param
                0x0000000008013c78       0x19 build/VS4210_param_Modex26.o
                0x0000000008013c78                VS4210_hdmi1024x768_720P_mode12_w0_param
 *fill*         0x0000000008013c91        0x3 
 .rodata.VS4210_hdmi480P_720P_mode12_w1_param
                0x0000000008013c94       0x19 build/VS4210_param_Modex26.o
                0x0000000008013c94                VS4210_hdmi480P_720P_mode12_w1_param
 *fill*         0x0000000008013cad        0x3 
 .rodata.VS4210_hdmi1024x768_720P_mode1_w3_param
                0x0000000008013cb0       0x19 build/VS4210_param_Modex26.o
                0x0000000008013cb0                VS4210_hdmi1024x768_720P_mode1_w3_param
 *fill*         0x0000000008013cc9        0x3 
 .rodata.VS4210_hdmi1366x768_1080P_mode2_w1_param
                0x0000000008013ccc       0x19 build/VS4210_param_Modex26.o
                0x0000000008013ccc                VS4210_hdmi1366x768_1080P_mode2_w1_param
 *fill*         0x0000000008013ce5        0x3 
 .rodata.VS4210_hdmi576i_1080P_mode2_w3_param
                0x0000000008013ce8       0x19 build/VS4210_param_Modex26.o
                0x0000000008013ce8                VS4210_hdmi576i_1080P_mode2_w3_param
 *fill*         0x0000000008013d01        0x3 
 .rodata.VS4210_hdmi1280x1024_720P_mode24_w1_param
                0x0000000008013d04       0x19 build/VS4210_param_Modex26.o
                0x0000000008013d04                VS4210_hdmi1280x1024_720P_mode24_w1_param
 *fill*         0x0000000008013d1d        0x3 
 .rodata.VS4210_hdmi1080i_1080P_mode12_w1_param
                0x0000000008013d20       0x19 build/VS4210_param_Modex26.o
                0x0000000008013d20                VS4210_hdmi1080i_1080P_mode12_w1_param
 *fill*         0x0000000008013d39        0x3 
 .rodata.VS4210_hdmi1366x768_720P_mode6_w2_param
                0x0000000008013d3c       0x19 build/VS4210_param_Modex26.o
                0x0000000008013d3c                VS4210_hdmi1366x768_720P_mode6_w2_param
 *fill*         0x0000000008013d55        0x3 
 .rodata.VS4210_hdmi1080i_720P_mode6_w1_param
                0x0000000008013d58       0x19 build/VS4210_param_Modex26.o
                0x0000000008013d58                VS4210_hdmi1080i_720P_mode6_w1_param
 *fill*         0x0000000008013d71        0x3 
 .rodata.VS4210_hdmi1280x1024_1080P_mode6pip_w3_param
                0x0000000008013d74       0x19 build/VS4210_param_Modex26.o
                0x0000000008013d74                VS4210_hdmi1280x1024_1080P_mode6pip_w3_param
 *fill*         0x0000000008013d8d        0x3 
 .rodata.VS4210_hdmi1080P_1080P_mode6pip_w2_param
                0x0000000008013d90       0x19 build/VS4210_param_Modex26.o
                0x0000000008013d90                VS4210_hdmi1080P_1080P_mode6pip_w2_param
 *fill*         0x0000000008013da9        0x3 
 .rodata.VS4210_hdmi1366x768_1080P_mode6pip_w2_param
                0x0000000008013dac       0x19 build/VS4210_param_Modex26.o
                0x0000000008013dac                VS4210_hdmi1366x768_1080P_mode6pip_w2_param
 *fill*         0x0000000008013dc5        0x3 
 .rodata.VS4210_hdmi576P_1080P_mode2_w0_param
                0x0000000008013dc8       0x19 build/VS4210_param_Modex26.o
                0x0000000008013dc8                VS4210_hdmi576P_1080P_mode2_w0_param
 *fill*         0x0000000008013de1        0x3 
 .rodata.VS4210_hdmi1920x1200_1080P_mode6_w0_param
                0x0000000008013de4       0x19 build/VS4210_param_Modex26.o
                0x0000000008013de4                VS4210_hdmi1920x1200_1080P_mode6_w0_param
 *fill*         0x0000000008013dfd        0x3 
 .rodata.VS4210_hdmi1080P_720P_mode1_w0_param
                0x0000000008013e00       0x19 build/VS4210_param_Modex26.o
                0x0000000008013e00                VS4210_hdmi1080P_720P_mode1_w0_param
 *fill*         0x0000000008013e19        0x3 
 .rodata.VS4210_hdmi1080i_720P_mode13_w1_param
                0x0000000008013e1c       0x19 build/VS4210_param_Modex26.o
                0x0000000008013e1c                VS4210_hdmi1080i_720P_mode13_w1_param
 *fill*         0x0000000008013e35        0x3 
 .rodata.VS4210_hdmi1680x1050_1080P_mode1_w3_param
                0x0000000008013e38       0x19 build/VS4210_param_Modex26.o
                0x0000000008013e38                VS4210_hdmi1680x1050_1080P_mode1_w3_param
 *fill*         0x0000000008013e51        0x3 
 .rodata.VS4210_hdmi1280x768_720P_mode24_w0_param
                0x0000000008013e54       0x19 build/VS4210_param_Modex26.o
                0x0000000008013e54                VS4210_hdmi1280x768_720P_mode24_w0_param
 *fill*         0x0000000008013e6d        0x3 
 .rodata.VS4210_hdmi1920x1200_1080P_mode2_w1_param
                0x0000000008013e70       0x19 build/VS4210_param_Modex26.o
                0x0000000008013e70                VS4210_hdmi1920x1200_1080P_mode2_w1_param
 *fill*         0x0000000008013e89        0x3 
 .rodata.VS4210_hdmi1366x768_720P_mode12_w1_param
                0x0000000008013e8c       0x19 build/VS4210_param_Modex26.o
                0x0000000008013e8c                VS4210_hdmi1366x768_720P_mode12_w1_param
 *fill*         0x0000000008013ea5        0x3 
 .rodata.VS4210_hdmi1440x900_720P_mode13_w0_param
                0x0000000008013ea8       0x19 build/VS4210_param_Modex26.o
                0x0000000008013ea8                VS4210_hdmi1440x900_720P_mode13_w0_param
 *fill*         0x0000000008013ec1        0x3 
 .rodata.VS4210_hdmi576i_720P_mode1_w3_param
                0x0000000008013ec4       0x19 build/VS4210_param_Modex26.o
                0x0000000008013ec4                VS4210_hdmi576i_720P_mode1_w3_param
 *fill*         0x0000000008013edd        0x3 
 .rodata.VS4210_hdmi576P_1080P_mode6_w0_param
                0x0000000008013ee0       0x19 build/VS4210_param_Modex26.o
                0x0000000008013ee0                VS4210_hdmi576P_1080P_mode6_w0_param
 *fill*         0x0000000008013ef9        0x3 
 .rodata.VS4210_hdmi480i_720P_mode1_w2_param
                0x0000000008013efc       0x19 build/VS4210_param_Modex26.o
                0x0000000008013efc                VS4210_hdmi480i_720P_mode1_w2_param
 *fill*         0x0000000008013f15        0x3 
 .rodata.VS4210_hdmi1360x768_1080P_mode2_w2_param
                0x0000000008013f18       0x19 build/VS4210_param_Modex26.o
                0x0000000008013f18                VS4210_hdmi1360x768_1080P_mode2_w2_param
 *fill*         0x0000000008013f31        0x3 
 .rodata.VS4210_hdmi480P_1080P_mode13_w1_param
                0x0000000008013f34       0x19 build/VS4210_param_Modex26.o
                0x0000000008013f34                VS4210_hdmi480P_1080P_mode13_w1_param
 *fill*         0x0000000008013f4d        0x3 
 .rodata.VS4210_hdmi720P_720P_mode12_w0_param
                0x0000000008013f50       0x19 build/VS4210_param_Modex26.o
                0x0000000008013f50                VS4210_hdmi720P_720P_mode12_w0_param
 *fill*         0x0000000008013f69        0x3 
 .rodata.VS4210_hdmi1080P_1080P_mode13_w0_param
                0x0000000008013f6c       0x19 build/VS4210_param_Modex26.o
                0x0000000008013f6c                VS4210_hdmi1080P_1080P_mode13_w0_param
 *fill*         0x0000000008013f85        0x3 
 .rodata.VS4210_hdmi1360x768_1080P_mode12_w1_param
                0x0000000008013f88       0x19 build/VS4210_param_Modex26.o
                0x0000000008013f88                VS4210_hdmi1360x768_1080P_mode12_w1_param
 *fill*         0x0000000008013fa1        0x3 
 .rodata.VS4210_hdmi480i_720P_mode6_w0_param
                0x0000000008013fa4       0x19 build/VS4210_param_Modex26.o
                0x0000000008013fa4                VS4210_hdmi480i_720P_mode6_w0_param
 *fill*         0x0000000008013fbd        0x3 
 .rodata.VS4210_hdmi1440x900_1080P_mode13_w0_param
                0x0000000008013fc0       0x19 build/VS4210_param_Modex26.o
                0x0000000008013fc0                VS4210_hdmi1440x900_1080P_mode13_w0_param
 *fill*         0x0000000008013fd9        0x3 
 .rodata.VS4210_hdmi1080i_720P_mode12_w0_param
                0x0000000008013fdc       0x19 build/VS4210_param_Modex26.o
                0x0000000008013fdc                VS4210_hdmi1080i_720P_mode12_w0_param
 *fill*         0x0000000008013ff5        0x3 
 .rodata.VS4210_hdmi1400x1050_720P_mode12_w1_param
                0x0000000008013ff8       0x19 build/VS4210_param_Modex26.o
                0x0000000008013ff8                VS4210_hdmi1400x1050_720P_mode12_w1_param
 *fill*         0x0000000008014011        0x3 
 .rodata.VS4210_hdmi1024x768_1080P_mode6_w1_param
                0x0000000008014014       0x19 build/VS4210_param_Modex26.o
                0x0000000008014014                VS4210_hdmi1024x768_1080P_mode6_w1_param
 *fill*         0x000000000801402d        0x3 
 .rodata.VS4210_hdmi1360x768_720P_mode24_w0_param
                0x0000000008014030       0x19 build/VS4210_param_Modex26.o
                0x0000000008014030                VS4210_hdmi1360x768_720P_mode24_w0_param
 *fill*         0x0000000008014049        0x3 
 .rodata.VS4210_hdmi576P_1080P_mode12_w1_param
                0x000000000801404c       0x19 build/VS4210_param_Modex26.o
                0x000000000801404c                VS4210_hdmi576P_1080P_mode12_w1_param
 *fill*         0x0000000008014065        0x3 
 .rodata.VS4210_hdmi1024x768_1080P_mode12_w1_param
                0x0000000008014068       0x19 build/VS4210_param_Modex26.o
                0x0000000008014068                VS4210_hdmi1024x768_1080P_mode12_w1_param
 *fill*         0x0000000008014081        0x3 
 .rodata.VS4210_hdmi800x600_720P_mode6_w0_param
                0x0000000008014084       0x19 build/VS4210_param_Modex26.o
                0x0000000008014084                VS4210_hdmi800x600_720P_mode6_w0_param
 *fill*         0x000000000801409d        0x3 
 .rodata.VS4210_hdmi1280x800_1080P_mode1_w1_param
                0x00000000080140a0       0x19 build/VS4210_param_Modex26.o
                0x00000000080140a0                VS4210_hdmi1280x800_1080P_mode1_w1_param
 *fill*         0x00000000080140b9        0x3 
 .rodata.VS4210_hdmi1366x768_720P_mode13_w0_param
                0x00000000080140bc       0x19 build/VS4210_param_Modex26.o
                0x00000000080140bc                VS4210_hdmi1366x768_720P_mode13_w0_param
 *fill*         0x00000000080140d5        0x3 
 .rodata.VS4210_hdmi1280x1024_720P_mode1_w2_param
                0x00000000080140d8       0x19 build/VS4210_param_Modex26.o
                0x00000000080140d8                VS4210_hdmi1280x1024_720P_mode1_w2_param
 *fill*         0x00000000080140f1        0x3 
 .rodata.VS4210_hdmi480P_720P_mode12_w0_param
                0x00000000080140f4       0x19 build/VS4210_param_Modex26.o
                0x00000000080140f4                VS4210_hdmi480P_720P_mode12_w0_param
 *fill*         0x000000000801410d        0x3 
 .rodata.VS4210_hdmi480i_1080P_mode2_w0_param
                0x0000000008014110       0x19 build/VS4210_param_Modex26.o
                0x0000000008014110                VS4210_hdmi480i_1080P_mode2_w0_param
 *fill*         0x0000000008014129        0x3 
 .rodata.VS4210_hdmi640x480_1080P_mode6_w0_param
                0x000000000801412c       0x19 build/VS4210_param_Modex26.o
                0x000000000801412c                VS4210_hdmi640x480_1080P_mode6_w0_param
 *fill*         0x0000000008014145        0x3 
 .rodata.VS4210_hdmi1400x1050_1080P_mode13_w0_param
                0x0000000008014148       0x19 build/VS4210_param_Modex26.o
                0x0000000008014148                VS4210_hdmi1400x1050_1080P_mode13_w0_param
 *fill*         0x0000000008014161        0x3 
 .rodata.VS4210_hdmi720P_1080P_mode13_w0_param
                0x0000000008014164       0x19 build/VS4210_param_Modex26.o
                0x0000000008014164                VS4210_hdmi720P_1080P_mode13_w0_param
 *fill*         0x000000000801417d        0x3 
 .rodata.VS4210_hdmi1280x768_1080P_mode6pip_w0_param
                0x0000000008014180       0x19 build/VS4210_param_Modex26.o
                0x0000000008014180                VS4210_hdmi1280x768_1080P_mode6pip_w0_param
 *fill*         0x0000000008014199        0x3 
 .rodata.VS4210_hdmi720P_720P_mode2_w2_param
                0x000000000801419c       0x19 build/VS4210_param_Modex26.o
                0x000000000801419c                VS4210_hdmi720P_720P_mode2_w2_param
 *fill*         0x00000000080141b5        0x3 
 .rodata.VS4210_hdmi576i_720P_mode12_w1_param
                0x00000000080141b8       0x19 build/VS4210_param_Modex26.o
                0x00000000080141b8                VS4210_hdmi576i_720P_mode12_w1_param
 *fill*         0x00000000080141d1        0x3 
 .rodata.VS4210_hdmi576P_720P_mode2_w3_param
                0x00000000080141d4       0x19 build/VS4210_param_Modex26.o
                0x00000000080141d4                VS4210_hdmi576P_720P_mode2_w3_param
 *fill*         0x00000000080141ed        0x3 
 .rodata.VS4210_hdmi640x480_720P_mode1_w2_param
                0x00000000080141f0       0x19 build/VS4210_param_Modex26.o
                0x00000000080141f0                VS4210_hdmi640x480_720P_mode1_w2_param
 *fill*         0x0000000008014209        0x3 
 .rodata.VS4210_hdmi480i_1080P_mode6_w0_param
                0x000000000801420c       0x19 build/VS4210_param_Modex26.o
                0x000000000801420c                VS4210_hdmi480i_1080P_mode6_w0_param
 *fill*         0x0000000008014225        0x3 
 .rodata.VS4210_hdmi1024x768_1080P_mode1_w2_param
                0x0000000008014228       0x19 build/VS4210_param_Modex26.o
                0x0000000008014228                VS4210_hdmi1024x768_1080P_mode1_w2_param
 *fill*         0x0000000008014241        0x3 
 .rodata.VS4210_hdmi720P_1080P_mode6_w1_param
                0x0000000008014244       0x19 build/VS4210_param_Modex26.o
                0x0000000008014244                VS4210_hdmi720P_1080P_mode6_w1_param
 *fill*         0x000000000801425d        0x3 
 .rodata.VS4210_hdmi1400x1050_720P_mode2_w0_param
                0x0000000008014260       0x19 build/VS4210_param_Modex26.o
                0x0000000008014260                VS4210_hdmi1400x1050_720P_mode2_w0_param
 *fill*         0x0000000008014279        0x3 
 .rodata.VS4210_hdmi640x480_720P_mode6_w0_param
                0x000000000801427c       0x19 build/VS4210_param_Modex26.o
                0x000000000801427c                VS4210_hdmi640x480_720P_mode6_w0_param
 *fill*         0x0000000008014295        0x3 
 .rodata.VS4210_hdmi1440x900_1080P_mode6_w1_param
                0x0000000008014298       0x19 build/VS4210_param_Modex26.o
                0x0000000008014298                VS4210_hdmi1440x900_1080P_mode6_w1_param
 *fill*         0x00000000080142b1        0x3 
 .rodata.VS4210_hdmi1680x1050_720P_mode13_w0_param
                0x00000000080142b4       0x19 build/VS4210_param_Modex26.o
                0x00000000080142b4                VS4210_hdmi1680x1050_720P_mode13_w0_param
 *fill*         0x00000000080142cd        0x3 
 .rodata.VS4210_hdmi1400x1050_1080P_mode12_w0_param
                0x00000000080142d0       0x19 build/VS4210_param_Modex26.o
                0x00000000080142d0                VS4210_hdmi1400x1050_1080P_mode12_w0_param
 *fill*         0x00000000080142e9        0x3 
 .rodata.VS4210_hdmi576P_720P_mode24_w1_param
                0x00000000080142ec       0x19 build/VS4210_param_Modex26.o
                0x00000000080142ec                VS4210_hdmi576P_720P_mode24_w1_param
 *fill*         0x0000000008014305        0x3 
 .rodata.VS4210_hdmi1680x1050_720P_mode2_w0_param
                0x0000000008014308       0x19 build/VS4210_param_Modex26.o
                0x0000000008014308                VS4210_hdmi1680x1050_720P_mode2_w0_param
 *fill*         0x0000000008014321        0x3 
 .rodata.VS4210_hdmi640x480_1080P_mode1_w3_param
                0x0000000008014324       0x19 build/VS4210_param_Modex26.o
                0x0000000008014324                VS4210_hdmi640x480_1080P_mode1_w3_param
 *fill*         0x000000000801433d        0x3 
 .rodata.VS4210_hdmi1080i_1080P_mode6_w1_param
                0x0000000008014340       0x19 build/VS4210_param_Modex26.o
                0x0000000008014340                VS4210_hdmi1080i_1080P_mode6_w1_param
 *fill*         0x0000000008014359        0x3 
 .rodata.VS4210_hdmi1600x1200_720P_mode2_w2_param
                0x000000000801435c       0x19 build/VS4210_param_Modex26.o
                0x000000000801435c                VS4210_hdmi1600x1200_720P_mode2_w2_param
 *fill*         0x0000000008014375        0x3 
 .rodata.VS4210_hdmi1280x1024_720P_mode24_w0_param
                0x0000000008014378       0x19 build/VS4210_param_Modex26.o
                0x0000000008014378                VS4210_hdmi1280x1024_720P_mode24_w0_param
 *fill*         0x0000000008014391        0x3 
 .rodata.VS4210_hdmi720P_1080P_mode2_w0_param
                0x0000000008014394       0x19 build/VS4210_param_Modex26.o
                0x0000000008014394                VS4210_hdmi720P_1080P_mode2_w0_param
 *fill*         0x00000000080143ad        0x3 
 .rodata.VS4210_hdmi1024x768_720P_mode13_w0_param
                0x00000000080143b0       0x19 build/VS4210_param_Modex26.o
                0x00000000080143b0                VS4210_hdmi1024x768_720P_mode13_w0_param
 *fill*         0x00000000080143c9        0x3 
 .rodata.VS4210_hdmi1280x800_1080P_mode6pip_w2_param
                0x00000000080143cc       0x19 build/VS4210_param_Modex26.o
                0x00000000080143cc                VS4210_hdmi1280x800_1080P_mode6pip_w2_param
 *fill*         0x00000000080143e5        0x3 
 .rodata.VS4210_hdmi480P_1080P_mode6_w1_param
                0x00000000080143e8       0x19 build/VS4210_param_Modex26.o
                0x00000000080143e8                VS4210_hdmi480P_1080P_mode6_w1_param
 *fill*         0x0000000008014401        0x3 
 .rodata.VS4210_hdmi1280x768_720P_mode2_w0_param
                0x0000000008014404       0x19 build/VS4210_param_Modex26.o
                0x0000000008014404                VS4210_hdmi1280x768_720P_mode2_w0_param
 *fill*         0x000000000801441d        0x3 
 .rodata.VS4210_hdmi1920x1200_720P_mode2_w3_param
                0x0000000008014420       0x19 build/VS4210_param_Modex26.o
                0x0000000008014420                VS4210_hdmi1920x1200_720P_mode2_w3_param
 *fill*         0x0000000008014439        0x3 
 .rodata.VS4210_hdmi1024x768_1080P_mode1_w3_param
                0x000000000801443c       0x19 build/VS4210_param_Modex26.o
                0x000000000801443c                VS4210_hdmi1024x768_1080P_mode1_w3_param
 *fill*         0x0000000008014455        0x3 
 .rodata.VS4210_hdmi1400x1050_1080P_mode1_w2_param
                0x0000000008014458       0x19 build/VS4210_param_Modex26.o
                0x0000000008014458                VS4210_hdmi1400x1050_1080P_mode1_w2_param
 *fill*         0x0000000008014471        0x3 
 .rodata.VS4210_hdmi1680x1050_720P_mode6_w0_param
                0x0000000008014474       0x19 build/VS4210_param_Modex26.o
                0x0000000008014474                VS4210_hdmi1680x1050_720P_mode6_w0_param
 *fill*         0x000000000801448d        0x3 
 .rodata.VS4210_hdmi1400x1050_1080P_mode6pip_w1_param
                0x0000000008014490       0x19 build/VS4210_param_Modex26.o
                0x0000000008014490                VS4210_hdmi1400x1050_1080P_mode6pip_w1_param
 *fill*         0x00000000080144a9        0x3 
 .rodata.VS4210_hdmi1024x768_720P_mode2_w1_param
                0x00000000080144ac       0x19 build/VS4210_param_Modex26.o
                0x00000000080144ac                VS4210_hdmi1024x768_720P_mode2_w1_param
 *fill*         0x00000000080144c5        0x3 
 .rodata.VS4210_hdmi576P_720P_mode13_w1_param
                0x00000000080144c8       0x19 build/VS4210_param_Modex26.o
                0x00000000080144c8                VS4210_hdmi576P_720P_mode13_w1_param
 *fill*         0x00000000080144e1        0x3 
 .rodata.VS4210_hdmi1366x768_720P_mode6_w0_param
                0x00000000080144e4       0x19 build/VS4210_param_Modex26.o
                0x00000000080144e4                VS4210_hdmi1366x768_720P_mode6_w0_param
 *fill*         0x00000000080144fd        0x3 
 .rodata.VS4210_hdmi720P_1080P_mode6_w0_param
                0x0000000008014500       0x19 build/VS4210_param_Modex26.o
                0x0000000008014500                VS4210_hdmi720P_1080P_mode6_w0_param
 *fill*         0x0000000008014519        0x3 
 .rodata.VS4210_hdmi1360x768_1080P_mode1_w2_param
                0x000000000801451c       0x19 build/VS4210_param_Modex26.o
                0x000000000801451c                VS4210_hdmi1360x768_1080P_mode1_w2_param
 *fill*         0x0000000008014535        0x3 
 .rodata.VS4210_hdmi1280x768_1080P_mode6_w1_param
                0x0000000008014538       0x19 build/VS4210_param_Modex26.o
                0x0000000008014538                VS4210_hdmi1280x768_1080P_mode6_w1_param
 *fill*         0x0000000008014551        0x3 
 .rodata.VS4210_hdmi1366x768_1080P_mode6_w1_param
                0x0000000008014554       0x19 build/VS4210_param_Modex26.o
                0x0000000008014554                VS4210_hdmi1366x768_1080P_mode6_w1_param
 *fill*         0x000000000801456d        0x3 
 .rodata.VS4210_hdmi1440x900_720P_mode24_w0_param
                0x0000000008014570       0x19 build/VS4210_param_Modex26.o
                0x0000000008014570                VS4210_hdmi1440x900_720P_mode24_w0_param
 *fill*         0x0000000008014589        0x3 
 .rodata.VS4210_hdmi1080P_1080P_mode13_w1_param
                0x000000000801458c       0x19 build/VS4210_param_Modex26.o
                0x000000000801458c                VS4210_hdmi1080P_1080P_mode13_w1_param
 *fill*         0x00000000080145a5        0x3 
 .rodata.VS4210_hdmi1680x1050_720P_mode12_w1_param
                0x00000000080145a8       0x19 build/VS4210_param_Modex26.o
                0x00000000080145a8                VS4210_hdmi1680x1050_720P_mode12_w1_param
 *fill*         0x00000000080145c1        0x3 
 .rodata.VS4210_hdmi1366x768_1080P_mode12_w1_param
                0x00000000080145c4       0x19 build/VS4210_param_Modex26.o
                0x00000000080145c4                VS4210_hdmi1366x768_1080P_mode12_w1_param
 *fill*         0x00000000080145dd        0x3 
 .rodata.VS4210_hdmi1440x900_1080P_mode6pip_w2_param
                0x00000000080145e0       0x19 build/VS4210_param_Modex26.o
                0x00000000080145e0                VS4210_hdmi1440x900_1080P_mode6pip_w2_param
 *fill*         0x00000000080145f9        0x3 
 .rodata.VS4210_hdmi800x600_720P_mode2_w2_param
                0x00000000080145fc       0x19 build/VS4210_param_Modex26.o
                0x00000000080145fc                VS4210_hdmi800x600_720P_mode2_w2_param
 *fill*         0x0000000008014615        0x3 
 .rodata.VS4210_hdmi1680x1050_1080P_mode2_w1_param
                0x0000000008014618       0x19 build/VS4210_param_Modex26.o
                0x0000000008014618                VS4210_hdmi1680x1050_1080P_mode2_w1_param
 *fill*         0x0000000008014631        0x3 
 .rodata.VS4210_hdmi1680x1050_720P_mode6_w2_param
                0x0000000008014634       0x19 build/VS4210_param_Modex26.o
                0x0000000008014634                VS4210_hdmi1680x1050_720P_mode6_w2_param
 *fill*         0x000000000801464d        0x3 
 .rodata.VS4210_hdmi1440x900_720P_mode1_w1_param
                0x0000000008014650       0x19 build/VS4210_param_Modex26.o
                0x0000000008014650                VS4210_hdmi1440x900_720P_mode1_w1_param
 *fill*         0x0000000008014669        0x3 
 .rodata.VS4210_hdmi576i_720P_mode2_w1_param
                0x000000000801466c       0x19 build/VS4210_param_Modex26.o
                0x000000000801466c                VS4210_hdmi576i_720P_mode2_w1_param
 *fill*         0x0000000008014685        0x3 
 .rodata.VS4210_hdmi480i_720P_mode2_w0_param
                0x0000000008014688       0x19 build/VS4210_param_Modex26.o
                0x0000000008014688                VS4210_hdmi480i_720P_mode2_w0_param
 *fill*         0x00000000080146a1        0x3 
 .rodata.VS4210_hdmi1440x900_720P_mode2_w1_param
                0x00000000080146a4       0x19 build/VS4210_param_Modex26.o
                0x00000000080146a4                VS4210_hdmi1440x900_720P_mode2_w1_param
 *fill*         0x00000000080146bd        0x3 
 .rodata.VS4210_hdmi1280x768_1080P_mode2_w1_param
                0x00000000080146c0       0x19 build/VS4210_param_Modex26.o
                0x00000000080146c0                VS4210_hdmi1280x768_1080P_mode2_w1_param
 *fill*         0x00000000080146d9        0x3 
 .rodata.VS4210_hdmi1360x768_720P_mode12_w0_param
                0x00000000080146dc       0x19 build/VS4210_param_Modex26.o
                0x00000000080146dc                VS4210_hdmi1360x768_720P_mode12_w0_param
 *fill*         0x00000000080146f5        0x3 
 .rodata.VS4210_hdmi1280x768_720P_mode6_w2_param
                0x00000000080146f8       0x19 build/VS4210_param_Modex26.o
                0x00000000080146f8                VS4210_hdmi1280x768_720P_mode6_w2_param
 *fill*         0x0000000008014711        0x3 
 .rodata.VS4210_hdmi800x600_720P_mode6_w2_param
                0x0000000008014714       0x19 build/VS4210_param_Modex26.o
                0x0000000008014714                VS4210_hdmi800x600_720P_mode6_w2_param
 *fill*         0x000000000801472d        0x3 
 .rodata.VS4210_hdmi1680x1050_1080P_mode6_w1_param
                0x0000000008014730       0x19 build/VS4210_param_Modex26.o
                0x0000000008014730                VS4210_hdmi1680x1050_1080P_mode6_w1_param
 *fill*         0x0000000008014749        0x3 
 .rodata.VS4210_hdmi480P_720P_mode13_w1_param
                0x000000000801474c       0x19 build/VS4210_param_Modex26.o
                0x000000000801474c                VS4210_hdmi480P_720P_mode13_w1_param
 *fill*         0x0000000008014765        0x3 
 .rodata.VS4210_hdmi1024x768_720P_mode6_w3_param
                0x0000000008014768       0x19 build/VS4210_param_Modex26.o
                0x0000000008014768                VS4210_hdmi1024x768_720P_mode6_w3_param
 *fill*         0x0000000008014781        0x3 
 .rodata.VS4210_hdmi576i_720P_mode6_w1_param
                0x0000000008014784       0x19 build/VS4210_param_Modex26.o
                0x0000000008014784                VS4210_hdmi576i_720P_mode6_w1_param
 *fill*         0x000000000801479d        0x3 
 .rodata.VS4210_hdmi576P_1080P_mode2_w2_param
                0x00000000080147a0       0x19 build/VS4210_param_Modex26.o
                0x00000000080147a0                VS4210_hdmi576P_1080P_mode2_w2_param
 *fill*         0x00000000080147b9        0x3 
 .rodata.VS4210_hdmi480i_1080P_mode13_w1_param
                0x00000000080147bc       0x19 build/VS4210_param_Modex26.o
                0x00000000080147bc                VS4210_hdmi480i_1080P_mode13_w1_param
 *fill*         0x00000000080147d5        0x3 
 .rodata.VS4210_hdmi1080P_720P_mode2_w2_param
                0x00000000080147d8       0x19 build/VS4210_param_Modex26.o
                0x00000000080147d8                VS4210_hdmi1080P_720P_mode2_w2_param
 *fill*         0x00000000080147f1        0x3 
 .rodata.VS4210_hdmi1366x768_720P_mode12_w0_param
                0x00000000080147f4       0x19 build/VS4210_param_Modex26.o
                0x00000000080147f4                VS4210_hdmi1366x768_720P_mode12_w0_param
 *fill*         0x000000000801480d        0x3 
 .rodata.VS4210_hdmi640x480_720P_mode13_w0_param
                0x0000000008014810       0x19 build/VS4210_param_Modex26.o
                0x0000000008014810                VS4210_hdmi640x480_720P_mode13_w0_param
 *fill*         0x0000000008014829        0x3 
 .rodata.VS4210_hdmi1080P_720P_mode1_w2_param
                0x000000000801482c       0x19 build/VS4210_param_Modex26.o
                0x000000000801482c                VS4210_hdmi1080P_720P_mode1_w2_param
 *fill*         0x0000000008014845        0x3 
 .rodata.VS4210_hdmi480i_720P_mode13_w1_param
                0x0000000008014848       0x19 build/VS4210_param_Modex26.o
                0x0000000008014848                VS4210_hdmi480i_720P_mode13_w1_param
 *fill*         0x0000000008014861        0x3 
 .rodata.VS4210_hdmi1024x768_1080P_mode2_w0_param
                0x0000000008014864       0x19 build/VS4210_param_Modex26.o
                0x0000000008014864                VS4210_hdmi1024x768_1080P_mode2_w0_param
 *fill*         0x000000000801487d        0x3 
 .rodata.VS4210_hdmi1080P_1080P_mode1_w0_param
                0x0000000008014880       0x19 build/VS4210_param_Modex26.o
                0x0000000008014880                VS4210_hdmi1080P_1080P_mode1_w0_param
 *fill*         0x0000000008014899        0x3 
 .rodata.VS4210_hdmi576P_720P_mode1_w0_param
                0x000000000801489c       0x19 build/VS4210_param_Modex26.o
                0x000000000801489c                VS4210_hdmi576P_720P_mode1_w0_param
 *fill*         0x00000000080148b5        0x3 
 .rodata.VS4210_hdmi1920x1200_1080P_mode2_w3_param
                0x00000000080148b8       0x19 build/VS4210_param_Modex26.o
                0x00000000080148b8                VS4210_hdmi1920x1200_1080P_mode2_w3_param
 *fill*         0x00000000080148d1        0x3 
 .rodata.VS4210_hdmi1080i_1080P_mode6pip_w2_param
                0x00000000080148d4       0x19 build/VS4210_param_Modex26.o
                0x00000000080148d4                VS4210_hdmi1080i_1080P_mode6pip_w2_param
 *fill*         0x00000000080148ed        0x3 
 .rodata.VS4210_hdmi1600x1200_720P_mode6_w0_param
                0x00000000080148f0       0x19 build/VS4210_param_Modex26.o
                0x00000000080148f0                VS4210_hdmi1600x1200_720P_mode6_w0_param
 *fill*         0x0000000008014909        0x3 
 .rodata.VS4210_hdmi576P_1080P_mode6_w2_param
                0x000000000801490c       0x19 build/VS4210_param_Modex26.o
                0x000000000801490c                VS4210_hdmi576P_1080P_mode6_w2_param
 *fill*         0x0000000008014925        0x3 
 .rodata.VS4210_hdmi800x600_1080P_mode12_w0_param
                0x0000000008014928       0x19 build/VS4210_param_Modex26.o
                0x0000000008014928                VS4210_hdmi800x600_1080P_mode12_w0_param
 *fill*         0x0000000008014941        0x3 
 .rodata.VS4210_hdmi1680x1050_1080P_mode13_w1_param
                0x0000000008014944       0x19 build/VS4210_param_Modex26.o
                0x0000000008014944                VS4210_hdmi1680x1050_1080P_mode13_w1_param
 *fill*         0x000000000801495d        0x3 
 .rodata.VS4210_hdmi1360x768_720P_mode6_w2_param
                0x0000000008014960       0x19 build/VS4210_param_Modex26.o
                0x0000000008014960                VS4210_hdmi1360x768_720P_mode6_w2_param
 *fill*         0x0000000008014979        0x3 
 .rodata.VS4210_hdmi1680x1050_1080P_mode2_w3_param
                0x000000000801497c       0x19 build/VS4210_param_Modex26.o
                0x000000000801497c                VS4210_hdmi1680x1050_1080P_mode2_w3_param
 *fill*         0x0000000008014995        0x3 
 .rodata.VS4210_hdmi1600x1200_1080P_mode1_w1_param
                0x0000000008014998       0x19 build/VS4210_param_Modex26.o
                0x0000000008014998                VS4210_hdmi1600x1200_1080P_mode1_w1_param
 *fill*         0x00000000080149b1        0x3 
 .rodata.VS4210_hdmi1680x1050_720P_mode24_w0_param
                0x00000000080149b4       0x19 build/VS4210_param_Modex26.o
                0x00000000080149b4                VS4210_hdmi1680x1050_720P_mode24_w0_param
 *fill*         0x00000000080149cd        0x3 
 .rodata.VS4210_hdmi640x480_1080P_mode13_w0_param
                0x00000000080149d0       0x19 build/VS4210_param_Modex26.o
                0x00000000080149d0                VS4210_hdmi640x480_1080P_mode13_w0_param
 *fill*         0x00000000080149e9        0x3 
 .rodata.VS4210_hdmi640x480_720P_mode2_w0_param
                0x00000000080149ec       0x19 build/VS4210_param_Modex26.o
                0x00000000080149ec                VS4210_hdmi640x480_720P_mode2_w0_param
 *fill*         0x0000000008014a05        0x3 
 .rodata.VS4210_hdmi1440x900_1080P_mode2_w1_param
                0x0000000008014a08       0x19 build/VS4210_param_Modex26.o
                0x0000000008014a08                VS4210_hdmi1440x900_1080P_mode2_w1_param
 *fill*         0x0000000008014a21        0x3 
 .rodata.VS4210_hdmi800x600_1080P_mode1_w1_param
                0x0000000008014a24       0x19 build/VS4210_param_Modex26.o
                0x0000000008014a24                VS4210_hdmi800x600_1080P_mode1_w1_param
 *fill*         0x0000000008014a3d        0x3 
 .rodata.VS4210_hdmi1360x768_1080P_mode6_w1_param
                0x0000000008014a40       0x19 build/VS4210_param_Modex26.o
                0x0000000008014a40                VS4210_hdmi1360x768_1080P_mode6_w1_param
 *fill*         0x0000000008014a59        0x3 
 .rodata.VS4210_hdmi480P_720P_mode1_w1_param
                0x0000000008014a5c       0x19 build/VS4210_param_Modex26.o
                0x0000000008014a5c                VS4210_hdmi480P_720P_mode1_w1_param
 *fill*         0x0000000008014a75        0x3 
 .rodata.VS4210_hdmi1920x1200_720P_mode1_w0_param
                0x0000000008014a78       0x19 build/VS4210_param_Modex26.o
                0x0000000008014a78                VS4210_hdmi1920x1200_720P_mode1_w0_param
 *fill*         0x0000000008014a91        0x3 
 .rodata.VS4210_hdmi1280x800_720P_mode1_w1_param
                0x0000000008014a94       0x19 build/VS4210_param_Modex26.o
                0x0000000008014a94                VS4210_hdmi1280x800_720P_mode1_w1_param
 *fill*         0x0000000008014aad        0x3 
 .rodata.VS4210_hdmi1280x1024_720P_mode1_w1_param
                0x0000000008014ab0       0x19 build/VS4210_param_Modex26.o
                0x0000000008014ab0                VS4210_hdmi1280x1024_720P_mode1_w1_param
 *fill*         0x0000000008014ac9        0x3 
 .rodata.VS4210_hdmi720P_720P_mode13_w1_param
                0x0000000008014acc       0x19 build/VS4210_param_Modex26.o
                0x0000000008014acc                VS4210_hdmi720P_720P_mode13_w1_param
 *fill*         0x0000000008014ae5        0x3 
 .rodata.VS4210_hdmi576P_1080P_mode6pip_w1_param
                0x0000000008014ae8       0x19 build/VS4210_param_Modex26.o
                0x0000000008014ae8                VS4210_hdmi576P_1080P_mode6pip_w1_param
 *fill*         0x0000000008014b01        0x3 
 .rodata.VS4210_hdmi640x480_1080P_mode12_w0_param
                0x0000000008014b04       0x19 build/VS4210_param_Modex26.o
                0x0000000008014b04                VS4210_hdmi640x480_1080P_mode12_w0_param
 *fill*         0x0000000008014b1d        0x3 
 .rodata.VS4210_hdmi1360x768_720P_mode13_w0_param
                0x0000000008014b20       0x19 build/VS4210_param_Modex26.o
                0x0000000008014b20                VS4210_hdmi1360x768_720P_mode13_w0_param
 *fill*         0x0000000008014b39        0x3 
 .rodata.VS4210_hdmi1440x900_1080P_mode13_w1_param
                0x0000000008014b3c       0x19 build/VS4210_param_Modex26.o
                0x0000000008014b3c                VS4210_hdmi1440x900_1080P_mode13_w1_param
 *fill*         0x0000000008014b55        0x3 
 .rodata.VS4210_hdmi1280x768_720P_mode6_w0_param
                0x0000000008014b58       0x19 build/VS4210_param_Modex26.o
                0x0000000008014b58                VS4210_hdmi1280x768_720P_mode6_w0_param
 *fill*         0x0000000008014b71        0x3 
 .rodata.VS4210_hdmi1280x800_1080P_mode2_w2_param
                0x0000000008014b74       0x19 build/VS4210_param_Modex26.o
                0x0000000008014b74                VS4210_hdmi1280x800_1080P_mode2_w2_param
 *fill*         0x0000000008014b8d        0x3 
 .rodata.VS4210_hdmi480i_1080P_mode2_w2_param
                0x0000000008014b90       0x19 build/VS4210_param_Modex26.o
                0x0000000008014b90                VS4210_hdmi480i_1080P_mode2_w2_param
 *fill*         0x0000000008014ba9        0x3 
 .rodata.VS4210_hdmi1360x768_1080P_mode1_w0_param
                0x0000000008014bac       0x19 build/VS4210_param_Modex26.o
                0x0000000008014bac                VS4210_hdmi1360x768_1080P_mode1_w0_param
 *fill*         0x0000000008014bc5        0x3 
 .rodata.VS4210_hdmi1600x1200_1080P_mode1_w3_param
                0x0000000008014bc8       0x19 build/VS4210_param_Modex26.o
                0x0000000008014bc8                VS4210_hdmi1600x1200_1080P_mode1_w3_param
 *fill*         0x0000000008014be1        0x3 
 .rodata.VS4210_hdmi1080P_1080P_mode2_w1_param
                0x0000000008014be4       0x19 build/VS4210_param_Modex26.o
                0x0000000008014be4                VS4210_hdmi1080P_1080P_mode2_w1_param
 *fill*         0x0000000008014bfd        0x3 
 .rodata.VS4210_hdmi1366x768_1080P_mode6pip_w0_param
                0x0000000008014c00       0x19 build/VS4210_param_Modex26.o
                0x0000000008014c00                VS4210_hdmi1366x768_1080P_mode6pip_w0_param
 *fill*         0x0000000008014c19        0x3 
 .rodata.VS4210_hdmi1280x768_1080P_mode6pip_w2_param
                0x0000000008014c1c       0x19 build/VS4210_param_Modex26.o
                0x0000000008014c1c                VS4210_hdmi1280x768_1080P_mode6pip_w2_param
 *fill*         0x0000000008014c35        0x3 
 .rodata.VS4210_hdmi1440x900_1080P_mode2_w3_param
                0x0000000008014c38       0x19 build/VS4210_param_Modex26.o
                0x0000000008014c38                VS4210_hdmi1440x900_1080P_mode2_w3_param
 *fill*         0x0000000008014c51        0x3 
 .rodata.VS4210_hdmi1366x768_720P_mode2_w0_param
                0x0000000008014c54       0x19 build/VS4210_param_Modex26.o
                0x0000000008014c54                VS4210_hdmi1366x768_720P_mode2_w0_param
 *fill*         0x0000000008014c6d        0x3 
 .rodata.VS4210_hdmi1280x768_720P_mode2_w3_param
                0x0000000008014c70       0x19 build/VS4210_param_Modex26.o
                0x0000000008014c70                VS4210_hdmi1280x768_720P_mode2_w3_param
 *fill*         0x0000000008014c89        0x3 
 .rodata.VS4210_hdmi576i_720P_mode2_w3_param
                0x0000000008014c8c       0x19 build/VS4210_param_Modex26.o
                0x0000000008014c8c                VS4210_hdmi576i_720P_mode2_w3_param
 *fill*         0x0000000008014ca5        0x3 
 .rodata.VS4210_hdmi640x480_1080P_mode6_w1_param
                0x0000000008014ca8       0x19 build/VS4210_param_Modex26.o
                0x0000000008014ca8                VS4210_hdmi640x480_1080P_mode6_w1_param
 *fill*         0x0000000008014cc1        0x3 
 .rodata.VS4210_hdmi576i_1080P_mode6pip_w0_param
                0x0000000008014cc4       0x19 build/VS4210_param_Modex26.o
                0x0000000008014cc4                VS4210_hdmi576i_1080P_mode6pip_w0_param
 *fill*         0x0000000008014cdd        0x3 
 .rodata.VS4210_hdmi480i_1080P_mode6_w2_param
                0x0000000008014ce0       0x19 build/VS4210_param_Modex26.o
                0x0000000008014ce0                VS4210_hdmi480i_1080P_mode6_w2_param
 *fill*         0x0000000008014cf9        0x3 
 .rodata.VS4210_hdmi480P_1080P_mode1_w1_param
                0x0000000008014cfc       0x19 build/VS4210_param_Modex26.o
                0x0000000008014cfc                VS4210_hdmi480P_1080P_mode1_w1_param
 *fill*         0x0000000008014d15        0x3 
 .rodata.VS4210_hdmi1366x768_720P_mode24_w1_param
                0x0000000008014d18       0x19 build/VS4210_param_Modex26.o
                0x0000000008014d18                VS4210_hdmi1366x768_720P_mode24_w1_param
 *fill*         0x0000000008014d31        0x3 
 .rodata.VS4210_hdmi1280x800_720P_mode13_w0_param
                0x0000000008014d34       0x19 build/VS4210_param_Modex26.o
                0x0000000008014d34                VS4210_hdmi1280x800_720P_mode13_w0_param
 *fill*         0x0000000008014d4d        0x3 
 .rodata.VS4210_hdmi1024x768_720P_mode24_w0_param
                0x0000000008014d50       0x19 build/VS4210_param_Modex26.o
                0x0000000008014d50                VS4210_hdmi1024x768_720P_mode24_w0_param
 *fill*         0x0000000008014d69        0x3 
 .rodata.VS4210_hdmi1360x768_1080P_mode2_w0_param
                0x0000000008014d6c       0x19 build/VS4210_param_Modex26.o
                0x0000000008014d6c                VS4210_hdmi1360x768_1080P_mode2_w0_param
 *fill*         0x0000000008014d85        0x3 
 .rodata.VS4210_hdmi640x480_720P_mode6_w2_param
                0x0000000008014d88       0x19 build/VS4210_param_Modex26.o
                0x0000000008014d88                VS4210_hdmi640x480_720P_mode6_w2_param
 *fill*         0x0000000008014da1        0x3 
 .rodata.VS4210_hdmi1440x900_1080P_mode6_w3_param
                0x0000000008014da4       0x19 build/VS4210_param_Modex26.o
                0x0000000008014da4                VS4210_hdmi1440x900_1080P_mode6_w3_param
 *fill*         0x0000000008014dbd        0x3 
 .rodata.VS4210_hdmi1280x1024_1080P_mode13_w1_param
                0x0000000008014dc0       0x19 build/VS4210_param_Modex26.o
                0x0000000008014dc0                VS4210_hdmi1280x1024_1080P_mode13_w1_param
 *fill*         0x0000000008014dd9        0x3 
 .rodata.VS4210_hdmi1600x1200_1080P_mode2_w2_param
                0x0000000008014ddc       0x19 build/VS4210_param_Modex26.o
                0x0000000008014ddc                VS4210_hdmi1600x1200_1080P_mode2_w2_param
 *fill*         0x0000000008014df5        0x3 
 .rodata.VS4210_hdmi1400x1050_1080P_mode6_w0_param
                0x0000000008014df8       0x19 build/VS4210_param_Modex26.o
                0x0000000008014df8                VS4210_hdmi1400x1050_1080P_mode6_w0_param
 *fill*         0x0000000008014e11        0x3 
 .rodata.VS4210_hdmi576i_1080P_mode1_w2_param
                0x0000000008014e14       0x19 build/VS4210_param_Modex26.o
                0x0000000008014e14                VS4210_hdmi576i_1080P_mode1_w2_param
 *fill*         0x0000000008014e2d        0x3 
 .rodata.VS4210_hdmi1360x768_720P_mode13_w1_param
                0x0000000008014e30       0x19 build/VS4210_param_Modex26.o
                0x0000000008014e30                VS4210_hdmi1360x768_720P_mode13_w1_param
 *fill*         0x0000000008014e49        0x3 
 .rodata.VS4210_hdmi1920x1200_720P_mode12_w1_param
                0x0000000008014e4c       0x19 build/VS4210_param_Modex26.o
                0x0000000008014e4c                VS4210_hdmi1920x1200_720P_mode12_w1_param
 *fill*         0x0000000008014e65        0x3 
 .rodata.VS4210_hdmi720P_1080P_mode2_w2_param
                0x0000000008014e68       0x19 build/VS4210_param_Modex26.o
                0x0000000008014e68                VS4210_hdmi720P_1080P_mode2_w2_param
 *fill*         0x0000000008014e81        0x3 
 .rodata.VS4210_hdmi576i_1080P_mode6_w0_param
                0x0000000008014e84       0x19 build/VS4210_param_Modex26.o
                0x0000000008014e84                VS4210_hdmi576i_1080P_mode6_w0_param
 *fill*         0x0000000008014e9d        0x3 
 .rodata.VS4210_hdmi1360x768_1080P_mode6pip_w3_param
                0x0000000008014ea0       0x19 build/VS4210_param_Modex26.o
                0x0000000008014ea0                VS4210_hdmi1360x768_1080P_mode6pip_w3_param
 *fill*         0x0000000008014eb9        0x3 
 .rodata.VS4210_hdmi576i_1080P_mode6pip_w2_param
                0x0000000008014ebc       0x19 build/VS4210_param_Modex26.o
                0x0000000008014ebc                VS4210_hdmi576i_1080P_mode6pip_w2_param
 *fill*         0x0000000008014ed5        0x3 
 .rodata.VS4210_hdmi1280x800_720P_mode6_w3_param
                0x0000000008014ed8       0x19 build/VS4210_param_Modex26.o
                0x0000000008014ed8                VS4210_hdmi1280x800_720P_mode6_w3_param
 *fill*         0x0000000008014ef1        0x3 
 .rodata.VS4210_hdmi480P_1080P_mode1_w3_param
                0x0000000008014ef4       0x19 build/VS4210_param_Modex26.o
                0x0000000008014ef4                VS4210_hdmi480P_1080P_mode1_w3_param
 *fill*         0x0000000008014f0d        0x3 
 .rodata.VS4210_hdmi480i_720P_mode6_w2_param
                0x0000000008014f10       0x19 build/VS4210_param_Modex26.o
                0x0000000008014f10                VS4210_hdmi480i_720P_mode6_w2_param
 *fill*         0x0000000008014f29        0x3 
 .rodata.VS4210_hdmi1080P_1080P_mode6_w3_param
                0x0000000008014f2c       0x19 build/VS4210_param_Modex26.o
                0x0000000008014f2c                VS4210_hdmi1080P_1080P_mode6_w3_param
 *fill*         0x0000000008014f45        0x3 
 .rodata.VS4210_hdmi720P_720P_mode6_w2_param
                0x0000000008014f48       0x19 build/VS4210_param_Modex26.o
                0x0000000008014f48                VS4210_hdmi720P_720P_mode6_w2_param
 *fill*         0x0000000008014f61        0x3 
 .rodata.VS4210_hdmi1400x1050_1080P_mode6pip_w3_param
                0x0000000008014f64       0x19 build/VS4210_param_Modex26.o
                0x0000000008014f64                VS4210_hdmi1400x1050_1080P_mode6pip_w3_param
 *fill*         0x0000000008014f7d        0x3 
 .rodata.VS4210_hdmi1024x768_720P_mode2_w3_param
                0x0000000008014f80       0x19 build/VS4210_param_Modex26.o
                0x0000000008014f80                VS4210_hdmi1024x768_720P_mode2_w3_param
 *fill*         0x0000000008014f99        0x3 
 .rodata.VS4210_hdmi1080P_720P_mode2_w0_param
                0x0000000008014f9c       0x19 build/VS4210_param_Modex26.o
                0x0000000008014f9c                VS4210_hdmi1080P_720P_mode2_w0_param
 *fill*         0x0000000008014fb5        0x3 
 .rodata.VS4210_hdmi640x480_720P_mode24_w0_param
                0x0000000008014fb8       0x19 build/VS4210_param_Modex26.o
                0x0000000008014fb8                VS4210_hdmi640x480_720P_mode24_w0_param
 *fill*         0x0000000008014fd1        0x3 
 .rodata.VS4210_hdmi1920x1200_1080P_mode1_w0_param
                0x0000000008014fd4       0x19 build/VS4210_param_Modex26.o
                0x0000000008014fd4                VS4210_hdmi1920x1200_1080P_mode1_w0_param
 *fill*         0x0000000008014fed        0x3 
 .rodata.VS4210_hdmi720P_1080P_mode6_w2_param
                0x0000000008014ff0       0x19 build/VS4210_param_Modex26.o
                0x0000000008014ff0                VS4210_hdmi720P_1080P_mode6_w2_param
 *fill*         0x0000000008015009        0x3 
 .rodata.VS4210_hdmi1280x1024_1080P_mode12_w1_param
                0x000000000801500c       0x19 build/VS4210_param_Modex26.o
                0x000000000801500c                VS4210_hdmi1280x1024_1080P_mode12_w1_param
 *fill*         0x0000000008015025        0x3 
 .rodata.VS4210_hdmi1280x768_1080P_mode6_w3_param
                0x0000000008015028       0x19 build/VS4210_param_Modex26.o
                0x0000000008015028                VS4210_hdmi1280x768_1080P_mode6_w3_param
 *fill*         0x0000000008015041        0x3 
 .rodata.VS4210_hdmi1366x768_1080P_mode6_w3_param
                0x0000000008015044       0x19 build/VS4210_param_Modex26.o
                0x0000000008015044                VS4210_hdmi1366x768_1080P_mode6_w3_param
 *fill*         0x000000000801505d        0x3 
 .rodata.VS4210_hdmi1080i_1080P_mode12_w0_param
                0x0000000008015060       0x19 build/VS4210_param_Modex26.o
                0x0000000008015060                VS4210_hdmi1080i_1080P_mode12_w0_param
 *fill*         0x0000000008015079        0x3 
 .rodata.VS4210_hdmi480P_1080P_mode12_w0_param
                0x000000000801507c       0x19 build/VS4210_param_Modex26.o
                0x000000000801507c                VS4210_hdmi480P_1080P_mode12_w0_param
 *fill*         0x0000000008015095        0x3 
 .rodata.VS4210_hdmi1280x1024_1080P_mode6pip_w1_param
                0x0000000008015098       0x19 build/VS4210_param_Modex26.o
                0x0000000008015098                VS4210_hdmi1280x1024_1080P_mode6pip_w1_param
 *fill*         0x00000000080150b1        0x3 
 .rodata.VS4210_hdmi1360x768_1080P_mode6_w3_param
                0x00000000080150b4       0x19 build/VS4210_param_Modex26.o
                0x00000000080150b4                VS4210_hdmi1360x768_1080P_mode6_w3_param
 *fill*         0x00000000080150cd        0x3 
 .rodata.VS4210_hdmi1280x1024_1080P_mode1_w3_param
                0x00000000080150d0       0x19 build/VS4210_param_Modex26.o
                0x00000000080150d0                VS4210_hdmi1280x1024_1080P_mode1_w3_param
 *fill*         0x00000000080150e9        0x3 
 .rodata.VS4210_hdmi1280x768_720P_mode2_w2_param
                0x00000000080150ec       0x19 build/VS4210_param_Modex26.o
                0x00000000080150ec                VS4210_hdmi1280x768_720P_mode2_w2_param
 *fill*         0x0000000008015105        0x3 
 .rodata.VS4210_hdmi1080i_720P_mode6_w3_param
                0x0000000008015108       0x19 build/VS4210_param_Modex26.o
                0x0000000008015108                VS4210_hdmi1080i_720P_mode6_w3_param
 *fill*         0x0000000008015121        0x3 
 .rodata.VS4210_hdmi1600x1200_720P_mode13_w0_param
                0x0000000008015124       0x19 build/VS4210_param_Modex26.o
                0x0000000008015124                VS4210_hdmi1600x1200_720P_mode13_w0_param
 *fill*         0x000000000801513d        0x3 
 .rodata.VS4210_hdmi1280x800_1080P_mode1_w3_param
                0x0000000008015140       0x19 build/VS4210_param_Modex26.o
                0x0000000008015140                VS4210_hdmi1280x800_1080P_mode1_w3_param
 *fill*         0x0000000008015159        0x3 
 .rodata.VS4210_hdmi1080i_1080P_mode13_w0_param
                0x000000000801515c       0x19 build/VS4210_param_Modex26.o
                0x000000000801515c                VS4210_hdmi1080i_1080P_mode13_w0_param
 *fill*         0x0000000008015175        0x3 
 .rodata.VS4210_hdmi1440x900_720P_mode1_w3_param
                0x0000000008015178       0x19 build/VS4210_param_Modex26.o
                0x0000000008015178                VS4210_hdmi1440x900_720P_mode1_w3_param
 *fill*         0x0000000008015191        0x3 
 .rodata.VS4210_hdmi800x600_720P_mode13_w0_param
                0x0000000008015194       0x19 build/VS4210_param_Modex26.o
                0x0000000008015194                VS4210_hdmi800x600_720P_mode13_w0_param
 *fill*         0x00000000080151ad        0x3 
 .rodata.VS4210_hdmi1080P_1080P_mode6pip_w0_param
                0x00000000080151b0       0x19 build/VS4210_param_Modex26.o
                0x00000000080151b0                VS4210_hdmi1080P_1080P_mode6pip_w0_param
 *fill*         0x00000000080151c9        0x3 
 .rodata.VS4210_hdmi480i_720P_mode2_w2_param
                0x00000000080151cc       0x19 build/VS4210_param_Modex26.o
                0x00000000080151cc                VS4210_hdmi480i_720P_mode2_w2_param
 *fill*         0x00000000080151e5        0x3 
 .rodata.VS4210_hdmi1280x800_1080P_mode6_w1_param
                0x00000000080151e8       0x19 build/VS4210_param_Modex26.o
                0x00000000080151e8                VS4210_hdmi1280x800_1080P_mode6_w1_param
 *fill*         0x0000000008015201        0x3 
 .rodata.VS4210_hdmi1440x900_720P_mode6_w1_param
                0x0000000008015204       0x19 build/VS4210_param_Modex26.o
                0x0000000008015204                VS4210_hdmi1440x900_720P_mode6_w1_param
 *fill*         0x000000000801521d        0x3 
 .rodata.VS4210_hdmi1080i_1080P_mode1_w1_param
                0x0000000008015220       0x19 build/VS4210_param_Modex26.o
                0x0000000008015220                VS4210_hdmi1080i_1080P_mode1_w1_param
 *fill*         0x0000000008015239        0x3 
 .rodata.VS4210_hdmi576i_1080P_mode1_w3_param
                0x000000000801523c       0x19 build/VS4210_param_Modex26.o
                0x000000000801523c                VS4210_hdmi576i_1080P_mode1_w3_param
 *fill*         0x0000000008015255        0x3 
 .rodata.VS4210_hdmi1680x1050_1080P_mode6_w3_param
                0x0000000008015258       0x19 build/VS4210_param_Modex26.o
                0x0000000008015258                VS4210_hdmi1680x1050_1080P_mode6_w3_param
 *fill*         0x0000000008015271        0x3 
 .rodata.VS4210_hdmi1024x768_1080P_mode2_w1_param
                0x0000000008015274       0x19 build/VS4210_param_Modex26.o
                0x0000000008015274                VS4210_hdmi1024x768_1080P_mode2_w1_param
 *fill*         0x000000000801528d        0x3 
 .rodata.VS4210_hdmi720P_720P_mode24_w1_param
                0x0000000008015290       0x19 build/VS4210_param_Modex26.o
                0x0000000008015290                VS4210_hdmi720P_720P_mode24_w1_param
 *fill*         0x00000000080152a9        0x3 
 .rodata.VS4210_hdmi576i_1080P_mode12_w1_param
                0x00000000080152ac       0x19 build/VS4210_param_Modex26.o
                0x00000000080152ac                VS4210_hdmi576i_1080P_mode12_w1_param
 *fill*         0x00000000080152c5        0x3 
 .rodata.VS4210_hdmi1400x1050_720P_mode1_w2_param
                0x00000000080152c8       0x19 build/VS4210_param_Modex26.o
                0x00000000080152c8                VS4210_hdmi1400x1050_720P_mode1_w2_param
 *fill*         0x00000000080152e1        0x3 
 .rodata.VS4210_hdmi800x600_1080P_mode6pip_w0_param
                0x00000000080152e4       0x19 build/VS4210_param_Modex26.o
                0x00000000080152e4                VS4210_hdmi800x600_1080P_mode6pip_w0_param
 *fill*         0x00000000080152fd        0x3 
 .rodata.VS4210_hdmi1024x768_1080P_mode1_w0_param
                0x0000000008015300       0x19 build/VS4210_param_Modex26.o
                0x0000000008015300                VS4210_hdmi1024x768_1080P_mode1_w0_param
 *fill*         0x0000000008015319        0x3 
 .rodata.VS4210_hdmi720P_720P_mode1_w1_param
                0x000000000801531c       0x19 build/VS4210_param_Modex26.o
                0x000000000801531c                VS4210_hdmi720P_720P_mode1_w1_param
 *fill*         0x0000000008015335        0x3 
 .rodata.VS4210_hdmi1280x800_1080P_mode13_w1_param
                0x0000000008015338       0x19 build/VS4210_param_Modex26.o
                0x0000000008015338                VS4210_hdmi1280x800_1080P_mode13_w1_param
 *fill*         0x0000000008015351        0x3 
 .rodata.VS4210_hdmi576P_1080P_mode13_w1_param
                0x0000000008015354       0x19 build/VS4210_param_Modex26.o
                0x0000000008015354                VS4210_hdmi576P_1080P_mode13_w1_param
 *fill*         0x000000000801536d        0x3 
 .rodata.VS4210_hdmi576P_720P_mode1_w2_param
                0x0000000008015370       0x19 build/VS4210_param_Modex26.o
                0x0000000008015370                VS4210_hdmi576P_720P_mode1_w2_param
 *fill*         0x0000000008015389        0x3 
 .rodata.VS4210_hdmi1280x800_720P_mode24_w0_param
                0x000000000801538c       0x19 build/VS4210_param_Modex26.o
                0x000000000801538c                VS4210_hdmi1280x800_720P_mode24_w0_param
 *fill*         0x00000000080153a5        0x3 
 .rodata.VS4210_hdmi1920x1200_1080P_mode13_w0_param
                0x00000000080153a8       0x19 build/VS4210_param_Modex26.o
                0x00000000080153a8                VS4210_hdmi1920x1200_1080P_mode13_w0_param
 *fill*         0x00000000080153c1        0x3 
 .rodata.VS4210_hdmi480P_720P_mode13_w0_param
                0x00000000080153c4       0x19 build/VS4210_param_Modex26.o
                0x00000000080153c4                VS4210_hdmi480P_720P_mode13_w0_param
 *fill*         0x00000000080153dd        0x3 
 .rodata.VS4210_hdmi576P_720P_mode6_w0_param
                0x00000000080153e0       0x19 build/VS4210_param_Modex26.o
                0x00000000080153e0                VS4210_hdmi576P_720P_mode6_w0_param
 *fill*         0x00000000080153f9        0x3 
 .rodata.VS4210_hdmi1920x1200_1080P_mode6pip_w0_param
                0x00000000080153fc       0x19 build/VS4210_param_Modex26.o
                0x00000000080153fc                VS4210_hdmi1920x1200_1080P_mode6pip_w0_param
 *fill*         0x0000000008015415        0x3 
 .rodata.VS4210_hdmi1280x1024_720P_mode1_w0_param
                0x0000000008015418       0x19 build/VS4210_param_Modex26.o
                0x0000000008015418                VS4210_hdmi1280x1024_720P_mode1_w0_param
 *fill*         0x0000000008015431        0x3 
 .rodata.VS4210_hdmi1080i_720P_mode2_w3_param
                0x0000000008015434       0x19 build/VS4210_param_Modex26.o
                0x0000000008015434                VS4210_hdmi1080i_720P_mode2_w3_param
 *fill*         0x000000000801544d        0x3 
 .rodata.VS4210_hdmi640x480_1080P_mode2_w1_param
                0x0000000008015450       0x19 build/VS4210_param_Modex26.o
                0x0000000008015450                VS4210_hdmi640x480_1080P_mode2_w1_param
 *fill*         0x0000000008015469        0x3 
 .rodata.VS4210_hdmi720P_720P_mode1_w3_param
                0x000000000801546c       0x19 build/VS4210_param_Modex26.o
                0x000000000801546c                VS4210_hdmi720P_720P_mode1_w3_param
 *fill*         0x0000000008015485        0x3 
 .rodata.VS4210_hdmi1600x1200_720P_mode1_w1_param
                0x0000000008015488       0x19 build/VS4210_param_Modex26.o
                0x0000000008015488                VS4210_hdmi1600x1200_720P_mode1_w1_param
 *fill*         0x00000000080154a1        0x3 
 .rodata.VS4210_hdmi640x480_720P_mode2_w2_param
                0x00000000080154a4       0x19 build/VS4210_param_Modex26.o
                0x00000000080154a4                VS4210_hdmi640x480_720P_mode2_w2_param
 *fill*         0x00000000080154bd        0x3 
 .rodata.VS4210_hdmi480P_1080P_mode12_w1_param
                0x00000000080154c0       0x19 build/VS4210_param_Modex26.o
                0x00000000080154c0                VS4210_hdmi480P_1080P_mode12_w1_param
 *fill*         0x00000000080154d9        0x3 
 .rodata.VS4210_hdmi800x600_1080P_mode1_w3_param
                0x00000000080154dc       0x19 build/VS4210_param_Modex26.o
                0x00000000080154dc                VS4210_hdmi800x600_1080P_mode1_w3_param
 *fill*         0x00000000080154f5        0x3 
 .rodata.VS4210_hdmi1024x768_1080P_mode6_w3_param
                0x00000000080154f8       0x19 build/VS4210_param_Modex26.o
                0x00000000080154f8                VS4210_hdmi1024x768_1080P_mode6_w3_param
 *fill*         0x0000000008015511        0x3 
 .rodata.VS4210_hdmi1600x1200_1080P_mode6_w1_param
                0x0000000008015514       0x19 build/VS4210_param_Modex26.o
                0x0000000008015514                VS4210_hdmi1600x1200_1080P_mode6_w1_param
 *fill*         0x000000000801552d        0x3 
 .rodata.VS4210_hdmi480P_720P_mode1_w3_param
                0x0000000008015530       0x19 build/VS4210_param_Modex26.o
                0x0000000008015530                VS4210_hdmi480P_720P_mode1_w3_param
 *fill*         0x0000000008015549        0x3 
 .rodata.VS4210_hdmi1920x1200_720P_mode1_w2_param
                0x000000000801554c       0x19 build/VS4210_param_Modex26.o
                0x000000000801554c                VS4210_hdmi1920x1200_720P_mode1_w2_param
 *fill*         0x0000000008015565        0x3 
 .rodata.VS4210_hdmi1280x800_720P_mode1_w3_param
                0x0000000008015568       0x19 build/VS4210_param_Modex26.o
                0x0000000008015568                VS4210_hdmi1280x800_720P_mode1_w3_param
 *fill*         0x0000000008015581        0x3 
 .rodata.VS4210_hdmi1280x800_720P_mode2_w3_param
                0x0000000008015584       0x19 build/VS4210_param_Modex26.o
                0x0000000008015584                VS4210_hdmi1280x800_720P_mode2_w3_param
 *fill*         0x000000000801559d        0x3 
 .rodata.VS4210_hdmi1360x768_1080P_mode6pip_w1_param
                0x00000000080155a0       0x19 build/VS4210_param_Modex26.o
                0x00000000080155a0                VS4210_hdmi1360x768_1080P_mode6pip_w1_param
 *fill*         0x00000000080155b9        0x3 
 .rodata.VS4210_hdmi800x600_1080P_mode6_w1_param
                0x00000000080155bc       0x19 build/VS4210_param_Modex26.o
                0x00000000080155bc                VS4210_hdmi800x600_1080P_mode6_w1_param
 *fill*         0x00000000080155d5        0x3 
 .rodata.VS4210_hdmi576P_1080P_mode6pip_w3_param
                0x00000000080155d8       0x19 build/VS4210_param_Modex26.o
                0x00000000080155d8                VS4210_hdmi576P_1080P_mode6pip_w3_param
 *fill*         0x00000000080155f1        0x3 
 .rodata.VS4210_hdmi1024x768_720P_mode1_w0_param
                0x00000000080155f4       0x19 build/VS4210_param_Modex26.o
                0x00000000080155f4                VS4210_hdmi1024x768_720P_mode1_w0_param
 *fill*         0x000000000801560d        0x3 
 .rodata.VS4210_hdmi576P_720P_mode12_w0_param
                0x0000000008015610       0x19 build/VS4210_param_Modex26.o
                0x0000000008015610                VS4210_hdmi576P_720P_mode12_w0_param
 *fill*         0x0000000008015629        0x3 
 .rodata.VS4210_hdmi576i_1080P_mode2_w0_param
                0x000000000801562c       0x19 build/VS4210_param_Modex26.o
                0x000000000801562c                VS4210_hdmi576i_1080P_mode2_w0_param
 *fill*         0x0000000008015645        0x3 
 .rodata.VS4210_hdmi640x480_1080P_mode2_w3_param
                0x0000000008015648       0x19 build/VS4210_param_Modex26.o
                0x0000000008015648                VS4210_hdmi640x480_1080P_mode2_w3_param
 *fill*         0x0000000008015661        0x3 
 .rodata.VS4210_hdmi1280x800_1080P_mode2_w0_param
                0x0000000008015664       0x19 build/VS4210_param_Modex26.o
                0x0000000008015664                VS4210_hdmi1280x800_1080P_mode2_w0_param
 *fill*         0x000000000801567d        0x3 
 .rodata.VS4210_hdmi1080P_1080P_mode2_w3_param
                0x0000000008015680       0x19 build/VS4210_param_Modex26.o
                0x0000000008015680                VS4210_hdmi1080P_1080P_mode2_w3_param
 *fill*         0x0000000008015699        0x3 
 .rodata.VS4210_hdmi1280x1024_1080P_mode1_w2_param
                0x000000000801569c       0x19 build/VS4210_param_Modex26.o
                0x000000000801569c                VS4210_hdmi1280x1024_1080P_mode1_w2_param
 *fill*         0x00000000080156b5        0x3 
 .rodata.VS4210_hdmi1080i_1080P_mode6_w0_param
                0x00000000080156b8       0x19 build/VS4210_param_Modex26.o
                0x00000000080156b8                VS4210_hdmi1080i_1080P_mode6_w0_param
 *fill*         0x00000000080156d1        0x3 
 .rodata.VS4210_hdmi1366x768_720P_mode2_w2_param
                0x00000000080156d4       0x19 build/VS4210_param_Modex26.o
                0x00000000080156d4                VS4210_hdmi1366x768_720P_mode2_w2_param
 *fill*         0x00000000080156ed        0x3 
 .rodata.VS4210_hdmi1400x1050_1080P_mode2_w2_param
                0x00000000080156f0       0x19 build/VS4210_param_Modex26.o
                0x00000000080156f0                VS4210_hdmi1400x1050_1080P_mode2_w2_param
 *fill*         0x0000000008015709        0x3 
 .rodata.VS4210_hdmi800x600_720P_mode1_w1_param
                0x000000000801570c       0x19 build/VS4210_param_Modex26.o
                0x000000000801570c                VS4210_hdmi800x600_720P_mode1_w1_param
 *fill*         0x0000000008015725        0x3 
 .rodata.VS4210_hdmi640x480_1080P_mode6_w3_param
                0x0000000008015728       0x19 build/VS4210_param_Modex26.o
                0x0000000008015728                VS4210_hdmi640x480_1080P_mode6_w3_param
 *fill*         0x0000000008015741        0x3 
 .rodata.VS4210_hdmi1680x1050_1080P_mode1_w0_param
                0x0000000008015744       0x19 build/VS4210_param_Modex26.o
                0x0000000008015744                VS4210_hdmi1680x1050_1080P_mode1_w0_param
 *fill*         0x000000000801575d        0x3 
 .rodata.VS4210_hdmi480i_720P_mode24_w1_param
                0x0000000008015760       0x19 build/VS4210_param_Modex26.o
                0x0000000008015760                VS4210_hdmi480i_720P_mode24_w1_param
 *fill*         0x0000000008015779        0x3 
 .rodata.VS4210_hdmi1080i_720P_mode1_w2_param
                0x000000000801577c       0x19 build/VS4210_param_Modex26.o
                0x000000000801577c                VS4210_hdmi1080i_720P_mode1_w2_param
 *fill*         0x0000000008015795        0x3 
 .rodata.VS4210_hdmi1280x800_1080P_mode6pip_w1_param
                0x0000000008015798       0x19 build/VS4210_param_Modex26.o
                0x0000000008015798                VS4210_hdmi1280x800_1080P_mode6pip_w1_param
 *fill*         0x00000000080157b1        0x3 
 .rodata.VS4210_hdmi576i_720P_mode1_w0_param
                0x00000000080157b4       0x19 build/VS4210_param_Modex26.o
                0x00000000080157b4                VS4210_hdmi576i_720P_mode1_w0_param
 *fill*         0x00000000080157cd        0x3 
 .rodata.VS4210_hdmi1280x768_1080P_mode2_w2_param
                0x00000000080157d0       0x19 build/VS4210_param_Modex26.o
                0x00000000080157d0                VS4210_hdmi1280x768_1080P_mode2_w2_param
 *fill*         0x00000000080157e9        0x3 
 .rodata.VS4210_hdmi1024x768_1080P_mode2_w2_param
                0x00000000080157ec       0x19 build/VS4210_param_Modex26.o
                0x00000000080157ec                VS4210_hdmi1024x768_1080P_mode2_w2_param
 *fill*         0x0000000008015805        0x3 
 .rodata.VS4210_hdmi480P_1080P_mode6pip_w1_param
                0x0000000008015808       0x19 build/VS4210_param_Modex26.o
                0x0000000008015808                VS4210_hdmi480P_1080P_mode6pip_w1_param
 *fill*         0x0000000008015821        0x3 
 .rodata.VS4210_hdmi800x600_720P_mode24_w0_param
                0x0000000008015824       0x19 build/VS4210_param_Modex26.o
                0x0000000008015824                VS4210_hdmi800x600_720P_mode24_w0_param
 *fill*         0x000000000801583d        0x3 
 .rodata.VS4210_hdmi1280x1024_1080P_mode2_w1_param
                0x0000000008015840       0x19 build/VS4210_param_Modex26.o
                0x0000000008015840                VS4210_hdmi1280x1024_1080P_mode2_w1_param
 *fill*         0x0000000008015859        0x3 
 .rodata.VS4210_hdmi1280x768_1080P_mode1_w0_param
                0x000000000801585c       0x19 build/VS4210_param_Modex26.o
                0x000000000801585c                VS4210_hdmi1280x768_1080P_mode1_w0_param
 *fill*         0x0000000008015875        0x3 
 .rodata.VS4210_hdmi1024x768_720P_mode6_w2_param
                0x0000000008015878       0x19 build/VS4210_param_Modex26.o
                0x0000000008015878                VS4210_hdmi1024x768_720P_mode6_w2_param
 *fill*         0x0000000008015891        0x3 
 .rodata.VS4210_hdmi1366x768_1080P_mode6pip_w1_param
                0x0000000008015894       0x19 build/VS4210_param_Modex26.o
                0x0000000008015894                VS4210_hdmi1366x768_1080P_mode6pip_w1_param
 *fill*         0x00000000080158ad        0x3 
 .rodata.VS4210_hdmi576i_1080P_mode6_w2_param
                0x00000000080158b0       0x19 build/VS4210_param_Modex26.o
                0x00000000080158b0                VS4210_hdmi576i_1080P_mode6_w2_param
 *fill*         0x00000000080158c9        0x3 
 .rodata.VS4210_hdmi576P_1080P_mode1_w1_param
                0x00000000080158cc       0x19 build/VS4210_param_Modex26.o
                0x00000000080158cc                VS4210_hdmi576P_1080P_mode1_w1_param
 *fill*         0x00000000080158e5        0x3 
 .rodata.VS4210_hdmi480i_1080P_mode12_w0_param
                0x00000000080158e8       0x19 build/VS4210_param_Modex26.o
                0x00000000080158e8                VS4210_hdmi480i_1080P_mode12_w0_param
 *fill*         0x0000000008015901        0x3 
 .rodata.VS4210_hdmi1400x1050_720P_mode2_w3_param
                0x0000000008015904       0x19 build/VS4210_param_Modex26.o
                0x0000000008015904                VS4210_hdmi1400x1050_720P_mode2_w3_param
 *fill*         0x000000000801591d        0x3 
 .rodata.VS4210_hdmi1400x1050_1080P_mode6_w3_param
                0x0000000008015920       0x19 build/VS4210_param_Modex26.o
                0x0000000008015920                VS4210_hdmi1400x1050_1080P_mode6_w3_param
 *fill*         0x0000000008015939        0x3 
 .rodata.VS4210_hdmi1080i_1080P_mode6pip_w3_param
                0x000000000801593c       0x19 build/VS4210_param_Modex26.o
                0x000000000801593c                VS4210_hdmi1080i_1080P_mode6pip_w3_param
 *fill*         0x0000000008015955        0x3 
 .rodata.VS4210_hdmi1024x768_1080P_mode6pip_w2_param
                0x0000000008015958       0x19 build/VS4210_param_Modex26.o
                0x0000000008015958                VS4210_hdmi1024x768_1080P_mode6pip_w2_param
 *fill*         0x0000000008015971        0x3 
 .rodata.VS4210_hdmi480i_720P_mode12_w0_param
                0x0000000008015974       0x19 build/VS4210_param_Modex26.o
                0x0000000008015974                VS4210_hdmi480i_720P_mode12_w0_param
 *fill*         0x000000000801598d        0x3 
 .rodata.VS4210_hdmi1366x768_1080P_mode12_w0_param
                0x0000000008015990       0x19 build/VS4210_param_Modex26.o
                0x0000000008015990                VS4210_hdmi1366x768_1080P_mode12_w0_param
 *fill*         0x00000000080159a9        0x3 
 .rodata.VS4210_hdmi480i_1080P_mode6pip_w0_param
                0x00000000080159ac       0x19 build/VS4210_param_Modex26.o
                0x00000000080159ac                VS4210_hdmi480i_1080P_mode6pip_w0_param
 *fill*         0x00000000080159c5        0x3 
 .rodata.VS4210_hdmi1080P_1080P_mode6pip_w1_param
                0x00000000080159c8       0x19 build/VS4210_param_Modex26.o
                0x00000000080159c8                VS4210_hdmi1080P_1080P_mode6pip_w1_param
 *fill*         0x00000000080159e1        0x3 
 .rodata.VS4210_hdmi640x480_1080P_mode6pip_w0_param
                0x00000000080159e4       0x19 build/VS4210_param_Modex26.o
                0x00000000080159e4                VS4210_hdmi640x480_1080P_mode6pip_w0_param
 *fill*         0x00000000080159fd        0x3 
 .rodata.VS4210_hdmi1440x900_720P_mode12_w1_param
                0x0000000008015a00       0x19 build/VS4210_param_Modex26.o
                0x0000000008015a00                VS4210_hdmi1440x900_720P_mode12_w1_param
 *fill*         0x0000000008015a19        0x3 
 .rodata.VS4210_hdmi1366x768_720P_mode24_w0_param
                0x0000000008015a1c       0x19 build/VS4210_param_Modex26.o
                0x0000000008015a1c                VS4210_hdmi1366x768_720P_mode24_w0_param
 *fill*         0x0000000008015a35        0x3 
 .rodata.VS4210_hdmi1280x768_1080P_mode6pip_w1_param
                0x0000000008015a38       0x19 build/VS4210_param_Modex26.o
                0x0000000008015a38                VS4210_hdmi1280x768_1080P_mode6pip_w1_param
 *fill*         0x0000000008015a51        0x3 
 .rodata.VS4210_hdmi720P_1080P_mode6pip_w1_param
                0x0000000008015a54       0x19 build/VS4210_param_Modex26.o
                0x0000000008015a54                VS4210_hdmi720P_1080P_mode6pip_w1_param
 *fill*         0x0000000008015a6d        0x3 
 .rodata.VS4210_hdmi1680x1050_1080P_mode12_w0_param
                0x0000000008015a70       0x19 build/VS4210_param_Modex26.o
                0x0000000008015a70                VS4210_hdmi1680x1050_1080P_mode12_w0_param
 *fill*         0x0000000008015a89        0x3 
 .rodata.VS4210_hdmi480P_720P_mode24_w0_param
                0x0000000008015a8c       0x19 build/VS4210_param_Modex26.o
                0x0000000008015a8c                VS4210_hdmi480P_720P_mode24_w0_param
 *fill*         0x0000000008015aa5        0x3 
 .rodata.VS4210_hdmi1080P_720P_mode12_w1_param
                0x0000000008015aa8       0x19 build/VS4210_param_Modex26.o
                0x0000000008015aa8                VS4210_hdmi1080P_720P_mode12_w1_param
 *fill*         0x0000000008015ac1        0x3 
 .rodata.VS4210_hdmi1400x1050_720P_mode24_w1_param
                0x0000000008015ac4       0x19 build/VS4210_param_Modex26.o
                0x0000000008015ac4                VS4210_hdmi1400x1050_720P_mode24_w1_param
 *fill*         0x0000000008015add        0x3 
 .rodata.VS4210_hdmi1280x800_1080P_mode6pip_w3_param
                0x0000000008015ae0       0x19 build/VS4210_param_Modex26.o
                0x0000000008015ae0                VS4210_hdmi1280x800_1080P_mode6pip_w3_param
 *fill*         0x0000000008015af9        0x3 
 .rodata.VS4210_hdmi1440x900_1080P_mode12_w1_param
                0x0000000008015afc       0x19 build/VS4210_param_Modex26.o
                0x0000000008015afc                VS4210_hdmi1440x900_1080P_mode12_w1_param
 *fill*         0x0000000008015b15        0x3 
 .rodata.VS4210_hdmi1440x900_1080P_mode1_w3_param
                0x0000000008015b18       0x19 build/VS4210_param_Modex26.o
                0x0000000008015b18                VS4210_hdmi1440x900_1080P_mode1_w3_param
 *fill*         0x0000000008015b31        0x3 
 .rodata.VS4210_hdmi1366x768_720P_mode1_w2_param
                0x0000000008015b34       0x19 build/VS4210_param_Modex26.o
                0x0000000008015b34                VS4210_hdmi1366x768_720P_mode1_w2_param
 *fill*         0x0000000008015b4d        0x3 
 .rodata.VS4210_hdmi576P_720P_mode2_w0_param
                0x0000000008015b50       0x19 build/VS4210_param_Modex26.o
                0x0000000008015b50                VS4210_hdmi576P_720P_mode2_w0_param
 *fill*         0x0000000008015b69        0x3 
 .rodata.VS4210_hdmi1280x768_720P_mode1_w3_param
                0x0000000008015b6c       0x19 build/VS4210_param_Modex26.o
                0x0000000008015b6c                VS4210_hdmi1280x768_720P_mode1_w3_param
 *fill*         0x0000000008015b85        0x3 
 .rodata.VS4210_hdmi1440x900_1080P_mode1_w0_param
                0x0000000008015b88       0x19 build/VS4210_param_Modex26.o
                0x0000000008015b88                VS4210_hdmi1440x900_1080P_mode1_w0_param
 *fill*         0x0000000008015ba1        0x3 
 .rodata.VS4210_hdmi1280x1024_1080P_mode6_w3_param
                0x0000000008015ba4       0x19 build/VS4210_param_Modex26.o
                0x0000000008015ba4                VS4210_hdmi1280x1024_1080P_mode6_w3_param
 *fill*         0x0000000008015bbd        0x3 
 .rodata.VS4210_hdmi576i_720P_mode24_w1_param
                0x0000000008015bc0       0x19 build/VS4210_param_Modex26.o
                0x0000000008015bc0                VS4210_hdmi576i_720P_mode24_w1_param
 *fill*         0x0000000008015bd9        0x3 
 .rodata.VS4210_hdmi1400x1050_720P_mode6_w0_param
                0x0000000008015bdc       0x19 build/VS4210_param_Modex26.o
                0x0000000008015bdc                VS4210_hdmi1400x1050_720P_mode6_w0_param
 *fill*         0x0000000008015bf5        0x3 
 .rodata.VS4210_hdmi800x600_1080P_mode13_w0_param
                0x0000000008015bf8       0x19 build/VS4210_param_Modex26.o
                0x0000000008015bf8                VS4210_hdmi800x600_1080P_mode13_w0_param
 *fill*         0x0000000008015c11        0x3 
 .rodata.VS4210_hdmi1280x800_1080P_mode6_w3_param
                0x0000000008015c14       0x19 build/VS4210_param_Modex26.o
                0x0000000008015c14                VS4210_hdmi1280x800_1080P_mode6_w3_param
 *fill*         0x0000000008015c2d        0x3 
 .rodata.VS4210_hdmi1440x900_720P_mode6_w3_param
                0x0000000008015c30       0x19 build/VS4210_param_Modex26.o
                0x0000000008015c30                VS4210_hdmi1440x900_720P_mode6_w3_param
 *fill*         0x0000000008015c49        0x3 
 .rodata.VS4210_hdmi1080i_1080P_mode1_w3_param
                0x0000000008015c4c       0x19 build/VS4210_param_Modex26.o
                0x0000000008015c4c                VS4210_hdmi1080i_1080P_mode1_w3_param
 *fill*         0x0000000008015c65        0x3 
 .rodata.VS4210_hdmi1280x768_720P_mode12_w1_param
                0x0000000008015c68       0x19 build/VS4210_param_Modex26.o
                0x0000000008015c68                VS4210_hdmi1280x768_720P_mode12_w1_param
 *fill*         0x0000000008015c81        0x3 
 .rodata.VS4210_hdmi1600x1200_1080P_mode13_w1_param
                0x0000000008015c84       0x19 build/VS4210_param_Modex26.o
                0x0000000008015c84                VS4210_hdmi1600x1200_1080P_mode13_w1_param
 *fill*         0x0000000008015c9d        0x3 
 .rodata.VS4210_hdmi640x480_1080P_mode1_w0_param
                0x0000000008015ca0       0x19 build/VS4210_param_Modex26.o
                0x0000000008015ca0                VS4210_hdmi640x480_1080P_mode1_w0_param
 *fill*         0x0000000008015cb9        0x3 
 .rodata.VS4210_hdmi1024x768_1080P_mode6_w0_param
                0x0000000008015cbc       0x19 build/VS4210_param_Modex26.o
                0x0000000008015cbc                VS4210_hdmi1024x768_1080P_mode6_w0_param
 *fill*         0x0000000008015cd5        0x3 
 .rodata.VS4210_hdmi480i_1080P_mode1_w1_param
                0x0000000008015cd8       0x19 build/VS4210_param_Modex26.o
                0x0000000008015cd8                VS4210_hdmi480i_1080P_mode1_w1_param
 *fill*         0x0000000008015cf1        0x3 
 .rodata.VS4210_hdmi800x600_720P_mode2_w0_param
                0x0000000008015cf4       0x19 build/VS4210_param_Modex26.o
                0x0000000008015cf4                VS4210_hdmi800x600_720P_mode2_w0_param
 *fill*         0x0000000008015d0d        0x3 
 .rodata.VS4210_hdmi800x600_1080P_mode6pip_w2_param
                0x0000000008015d10       0x19 build/VS4210_param_Modex26.o
                0x0000000008015d10                VS4210_hdmi800x600_1080P_mode6pip_w2_param
 *fill*         0x0000000008015d29        0x3 
 .rodata.VS4210_hdmi720P_1080P_mode12_w1_param
                0x0000000008015d2c       0x19 build/VS4210_param_Modex26.o
                0x0000000008015d2c                VS4210_hdmi720P_1080P_mode12_w1_param
 *fill*         0x0000000008015d45        0x3 
 .rodata.VS4210_hdmi800x600_1080P_mode2_w1_param
                0x0000000008015d48       0x19 build/VS4210_param_Modex26.o
                0x0000000008015d48                VS4210_hdmi800x600_1080P_mode2_w1_param
 *fill*         0x0000000008015d61        0x3 
 .rodata.VS4210_hdmi1080i_720P_mode13_w0_param
                0x0000000008015d64       0x19 build/VS4210_param_Modex26.o
                0x0000000008015d64                VS4210_hdmi1080i_720P_mode13_w0_param
 *fill*         0x0000000008015d7d        0x3 
 .rodata.VS4210_hdmi480P_720P_mode2_w1_param
                0x0000000008015d80       0x19 build/VS4210_param_Modex26.o
                0x0000000008015d80                VS4210_hdmi480P_720P_mode2_w1_param
 *fill*         0x0000000008015d99        0x3 
 .rodata.VS4210_hdmi1920x1200_720P_mode2_w0_param
                0x0000000008015d9c       0x19 build/VS4210_param_Modex26.o
                0x0000000008015d9c                VS4210_hdmi1920x1200_720P_mode2_w0_param
 *fill*         0x0000000008015db5        0x3 
 .rodata.VS4210_hdmi1280x800_720P_mode2_w1_param
                0x0000000008015db8       0x19 build/VS4210_param_Modex26.o
                0x0000000008015db8                VS4210_hdmi1280x800_720P_mode2_w1_param
 *fill*         0x0000000008015dd1        0x3 
 .rodata.VS4210_hdmi1280x768_720P_mode13_w1_param
                0x0000000008015dd4       0x19 build/VS4210_param_Modex26.o
                0x0000000008015dd4                VS4210_hdmi1280x768_720P_mode13_w1_param
 *fill*         0x0000000008015ded        0x3 
 .rodata.VS4210_hdmi1600x1200_720P_mode12_w0_param
                0x0000000008015df0       0x19 build/VS4210_param_Modex26.o
                0x0000000008015df0                VS4210_hdmi1600x1200_720P_mode12_w0_param
 *fill*         0x0000000008015e09        0x3 
 .rodata.VS4210_hdmi720P_720P_mode6_w1_param
                0x0000000008015e0c       0x19 build/VS4210_param_Modex26.o
                0x0000000008015e0c                VS4210_hdmi720P_720P_mode6_w1_param
 *fill*         0x0000000008015e25        0x3 
 .rodata.VS4210_hdmi1360x768_720P_mode6_w0_param
                0x0000000008015e28       0x19 build/VS4210_param_Modex26.o
                0x0000000008015e28                VS4210_hdmi1360x768_720P_mode6_w0_param
 *fill*         0x0000000008015e41        0x3 
 .rodata.VS4210_hdmi1440x900_1080P_mode1_w2_param
                0x0000000008015e44       0x19 build/VS4210_param_Modex26.o
                0x0000000008015e44                VS4210_hdmi1440x900_1080P_mode1_w2_param
 *fill*         0x0000000008015e5d        0x3 
 .rodata.VS4210_hdmi576P_720P_mode6_w2_param
                0x0000000008015e60       0x19 build/VS4210_param_Modex26.o
                0x0000000008015e60                VS4210_hdmi576P_720P_mode6_w2_param
 *fill*         0x0000000008015e79        0x3 
 .rodata.VS4210_hdmi1600x1200_1080P_mode2_w3_param
                0x0000000008015e7c       0x19 build/VS4210_param_Modex26.o
                0x0000000008015e7c                VS4210_hdmi1600x1200_1080P_mode2_w3_param
 *fill*         0x0000000008015e95        0x3 
 .rodata.VS4210_hdmi480P_720P_mode6_w1_param
                0x0000000008015e98       0x19 build/VS4210_param_Modex26.o
                0x0000000008015e98                VS4210_hdmi480P_720P_mode6_w1_param
 *fill*         0x0000000008015eb1        0x3 
 .rodata.VS4210_hdmi1920x1200_720P_mode6_w0_param
                0x0000000008015eb4       0x19 build/VS4210_param_Modex26.o
                0x0000000008015eb4                VS4210_hdmi1920x1200_720P_mode6_w0_param
 *fill*         0x0000000008015ecd        0x3 
 .rodata.VS4210_hdmi1280x800_720P_mode6_w1_param
                0x0000000008015ed0       0x19 build/VS4210_param_Modex26.o
                0x0000000008015ed0                VS4210_hdmi1280x800_720P_mode6_w1_param
 *fill*         0x0000000008015ee9        0x3 
 .rodata.VS4210_hdmi800x600_720P_mode1_w0_param
                0x0000000008015eec       0x19 build/VS4210_param_Modex26.o
                0x0000000008015eec                VS4210_hdmi800x600_720P_mode1_w0_param
 *fill*         0x0000000008015f05        0x3 
 .rodata.VS4210_hdmi1360x768_720P_mode1_w1_param
                0x0000000008015f08       0x19 build/VS4210_param_Modex26.o
                0x0000000008015f08                VS4210_hdmi1360x768_720P_mode1_w1_param
 *fill*         0x0000000008015f21        0x3 
 .rodata.VS4210_hdmi1680x1050_720P_mode1_w1_param
                0x0000000008015f24       0x19 build/VS4210_param_Modex26.o
                0x0000000008015f24                VS4210_hdmi1680x1050_720P_mode1_w1_param
 *fill*         0x0000000008015f3d        0x3 
 .rodata.VS4210_hdmi1080P_1080P_mode6_w2_param
                0x0000000008015f40       0x19 build/VS4210_param_Modex26.o
                0x0000000008015f40                VS4210_hdmi1080P_1080P_mode6_w2_param
 *fill*         0x0000000008015f59        0x3 
 .rodata.VS4210_hdmi1600x1200_720P_mode1_w3_param
                0x0000000008015f5c       0x19 build/VS4210_param_Modex26.o
                0x0000000008015f5c                VS4210_hdmi1600x1200_720P_mode1_w3_param
 *fill*         0x0000000008015f75        0x3 
 .rodata.VS4210_hdmi1080P_720P_mode12_w0_param
                0x0000000008015f78       0x19 build/VS4210_param_Modex26.o
                0x0000000008015f78                VS4210_hdmi1080P_720P_mode12_w0_param
 *fill*         0x0000000008015f91        0x3 
 .rodata.VS4210_hdmi720P_1080P_mode1_w1_param
                0x0000000008015f94       0x19 build/VS4210_param_Modex26.o
                0x0000000008015f94                VS4210_hdmi720P_1080P_mode1_w1_param
 *fill*         0x0000000008015fad        0x3 
 .rodata.VS4210_hdmi480P_1080P_mode2_w1_param
                0x0000000008015fb0       0x19 build/VS4210_param_Modex26.o
                0x0000000008015fb0                VS4210_hdmi480P_1080P_mode2_w1_param
 *fill*         0x0000000008015fc9        0x3 
 .rodata.VS4210_hdmi1600x1200_1080P_mode6_w3_param
                0x0000000008015fcc       0x19 build/VS4210_param_Modex26.o
                0x0000000008015fcc                VS4210_hdmi1600x1200_1080P_mode6_w3_param
 *fill*         0x0000000008015fe5        0x3 
 .rodata.VS4210_hdmi1280x768_720P_mode1_w1_param
                0x0000000008015fe8       0x19 build/VS4210_param_Modex26.o
                0x0000000008015fe8                VS4210_hdmi1280x768_720P_mode1_w1_param
 *fill*         0x0000000008016001        0x3 
 .rodata.VS4210_hdmi1600x1200_720P_mode6_w1_param
                0x0000000008016004       0x19 build/VS4210_param_Modex26.o
                0x0000000008016004                VS4210_hdmi1600x1200_720P_mode6_w1_param
 *fill*         0x000000000801601d        0x3 
 .rodata.VS4210_hdmi1280x1024_1080P_mode6_w0_param
                0x0000000008016020       0x19 build/VS4210_param_Modex26.o
                0x0000000008016020                VS4210_hdmi1280x1024_1080P_mode6_w0_param
 *fill*         0x0000000008016039        0x3 
 .rodata.VS4210_hdmi1366x768_1080P_mode1_w2_param
                0x000000000801603c       0x19 build/VS4210_param_Modex26.o
                0x000000000801603c                VS4210_hdmi1366x768_1080P_mode1_w2_param
 *fill*         0x0000000008016055        0x3 
 .rodata.VS4210_hdmi800x600_1080P_mode6_w3_param
                0x0000000008016058       0x19 build/VS4210_param_Modex26.o
                0x0000000008016058                VS4210_hdmi800x600_1080P_mode6_w3_param
 *fill*         0x0000000008016071        0x3 
 .rodata.VS4210_hdmi1080P_1080P_mode12_w0_param
                0x0000000008016074       0x19 build/VS4210_param_Modex26.o
                0x0000000008016074                VS4210_hdmi1080P_1080P_mode12_w0_param
 *fill*         0x000000000801608d        0x3 
 .rodata.VS4210_hdmi1024x768_720P_mode1_w2_param
                0x0000000008016090       0x19 build/VS4210_param_Modex26.o
                0x0000000008016090                VS4210_hdmi1024x768_720P_mode1_w2_param
 *fill*         0x00000000080160a9        0x3 
 .rodata.VS4210_hdmi480P_720P_mode6_w3_param
                0x00000000080160ac       0x19 build/VS4210_param_Modex26.o
                0x00000000080160ac                VS4210_hdmi480P_720P_mode6_w3_param
 *fill*         0x00000000080160c5        0x3 
 .rodata.VS4210_hdmi1920x1200_720P_mode6_w2_param
                0x00000000080160c8       0x19 build/VS4210_param_Modex26.o
                0x00000000080160c8                VS4210_hdmi1920x1200_720P_mode6_w2_param
 *fill*         0x00000000080160e1        0x3 
 .rodata.VS4210_hdmi1366x768_1080P_mode13_w1_param
                0x00000000080160e4       0x19 build/VS4210_param_Modex26.o
                0x00000000080160e4                VS4210_hdmi1366x768_1080P_mode13_w1_param
 *fill*         0x00000000080160fd        0x3 
 .rodata.VS4210_hdmi1680x1050_1080P_mode6pip_w3_param
                0x0000000008016100       0x19 build/VS4210_param_Modex26.o
                0x0000000008016100                VS4210_hdmi1680x1050_1080P_mode6pip_w3_param
 *fill*         0x0000000008016119        0x3 
 .rodata.VS4210_hdmi1080P_1080P_mode12_w1_param
                0x000000000801611c       0x19 build/VS4210_param_Modex26.o
                0x000000000801611c                VS4210_hdmi1080P_1080P_mode12_w1_param
 *fill*         0x0000000008016135        0x3 
 .rodata.VS4210_hdmi1080i_720P_mode1_w1_param
                0x0000000008016138       0x19 build/VS4210_param_Modex26.o
                0x0000000008016138                VS4210_hdmi1080i_720P_mode1_w1_param
 *fill*         0x0000000008016151        0x3 
 .rodata.VS4210_hdmi1280x800_720P_mode2_w0_param
                0x0000000008016154       0x19 build/VS4210_param_Modex26.o
                0x0000000008016154                VS4210_hdmi1280x800_720P_mode2_w0_param
 *fill*         0x000000000801616d        0x3 
 .rodata.VS4210_hdmi1680x1050_1080P_mode6pip_w2_param
                0x0000000008016170       0x19 build/VS4210_param_Modex26.o
                0x0000000008016170                VS4210_hdmi1680x1050_1080P_mode6pip_w2_param
 *fill*         0x0000000008016189        0x3 
 .rodata.VS4210_hdmi1280x768_1080P_mode12_w0_param
                0x000000000801618c       0x19 build/VS4210_param_Modex26.o
                0x000000000801618c                VS4210_hdmi1280x768_1080P_mode12_w0_param
 *fill*         0x00000000080161a5        0x3 
 .rodata.VS4210_hdmi1280x1024_1080P_mode1_w1_param
                0x00000000080161a8       0x19 build/VS4210_param_Modex26.o
                0x00000000080161a8                VS4210_hdmi1280x1024_1080P_mode1_w1_param
 *fill*         0x00000000080161c1        0x3 
 .rodata.VS4210_hdmi480P_1080P_mode2_w3_param
                0x00000000080161c4       0x19 build/VS4210_param_Modex26.o
                0x00000000080161c4                VS4210_hdmi480P_1080P_mode2_w3_param
 *fill*         0x00000000080161dd        0x3 
 .rodata.VS4210_hdmi1600x1200_1080P_mode2_w1_param
                0x00000000080161e0       0x19 build/VS4210_param_Modex26.o
                0x00000000080161e0                VS4210_hdmi1600x1200_1080P_mode2_w1_param
 *fill*         0x00000000080161f9        0x3 
 .rodata.VS4210_hdmi1280x768_720P_mode13_w0_param
                0x00000000080161fc       0x19 build/VS4210_param_Modex26.o
                0x00000000080161fc                VS4210_hdmi1280x768_720P_mode13_w0_param
 *fill*         0x0000000008016215        0x3 
 .rodata.VS4210_hdmi800x600_720P_mode1_w3_param
                0x0000000008016218       0x19 build/VS4210_param_Modex26.o
                0x0000000008016218                VS4210_hdmi800x600_720P_mode1_w3_param
 *fill*         0x0000000008016231        0x3 
 .rodata.VS4210_hdmi1680x1050_1080P_mode1_w2_param
                0x0000000008016234       0x19 build/VS4210_param_Modex26.o
                0x0000000008016234                VS4210_hdmi1680x1050_1080P_mode1_w2_param
 *fill*         0x000000000801624d        0x3 
 .rodata.VS4210_hdmi1360x768_720P_mode1_w3_param
                0x0000000008016250       0x19 build/VS4210_param_Modex26.o
                0x0000000008016250                VS4210_hdmi1360x768_720P_mode1_w3_param
 *fill*         0x0000000008016269        0x3 
 .rodata.VS4210_hdmi1920x1200_1080P_mode2_w0_param
                0x000000000801626c       0x19 build/VS4210_param_Modex26.o
                0x000000000801626c                VS4210_hdmi1920x1200_1080P_mode2_w0_param
 *fill*         0x0000000008016285        0x3 
 .rodata.VS4210_hdmi1366x768_720P_mode2_w3_param
                0x0000000008016288       0x19 build/VS4210_param_Modex26.o
                0x0000000008016288                VS4210_hdmi1366x768_720P_mode2_w3_param
 *fill*         0x00000000080162a1        0x3 
 .rodata.VS4210_hdmi1024x768_1080P_mode6_w2_param
                0x00000000080162a4       0x19 build/VS4210_param_Modex26.o
                0x00000000080162a4                VS4210_hdmi1024x768_1080P_mode6_w2_param
 *fill*         0x00000000080162bd        0x3 
 .rodata.VS4210_hdmi576i_720P_mode1_w2_param
                0x00000000080162c0       0x19 build/VS4210_param_Modex26.o
                0x00000000080162c0                VS4210_hdmi576i_720P_mode1_w2_param
 *fill*         0x00000000080162d9        0x3 
 .rodata.VS4210_hdmi480i_720P_mode1_w1_param
                0x00000000080162dc       0x19 build/VS4210_param_Modex26.o
                0x00000000080162dc                VS4210_hdmi480i_720P_mode1_w1_param
 *fill*         0x00000000080162f5        0x3 
 .rodata.VS4210_hdmi1080i_1080P_mode6pip_w0_param
                0x00000000080162f8       0x19 build/VS4210_param_Modex26.o
                0x00000000080162f8                VS4210_hdmi1080i_1080P_mode6pip_w0_param
 *fill*         0x0000000008016311        0x3 
 .rodata.VS4210_hdmi480P_1080P_mode6pip_w3_param
                0x0000000008016314       0x19 build/VS4210_param_Modex26.o
                0x0000000008016314                VS4210_hdmi480P_1080P_mode6pip_w3_param
 *fill*         0x000000000801632d        0x3 
 .rodata.VS4210_hdmi480P_1080P_mode13_w0_param
                0x0000000008016330       0x19 build/VS4210_param_Modex26.o
                0x0000000008016330                VS4210_hdmi480P_1080P_mode13_w0_param
 *fill*         0x0000000008016349        0x3 
 .rodata.VS4210_hdmi1360x768_720P_mode1_w0_param
                0x000000000801634c       0x19 build/VS4210_param_Modex26.o
                0x000000000801634c                VS4210_hdmi1360x768_720P_mode1_w0_param
 *fill*         0x0000000008016365        0x3 
 .rodata.VS4210_hdmi1280x768_720P_mode1_w2_param
                0x0000000008016368       0x19 build/VS4210_param_Modex26.o
                0x0000000008016368                VS4210_hdmi1280x768_720P_mode1_w2_param
 *fill*         0x0000000008016381        0x3 
 .rodata.VS4210_hdmi1360x768_1080P_mode12_w0_param
                0x0000000008016384       0x19 build/VS4210_param_Modex26.o
                0x0000000008016384                VS4210_hdmi1360x768_1080P_mode12_w0_param
 *fill*         0x000000000801639d        0x3 
 .rodata.VS4210_hdmi1080i_720P_mode2_w2_param
                0x00000000080163a0       0x19 build/VS4210_param_Modex26.o
                0x00000000080163a0                VS4210_hdmi1080i_720P_mode2_w2_param
 *fill*         0x00000000080163b9        0x3 
 .rodata.VS4210_hdmi1280x1024_720P_mode13_w0_param
                0x00000000080163bc       0x19 build/VS4210_param_Modex26.o
                0x00000000080163bc                VS4210_hdmi1280x1024_720P_mode13_w0_param
 *fill*         0x00000000080163d5        0x3 
 .rodata.VS4210_hdmi1280x800_1080P_mode2_w3_param
                0x00000000080163d8       0x19 build/VS4210_param_Modex26.o
                0x00000000080163d8                VS4210_hdmi1280x800_1080P_mode2_w3_param
 *fill*         0x00000000080163f1        0x3 
 .rodata.VS4210_hdmi576P_1080P_mode1_w3_param
                0x00000000080163f4       0x19 build/VS4210_param_Modex26.o
                0x00000000080163f4                VS4210_hdmi576P_1080P_mode1_w3_param
 *fill*         0x000000000801640d        0x3 
 .rodata.VS4210_hdmi1440x900_720P_mode2_w3_param
                0x0000000008016410       0x19 build/VS4210_param_Modex26.o
                0x0000000008016410                VS4210_hdmi1440x900_720P_mode2_w3_param
 *fill*         0x0000000008016429        0x3 
 .rodata.VS4210_hdmi1080P_720P_mode24_w0_param
                0x000000000801642c       0x19 build/VS4210_param_Modex26.o
                0x000000000801642c                VS4210_hdmi1080P_720P_mode24_w0_param
 *fill*         0x0000000008016445        0x3 
 .rodata.VS4210_hdmi640x480_720P_mode12_w1_param
                0x0000000008016448       0x19 build/VS4210_param_Modex26.o
                0x0000000008016448                VS4210_hdmi640x480_720P_mode12_w1_param
 *fill*         0x0000000008016461        0x3 
 .rodata.VS4210_hdmi1024x768_720P_mode12_w1_param
                0x0000000008016464       0x19 build/VS4210_param_Modex26.o
                0x0000000008016464                VS4210_hdmi1024x768_720P_mode12_w1_param
 *fill*         0x000000000801647d        0x3 
 .rodata.VS4210_hdmi576P_1080P_mode12_w0_param
                0x0000000008016480       0x19 build/VS4210_param_Modex26.o
                0x0000000008016480                VS4210_hdmi576P_1080P_mode12_w0_param
 *fill*         0x0000000008016499        0x3 
 .rodata.VS4210_hdmi480i_720P_mode1_w3_param
                0x000000000801649c       0x19 build/VS4210_param_Modex26.o
                0x000000000801649c                VS4210_hdmi480i_720P_mode1_w3_param
 *fill*         0x00000000080164b5        0x3 
 .rodata.VS4210_hdmi1080i_1080P_mode2_w1_param
                0x00000000080164b8       0x19 build/VS4210_param_Modex26.o
                0x00000000080164b8                VS4210_hdmi1080i_1080P_mode2_w1_param
 *fill*         0x00000000080164d1        0x3 
 .rodata.VS4210_hdmi640x480_1080P_mode6pip_w2_param
                0x00000000080164d4       0x19 build/VS4210_param_Modex26.o
                0x00000000080164d4                VS4210_hdmi640x480_1080P_mode6pip_w2_param
 *fill*         0x00000000080164ed        0x3 
 .rodata.VS4210_hdmi1280x768_1080P_mode1_w1_param
                0x00000000080164f0       0x19 build/VS4210_param_Modex26.o
                0x00000000080164f0                VS4210_hdmi1280x768_1080P_mode1_w1_param
 *fill*         0x0000000008016509        0x3 
 .rodata.VS4210_hdmi1024x768_1080P_mode6pip_w1_param
                0x000000000801650c       0x19 build/VS4210_param_Modex26.o
                0x000000000801650c                VS4210_hdmi1024x768_1080P_mode6pip_w1_param
 *fill*         0x0000000008016525        0x3 
 .rodata.VS4210_hdmi1280x768_720P_mode6_w1_param
                0x0000000008016528       0x19 build/VS4210_param_Modex26.o
                0x0000000008016528                VS4210_hdmi1280x768_720P_mode6_w1_param
 *fill*         0x0000000008016541        0x3 
 .rodata.VS4210_hdmi576i_1080P_mode13_w1_param
                0x0000000008016544       0x19 build/VS4210_param_Modex26.o
                0x0000000008016544                VS4210_hdmi576i_1080P_mode13_w1_param
 *fill*         0x000000000801655d        0x3 
 .rodata.VS4210_hdmi1400x1050_720P_mode12_w0_param
                0x0000000008016560       0x19 build/VS4210_param_Modex26.o
                0x0000000008016560                VS4210_hdmi1400x1050_720P_mode12_w0_param
 *fill*         0x0000000008016579        0x3 
 .rodata.VS4210_hdmi1920x1200_1080P_mode6_w2_param
                0x000000000801657c       0x19 build/VS4210_param_Modex26.o
                0x000000000801657c                VS4210_hdmi1920x1200_1080P_mode6_w2_param
 *fill*         0x0000000008016595        0x3 
 .rodata.VS4210_hdmi720P_720P_mode2_w1_param
                0x0000000008016598       0x19 build/VS4210_param_Modex26.o
                0x0000000008016598                VS4210_hdmi720P_720P_mode2_w1_param
 *fill*         0x00000000080165b1        0x3 
 .rodata.VS4210_hdmi1280x768_1080P_mode1_w2_param
                0x00000000080165b4       0x19 build/VS4210_param_Modex26.o
                0x00000000080165b4                VS4210_hdmi1280x768_1080P_mode1_w2_param
 *fill*         0x00000000080165cd        0x3 
 .rodata.VS4210_hdmi576i_720P_mode12_w0_param
                0x00000000080165d0       0x19 build/VS4210_param_Modex26.o
                0x00000000080165d0                VS4210_hdmi576i_720P_mode12_w0_param
 *fill*         0x00000000080165e9        0x3 
 .rodata.VS4210_hdmi1400x1050_720P_mode6_w2_param
                0x00000000080165ec       0x19 build/VS4210_param_Modex26.o
                0x00000000080165ec                VS4210_hdmi1400x1050_720P_mode6_w2_param
 *fill*         0x0000000008016605        0x3 
 .rodata.VS4210_hdmi576P_720P_mode2_w2_param
                0x0000000008016608       0x19 build/VS4210_param_Modex26.o
                0x0000000008016608                VS4210_hdmi576P_720P_mode2_w2_param
 *fill*         0x0000000008016621        0x3 
 .rodata.VS4210_hdmi640x480_720P_mode1_w1_param
                0x0000000008016624       0x19 build/VS4210_param_Modex26.o
                0x0000000008016624                VS4210_hdmi640x480_720P_mode1_w1_param
 *fill*         0x000000000801663d        0x3 
 .rodata.VS4210_hdmi1920x1200_720P_mode6_w1_param
                0x0000000008016640       0x19 build/VS4210_param_Modex26.o
                0x0000000008016640                VS4210_hdmi1920x1200_720P_mode6_w1_param
 *fill*         0x0000000008016659        0x3 
 .rodata.VS4210_hdmi1400x1050_720P_mode1_w1_param
                0x000000000801665c       0x19 build/VS4210_param_Modex26.o
                0x000000000801665c                VS4210_hdmi1400x1050_720P_mode1_w1_param
 *fill*         0x0000000008016675        0x3 
 .rodata.VS4210_hdmi1280x1024_720P_mode2_w3_param
                0x0000000008016678       0x19 build/VS4210_param_Modex26.o
                0x0000000008016678                VS4210_hdmi1280x1024_720P_mode2_w3_param
 *fill*         0x0000000008016691        0x3 
 .rodata.VS4210_hdmi1440x900_1080P_mode6_w0_param
                0x0000000008016694       0x19 build/VS4210_param_Modex26.o
                0x0000000008016694                VS4210_hdmi1440x900_1080P_mode6_w0_param
 *fill*         0x00000000080166ad        0x3 
 .rodata.VS4210_hdmi1400x1050_720P_mode13_w0_param
                0x00000000080166b0       0x19 build/VS4210_param_Modex26.o
                0x00000000080166b0                VS4210_hdmi1400x1050_720P_mode13_w0_param
 *fill*         0x00000000080166c9        0x3 
 .rodata.VS4210_hdmi576P_720P_mode24_w0_param
                0x00000000080166cc       0x19 build/VS4210_param_Modex26.o
                0x00000000080166cc                VS4210_hdmi576P_720P_mode24_w0_param
 *fill*         0x00000000080166e5        0x3 
 .rodata.VS4210_hdmi1920x1200_1080P_mode6_w3_param
                0x00000000080166e8       0x19 build/VS4210_param_Modex26.o
                0x00000000080166e8                VS4210_hdmi1920x1200_1080P_mode6_w3_param
 *fill*         0x0000000008016701        0x3 
 .rodata.VS4210_hdmi640x480_1080P_mode1_w2_param
                0x0000000008016704       0x19 build/VS4210_param_Modex26.o
                0x0000000008016704                VS4210_hdmi640x480_1080P_mode1_w2_param
 *fill*         0x000000000801671d        0x3 
 .rodata.VS4210_hdmi1024x768_720P_mode2_w0_param
                0x0000000008016720       0x19 build/VS4210_param_Modex26.o
                0x0000000008016720                VS4210_hdmi1024x768_720P_mode2_w0_param
 *fill*         0x0000000008016739        0x3 
 .rodata.VS4210_hdmi480i_1080P_mode1_w3_param
                0x000000000801673c       0x19 build/VS4210_param_Modex26.o
                0x000000000801673c                VS4210_hdmi480i_1080P_mode1_w3_param
 *fill*         0x0000000008016755        0x3 
 .rodata.VS4210_hdmi1080i_1080P_mode6_w3_param
                0x0000000008016758       0x19 build/VS4210_param_Modex26.o
                0x0000000008016758                VS4210_hdmi1080i_1080P_mode6_w3_param
 *fill*         0x0000000008016771        0x3 
 .rodata.VS4210_hdmi1280x800_1080P_mode13_w0_param
                0x0000000008016774       0x19 build/VS4210_param_Modex26.o
                0x0000000008016774                VS4210_hdmi1280x800_1080P_mode13_w0_param
 *fill*         0x000000000801678d        0x3 
 .rodata.VS4210_hdmi800x600_1080P_mode2_w3_param
                0x0000000008016790       0x19 build/VS4210_param_Modex26.o
                0x0000000008016790                VS4210_hdmi800x600_1080P_mode2_w3_param
 *fill*         0x00000000080167a9        0x3 
 .rodata.VS4210_hdmi1400x1050_720P_mode1_w3_param
                0x00000000080167ac       0x19 build/VS4210_param_Modex26.o
                0x00000000080167ac                VS4210_hdmi1400x1050_720P_mode1_w3_param
 *fill*         0x00000000080167c5        0x3 
 .rodata.VS4210_hdmi1920x1200_720P_mode24_w1_param
                0x00000000080167c8       0x19 build/VS4210_param_Modex26.o
                0x00000000080167c8                VS4210_hdmi1920x1200_720P_mode24_w1_param
 *fill*         0x00000000080167e1        0x3 
 .rodata.VS4210_hdmi480P_720P_mode2_w3_param
                0x00000000080167e4       0x19 build/VS4210_param_Modex26.o
                0x00000000080167e4                VS4210_hdmi480P_720P_mode2_w3_param
 *fill*         0x00000000080167fd        0x3 
 .rodata.VS4210_hdmi1920x1200_720P_mode2_w2_param
                0x0000000008016800       0x19 build/VS4210_param_Modex26.o
                0x0000000008016800                VS4210_hdmi1920x1200_720P_mode2_w2_param
 *fill*         0x0000000008016819        0x3 
 .rodata.VS4210_hdmi1440x900_1080P_mode6pip_w0_param
                0x000000000801681c       0x19 build/VS4210_param_Modex26.o
                0x000000000801681c                VS4210_hdmi1440x900_1080P_mode6pip_w0_param
 *fill*         0x0000000008016835        0x3 
 .rodata.VS4210_hdmi1280x768_1080P_mode13_w1_param
                0x0000000008016838       0x19 build/VS4210_param_Modex26.o
                0x0000000008016838                VS4210_hdmi1280x768_1080P_mode13_w1_param
 *fill*         0x0000000008016851        0x3 
 .rodata.VS4210_hdmi1400x1050_1080P_mode1_w1_param
                0x0000000008016854       0x19 build/VS4210_param_Modex26.o
                0x0000000008016854                VS4210_hdmi1400x1050_1080P_mode1_w1_param
 *fill*         0x000000000801686d        0x3 
 .rodata.VS4210_hdmi1366x768_1080P_mode13_w0_param
                0x0000000008016870       0x19 build/VS4210_param_Modex26.o
                0x0000000008016870                VS4210_hdmi1366x768_1080P_mode13_w0_param
 *fill*         0x0000000008016889        0x3 
 .rodata.VS4210_hdmi1400x1050_1080P_mode6pip_w0_param
                0x000000000801688c       0x19 build/VS4210_param_Modex26.o
                0x000000000801688c                VS4210_hdmi1400x1050_1080P_mode6pip_w0_param
 *fill*         0x00000000080168a5        0x3 
 .rodata.VS4210_hdmi720P_720P_mode6_w3_param
                0x00000000080168a8       0x19 build/VS4210_param_Modex26.o
                0x00000000080168a8                VS4210_hdmi720P_720P_mode6_w3_param
 *fill*         0x00000000080168c1        0x3 
 .rodata.VS4210_hdmi576P_720P_mode13_w0_param
                0x00000000080168c4       0x19 build/VS4210_param_Modex26.o
                0x00000000080168c4                VS4210_hdmi576P_720P_mode13_w0_param
 *fill*         0x00000000080168dd        0x3 
 .rodata.VS4210_hdmi1080i_1080P_mode2_w2_param
                0x00000000080168e0       0x19 build/VS4210_param_Modex26.o
                0x00000000080168e0                VS4210_hdmi1080i_1080P_mode2_w2_param
 *fill*         0x00000000080168f9        0x3 
 .rodata.VS4210_hdmi1280x800_720P_mode12_w1_param
                0x00000000080168fc       0x19 build/VS4210_param_Modex26.o
                0x00000000080168fc                VS4210_hdmi1280x800_720P_mode12_w1_param
 *fill*         0x0000000008016915        0x3 
 .rodata.VS4210_hdmi1360x768_1080P_mode1_w1_param
                0x0000000008016918       0x19 build/VS4210_param_Modex26.o
                0x0000000008016918                VS4210_hdmi1360x768_1080P_mode1_w1_param
 *fill*         0x0000000008016931        0x3 
 .rodata.VS4210_hdmi576i_720P_mode13_w1_param
                0x0000000008016934       0x19 build/VS4210_param_Modex26.o
                0x0000000008016934                VS4210_hdmi576i_720P_mode13_w1_param
 *fill*         0x000000000801694d        0x3 
 .rodata.VS4210_hdmi1366x768_1080P_mode6_w0_param
                0x0000000008016950       0x19 build/VS4210_param_Modex26.o
                0x0000000008016950                VS4210_hdmi1366x768_1080P_mode6_w0_param
 *fill*         0x0000000008016969        0x3 
 .rodata.VS4210_hdmi1280x768_1080P_mode6_w0_param
                0x000000000801696c       0x19 build/VS4210_param_Modex26.o
                0x000000000801696c                VS4210_hdmi1280x768_1080P_mode6_w0_param
 *fill*         0x0000000008016985        0x3 
 .rodata.VS4210_hdmi1080P_720P_mode6_w0_param
                0x0000000008016988       0x19 build/VS4210_param_Modex26.o
                0x0000000008016988                VS4210_hdmi1080P_720P_mode6_w0_param
 *fill*         0x00000000080169a1        0x3 
 .rodata.VS4210_hdmi1080i_720P_mode2_w1_param
                0x00000000080169a4       0x19 build/VS4210_param_Modex26.o
                0x00000000080169a4                VS4210_hdmi1080i_720P_mode2_w1_param
 *fill*         0x00000000080169bd        0x3 
 .rodata.VS4210_hdmi1680x1050_720P_mode1_w3_param
                0x00000000080169c0       0x19 build/VS4210_param_Modex26.o
                0x00000000080169c0                VS4210_hdmi1680x1050_720P_mode1_w3_param
 *fill*         0x00000000080169d9        0x3 
 .rodata.VS4210_hdmi1280x1024_720P_mode6_w1_param
                0x00000000080169dc       0x19 build/VS4210_param_Modex26.o
                0x00000000080169dc                VS4210_hdmi1280x1024_720P_mode6_w1_param
 *fill*         0x00000000080169f5        0x3 
 .rodata.VS4210_hdmi1440x900_1080P_mode6pip_w1_param
                0x00000000080169f8       0x19 build/VS4210_param_Modex26.o
                0x00000000080169f8                VS4210_hdmi1440x900_1080P_mode6pip_w1_param
 *fill*         0x0000000008016a11        0x3 
 .rodata.VS4210_hdmi1680x1050_1080P_mode6pip_w1_param
                0x0000000008016a14       0x19 build/VS4210_param_Modex26.o
                0x0000000008016a14                VS4210_hdmi1680x1050_1080P_mode6pip_w1_param
 *fill*         0x0000000008016a2d        0x3 
 .rodata.VS4210_hdmi720P_1080P_mode1_w3_param
                0x0000000008016a30       0x19 build/VS4210_param_Modex26.o
                0x0000000008016a30                VS4210_hdmi720P_1080P_mode1_w3_param
 *fill*         0x0000000008016a49        0x3 
 .rodata.VS4210_hdmi1024x768_1080P_mode13_w1_param
                0x0000000008016a4c       0x19 build/VS4210_param_Modex26.o
                0x0000000008016a4c                VS4210_hdmi1024x768_1080P_mode13_w1_param
 *fill*         0x0000000008016a65        0x3 
 .rodata.VS4210_hdmi1280x800_1080P_mode1_w0_param
                0x0000000008016a68       0x19 build/VS4210_param_Modex26.o
                0x0000000008016a68                VS4210_hdmi1280x800_1080P_mode1_w0_param
 *fill*         0x0000000008016a81        0x3 
 .rodata.VS4210_hdmi1600x1200_1080P_mode12_w1_param
                0x0000000008016a84       0x19 build/VS4210_param_Modex26.o
                0x0000000008016a84                VS4210_hdmi1600x1200_1080P_mode12_w1_param
 *fill*         0x0000000008016a9d        0x3 
 .rodata.VS4210_hdmi1440x900_720P_mode1_w0_param
                0x0000000008016aa0       0x19 build/VS4210_param_Modex26.o
                0x0000000008016aa0                VS4210_hdmi1440x900_720P_mode1_w0_param
 *fill*         0x0000000008016ab9        0x3 
 .rodata.VS4210_hdmi1600x1200_720P_mode6_w3_param
                0x0000000008016abc       0x19 build/VS4210_param_Modex26.o
                0x0000000008016abc                VS4210_hdmi1600x1200_720P_mode6_w3_param
 *fill*         0x0000000008016ad5        0x3 
 .rodata.VS4210_hdmi576i_720P_mode2_w0_param
                0x0000000008016ad8       0x19 build/VS4210_param_Modex26.o
                0x0000000008016ad8                VS4210_hdmi576i_720P_mode2_w0_param
 *fill*         0x0000000008016af1        0x3 
 .rodata.VS4210_hdmi1080i_720P_mode24_w0_param
                0x0000000008016af4       0x19 build/VS4210_param_Modex26.o
                0x0000000008016af4                VS4210_hdmi1080i_720P_mode24_w0_param
 *fill*         0x0000000008016b0d        0x3 
 .rodata.VS4210_hdmi720P_1080P_mode6pip_w3_param
                0x0000000008016b10       0x19 build/VS4210_param_Modex26.o
                0x0000000008016b10                VS4210_hdmi720P_1080P_mode6pip_w3_param
 *fill*         0x0000000008016b29        0x3 
 .rodata.VS4210_hdmi800x600_720P_mode6_w1_param
                0x0000000008016b2c       0x19 build/VS4210_param_Modex26.o
                0x0000000008016b2c                VS4210_hdmi800x600_720P_mode6_w1_param
 *fill*         0x0000000008016b45        0x3 
 .rodata.VS4210_hdmi1360x768_720P_mode2_w2_param
                0x0000000008016b48       0x19 build/VS4210_param_Modex26.o
                0x0000000008016b48                VS4210_hdmi1360x768_720P_mode2_w2_param
 *fill*         0x0000000008016b61        0x3 
 .rodata.VS4210_hdmi1680x1050_1080P_mode6_w0_param
                0x0000000008016b64       0x19 build/VS4210_param_Modex26.o
                0x0000000008016b64                VS4210_hdmi1680x1050_1080P_mode6_w0_param
 *fill*         0x0000000008016b7d        0x3 
 .rodata.VS4210_hdmi1080i_720P_mode6_w2_param
                0x0000000008016b80       0x19 build/VS4210_param_Modex26.o
                0x0000000008016b80                VS4210_hdmi1080i_720P_mode6_w2_param
 *fill*         0x0000000008016b99        0x3 
 .rodata.VS4210_hdmi1280x800_1080P_mode6pip_w0_param
                0x0000000008016b9c       0x19 build/VS4210_param_Modex26.o
                0x0000000008016b9c                VS4210_hdmi1280x800_1080P_mode6pip_w0_param
 *fill*         0x0000000008016bb5        0x3 
 .rodata.VS4210_hdmi1080P_1080P_mode2_w2_param
                0x0000000008016bb8       0x19 build/VS4210_param_Modex26.o
                0x0000000008016bb8                VS4210_hdmi1080P_1080P_mode2_w2_param
 *fill*         0x0000000008016bd1        0x3 
 .rodata.VS4210_hdmi576i_720P_mode6_w0_param
                0x0000000008016bd4       0x19 build/VS4210_param_Modex26.o
                0x0000000008016bd4                VS4210_hdmi576i_720P_mode6_w0_param
 *fill*         0x0000000008016bed        0x3 
 .rodata.VS4210_hdmi576P_1080P_mode2_w1_param
                0x0000000008016bf0       0x19 build/VS4210_param_Modex26.o
                0x0000000008016bf0                VS4210_hdmi576P_1080P_mode2_w1_param
 *fill*         0x0000000008016c09        0x3 
 .rodata.VS4210_hdmi480i_1080P_mode13_w0_param
                0x0000000008016c0c       0x19 build/VS4210_param_Modex26.o
                0x0000000008016c0c                VS4210_hdmi480i_1080P_mode13_w0_param
 *fill*         0x0000000008016c25        0x3 
 .rodata.VS4210_hdmi1024x768_1080P_mode1_w1_param
                0x0000000008016c28       0x19 build/VS4210_param_Modex26.o
                0x0000000008016c28                VS4210_hdmi1024x768_1080P_mode1_w1_param
 *fill*         0x0000000008016c41        0x3 
 .rodata.VS4210_hdmi1080P_720P_mode1_w1_param
                0x0000000008016c44       0x19 build/VS4210_param_Modex26.o
                0x0000000008016c44                VS4210_hdmi1080P_720P_mode1_w1_param
 *fill*         0x0000000008016c5d        0x3 
 .rodata.VS4210_hdmi480i_720P_mode13_w0_param
                0x0000000008016c60       0x19 build/VS4210_param_Modex26.o
                0x0000000008016c60                VS4210_hdmi480i_720P_mode13_w0_param
 *fill*         0x0000000008016c79        0x3 
 .rodata.VS4210_hdmi1280x800_1080P_mode2_w1_param
                0x0000000008016c7c       0x19 build/VS4210_param_Modex26.o
                0x0000000008016c7c                VS4210_hdmi1280x800_1080P_mode2_w1_param
 *fill*         0x0000000008016c95        0x3 
 .rodata.VS4210_hdmi1600x1200_720P_mode12_w1_param
                0x0000000008016c98       0x19 build/VS4210_param_Modex26.o
                0x0000000008016c98                VS4210_hdmi1600x1200_720P_mode12_w1_param
 *fill*         0x0000000008016cb1        0x3 
 .rodata.VS4210_hdmi1024x768_1080P_mode2_w3_param
                0x0000000008016cb4       0x19 build/VS4210_param_Modex26.o
                0x0000000008016cb4                VS4210_hdmi1024x768_1080P_mode2_w3_param
 *fill*         0x0000000008016ccd        0x3 
 .rodata.VS4210_hdmi1024x768_720P_mode6_w1_param
                0x0000000008016cd0       0x19 build/VS4210_param_Modex26.o
                0x0000000008016cd0                VS4210_hdmi1024x768_720P_mode6_w1_param
 *fill*         0x0000000008016ce9        0x3 
 .rodata.VS4210_hdmi1920x1200_1080P_mode2_w2_param
                0x0000000008016cec       0x19 build/VS4210_param_Modex26.o
                0x0000000008016cec                VS4210_hdmi1920x1200_1080P_mode2_w2_param
 *fill*         0x0000000008016d05        0x3 
 .rodata.VS4210_hdmi1440x900_720P_mode13_w1_param
                0x0000000008016d08       0x19 build/VS4210_param_Modex26.o
                0x0000000008016d08                VS4210_hdmi1440x900_720P_mode13_w1_param
 *fill*         0x0000000008016d21        0x3 
 .rodata.VS4210_hdmi800x600_720P_mode12_w1_param
                0x0000000008016d24       0x19 build/VS4210_param_Modex26.o
                0x0000000008016d24                VS4210_hdmi800x600_720P_mode12_w1_param
 *fill*         0x0000000008016d3d        0x3 
 .rodata.VS4210_hdmi576P_1080P_mode6_w1_param
                0x0000000008016d40       0x19 build/VS4210_param_Modex26.o
                0x0000000008016d40                VS4210_hdmi576P_1080P_mode6_w1_param
 *fill*         0x0000000008016d59        0x3 
 .rodata.VS4210_hdmi1400x1050_720P_mode2_w2_param
                0x0000000008016d5c       0x19 build/VS4210_param_Modex26.o
                0x0000000008016d5c                VS4210_hdmi1400x1050_720P_mode2_w2_param
 *fill*         0x0000000008016d75        0x3 
 .rodata.VS4210_hdmi1400x1050_1080P_mode6_w2_param
                0x0000000008016d78       0x19 build/VS4210_param_Modex26.o
                0x0000000008016d78                VS4210_hdmi1400x1050_1080P_mode6_w2_param
 *fill*         0x0000000008016d91        0x3 
 .rodata.VS4210_hdmi1680x1050_1080P_mode13_w0_param
                0x0000000008016d94       0x19 build/VS4210_param_Modex26.o
                0x0000000008016d94                VS4210_hdmi1680x1050_1080P_mode13_w0_param
 *fill*         0x0000000008016dad        0x3 
 .rodata.VS4210_hdmi1360x768_720P_mode6_w1_param
                0x0000000008016db0       0x19 build/VS4210_param_Modex26.o
                0x0000000008016db0                VS4210_hdmi1360x768_720P_mode6_w1_param
 *fill*         0x0000000008016dc9        0x3 
 .rodata.VS4210_hdmi1080P_1080P_mode2_w0_param
                0x0000000008016dcc       0x19 build/VS4210_param_Modex26.o
                0x0000000008016dcc                VS4210_hdmi1080P_1080P_mode2_w0_param
 *fill*         0x0000000008016de5        0x3 
 .rodata.VS4210_hdmi480i_720P_mode6_w1_param
                0x0000000008016de8       0x19 build/VS4210_param_Modex26.o
                0x0000000008016de8                VS4210_hdmi480i_720P_mode6_w1_param
 *fill*         0x0000000008016e01        0x3 
 .rodata.VS4210_hdmi1600x1200_1080P_mode1_w0_param
                0x0000000008016e04       0x19 build/VS4210_param_Modex26.o
                0x0000000008016e04                VS4210_hdmi1600x1200_1080P_mode1_w0_param
 *fill*         0x0000000008016e1d        0x3 
 .rodata.VS4210_hdmi1440x900_1080P_mode2_w0_param
                0x0000000008016e20       0x19 build/VS4210_param_Modex26.o
                0x0000000008016e20                VS4210_hdmi1440x900_1080P_mode2_w0_param
 *fill*         0x0000000008016e39        0x3 
 .rodata.VS4210_hdmi800x600_1080P_mode1_w0_param
                0x0000000008016e3c       0x19 build/VS4210_param_Modex26.o
                0x0000000008016e3c                VS4210_hdmi800x600_1080P_mode1_w0_param
 *fill*         0x0000000008016e55        0x3 
 .rodata.VS4210_hdmi1440x900_1080P_mode12_w0_param
                0x0000000008016e58       0x19 build/VS4210_param_Modex26.o
                0x0000000008016e58                VS4210_hdmi1440x900_1080P_mode12_w0_param
 *fill*         0x0000000008016e71        0x3 
 .rodata.VS4210_hdmi1366x768_720P_mode1_w3_param
                0x0000000008016e74       0x19 build/VS4210_param_Modex26.o
                0x0000000008016e74                VS4210_hdmi1366x768_720P_mode1_w3_param
 *fill*         0x0000000008016e8d        0x3 
 .rodata.VS4210_hdmi480P_720P_mode1_w0_param
                0x0000000008016e90       0x19 build/VS4210_param_Modex26.o
                0x0000000008016e90                VS4210_hdmi480P_720P_mode1_w0_param
 *fill*         0x0000000008016ea9        0x3 
 .rodata.VS4210_hdmi480P_1080P_mode6_w3_param
                0x0000000008016eac       0x19 build/VS4210_param_Modex26.o
                0x0000000008016eac                VS4210_hdmi480P_1080P_mode6_w3_param
 *fill*         0x0000000008016ec5        0x3 
 .rodata.VS4210_hdmi1280x800_720P_mode1_w0_param
                0x0000000008016ec8       0x19 build/VS4210_param_Modex26.o
                0x0000000008016ec8                VS4210_hdmi1280x800_720P_mode1_w0_param
 *fill*         0x0000000008016ee1        0x3 
 .rodata.VS4210_hdmi1080i_720P_mode24_w1_param
                0x0000000008016ee4       0x19 build/VS4210_param_Modex26.o
                0x0000000008016ee4                VS4210_hdmi1080i_720P_mode24_w1_param
 *fill*         0x0000000008016efd        0x3 
 .rodata.VS4210_hdmi576P_1080P_mode6_w3_param
                0x0000000008016f00       0x19 build/VS4210_param_Modex26.o
                0x0000000008016f00                VS4210_hdmi576P_1080P_mode6_w3_param
 *fill*         0x0000000008016f19        0x3 
 .rodata.VS4210_hdmi720P_720P_mode13_w0_param
                0x0000000008016f1c       0x19 build/VS4210_param_Modex26.o
                0x0000000008016f1c                VS4210_hdmi720P_720P_mode13_w0_param
 *fill*         0x0000000008016f35        0x3 
 .rodata.VS4210_hdmi576P_1080P_mode6pip_w0_param
                0x0000000008016f38       0x19 build/VS4210_param_Modex26.o
                0x0000000008016f38                VS4210_hdmi576P_1080P_mode6pip_w0_param
 *fill*         0x0000000008016f51        0x3 
 .rodata.VS4210_hdmi1366x768_720P_mode1_w1_param
                0x0000000008016f54       0x19 build/VS4210_param_Modex26.o
                0x0000000008016f54                VS4210_hdmi1366x768_720P_mode1_w1_param
 *fill*         0x0000000008016f6d        0x3 
 .rodata.VS4210_hdmi1366x768_720P_mode13_w1_param
                0x0000000008016f70       0x19 build/VS4210_param_Modex26.o
                0x0000000008016f70                VS4210_hdmi1366x768_720P_mode13_w1_param
 *fill*         0x0000000008016f89        0x3 
 .rodata.VS4210_hdmi1920x1200_720P_mode6_w3_param
                0x0000000008016f8c       0x19 build/VS4210_param_Modex26.o
                0x0000000008016f8c                VS4210_hdmi1920x1200_720P_mode6_w3_param
 *fill*         0x0000000008016fa5        0x3 
 .rodata.VS4210_hdmi480i_1080P_mode2_w1_param
                0x0000000008016fa8       0x19 build/VS4210_param_Modex26.o
                0x0000000008016fa8                VS4210_hdmi480i_1080P_mode2_w1_param
 *fill*         0x0000000008016fc1        0x3 
 .rodata.VS4210_hdmi1600x1200_1080P_mode1_w2_param
                0x0000000008016fc4       0x19 build/VS4210_param_Modex26.o
                0x0000000008016fc4                VS4210_hdmi1600x1200_1080P_mode1_w2_param
 *fill*         0x0000000008016fdd        0x3 
 .rodata.VS4210_hdmi720P_1080P_mode13_w1_param
                0x0000000008016fe0       0x19 build/VS4210_param_Modex26.o
                0x0000000008016fe0                VS4210_hdmi720P_1080P_mode13_w1_param
 *fill*         0x0000000008016ff9        0x3 
 .rodata.VS4210_hdmi1080i_720P_mode1_w0_param
                0x0000000008016ffc       0x19 build/VS4210_param_Modex26.o
                0x0000000008016ffc                VS4210_hdmi1080i_720P_mode1_w0_param
 *fill*         0x0000000008017015        0x3 
 .rodata.VS4210_hdmi576P_720P_mode1_w3_param
                0x0000000008017018       0x19 build/VS4210_param_Modex26.o
                0x0000000008017018                VS4210_hdmi576P_720P_mode1_w3_param
 *fill*         0x0000000008017031        0x3 
 .rodata.VS4210_hdmi720P_720P_mode2_w3_param
                0x0000000008017034       0x19 build/VS4210_param_Modex26.o
                0x0000000008017034                VS4210_hdmi720P_720P_mode2_w3_param
 *fill*         0x000000000801704d        0x3 
 .rodata.VS4210_hdmi1360x768_720P_mode24_w1_param
                0x0000000008017050       0x19 build/VS4210_param_Modex26.o
                0x0000000008017050                VS4210_hdmi1360x768_720P_mode24_w1_param
 *fill*         0x0000000008017069        0x3 
 .rodata.VS4210_hdmi640x480_720P_mode1_w3_param
                0x000000000801706c       0x19 build/VS4210_param_Modex26.o
                0x000000000801706c                VS4210_hdmi640x480_720P_mode1_w3_param
 *fill*         0x0000000008017085        0x3 
 .rodata.VS4210_hdmi1366x768_1080P_mode2_w0_param
                0x0000000008017088       0x19 build/VS4210_param_Modex26.o
                0x0000000008017088                VS4210_hdmi1366x768_1080P_mode2_w0_param
 *fill*         0x00000000080170a1        0x3 
 .rodata.VS4210_hdmi480i_1080P_mode6_w1_param
                0x00000000080170a4       0x19 build/VS4210_param_Modex26.o
                0x00000000080170a4                VS4210_hdmi480i_1080P_mode6_w1_param
 *fill*         0x00000000080170bd        0x3 
 .rodata.VS4210_hdmi480P_1080P_mode1_w0_param
                0x00000000080170c0       0x19 build/VS4210_param_Modex26.o
                0x00000000080170c0                VS4210_hdmi480P_1080P_mode1_w0_param
 *fill*         0x00000000080170d9        0x3 
 .rodata.VS4210_hdmi1920x1200_1080P_mode12_w0_param
                0x00000000080170dc       0x19 build/VS4210_param_Modex26.o
                0x00000000080170dc                VS4210_hdmi1920x1200_1080P_mode12_w0_param
 *fill*         0x00000000080170f5        0x3 
 .rodata.VS4210_hdmi1280x1024_1080P_mode6pip_w0_param
                0x00000000080170f8       0x19 build/VS4210_param_Modex26.o
                0x00000000080170f8                VS4210_hdmi1280x1024_1080P_mode6pip_w0_param
 *fill*         0x0000000008017111        0x3 
 .rodata.VS4210_hdmi1366x768_720P_mode1_w0_param
                0x0000000008017114       0x19 build/VS4210_param_Modex26.o
                0x0000000008017114                VS4210_hdmi1366x768_720P_mode1_w0_param
 *fill*         0x000000000801712d        0x3 
 .rodata.VS4210_hdmi1280x1024_720P_mode2_w1_param
                0x0000000008017130       0x19 build/VS4210_param_Modex26.o
                0x0000000008017130                VS4210_hdmi1280x1024_720P_mode2_w1_param
 *fill*         0x0000000008017149        0x3 
 .rodata.VS4210_hdmi640x480_720P_mode6_w1_param
                0x000000000801714c       0x19 build/VS4210_param_Modex26.o
                0x000000000801714c                VS4210_hdmi640x480_720P_mode6_w1_param
 *fill*         0x0000000008017165        0x3 
 .rodata.VS4210_hdmi1440x900_1080P_mode6_w2_param
                0x0000000008017168       0x19 build/VS4210_param_Modex26.o
                0x0000000008017168                VS4210_hdmi1440x900_1080P_mode6_w2_param
 *fill*         0x0000000008017181        0x3 
 .rodata.VS4210_hdmi1680x1050_720P_mode13_w1_param
                0x0000000008017184       0x19 build/VS4210_param_Modex26.o
                0x0000000008017184                VS4210_hdmi1680x1050_720P_mode13_w1_param
 *fill*         0x000000000801719d        0x3 
 .rodata.VS4210_hdmi1920x1200_1080P_mode12_w1_param
                0x00000000080171a0       0x19 build/VS4210_param_Modex26.o
                0x00000000080171a0                VS4210_hdmi1920x1200_1080P_mode12_w1_param
 *fill*         0x00000000080171b9        0x3 
 .rodata.VS4210_hdmi480i_1080P_mode6pip_w2_param
                0x00000000080171bc       0x19 build/VS4210_param_Modex26.o
                0x00000000080171bc                VS4210_hdmi480i_1080P_mode6pip_w2_param
 *fill*         0x00000000080171d5        0x3 
 .rodata.VS4210_hdmi1680x1050_720P_mode2_w1_param
                0x00000000080171d8       0x19 build/VS4210_param_Modex26.o
                0x00000000080171d8                VS4210_hdmi1680x1050_720P_mode2_w1_param
 *fill*         0x00000000080171f1        0x3 
 .rodata.VS4210_hdmi1080P_1080P_mode6_w0_param
                0x00000000080171f4       0x19 build/VS4210_param_Modex26.o
                0x00000000080171f4                VS4210_hdmi1080P_1080P_mode6_w0_param
 *fill*         0x000000000801720d        0x3 
 .rodata.VS4210_hdmi1600x1200_720P_mode2_w3_param
                0x0000000008017210       0x19 build/VS4210_param_Modex26.o
                0x0000000008017210                VS4210_hdmi1600x1200_720P_mode2_w3_param
 *fill*         0x0000000008017229        0x3 
 .rodata.VS4210_hdmi1366x768_1080P_mode6pip_w3_param
                0x000000000801722c       0x19 build/VS4210_param_Modex26.o
                0x000000000801722c                VS4210_hdmi1366x768_1080P_mode6pip_w3_param
 *fill*         0x0000000008017245        0x3 
 .rodata.VS4210_hdmi720P_1080P_mode2_w1_param
                0x0000000008017248       0x19 build/VS4210_param_Modex26.o
                0x0000000008017248                VS4210_hdmi720P_1080P_mode2_w1_param
 *fill*         0x0000000008017261        0x3 
 .rodata.VS4210_hdmi1360x768_1080P_mode13_w0_param
                0x0000000008017264       0x19 build/VS4210_param_Modex26.o
                0x0000000008017264                VS4210_hdmi1360x768_1080P_mode13_w0_param
 *fill*         0x000000000801727d        0x3 
 .rodata.VS4210_hdmi1400x1050_720P_mode6_w3_param
                0x0000000008017280       0x19 build/VS4210_param_Modex26.o
                0x0000000008017280                VS4210_hdmi1400x1050_720P_mode6_w3_param
 *fill*         0x0000000008017299        0x3 
 .rodata.VS4210_hdmi1920x1200_1080P_mode1_w3_param
                0x000000000801729c       0x19 build/VS4210_param_Modex26.o
                0x000000000801729c                VS4210_hdmi1920x1200_1080P_mode1_w3_param
 *fill*         0x00000000080172b5        0x3 
 .rodata.VS4210_hdmi576i_1080P_mode6pip_w1_param
                0x00000000080172b8       0x19 build/VS4210_param_Modex26.o
                0x00000000080172b8                VS4210_hdmi576i_1080P_mode6pip_w1_param
 *fill*         0x00000000080172d1        0x3 
 .rodata.VS4210_hdmi800x600_720P_mode2_w1_param
                0x00000000080172d4       0x19 build/VS4210_param_Modex26.o
                0x00000000080172d4                VS4210_hdmi800x600_720P_mode2_w1_param
 *fill*         0x00000000080172ed        0x3 
 .rodata.VS4210_hdmi480P_1080P_mode1_w2_param
                0x00000000080172f0       0x19 build/VS4210_param_Modex26.o
                0x00000000080172f0                VS4210_hdmi480P_1080P_mode1_w2_param
 *fill*         0x0000000008017309        0x3 
 .rodata.VS4210_hdmi1080i_1080P_mode2_w3_param
                0x000000000801730c       0x19 build/VS4210_param_Modex26.o
                0x000000000801730c                VS4210_hdmi1080i_1080P_mode2_w3_param
 *fill*         0x0000000008017325        0x3 
 .rodata.VS4210_hdmi1400x1050_1080P_mode1_w3_param
                0x0000000008017328       0x19 build/VS4210_param_Modex26.o
                0x0000000008017328                VS4210_hdmi1400x1050_1080P_mode1_w3_param
 *fill*         0x0000000008017341        0x3 
 .rodata.VS4210_hdmi1680x1050_720P_mode6_w1_param
                0x0000000008017344       0x19 build/VS4210_param_Modex26.o
                0x0000000008017344                VS4210_hdmi1680x1050_720P_mode6_w1_param
 *fill*         0x000000000801735d        0x3 
 .rodata.VS4210_hdmi1400x1050_1080P_mode6pip_w2_param
                0x0000000008017360       0x19 build/VS4210_param_Modex26.o
                0x0000000008017360                VS4210_hdmi1400x1050_1080P_mode6pip_w2_param
 *fill*         0x0000000008017379        0x3 
 .rodata.VS4210_hdmi1024x768_720P_mode2_w2_param
                0x000000000801737c       0x19 build/VS4210_param_Modex26.o
                0x000000000801737c                VS4210_hdmi1024x768_720P_mode2_w2_param
 *fill*         0x0000000008017395        0x3 
 .rodata.VS4210_hdmi1366x768_720P_mode6_w1_param
                0x0000000008017398       0x19 build/VS4210_param_Modex26.o
                0x0000000008017398                VS4210_hdmi1366x768_720P_mode6_w1_param
 *fill*         0x00000000080173b1        0x3 
 .rodata.VS4210_hdmi1400x1050_720P_mode1_w0_param
                0x00000000080173b4       0x19 build/VS4210_param_Modex26.o
                0x00000000080173b4                VS4210_hdmi1400x1050_720P_mode1_w0_param
 *fill*         0x00000000080173cd        0x3 
 .rodata.VS4210_hdmi480i_720P_mode24_w0_param
                0x00000000080173d0       0x19 build/VS4210_param_Modex26.o
                0x00000000080173d0                VS4210_hdmi480i_720P_mode24_w0_param
 *fill*         0x00000000080173e9        0x3 
 .rodata.VS4210_hdmi1360x768_1080P_mode1_w3_param
                0x00000000080173ec       0x19 build/VS4210_param_Modex26.o
                0x00000000080173ec                VS4210_hdmi1360x768_1080P_mode1_w3_param
 *fill*         0x0000000008017405        0x3 
 .rodata.VS4210_hdmi1280x768_1080P_mode6_w2_param
                0x0000000008017408       0x19 build/VS4210_param_Modex26.o
                0x0000000008017408                VS4210_hdmi1280x768_1080P_mode6_w2_param
 *fill*         0x0000000008017421        0x3 
 .rodata.VS4210_hdmi1366x768_1080P_mode6_w2_param
                0x0000000008017424       0x19 build/VS4210_param_Modex26.o
                0x0000000008017424                VS4210_hdmi1366x768_1080P_mode6_w2_param
 *fill*         0x000000000801743d        0x3 
 .rodata.VS4210_hdmi1366x768_720P_mode6_w3_param
                0x0000000008017440       0x19 build/VS4210_param_Modex26.o
                0x0000000008017440                VS4210_hdmi1366x768_720P_mode6_w3_param
 *fill*         0x0000000008017459        0x3 
 .rodata.VS4210_hdmi1440x900_720P_mode24_w1_param
                0x000000000801745c       0x19 build/VS4210_param_Modex26.o
                0x000000000801745c                VS4210_hdmi1440x900_720P_mode24_w1_param
 *fill*         0x0000000008017475        0x3 
 .rodata.VS4210_hdmi1366x768_1080P_mode1_w1_param
                0x0000000008017478       0x19 build/VS4210_param_Modex26.o
                0x0000000008017478                VS4210_hdmi1366x768_1080P_mode1_w1_param
 *fill*         0x0000000008017491        0x3 
 .rodata.VS4210_hdmi480P_1080P_mode6pip_w0_param
                0x0000000008017494       0x19 build/VS4210_param_Modex26.o
                0x0000000008017494                VS4210_hdmi480P_1080P_mode6pip_w0_param
 *fill*         0x00000000080174ad        0x3 
 .rodata.VS4210_hdmi1280x1024_720P_mode6_w3_param
                0x00000000080174b0       0x19 build/VS4210_param_Modex26.o
                0x00000000080174b0                VS4210_hdmi1280x1024_720P_mode6_w3_param
 *fill*         0x00000000080174c9        0x3 
 .rodata.VS4210_hdmi1440x900_1080P_mode6pip_w3_param
                0x00000000080174cc       0x19 build/VS4210_param_Modex26.o
                0x00000000080174cc                VS4210_hdmi1440x900_1080P_mode6pip_w3_param
 *fill*         0x00000000080174e5        0x3 
 .rodata.VS4210_hdmi800x600_720P_mode2_w3_param
                0x00000000080174e8       0x19 build/VS4210_param_Modex26.o
                0x00000000080174e8                VS4210_hdmi800x600_720P_mode2_w3_param
 *fill*         0x0000000008017501        0x3 
 .rodata.VS4210_hdmi1080i_720P_mode2_w0_param
                0x0000000008017504       0x19 build/VS4210_param_Modex26.o
                0x0000000008017504                VS4210_hdmi1080i_720P_mode2_w0_param
 *fill*         0x000000000801751d        0x3 
 .rodata.VS4210_hdmi1680x1050_1080P_mode2_w2_param
                0x0000000008017520       0x19 build/VS4210_param_Modex26.o
                0x0000000008017520                VS4210_hdmi1680x1050_1080P_mode2_w2_param
 *fill*         0x0000000008017539        0x3 
 .rodata.VS4210_hdmi1680x1050_720P_mode6_w3_param
                0x000000000801753c       0x19 build/VS4210_param_Modex26.o
                0x000000000801753c                VS4210_hdmi1680x1050_720P_mode6_w3_param
 *fill*         0x0000000008017555        0x3 
 .rodata.VS4210_hdmi1280x1024_720P_mode6_w2_param
                0x0000000008017558       0x19 build/VS4210_param_Modex26.o
                0x0000000008017558                VS4210_hdmi1280x1024_720P_mode6_w2_param
 *fill*         0x0000000008017571        0x3 
 .rodata.VS4210_hdmi1440x900_720P_mode1_w2_param
                0x0000000008017574       0x19 build/VS4210_param_Modex26.o
                0x0000000008017574                VS4210_hdmi1440x900_720P_mode1_w2_param
 *fill*         0x000000000801758d        0x3 
 .rodata.VS4210_hdmi1080i_1080P_mode6pip_w1_param
                0x0000000008017590       0x19 build/VS4210_param_Modex26.o
                0x0000000008017590                VS4210_hdmi1080i_1080P_mode6pip_w1_param
 *fill*         0x00000000080175a9        0x3 
 .rodata.VS4210_hdmi576i_720P_mode2_w2_param
                0x00000000080175ac       0x19 build/VS4210_param_Modex26.o
                0x00000000080175ac                VS4210_hdmi576i_720P_mode2_w2_param
 *fill*         0x00000000080175c5        0x3 
 .rodata.VS4210_hdmi1600x1200_1080P_mode6pip_w0_param
                0x00000000080175c8       0x19 build/VS4210_param_Modex26.o
                0x00000000080175c8                VS4210_hdmi1600x1200_1080P_mode6pip_w0_param
 *fill*         0x00000000080175e1        0x3 
 .rodata.VS4210_hdmi480i_720P_mode2_w1_param
                0x00000000080175e4       0x19 build/VS4210_param_Modex26.o
                0x00000000080175e4                VS4210_hdmi480i_720P_mode2_w1_param
 *fill*         0x00000000080175fd        0x3 
 .rodata.VS4210_hdmi1280x800_1080P_mode6_w0_param
                0x0000000008017600       0x19 build/VS4210_param_Modex26.o
                0x0000000008017600                VS4210_hdmi1280x800_1080P_mode6_w0_param
 *fill*         0x0000000008017619        0x3 
 .rodata.VS4210_hdmi1080P_720P_mode24_w1_param
                0x000000000801761c       0x19 build/VS4210_param_Modex26.o
                0x000000000801761c                VS4210_hdmi1080P_720P_mode24_w1_param
 *fill*         0x0000000008017635        0x3 
 .rodata.VS4210_hdmi1280x768_720P_mode6_w3_param
                0x0000000008017638       0x19 build/VS4210_param_Modex26.o
                0x0000000008017638                VS4210_hdmi1280x768_720P_mode6_w3_param
 *fill*         0x0000000008017651        0x3 
 .rodata.VS4210_hdmi800x600_720P_mode6_w3_param
                0x0000000008017654       0x19 build/VS4210_param_Modex26.o
                0x0000000008017654                VS4210_hdmi800x600_720P_mode6_w3_param
 *fill*         0x000000000801766d        0x3 
 .rodata.VS4210_hdmi1080i_1080P_mode1_w0_param
                0x0000000008017670       0x19 build/VS4210_param_Modex26.o
                0x0000000008017670                VS4210_hdmi1080i_1080P_mode1_w0_param
 *fill*         0x0000000008017689        0x3 
 .rodata.VS4210_hdmi1680x1050_1080P_mode6_w2_param
                0x000000000801768c       0x19 build/VS4210_param_Modex26.o
                0x000000000801768c                VS4210_hdmi1680x1050_1080P_mode6_w2_param
 *fill*         0x00000000080176a5        0x3 
 .rodata.VS4210_hdmi1360x768_720P_mode1_w2_param
                0x00000000080176a8       0x19 build/VS4210_param_Modex26.o
                0x00000000080176a8                VS4210_hdmi1360x768_720P_mode1_w2_param
 *fill*         0x00000000080176c1        0x3 
 .rodata.VS4210_hdmi720P_720P_mode24_w0_param
                0x00000000080176c4       0x19 build/VS4210_param_Modex26.o
                0x00000000080176c4                VS4210_hdmi720P_720P_mode24_w0_param
 *fill*         0x00000000080176dd        0x3 
 .rodata.VS4210_hdmi576i_1080P_mode12_w0_param
                0x00000000080176e0       0x19 build/VS4210_param_Modex26.o
                0x00000000080176e0                VS4210_hdmi576i_1080P_mode12_w0_param
 *fill*         0x00000000080176f9        0x3 
 .rodata.VS4210_hdmi576i_720P_mode6_w2_param
                0x00000000080176fc       0x19 build/VS4210_param_Modex26.o
                0x00000000080176fc                VS4210_hdmi576i_720P_mode6_w2_param
 *fill*         0x0000000008017715        0x3 
 .rodata.VS4210_hdmi576P_1080P_mode2_w3_param
                0x0000000008017718       0x19 build/VS4210_param_Modex26.o
                0x0000000008017718                VS4210_hdmi576P_1080P_mode2_w3_param
 *fill*         0x0000000008017731        0x3 
 .rodata.VS4210_hdmi1400x1050_1080P_mode13_w1_param
                0x0000000008017734       0x19 build/VS4210_param_Modex26.o
                0x0000000008017734                VS4210_hdmi1400x1050_1080P_mode13_w1_param
 *fill*         0x000000000801774d        0x3 
 .rodata.VS4210_hdmi720P_720P_mode1_w0_param
                0x0000000008017750       0x19 build/VS4210_param_Modex26.o
                0x0000000008017750                VS4210_hdmi720P_720P_mode1_w0_param
 *fill*         0x0000000008017769        0x3 
 .rodata.VS4210_hdmi640x480_720P_mode13_w1_param
                0x000000000801776c       0x19 build/VS4210_param_Modex26.o
                0x000000000801776c                VS4210_hdmi640x480_720P_mode13_w1_param
 *fill*         0x0000000008017785        0x3 
 .rodata.VS4210_hdmi1080P_720P_mode1_w3_param
                0x0000000008017788       0x19 build/VS4210_param_Modex26.o
                0x0000000008017788                VS4210_hdmi1080P_720P_mode1_w3_param
 *fill*         0x00000000080177a1        0x3 
 .rodata.VS4210_hdmi1024x768_1080P_mode6pip_w3_param
                0x00000000080177a4       0x19 build/VS4210_param_Modex26.o
                0x00000000080177a4                VS4210_hdmi1024x768_1080P_mode6pip_w3_param
 *fill*         0x00000000080177bd        0x3 
 .rodata.VS4210_hdmi576P_1080P_mode13_w0_param
                0x00000000080177c0       0x19 build/VS4210_param_Modex26.o
                0x00000000080177c0                VS4210_hdmi576P_1080P_mode13_w0_param
 *fill*         0x00000000080177d9        0x3 
 .rodata.VS4210_hdmi576P_720P_mode1_w1_param
                0x00000000080177dc       0x19 build/VS4210_param_Modex26.o
                0x00000000080177dc                VS4210_hdmi576P_720P_mode1_w1_param
 *fill*         0x00000000080177f5        0x3 
 .rodata.VS4210_hdmi1280x1024_1080P_mode2_w3_param
                0x00000000080177f8       0x19 build/VS4210_param_Modex26.o
                0x00000000080177f8                VS4210_hdmi1280x1024_1080P_mode2_w3_param
 *fill*         0x0000000008017811        0x3 
 .rodata.VS4210_hdmi1080P_720P_mode6_w1_param
                0x0000000008017814       0x19 build/VS4210_param_Modex26.o
                0x0000000008017814                VS4210_hdmi1080P_720P_mode6_w1_param
 *fill*         0x000000000801782d        0x3 
 .rodata.VS4210_hdmi1360x768_1080P_mode13_w1_param
                0x0000000008017830       0x19 build/VS4210_param_Modex26.o
                0x0000000008017830                VS4210_hdmi1360x768_1080P_mode13_w1_param
 *fill*         0x0000000008017849        0x3 
 .rodata.VS4210_hdmi800x600_1080P_mode12_w1_param
                0x000000000801784c       0x19 build/VS4210_param_Modex26.o
                0x000000000801784c                VS4210_hdmi800x600_1080P_mode12_w1_param
 *fill*         0x0000000008017865        0x3 
 .rodata.VS4210_hdmi640x480_1080P_mode2_w0_param
                0x0000000008017868       0x19 build/VS4210_param_Modex26.o
                0x0000000008017868                VS4210_hdmi640x480_1080P_mode2_w0_param
 *fill*         0x0000000008017881        0x3 
 .rodata.VS4210_hdmi1360x768_720P_mode6_w3_param
                0x0000000008017884       0x19 build/VS4210_param_Modex26.o
                0x0000000008017884                VS4210_hdmi1360x768_720P_mode6_w3_param
 *fill*         0x000000000801789d        0x3 
 .rodata.VS4210_hdmi1080i_1080P_mode6_w2_param
                0x00000000080178a0       0x19 build/VS4210_param_Modex26.o
                0x00000000080178a0                VS4210_hdmi1080i_1080P_mode6_w2_param
 *fill*         0x00000000080178b9        0x3 
 .rodata.VS4210_hdmi480i_720P_mode6_w3_param
                0x00000000080178bc       0x19 build/VS4210_param_Modex26.o
                0x00000000080178bc                VS4210_hdmi480i_720P_mode6_w3_param
 *fill*         0x00000000080178d5        0x3 
 .rodata.VS4210_hdmi576i_720P_mode13_w0_param
                0x00000000080178d8       0x19 build/VS4210_param_Modex26.o
                0x00000000080178d8                VS4210_hdmi576i_720P_mode13_w0_param
 *fill*         0x00000000080178f1        0x3 
 .rodata.VS4210_hdmi1600x1200_720P_mode1_w0_param
                0x00000000080178f4       0x19 build/VS4210_param_Modex26.o
                0x00000000080178f4                VS4210_hdmi1600x1200_720P_mode1_w0_param
 *fill*         0x000000000801790d        0x3 
 .rodata.VS4210_hdmi1024x768_1080P_mode6pip_w0_param
                0x0000000008017910       0x19 build/VS4210_param_Modex26.o
                0x0000000008017910                VS4210_hdmi1024x768_1080P_mode6pip_w0_param
 *fill*         0x0000000008017929        0x3 
 .rodata.VS4210_hdmi640x480_720P_mode2_w1_param
                0x000000000801792c       0x19 build/VS4210_param_Modex26.o
                0x000000000801792c                VS4210_hdmi640x480_720P_mode2_w1_param
 *fill*         0x0000000008017945        0x3 
 .rodata.VS4210_hdmi1440x900_1080P_mode2_w2_param
                0x0000000008017948       0x19 build/VS4210_param_Modex26.o
                0x0000000008017948                VS4210_hdmi1440x900_1080P_mode2_w2_param
 *fill*         0x0000000008017961        0x3 
 .rodata.VS4210_hdmi800x600_1080P_mode1_w2_param
                0x0000000008017964       0x19 build/VS4210_param_Modex26.o
                0x0000000008017964                VS4210_hdmi800x600_1080P_mode1_w2_param
 *fill*         0x000000000801797d        0x3 
 .rodata.VS4210_hdmi1600x1200_1080P_mode6_w0_param
                0x0000000008017980       0x19 build/VS4210_param_Modex26.o
                0x0000000008017980                VS4210_hdmi1600x1200_1080P_mode6_w0_param
 *fill*         0x0000000008017999        0x3 
 .rodata.VS4210_hdmi480P_720P_mode1_w2_param
                0x000000000801799c       0x19 build/VS4210_param_Modex26.o
                0x000000000801799c                VS4210_hdmi480P_720P_mode1_w2_param
 *fill*         0x00000000080179b5        0x3 
 .rodata.VS4210_hdmi1920x1200_720P_mode1_w1_param
                0x00000000080179b8       0x19 build/VS4210_param_Modex26.o
                0x00000000080179b8                VS4210_hdmi1920x1200_720P_mode1_w1_param
 *fill*         0x00000000080179d1        0x3 
 .rodata.VS4210_hdmi1280x800_720P_mode1_w2_param
                0x00000000080179d4       0x19 build/VS4210_param_Modex26.o
                0x00000000080179d4                VS4210_hdmi1280x800_720P_mode1_w2_param
 *fill*         0x00000000080179ed        0x3 
 .rodata.VS4210_hdmi1360x768_1080P_mode6pip_w0_param
                0x00000000080179f0       0x19 build/VS4210_param_Modex26.o
                0x00000000080179f0                VS4210_hdmi1360x768_1080P_mode6pip_w0_param
 *fill*         0x0000000008017a09        0x3 
 .rodata.VS4210_hdmi800x600_1080P_mode6_w0_param
                0x0000000008017a0c       0x19 build/VS4210_param_Modex26.o
                0x0000000008017a0c                VS4210_hdmi800x600_1080P_mode6_w0_param
 *fill*         0x0000000008017a25        0x3 
 .rodata.VS4210_hdmi576P_1080P_mode6pip_w2_param
                0x0000000008017a28       0x19 build/VS4210_param_Modex26.o
                0x0000000008017a28                VS4210_hdmi576P_1080P_mode6pip_w2_param
 *fill*         0x0000000008017a41        0x3 
 .rodata.VS4210_hdmi640x480_1080P_mode12_w1_param
                0x0000000008017a44       0x19 build/VS4210_param_Modex26.o
                0x0000000008017a44                VS4210_hdmi640x480_1080P_mode12_w1_param
 *fill*         0x0000000008017a5d        0x3 
 .rodata.VS4210_hdmi1024x768_1080P_mode12_w0_param
                0x0000000008017a60       0x19 build/VS4210_param_Modex26.o
                0x0000000008017a60                VS4210_hdmi1024x768_1080P_mode12_w0_param
 *fill*         0x0000000008017a79        0x3 
 .rodata.VS4210_hdmi640x480_1080P_mode2_w2_param
                0x0000000008017a7c       0x19 build/VS4210_param_Modex26.o
                0x0000000008017a7c                VS4210_hdmi640x480_1080P_mode2_w2_param
 *fill*         0x0000000008017a95        0x3 
 .rodata.VS4210_hdmi1400x1050_720P_mode6_w1_param
                0x0000000008017a98       0x19 build/VS4210_param_Modex26.o
                0x0000000008017a98                VS4210_hdmi1400x1050_720P_mode6_w1_param
 *fill*         0x0000000008017ab1        0x3 
 .rodata.VS4210_hdmi480i_1080P_mode2_w3_param
                0x0000000008017ab4       0x19 build/VS4210_param_Modex26.o
                0x0000000008017ab4                VS4210_hdmi480i_1080P_mode2_w3_param
 *fill*         0x0000000008017acd        0x3 
 .rodata.VS4210_hdmi1024x768_1080P_mode13_w0_param
                0x0000000008017ad0       0x19 build/VS4210_param_Modex26.o
                0x0000000008017ad0                VS4210_hdmi1024x768_1080P_mode13_w0_param
 *fill*         0x0000000008017ae9        0x3 
 .rodata.VS4210_hdmi1080P_720P_mode13_w0_param
                0x0000000008017aec       0x19 build/VS4210_param_Modex26.o
                0x0000000008017aec                VS4210_hdmi1080P_720P_mode13_w0_param
 *fill*         0x0000000008017b05        0x3 
 .rodata.VS4210_hdmi480P_1080P_mode0_w0_88param
                0x0000000008017b08       0x58 build/VS4210_param_Mode88.o
                0x0000000008017b08                VS4210_hdmi480P_1080P_mode0_w0_88param
 .rodata.VS4210_hdmi1280x768_1080P_mode0_w0_88param
                0x0000000008017b60       0x58 build/VS4210_param_Mode88.o
                0x0000000008017b60                VS4210_hdmi1280x768_1080P_mode0_w0_88param
 .rodata.VS4210_hdmi1366x768_1080P_mode0_w0_88param
                0x0000000008017bb8       0x58 build/VS4210_param_Mode88.o
                0x0000000008017bb8                VS4210_hdmi1366x768_1080P_mode0_w0_88param
 .rodata.VS4210_hdmi1280x800_720P_mode0_w0_88param
                0x0000000008017c10       0x58 build/VS4210_param_Mode88.o
                0x0000000008017c10                VS4210_hdmi1280x800_720P_mode0_w0_88param
 .rodata.VS4210_hdmi1680x1050_1080P_mode0_w0_88param
                0x0000000008017c68       0x58 build/VS4210_param_Mode88.o
                0x0000000008017c68                VS4210_hdmi1680x1050_1080P_mode0_w0_88param
 .rodata.VS4210_hdmi800x600_1080P_mode0_w0_88param
                0x0000000008017cc0       0x58 build/VS4210_param_Mode88.o
                0x0000000008017cc0                VS4210_hdmi800x600_1080P_mode0_w0_88param
 .rodata.VS4210_hdmi480P_720P_mode0_w0_88param
                0x0000000008017d18       0x58 build/VS4210_param_Mode88.o
                0x0000000008017d18                VS4210_hdmi480P_720P_mode0_w0_88param
 .rodata.VS4210_hdmi576P_720P_mode0_w0_88param
                0x0000000008017d70       0x58 build/VS4210_param_Mode88.o
                0x0000000008017d70                VS4210_hdmi576P_720P_mode0_w0_88param
 .rodata.VS4210_hdmi720P_720P_mode0_w0_88param
                0x0000000008017dc8       0x58 build/VS4210_param_Mode88.o
                0x0000000008017dc8                VS4210_hdmi720P_720P_mode0_w0_88param
 .rodata.VS4210_hdmi1080i_720P_mode0_w0_88param
                0x0000000008017e20       0x58 build/VS4210_param_Mode88.o
                0x0000000008017e20                VS4210_hdmi1080i_720P_mode0_w0_88param
 .rodata.VS4210_hdmi1920x1200_1080P_mode0_w0_88param
                0x0000000008017e78       0x58 build/VS4210_param_Mode88.o
                0x0000000008017e78                VS4210_hdmi1920x1200_1080P_mode0_w0_88param
 .rodata.VS4210_hdmi480i_1080P_mode0_w0_88param
                0x0000000008017ed0       0x58 build/VS4210_param_Mode88.o
                0x0000000008017ed0                VS4210_hdmi480i_1080P_mode0_w0_88param
 .rodata.VS4210_hdmi1280x1024_1080P_mode0_w0_88param
                0x0000000008017f28       0x58 build/VS4210_param_Mode88.o
                0x0000000008017f28                VS4210_hdmi1280x1024_1080P_mode0_w0_88param
 .rodata.VS4210_TP_bt1120_1080P_1080P_mode0_w0_88param
                0x0000000008017f80       0x58 build/VS4210_param_Mode88.o
                0x0000000008017f80                VS4210_TP_bt1120_1080P_1080P_mode0_w0_88param
 .rodata.VS4210_hdmi1360x768_1080P_mode0_w0_88param
                0x0000000008017fd8       0x58 build/VS4210_param_Mode88.o
                0x0000000008017fd8                VS4210_hdmi1360x768_1080P_mode0_w0_88param
 .rodata.VS4210_hdmi1024x768_1080P_mode0_w0_88param
                0x0000000008018030       0x58 build/VS4210_param_Mode88.o
                0x0000000008018030                VS4210_hdmi1024x768_1080P_mode0_w0_88param
 .rodata.VS4210_hdmi800x600_720P_mode0_w0_88param
                0x0000000008018088       0x58 build/VS4210_param_Mode88.o
                0x0000000008018088                VS4210_hdmi800x600_720P_mode0_w0_88param
 .rodata.VS4210_hdmi1680x1050_720P_mode0_w0_88param
                0x00000000080180e0       0x58 build/VS4210_param_Mode88.o
                0x00000000080180e0                VS4210_hdmi1680x1050_720P_mode0_w0_88param
 .rodata.VS4210_hdmi1280x1024_720P_mode0_w0_88param
                0x0000000008018138       0x58 build/VS4210_param_Mode88.o
                0x0000000008018138                VS4210_hdmi1280x1024_720P_mode0_w0_88param
 .rodata.VS4210_hdmi1360x768_720P_mode0_w0_88param
                0x0000000008018190       0x58 build/VS4210_param_Mode88.o
                0x0000000008018190                VS4210_hdmi1360x768_720P_mode0_w0_88param
 .rodata.VS4210_hdmi1280x800_1080P_mode0_w0_88param
                0x00000000080181e8       0x58 build/VS4210_param_Mode88.o
                0x00000000080181e8                VS4210_hdmi1280x800_1080P_mode0_w0_88param
 .rodata.VS4210_hdmi1080P_1080P_mode0_w0_88param
                0x0000000008018240       0x58 build/VS4210_param_Mode88.o
                0x0000000008018240                VS4210_hdmi1080P_1080P_mode0_w0_88param
 .rodata.VS4210_hdmi1366x768_720P_mode0_w0_88param
                0x0000000008018298       0x58 build/VS4210_param_Mode88.o
                0x0000000008018298                VS4210_hdmi1366x768_720P_mode0_w0_88param
 .rodata.VS4210_hdmi1024x768_720P_mode0_w0_88param
                0x00000000080182f0       0x58 build/VS4210_param_Mode88.o
                0x00000000080182f0                VS4210_hdmi1024x768_720P_mode0_w0_88param
 .rodata.VS4210_hdmi1280x768_720P_mode0_w0_88param
                0x0000000008018348       0x58 build/VS4210_param_Mode88.o
                0x0000000008018348                VS4210_hdmi1280x768_720P_mode0_w0_88param
 .rodata.VS4210_hdmi1080i_1080P_mode0_w0_88param
                0x00000000080183a0       0x58 build/VS4210_param_Mode88.o
                0x00000000080183a0                VS4210_hdmi1080i_1080P_mode0_w0_88param
 .rodata.VS4210_hdmi576P_1080P_mode0_w0_88param
                0x00000000080183f8       0x58 build/VS4210_param_Mode88.o
                0x00000000080183f8                VS4210_hdmi576P_1080P_mode0_w0_88param
 .rodata.VS4210_hdmi1080P_720P_mode0_w0_88param
                0x0000000008018450       0x58 build/VS4210_param_Mode88.o
                0x0000000008018450                VS4210_hdmi1080P_720P_mode0_w0_88param
 .rodata.VS4210_TP_bt1120_PAL_1080P_mode0_w0_88param
                0x00000000080184a8       0x58 build/VS4210_param_Mode88.o
                0x00000000080184a8                VS4210_TP_bt1120_PAL_1080P_mode0_w0_88param
 .rodata.VS4210_hdmi1400x1050_720P_mode0_w0_88param
                0x0000000008018500       0x58 build/VS4210_param_Mode88.o
                0x0000000008018500                VS4210_hdmi1400x1050_720P_mode0_w0_88param
 .rodata.VS4210_TP_bt1120_NTSC_1080P_mode0_w0_88param
                0x0000000008018558       0x58 build/VS4210_param_Mode88.o
                0x0000000008018558                VS4210_TP_bt1120_NTSC_1080P_mode0_w0_88param
 .rodata.VS4210_hdmi640x480_1080P_mode0_w0_88param
                0x00000000080185b0       0x58 build/VS4210_param_Mode88.o
                0x00000000080185b0                VS4210_hdmi640x480_1080P_mode0_w0_88param
 .rodata.VS4210_hdmi640x480_720P_mode0_w0_88param
                0x0000000008018608       0x58 build/VS4210_param_Mode88.o
                0x0000000008018608                VS4210_hdmi640x480_720P_mode0_w0_88param
 .rodata.VS4210_TP_bt1120_720P_1080P_mode0_w0_88param
                0x0000000008018660       0x58 build/VS4210_param_Mode88.o
                0x0000000008018660                VS4210_TP_bt1120_720P_1080P_mode0_w0_88param
 .rodata.VS4210_hdmi480i_720P_mode0_w0_88param
                0x00000000080186b8       0x58 build/VS4210_param_Mode88.o
                0x00000000080186b8                VS4210_hdmi480i_720P_mode0_w0_88param
 .rodata.VS4210_hdmi1600x1200_720P_mode0_w0_88param
                0x0000000008018710       0x58 build/VS4210_param_Mode88.o
                0x0000000008018710                VS4210_hdmi1600x1200_720P_mode0_w0_88param
 .rodata.VS4210_hdmi576i_1080P_mode0_w0_88param
                0x0000000008018768       0x58 build/VS4210_param_Mode88.o
                0x0000000008018768                VS4210_hdmi576i_1080P_mode0_w0_88param
 .rodata.VS4210_hdmi1400x1050_1080P_mode0_w0_88param
                0x00000000080187c0       0x58 build/VS4210_param_Mode88.o
                0x00000000080187c0                VS4210_hdmi1400x1050_1080P_mode0_w0_88param
 .rodata.VS4210_hdmi576i_720P_mode0_w0_88param
                0x0000000008018818       0x58 build/VS4210_param_Mode88.o
                0x0000000008018818                VS4210_hdmi576i_720P_mode0_w0_88param
 .rodata.VS4210_hdmi720P_1080P_mode0_w0_88param
                0x0000000008018870       0x58 build/VS4210_param_Mode88.o
                0x0000000008018870                VS4210_hdmi720P_1080P_mode0_w0_88param
 .rodata.VS4210_Addr_88param
                0x00000000080188c8       0x58 build/VS4210_param_Mode88.o
                0x00000000080188c8                VS4210_Addr_88param
 .rodata.VS4210_hdmi1440x900_1080P_mode0_w0_88param
                0x0000000008018920       0x58 build/VS4210_param_Mode88.o
                0x0000000008018920                VS4210_hdmi1440x900_1080P_mode0_w0_88param
 .rodata.VS4210_hdmi1600x1200_1080P_mode0_w0_88param
                0x0000000008018978       0x58 build/VS4210_param_Mode88.o
                0x0000000008018978                VS4210_hdmi1600x1200_1080P_mode0_w0_88param
 .rodata.VS4210_hdmi1920x1200_720P_mode0_w0_88param
                0x00000000080189d0       0x58 build/VS4210_param_Mode88.o
                0x00000000080189d0                VS4210_hdmi1920x1200_720P_mode0_w0_88param
 .rodata.VS4210_hdmi1440x900_720P_mode0_w0_88param
                0x0000000008018a28       0x58 build/VS4210_param_Mode88.o
                0x0000000008018a28                VS4210_hdmi1440x900_720P_mode0_w0_88param
 .rodata.OSD_1920x1080I_param
                0x0000000008018a80        0xb build/VX_OSD_Simple.o
                0x0000000008018a80                OSD_1920x1080I_param
 *fill*         0x0000000008018a8b        0x1 
 .rodata.OSD_720x576I50_param
                0x0000000008018a8c        0xb build/VX_OSD_Simple.o
                0x0000000008018a8c                OSD_720x576I50_param
 *fill*         0x0000000008018a97        0x1 
 .rodata.aLineMode720PMode6Lin1
                0x0000000008018a98        0x7 build/VX_OSD_Simple.o
                0x0000000008018a98                aLineMode720PMode6Lin1
 *fill*         0x0000000008018a9f        0x1 
 .rodata.aLineMode720PMode6Lin2
                0x0000000008018aa0        0x7 build/VX_OSD_Simple.o
                0x0000000008018aa0                aLineMode720PMode6Lin2
 *fill*         0x0000000008018aa7        0x1 
 .rodata.aLineMode720PMode6Lin3
                0x0000000008018aa8        0x7 build/VX_OSD_Simple.o
                0x0000000008018aa8                aLineMode720PMode6Lin3
 *fill*         0x0000000008018aaf        0x1 
 .rodata.aLineMode720PMode2Lin1
                0x0000000008018ab0        0x7 build/VX_OSD_Simple.o
                0x0000000008018ab0                aLineMode720PMode2Lin1
 *fill*         0x0000000008018ab7        0x1 
 .rodata.aLineMode1080PMode12Lin1
                0x0000000008018ab8        0x7 build/VX_OSD_Simple.o
                0x0000000008018ab8                aLineMode1080PMode12Lin1
 *fill*         0x0000000008018abf        0x1 
 .rodata.aLineMode720PMode2Lin3
                0x0000000008018ac0        0x7 build/VX_OSD_Simple.o
                0x0000000008018ac0                aLineMode720PMode2Lin3
 *fill*         0x0000000008018ac7        0x1 
 .rodata.aLineMode720PMode2Lin2
                0x0000000008018ac8        0x7 build/VX_OSD_Simple.o
                0x0000000008018ac8                aLineMode720PMode2Lin2
 *fill*         0x0000000008018acf        0x1 
 .rodata.OSD_1280X768P_param
                0x0000000008018ad0        0xb build/VX_OSD_Simple.o
                0x0000000008018ad0                OSD_1280X768P_param
 *fill*         0x0000000008018adb        0x1 
 .rodata.OSD_1280X800P_param
                0x0000000008018adc        0xb build/VX_OSD_Simple.o
                0x0000000008018adc                OSD_1280X800P_param
 *fill*         0x0000000008018ae7        0x1 
 .rodata.OSD_1440X900P_param
                0x0000000008018ae8        0xb build/VX_OSD_Simple.o
                0x0000000008018ae8                OSD_1440X900P_param
 *fill*         0x0000000008018af3        0x1 
 .rodata.OSD_CH0_param
                0x0000000008018af4        0x7 build/VX_OSD_Simple.o
                0x0000000008018af4                OSD_CH0_param
 *fill*         0x0000000008018afb        0x1 
 .rodata.OSD_1680X1050P_param
                0x0000000008018afc        0xb build/VX_OSD_Simple.o
                0x0000000008018afc                OSD_1680X1050P_param
 *fill*         0x0000000008018b07        0x1 
 .rodata.aLineMode1080PMode6Lin1
                0x0000000008018b08        0x7 build/VX_OSD_Simple.o
                0x0000000008018b08                aLineMode1080PMode6Lin1
 *fill*         0x0000000008018b0f        0x1 
 .rodata.OSD_1280X1024P_param
                0x0000000008018b10        0xb build/VX_OSD_Simple.o
                0x0000000008018b10                OSD_1280X1024P_param
 *fill*         0x0000000008018b1b        0x1 
 .rodata.aLineMode1080PMode6Lin3
                0x0000000008018b1c        0x7 build/VX_OSD_Simple.o
                0x0000000008018b1c                aLineMode1080PMode6Lin3
 *fill*         0x0000000008018b23        0x1 
 .rodata.aLineMode1080PMode2Lin1
                0x0000000008018b24        0x7 build/VX_OSD_Simple.o
                0x0000000008018b24                aLineMode1080PMode2Lin1
 *fill*         0x0000000008018b2b        0x1 
 .rodata.aLineMode1080PMode2Lin2
                0x0000000008018b2c        0x7 build/VX_OSD_Simple.o
                0x0000000008018b2c                aLineMode1080PMode2Lin2
 *fill*         0x0000000008018b33        0x1 
 .rodata.aLineMode1080PMode2Lin3
                0x0000000008018b34        0x7 build/VX_OSD_Simple.o
                0x0000000008018b34                aLineMode1080PMode2Lin3
 *fill*         0x0000000008018b3b        0x1 
 .rodata.OSD_1920x1080P_param
                0x0000000008018b3c        0xb build/VX_OSD_Simple.o
                0x0000000008018b3c                OSD_1920x1080P_param
 *fill*         0x0000000008018b47        0x1 
 .rodata.OSD_CH2_param
                0x0000000008018b48        0x7 build/VX_OSD_Simple.o
                0x0000000008018b48                OSD_CH2_param
 *fill*         0x0000000008018b4f        0x1 
 .rodata.OSD_No_Signal_param
                0x0000000008018b50        0xb build/VX_OSD_Simple.o
                0x0000000008018b50                OSD_No_Signal_param
 *fill*         0x0000000008018b5b        0x1 
 .rodata.aLineModeReg
                0x0000000008018b5c        0x7 build/VX_OSD_Simple.o
                0x0000000008018b5c                aLineModeReg
 *fill*         0x0000000008018b63        0x1 
 .rodata.OSD_CH3_param
                0x0000000008018b64        0x7 build/VX_OSD_Simple.o
                0x0000000008018b64                OSD_CH3_param
 *fill*         0x0000000008018b6b        0x1 
 .rodata.OSD_720x480P60_param
                0x0000000008018b6c        0xb build/VX_OSD_Simple.o
                0x0000000008018b6c                OSD_720x480P60_param
 *fill*         0x0000000008018b77        0x1 
 .rodata.aLineMode1080PMode1Lin2
                0x0000000008018b78        0x7 build/VX_OSD_Simple.o
                0x0000000008018b78                aLineMode1080PMode1Lin2
 *fill*         0x0000000008018b7f        0x1 
 .rodata.OSD_1280x720P_param
                0x0000000008018b80        0xb build/VX_OSD_Simple.o
                0x0000000008018b80                OSD_1280x720P_param
 *fill*         0x0000000008018b8b        0x1 
 .rodata.OSD_800X600P_param
                0x0000000008018b8c        0xb build/VX_OSD_Simple.o
                0x0000000008018b8c                OSD_800X600P_param
 *fill*         0x0000000008018b97        0x1 
 .rodata.OSD_640X480P_param
                0x0000000008018b98        0xb build/VX_OSD_Simple.o
                0x0000000008018b98                OSD_640X480P_param
 *fill*         0x0000000008018ba3        0x1 
 .rodata.OSD_720x576P50_param
                0x0000000008018ba4        0xb build/VX_OSD_Simple.o
                0x0000000008018ba4                OSD_720x576P50_param
 *fill*         0x0000000008018baf        0x1 
 .rodata.OSD_1920X1200P_param
                0x0000000008018bb0        0xb build/VX_OSD_Simple.o
                0x0000000008018bb0                OSD_1920X1200P_param
 *fill*         0x0000000008018bbb        0x1 
 .rodata.OSD_1600X1200P_param
                0x0000000008018bbc        0xb build/VX_OSD_Simple.o
                0x0000000008018bbc                OSD_1600X1200P_param
 *fill*         0x0000000008018bc7        0x1 
 .rodata.OSD_CH1_param
                0x0000000008018bc8        0x7 build/VX_OSD_Simple.o
                0x0000000008018bc8                OSD_CH1_param
 *fill*         0x0000000008018bcf        0x1 
 .rodata.aLineMode720PMode12Lin1
                0x0000000008018bd0        0x7 build/VX_OSD_Simple.o
                0x0000000008018bd0                aLineMode720PMode12Lin1
 *fill*         0x0000000008018bd7        0x1 
 .rodata.aLineMode720PMode1Lin2
                0x0000000008018bd8        0x7 build/VX_OSD_Simple.o
                0x0000000008018bd8                aLineMode720PMode1Lin2
 *fill*         0x0000000008018bdf        0x1 
 .rodata.aLineMode1080PMode1Lin1
                0x0000000008018be0        0x7 build/VX_OSD_Simple.o
                0x0000000008018be0                aLineMode1080PMode1Lin1
 *fill*         0x0000000008018be7        0x1 
 .rodata.aLineMode720PMode1Lin1
                0x0000000008018be8        0x7 build/VX_OSD_Simple.o
                0x0000000008018be8                aLineMode720PMode1Lin1
 *fill*         0x0000000008018bef        0x1 
 .rodata.OSD_1400X1050P_param
                0x0000000008018bf0        0xb build/VX_OSD_Simple.o
                0x0000000008018bf0                OSD_1400X1050P_param
 *fill*         0x0000000008018bfb        0x1 
 .rodata.OSD_720x480I60_param
                0x0000000008018bfc        0xb build/VX_OSD_Simple.o
                0x0000000008018bfc                OSD_720x480I60_param
 *fill*         0x0000000008018c07        0x1 
 .rodata.aLineMode1080PMode6Lin2
                0x0000000008018c08        0x7 build/VX_OSD_Simple.o
                0x0000000008018c08                aLineMode1080PMode6Lin2
 *fill*         0x0000000008018c0f        0x1 
 .rodata.str1.4
                0x0000000008018c10       0x1f build/VX_OSD_Simple.o
 *fill*         0x0000000008018c2f        0x1 
 .rodata.OSD_1366X768P_param
                0x0000000008018c30        0xb build/VX_OSD_Simple.o
                0x0000000008018c30                OSD_1366X768P_param
 *fill*         0x0000000008018c3b        0x1 
 .rodata.OSD_1024X768P_param
                0x0000000008018c3c        0xb build/VX_OSD_Simple.o
                0x0000000008018c3c                OSD_1024X768P_param
 *fill*         0x0000000008018c47        0x1 
 .rodata.TP2853C_HDC_DataSet
                0x0000000008018c48       0x41 build/TP2802.o
                0x0000000008018c48                TP2853C_HDC_DataSet
 *fill*         0x0000000008018c89        0x3 
 .rodata.TP2824C_MODE_DataSet
                0x0000000008018c8c       0x64 build/TP2802.o
                0x0000000008018c8c                TP2824C_MODE_DataSet
 .rodata.TP2833_HDA_DataSet
                0x0000000008018cf0       0x28 build/TP2802.o
                0x0000000008018cf0                TP2833_HDA_DataSet
 .rodata.TP2823_DataSet
                0x0000000008018d18       0x16 build/TP2802.o
                0x0000000008018d18                TP2823_DataSet
 *fill*         0x0000000008018d2e        0x2 
 .rodata.SYS_MODE
                0x0000000008018d30        0x5 build/TP2802.o
                0x0000000008018d30                SYS_MODE
 *fill*         0x0000000008018d35        0x3 
 .rodata.TP2824C_CVBS_PTZ_DataSet
                0x0000000008018d38       0x44 build/TP2802.o
                0x0000000008018d38                TP2824C_CVBS_PTZ_DataSet
 .rodata.TP2834_MODE_DataSet
                0x0000000008018d7c       0x41 build/TP2802.o
                0x0000000008018d7c                TP2834_MODE_DataSet
 *fill*         0x0000000008018dbd        0x3 
 .rodata.TP2802_FORMAT_DataSet
                0x0000000008018dc0       0xf7 build/TP2802.o
                0x0000000008018dc0                TP2802_FORMAT_DataSet
 *fill*         0x0000000008018eb7        0x1 
 .rodata.TP2826_DataSet
                0x0000000008018eb8       0x18 build/TP2802.o
                0x0000000008018eb8                TP2826_DataSet
 .rodata.TP2853C_HDA_DataSet
                0x0000000008018ed0       0x32 build/TP2802.o
                0x0000000008018ed0                TP2853C_HDA_DataSet
 *fill*         0x0000000008018f02        0x2 
 .rodata.TP2826_MODE_DataSet
                0x0000000008018f04       0x64 build/TP2802.o
                0x0000000008018f04                TP2826_MODE_DataSet
 .rodata.TP2834_DataSet
                0x0000000008018f68       0x10 build/TP2802.o
                0x0000000008018f68                TP2834_DataSet
 .rodata.TP2853C_MODE_DataSet
                0x0000000008018f78       0x5a build/TP2802.o
                0x0000000008018f78                TP2853C_MODE_DataSet
 *fill*         0x0000000008018fd2        0x2 
 .rodata.TP2826_HDC_DataSet
                0x0000000008018fd4       0x64 build/TP2802.o
                0x0000000008018fd4                TP2826_HDC_DataSet
 .rodata.SYS_AND
                0x0000000008019038        0x5 build/TP2802.o
                0x0000000008019038                SYS_AND
 *fill*         0x000000000801903d        0x3 
 .rodata.TP2824C_AHD_FHD_PTZ_DataSet
                0x0000000008019040       0x60 build/TP2802.o
                0x0000000008019040                TP2824C_AHD_FHD_PTZ_DataSet
 .rodata.TP2824C_TVI_FHD_PTZ_DataSet
                0x00000000080190a0       0x4c build/TP2802.o
                0x00000000080190a0                TP2824C_TVI_FHD_PTZ_DataSet
 .rodata.TP2826_HDA_DataSet
                0x00000000080190ec       0x3c build/TP2802.o
                0x00000000080190ec                TP2826_HDA_DataSet
 .rodata.TP2824C_HDC_DataSet
                0x0000000008019128       0x64 build/TP2802.o
                0x0000000008019128                TP2824C_HDC_DataSet
 .rodata.TP2824C_DataSet
                0x000000000801918c       0x18 build/TP2802.o
                0x000000000801918c                TP2824C_DataSet
 .rodata.REG_F6
                0x00000000080191a4        0x4 build/TP2802.o
                0x00000000080191a4                REG_F6
 .rodata.REG_F7
                0x00000000080191a8        0x4 build/TP2802.o
                0x00000000080191a8                REG_F7
 .rodata.REG_FA
                0x00000000080191ac        0x4 build/TP2802.o
                0x00000000080191ac                REG_FA
 .rodata.TP2833_MODE_DataSet
                0x00000000080191b0       0x46 build/TP2802.o
                0x00000000080191b0                TP2833_MODE_DataSet
 *fill*         0x00000000080191f6        0x2 
 .rodata.TP2824C_CVIHD_PTZ_DataSet
                0x00000000080191f8       0x44 build/TP2802.o
                0x00000000080191f8                TP2824C_CVIHD_PTZ_DataSet
 .rodata.TP2824C_HDA_DataSet
                0x000000000801923c       0x3c build/TP2802.o
                0x000000000801923c                TP2824C_HDA_DataSet
 .rodata.TP2853C_DataSet
                0x0000000008019278       0x1c build/TP2802.o
                0x0000000008019278                TP2853C_DataSet
 .rodata.TP2833_DataSet
                0x0000000008019294       0x14 build/TP2802.o
                0x0000000008019294                TP2833_DataSet
 .rodata.TP2834_Audio_DataSet
                0x00000000080192a8       0x24 build/TP2802.o
                0x00000000080192a8                TP2834_Audio_DataSet
 .rodata.str1.4
                0x00000000080192cc      0x480 build/TP2802.o
 .rodata.str1.4
                0x000000000801974c      0x5f5 build/monitor.o
                                        0x5fd (size before relaxing)
 *fill*         0x0000000008019d41        0x3 
 .rodata._PrintColor
                0x0000000008019d44       0x20 build/Printf.o
 .rodata.str1.4
                0x0000000008019d64       0x40 build/Printf.o
 .rodata.str1.4
                0x0000000008019da4      0x145 build/SysTimer.o
 *fill*         0x0000000008019ee9        0x3 
 .rodata.UserDefineFont1
                0x0000000008019eec      0x460 build/exosd.o
                0x0000000008019eec                UserDefineFont1
 .rodata.str1.4
                0x000000000801a34c      0x1f3 build/TOA_Protocol.o
                                        0x217 (size before relaxing)
 *fill*         0x000000000801a53f        0x1 
 .rodata.str1.4
                0x000000000801a540       0x28 build/etc_eep.o
                                         0x26 (size before relaxing)
 .rodata.str1.1
                0x000000000801a568        0x2 /usr/lib/gcc/arm-none-eabi/4.9.3/../../../arm-none-eabi/lib/armv7-m/libc_nano.a(lib_a-impure.o)
 *fill*         0x000000000801a56a        0x2 
 .rodata._global_impure_ptr
                0x000000000801a56c        0x4 /usr/lib/gcc/arm-none-eabi/4.9.3/../../../arm-none-eabi/lib/armv7-m/libc_nano.a(lib_a-impure.o)
                0x000000000801a56c                _global_impure_ptr
 .rodata.__sf_fake_stdin
                0x000000000801a570       0x20 /usr/lib/gcc/arm-none-eabi/4.9.3/../../../arm-none-eabi/lib/armv7-m/libc_nano.a(lib_a-findfp.o)
                0x000000000801a570                __sf_fake_stdin
 .rodata.__sf_fake_stdout
                0x000000000801a590       0x20 /usr/lib/gcc/arm-none-eabi/4.9.3/../../../arm-none-eabi/lib/armv7-m/libc_nano.a(lib_a-findfp.o)
                0x000000000801a590                __sf_fake_stdout
 .rodata.__sf_fake_stderr
                0x000000000801a5b0       0x20 /usr/lib/gcc/arm-none-eabi/4.9.3/../../../arm-none-eabi/lib/armv7-m/libc_nano.a(lib_a-findfp.o)
                0x000000000801a5b0                __sf_fake_stderr
 .rodata.str1.1
                0x000000000801a5d0       0x11 /usr/lib/gcc/arm-none-eabi/4.9.3/../../../arm-none-eabi/lib/armv7-m/libc_nano.a(lib_a-nano-vfprintf.o)
 .rodata.str1.1
                0x000000000801a5e1       0x22 /usr/lib/gcc/arm-none-eabi/4.9.3/../../../arm-none-eabi/lib/armv7-m/libc_nano.a(lib_a-nano-vfprintf_i.o)
 *fill*         0x000000000801a603        0x1 
 .rodata.ParseCEAEDID
                0x000000000801a604       0x1c ./Lib/libite66121dvi.a(hdmitx_sys.o)
 .rodata.setHDMITX_NCTS
                0x000000000801a620       0x3c ./Lib/libite66121dvi.a(hdmitx_drv.o)
 .rodata.HDMITX_PwrDown_Table
                0x000000000801a65c       0x21 ./Lib/libite66121dvi.a(hdmitx_drv.o)
                0x000000000801a65c                HDMITX_PwrDown_Table
 *fill*         0x000000000801a67d        0x3 
 .rodata.HDMITX_PwrOn_Table
                0x000000000801a680       0x1e ./Lib/libite66121dvi.a(hdmitx_drv.o)
                0x000000000801a680                HDMITX_PwrOn_Table
 *fill*         0x000000000801a69e        0x2 
 .rodata.bCSCMtx_YUV2RGB_ITU601_0_255
                0x000000000801a6a0       0x15 ./Lib/libite66121dvi.a(tx_csc.o)
                0x000000000801a6a0                bCSCMtx_YUV2RGB_ITU601_0_255
 *fill*         0x000000000801a6b5        0x3 
 .rodata.bCSCMtx_YUV2RGB_ITU601_16_235
                0x000000000801a6b8       0x15 ./Lib/libite66121dvi.a(tx_csc.o)
                0x000000000801a6b8                bCSCMtx_YUV2RGB_ITU601_16_235
 *fill*         0x000000000801a6cd        0x3 
 .rodata.bCSCMtx_YUV2RGB_ITU709_0_255
                0x000000000801a6d0       0x15 ./Lib/libite66121dvi.a(tx_csc.o)
                0x000000000801a6d0                bCSCMtx_YUV2RGB_ITU709_0_255
 *fill*         0x000000000801a6e5        0x3 
 .rodata.bCSCMtx_YUV2RGB_ITU709_16_235
                0x000000000801a6e8       0x15 ./Lib/libite66121dvi.a(tx_csc.o)
                0x000000000801a6e8                bCSCMtx_YUV2RGB_ITU709_16_235
 *fill*         0x000000000801a6fd        0x3 
 .rodata.VS4210_init_Input_MODE1_w0
                0x000000000801a700       0xa0 ./Lib/libVS4210.a(VS4210.o)
 .rodata.VS4210_init_Input_MODE1_w1
                0x000000000801a7a0       0xa0 ./Lib/libVS4210.a(VS4210.o)
 .rodata.VS4210_init_Input_MODE1_w2
                0x000000000801a840       0xa0 ./Lib/libVS4210.a(VS4210.o)
 .rodata.VS4210_init_Input_MODE1_w3
                0x000000000801a8e0       0xa0 ./Lib/libVS4210.a(VS4210.o)
 .rodata.VS4210_init_Input_MODE2_w0
                0x000000000801a980       0xa0 ./Lib/libVS4210.a(VS4210.o)
 .rodata.VS4210_init_Input_MODE2_w1
                0x000000000801aa20       0xa0 ./Lib/libVS4210.a(VS4210.o)
 .rodata.VS4210_init_Input_MODE2_w2
                0x000000000801aac0       0xa0 ./Lib/libVS4210.a(VS4210.o)
 .rodata.VS4210_init_Input_MODE2_w3
                0x000000000801ab60       0xa0 ./Lib/libVS4210.a(VS4210.o)
 .rodata.VS4210_init_Input_MODE6_w0
                0x000000000801ac00       0xa0 ./Lib/libVS4210.a(VS4210.o)
 .rodata.VS4210_init_Input_MODE6_w1
                0x000000000801aca0       0xa0 ./Lib/libVS4210.a(VS4210.o)
 .rodata.VS4210_init_Input_MODE6_w2
                0x000000000801ad40       0xa0 ./Lib/libVS4210.a(VS4210.o)
 .rodata.VS4210_init_Input_MODE6_w3
                0x000000000801ade0       0xa0 ./Lib/libVS4210.a(VS4210.o)
 .rodata.VS4210_init_Input_MODE12_w0
                0x000000000801ae80       0xa0 ./Lib/libVS4210.a(VS4210.o)
 .rodata.VS4210_init_Input_MODE12_w1
                0x000000000801af20       0xa0 ./Lib/libVS4210.a(VS4210.o)
 .rodata.VS4210_init_Input_MODE13_w0
                0x000000000801afc0       0xa0 ./Lib/libVS4210.a(VS4210.o)
 .rodata.VS4210_init_Input_MODE13_w1
                0x000000000801b060       0xa0 ./Lib/libVS4210.a(VS4210.o)
 .rodata.VS4210_init_Input_MODE24_w1
                0x000000000801b100       0x98 ./Lib/libVS4210.a(VS4210.o)
 .rodata.VS4210_init_Input_MODE24_w0
                0x000000000801b198       0xa0 ./Lib/libVS4210.a(VS4210.o)
 .rodata.VS4210_init_Input_MODE0_w0
                0x000000000801b238       0xa0 ./Lib/libVS4210.a(VS4210.o)
 .rodata.VS4210_init_mode
                0x000000000801b2d8       0xc4 ./Lib/libVS4210.a(VS4210.o)
 .rodata.IT6602_VideoOutputConfigure_Init
                0x000000000801b39c       0x40 ./Lib/libit6602.a(it6602.o)
 .rodata.IT6602_HDMI_INIT_TABLE
                0x000000000801b3dc       0xea ./Lib/libit6602.a(it6602.o)
 *fill*         0x000000000801b4c6        0x2 
 .rodata.bCSCMrx_RGB2YUV_ITU601_0_255
                0x000000000801b4c8       0x15 ./Lib/libit6602.a(it6602.o)
 *fill*         0x000000000801b4dd        0x3 
 .rodata.bCSCMrx_RGB2YUV_ITU709_0_255
                0x000000000801b4e0       0x15 ./Lib/libit6602.a(it6602.o)
                0x000000000801b4f8                . = ALIGN (0x4)
 *fill*         0x000000000801b4f5        0x3 

.rel.dyn        0x000000000801b4f8        0x0
 .rel.iplt      0x000000000801b4f8        0x0 /usr/lib/gcc/arm-none-eabi/4.9.3/armv7-m/crtbegin.o

.ARM.extab
 *(.ARM.extab* .gnu.linkonce.armextab.*)

.ARM            0x000000000801b4f8        0x0
                0x000000000801b4f8                __exidx_start = .
 *(.ARM.exidx*)
                0x000000000801b4f8                __exidx_end = .

.preinit_array  0x000000000801b4f8        0x0
                0x000000000801b4f8                PROVIDE (__preinit_array_start, .)
 *(.preinit_array*)
                0x000000000801b4f8                PROVIDE (__preinit_array_end, .)

.init_array     0x000000000801b4f8        0x4
                0x000000000801b4f8                PROVIDE (__init_array_start, .)
 *(SORT(.init_array.*))
 *(.init_array*)
 .init_array    0x000000000801b4f8        0x4 /usr/lib/gcc/arm-none-eabi/4.9.3/armv7-m/crtbegin.o
                0x000000000801b4fc                PROVIDE (__init_array_end, .)

.fini_array     0x000000000801b4fc        0x4
                0x000000000801b4fc                PROVIDE (__fini_array_start, .)
 *(SORT(.fini_array.*))
 *(.fini_array*)
 .fini_array    0x000000000801b4fc        0x4 /usr/lib/gcc/arm-none-eabi/4.9.3/armv7-m/crtbegin.o
                0x000000000801b500                PROVIDE (__fini_array_end, .)
                0x000000000801b500                _sidata = LOADADDR (.data)

.data           0x0000000020000000       0xf4 load address 0x000000000801b500
                0x0000000020000000                . = ALIGN (0x4)
                0x0000000020000000                _sdata = .
 *(.data)
 *(.data*)
 .data.VS4210_ADDR
                0x0000000020000000        0x1 build/main.o
                0x0000000020000000                VS4210_ADDR
 .data.VS8812_ADDR
                0x0000000020000001        0x1 build/main.o
                0x0000000020000001                VS8812_ADDR
 .data.OSDStateFlg
                0x0000000020000002        0x1 build/main.o
                0x0000000020000002                OSDStateFlg
 .data.BOOT_ISSUE
                0x0000000020000003        0x1 build/main.o
                0x0000000020000003                BOOT_ISSUE
 .data.PrebVXIS_InputMode
                0x0000000020000004        0x4 build/main.o
                0x0000000020000004                PrebVXIS_InputMode
 .data.gMode0LoopSecCmpVal
                0x0000000020000008        0x1 build/main.o
                0x0000000020000008                gMode0LoopSecCmpVal
 *fill*         0x0000000020000009        0x3 
 .data.OSDPreSecCount
                0x000000002000000c        0x4 build/main.o
                0x000000002000000c                OSDPreSecCount
 .data.uwTickPrio
                0x0000000020000010        0x4 build/stm32f1xx_hal.o
                0x0000000020000010                uwTickPrio
 .data.uwTickFreq
                0x0000000020000014        0x1 build/stm32f1xx_hal.o
                0x0000000020000014                uwTickFreq
 *fill*         0x0000000020000015        0x3 
 .data.SystemCoreClock
                0x0000000020000018        0x4 build/system_stm32f1xx.o
                0x0000000020000018                SystemCoreClock
 .data.TP_InputMode
                0x000000002000001c        0x1 build/TP2802.o
                0x000000002000001c                TP_InputMode
 *fill*         0x000000002000001d        0x3 
 .data.newInRes
                0x0000000020000020        0x4 build/TP2802.o
                0x0000000020000020                newInRes
 .data.AccessEnable
                0x0000000020000024        0x4 build/monitor.o
                0x0000000020000024                AccessEnable
 .data.Monitor_I2C
                0x0000000020000028        0x1 build/monitor.o
                0x0000000020000028                Monitor_I2C
 *fill*         0x0000000020000029        0x3 
 .data.Hex      0x000000002000002c       0x11 build/Printf.o
                0x000000002000002c                Hex
 *fill*         0x000000002000003d        0x3 
 .data.impure_data
                0x0000000020000040       0x60 /usr/lib/gcc/arm-none-eabi/4.9.3/../../../arm-none-eabi/lib/armv7-m/libc_nano.a(lib_a-impure.o)
 .data._impure_ptr
                0x00000000200000a0        0x4 /usr/lib/gcc/arm-none-eabi/4.9.3/../../../arm-none-eabi/lib/armv7-m/libc_nano.a(lib_a-impure.o)
                0x00000000200000a0                _impure_ptr
 .data.OutputColorDepth
                0x00000000200000a4        0x1 ./Lib/libite66121dvi.a(hdmitx_sys.o)
                0x00000000200000a4                OutputColorDepth
 *fill*         0x00000000200000a5        0x3 
 .data.bOutputAudioChannel
                0x00000000200000a8        0x1 ./Lib/libite66121dvi.a(hdmitx_sys.o)
                0x00000000200000a8                bOutputAudioChannel
 *fill*         0x00000000200000a9        0x3 
 .data.bOutputAudioType
                0x00000000200000ac        0x1 ./Lib/libite66121dvi.a(hdmitx_sys.o)
                0x00000000200000ac                bOutputAudioType
 *fill*         0x00000000200000ad        0x3 
 .data.ulAudioSampleFS
                0x00000000200000b0        0x4 ./Lib/libite66121dvi.a(hdmitx_sys.o)
                0x00000000200000b0                ulAudioSampleFS
 .data.PreMode0inputmode
                0x00000000200000b4        0x1 ./Lib/libVS4210.a(VS4210.o)
                0x00000000200000b4                PreMode0inputmode
 .data.PreOuputModeflg
                0x00000000200000b5        0x1 ./Lib/libVS4210.a(VS4210.o)
 .data.PreVXIS_FULLOuputModeflg
                0x00000000200000b6        0x1 ./Lib/libVS4210.a(VS4210.o)
                0x00000000200000b6                PreVXIS_FULLOuputModeflg
 .data.PreVXIS_OuputSize
                0x00000000200000b7        0x1 ./Lib/libVS4210.a(VS4210.o)
 .data.PreaMapWindowIndex
                0x00000000200000b8        0x4 ./Lib/libVS4210.a(VS4210.o)
 .data.aOpenWindowflgChange
                0x00000000200000bc        0x4 ./Lib/libVS4210.a(VS4210.o)
 .data.gHActive
                0x00000000200000c0        0x8 ./Lib/libVS4210.a(VS4210.o)
                0x00000000200000c0                gHActive
 .data.gHTotal  0x00000000200000c8        0x8 ./Lib/libVS4210.a(VS4210.o)
                0x00000000200000c8                gHTotal
 .data.gVActive
                0x00000000200000d0        0x8 ./Lib/libVS4210.a(VS4210.o)
                0x00000000200000d0                gVActive
 .data.gVTotal  0x00000000200000d8        0x8 ./Lib/libVS4210.a(VS4210.o)
                0x00000000200000d8                gVTotal
 .data.gaOpenWindowflg
                0x00000000200000e0        0x4 ./Lib/libVS4210.a(VS4210.o)
                0x00000000200000e0                gaOpenWindowflg
 .data.gbPreVXIS_InputMode
                0x00000000200000e4        0x4 ./Lib/libVS4210.a(VS4210.o)
                0x00000000200000e4                gbPreVXIS_InputMode
 .data.gbVXIS_OuputModeflg
                0x00000000200000e8        0x1 ./Lib/libVS4210.a(VS4210.o)
                0x00000000200000e8                gbVXIS_OuputModeflg
 .data.gu8PreAudioMode
                0x00000000200000e9        0x1 ./Lib/libVS4210.a(VS4210.o)
                0x00000000200000e9                gu8PreAudioMode
 .data.gvideofftmp
                0x00000000200000ea        0x1 ./Lib/libVS4210.a(VS4210.o)
                0x00000000200000ea                gvideofftmp
 .data.isfirstinit
                0x00000000200000eb        0x1 ./Lib/libVS4210.a(VS4210.o)
                0x00000000200000eb                isfirstinit
 .data.u8DrawBoxFlg
                0x00000000200000ec        0x1 ./Lib/libVS4210.a(VS4210.o)
                0x00000000200000ec                u8DrawBoxFlg
 .data.u8PreDrawBoxColor
                0x00000000200000ed        0x1 ./Lib/libVS4210.a(VS4210.o)
                0x00000000200000ed                u8PreDrawBoxColor
 .data.u8PreDrawOSDFlg
                0x00000000200000ee        0x1 ./Lib/libVS4210.a(VS4210.o)
                0x00000000200000ee                u8PreDrawOSDFlg
 .data.u8gDrawOSDFlg
                0x00000000200000ef        0x1 ./Lib/libVS4210.a(VS4210.o)
                0x00000000200000ef                u8gDrawOSDFlg
 .data.HdmiI2cAddr
                0x00000000200000f0        0x1 ./Lib/libit6602.a(it6602.o)
                0x00000000200000f0                HdmiI2cAddr
 .data.OutColorMode
                0x00000000200000f1        0x1 ./Lib/libit6602.a(it6602.o)
                0x00000000200000f1                OutColorMode
                0x00000000200000f4                . = ALIGN (0x4)
 *fill*         0x00000000200000f2        0x2 
                0x00000000200000f4                _edata = .

.jcr            0x00000000200000f4        0x0 load address 0x000000000801b5f4
 .jcr           0x00000000200000f4        0x0 /usr/lib/gcc/arm-none-eabi/4.9.3/armv7-m/crtbegin.o

.tm_clone_table
                0x00000000200000f4        0x0 load address 0x000000000801b5f4
 .tm_clone_table
                0x00000000200000f4        0x0 /usr/lib/gcc/arm-none-eabi/4.9.3/armv7-m/crtbegin.o
 .tm_clone_table
                0x00000000200000f4        0x0 /usr/lib/gcc/arm-none-eabi/4.9.3/armv7-m/crtend.o

.igot.plt       0x00000000200000f4        0x0 load address 0x000000000801b5f4
 .igot.plt      0x00000000200000f4        0x0 /usr/lib/gcc/arm-none-eabi/4.9.3/armv7-m/crtbegin.o
                0x00000000200000f4                . = ALIGN (0x4)

.bss            0x00000000200000f4      0x784 load address 0x000000000801b5f4
                0x00000000200000f4                _sbss = .
                0x00000000200000f4                __bss_start__ = _sbss
 *(.bss)
 .bss           0x00000000200000f4       0x1c /usr/lib/gcc/arm-none-eabi/4.9.3/armv7-m/crtbegin.o
 *(.bss*)
 .bss.Tim1_count
                0x0000000020000110        0x4 build/main.o
                0x0000000020000110                Tim1_count
 .bss.SelectInputMode
                0x0000000020000114        0x1 build/main.o
                0x0000000020000114                SelectInputMode
 *fill*         0x0000000020000115        0x3 
 .bss.bSignal   0x0000000020000118        0x4 build/main.o
                0x0000000020000118                bSignal
 .bss.gMode0LoopSecCount
                0x000000002000011c        0x1 build/main.o
                0x000000002000011c                gMode0LoopSecCount
 *fill*         0x000000002000011d        0x3 
 .bss.TimeOutCount
                0x0000000020000120        0x4 build/main.o
 .bss.tim3count
                0x0000000020000124        0x4 build/main.o
 .bss.Rx2_data  0x0000000020000128        0x2 build/main.o
 *fill*         0x000000002000012a        0x2 
 .bss.gAudioSampleFreq
                0x000000002000012c        0x4 build/main.o
 .bss.Rx_data   0x0000000020000130        0x2 build/main.o
 .bss.CheckSelectInputMode
                0x0000000020000132        0x1 build/main.o
                0x0000000020000132                CheckSelectInputMode
 *fill*         0x0000000020000133        0x1 
 .bss.OSD_Show_Flg
                0x0000000020000134        0x4 build/main.o
                0x0000000020000134                OSD_Show_Flg
 .bss.gbAUDO_INDEX
                0x0000000020000138        0x1 build/main.o
                0x0000000020000138                gbAUDO_INDEX
 .bss.gMode0LoopFlg
                0x0000000020000139        0x1 build/main.o
                0x0000000020000139                gMode0LoopFlg
 .bss.OSDSecCount
                0x000000002000013a        0x1 build/main.o
                0x000000002000013a                OSDSecCount
 *fill*         0x000000002000013b        0x1 
 .bss.bOldSignal
                0x000000002000013c        0x4 build/main.o
 .bss.gMode0LoopCount
                0x0000000020000140        0x2 build/main.o
                0x0000000020000140                gMode0LoopCount
 .bss.TxCount   0x0000000020000142        0x1 build/main.o
                0x0000000020000142                TxCount
 .bss.bVloss_Flag
                0x0000000020000143        0x1 build/VX_OSD_Simple.o
                0x0000000020000143                bVloss_Flag
 .bss.PtzTxChNum
                0x0000000020000144        0x1 build/TP2802.o
                0x0000000020000144                PtzTxChNum
 .bss.QuadBoxId
                0x0000000020000145        0x1 build/TP2802.o
                0x0000000020000145                QuadBoxId
 .bss.incnt.8433
                0x0000000020000146        0x1 build/monitor.o
 .bss.argc      0x0000000020000147        0x1 build/monitor.o
                0x0000000020000147                argc
 .bss.RS_out    0x0000000020000148        0x1 build/monitor.o
                0x0000000020000148                RS_out
 .bss.RS2_out   0x0000000020000149        0x1 build/monitor.o
                0x0000000020000149                RS2_out
 .bss.comment.8432
                0x000000002000014a        0x1 build/monitor.o
 .bss.Monitor_flag
                0x000000002000014b        0x1 build/monitor.o
                0x000000002000014b                Monitor_flag
 .bss.indirect  0x000000002000014c        0x4 build/monitor.o
 .bss.RS2_in    0x0000000020000150        0x1 build/monitor.o
                0x0000000020000150                RS2_in
 .bss.RS_in     0x0000000020000151        0x1 build/monitor.o
                0x0000000020000151                RS_in
 .bss.last_argc.8434
                0x0000000020000152        0x1 build/monitor.o
 *fill*         0x0000000020000153        0x1 
 .bss.tic03     0x0000000020000154        0x4 build/SysTimer.o
                0x0000000020000154                tic03
 .bss.tic02     0x0000000020000158        0x1 build/SysTimer.o
                0x0000000020000158                tic02
 *fill*         0x0000000020000159        0x3 
 .bss.tic04     0x000000002000015c        0x4 build/SysTimer.o
                0x000000002000015c                tic04
 .bss.minute    0x0000000020000160        0x1 build/SysTimer.o
                0x0000000020000160                minute
 *fill*         0x0000000020000161        0x3 
 .bss.g_bNotifyTimer0Int
                0x0000000020000164        0x4 build/SysTimer.o
                0x0000000020000164                g_bNotifyTimer0Int
 .bss.g_usTimerCounter
                0x0000000020000168        0x4 build/SysTimer.o
                0x0000000020000168                g_usTimerCounter
 .bss.day       0x000000002000016c        0x1 build/SysTimer.o
                0x000000002000016c                day
 .bss.hour      0x000000002000016d        0x1 build/SysTimer.o
                0x000000002000016d                hour
 .bss.second    0x000000002000016e        0x1 build/SysTimer.o
                0x000000002000016e                second
 *fill*         0x000000002000016f        0x1 
 .bss.protocol_cmd
                0x0000000020000170        0x4 build/TOA_Protocol.o
                0x0000000020000170                protocol_cmd
 .bss.CMDCount  0x0000000020000174        0x1 build/TOA_Protocol.o
                0x0000000020000174                CMDCount
 .bss.protocol_state
                0x0000000020000175        0x1 build/TOA_Protocol.o
                0x0000000020000175                protocol_state
 *fill*         0x0000000020000176        0x2 
 .bss.protocol_data
                0x0000000020000178        0x4 build/TOA_Protocol.o
                0x0000000020000178                protocol_data
 .bss.protocol_data_count
                0x000000002000017c        0x1 build/TOA_Protocol.o
                0x000000002000017c                protocol_data_count
 *fill*         0x000000002000017d        0x3 
 .bss.__malloc_sbrk_start
                0x0000000020000180        0x4 /usr/lib/gcc/arm-none-eabi/4.9.3/../../../arm-none-eabi/lib/armv7-m/libc_nano.a(lib_a-nano-mallocr.o)
                0x0000000020000180                __malloc_sbrk_start
 .bss.__malloc_free_list
                0x0000000020000184        0x4 /usr/lib/gcc/arm-none-eabi/4.9.3/../../../arm-none-eabi/lib/armv7-m/libc_nano.a(lib_a-nano-mallocr.o)
                0x0000000020000184                __malloc_free_list
 .bss.heap_end.4079
                0x0000000020000188        0x4 /usr/lib/gcc/arm-none-eabi/4.9.3/../../../arm-none-eabi/lib/armv7-m/libnosys.a(sbrk.o)
 .bss.DevLoopCount.6416
                0x000000002000018c        0x1 ./Lib/libite66121dvi.a(hdmitx_sys.o)
 *fill*         0x000000002000018d        0x3 
 .bss.HPDChangeStatus
                0x0000000020000190        0x1 ./Lib/libite66121dvi.a(hdmitx_sys.o)
                0x0000000020000190                HPDChangeStatus
 *fill*         0x0000000020000191        0x3 
 .bss.HPDStatus
                0x0000000020000194        0x1 ./Lib/libite66121dvi.a(hdmitx_sys.o)
                0x0000000020000194                HPDStatus
 *fill*         0x0000000020000195        0x3 
 .bss.RxCapability
                0x0000000020000198       0x28 ./Lib/libite66121dvi.a(hdmitx_sys.o)
 .bss.VIC       0x00000000200001c0        0x1 ./Lib/libite66121dvi.a(hdmitx_sys.o)
 *fill*         0x00000000200001c1        0x3 
 .bss.bChangeAudio
                0x00000000200001c4        0x4 ./Lib/libite66121dvi.a(hdmitx_sys.o)
 .bss.bChangeMode
                0x00000000200001c8        0x4 ./Lib/libite66121dvi.a(hdmitx_sys.o)
 .bss.bHDMIMode
                0x00000000200001cc        0x4 ./Lib/libite66121dvi.a(hdmitx_sys.o)
                0x00000000200001cc                bHDMIMode
 .bss.bInputColorMode
                0x00000000200001d0        0x1 ./Lib/libite66121dvi.a(hdmitx_sys.o)
                0x00000000200001d0                bInputColorMode
 *fill*         0x00000000200001d1        0x3 
 .bss.bOutputColorMode
                0x00000000200001d4        0x1 ./Lib/libite66121dvi.a(hdmitx_sys.o)
                0x00000000200001d4                bOutputColorMode
 .bss.gHDMI_TxIndex
                0x00000000200001d5        0x1 ./Lib/libite66121dvi.a(hdmitx_sys.o)
                0x00000000200001d5                gHDMI_TxIndex
 *fill*         0x00000000200001d6        0x2 
 .bss.iHPD_ON_count
                0x00000000200001d8        0x4 ./Lib/libite66121dvi.a(hdmitx_sys.o)
                0x00000000200001d8                iHPD_ON_count
 .bss.isHPD_ON_Flg
                0x00000000200001dc        0x4 ./Lib/libite66121dvi.a(hdmitx_sys.o)
                0x00000000200001dc                isHPD_ON_Flg
 .bss.AudioDelayCnt
                0x00000000200001e0        0x1 ./Lib/libite66121dvi.a(hdmitx_drv.o)
                0x00000000200001e0                AudioDelayCnt
 *fill*         0x00000000200001e1        0x3 
 .bss.AudioOutStatus.6424
                0x00000000200001e4        0x4 ./Lib/libite66121dvi.a(hdmitx_drv.o)
 .bss.LastRefaudfreqnum
                0x00000000200001e8        0x1 ./Lib/libite66121dvi.a(hdmitx_drv.o)
                0x00000000200001e8                LastRefaudfreqnum
 *fill*         0x00000000200001e9        0x3 
 .bss.bForceCTS
                0x00000000200001ec        0x4 ./Lib/libite66121dvi.a(hdmitx_drv.o)
                0x00000000200001ec                bForceCTS
 .bss.ucIEC60958ChStat.6404
                0x00000000200001f0        0x5 ./Lib/libite66121dvi.a(hdmitx_drv.o)
 .bss.gu8AudioMode
                0x00000000200001f5        0x1 ./Lib/libVS4210.a(VS4210.o)
                0x00000000200001f5                gu8AudioMode
 .bss.onModd0Win0Flg
                0x00000000200001f6        0x1 ./Lib/libVS4210.a(VS4210.o)
 .bss.onMode0   0x00000000200001f7        0x1 ./Lib/libVS4210.a(VS4210.o)
                0x00000000200001f7                onMode0
 .bss.u8DrawBoxColor
                0x00000000200001f8        0x1 ./Lib/libVS4210.a(VS4210.o)
                0x00000000200001f8                u8DrawBoxColor
 .bss.InColorMode
                0x00000000200001f9        0x1 ./Lib/libit6602.a(it6602.o)
                0x00000000200001f9                InColorMode
 .bss.OutCD     0x00000000200001fa        0x1 ./Lib/libit6602.a(it6602.o)
                0x00000000200001fa                OutCD
 *(COMMON)
 *fill*         0x00000000200001fb        0x1 
 COMMON         0x00000000200001fc      0x25f build/main.o
                0x00000000200001fc                Priority
                0x0000000020000200                gabVXIS_Input_mirrorH
                0x0000000020000204                CAMR_M
                0x0000000020000205                gPreAudioSampleFreq
                0x0000000020000208                ExOsdContent
                0x0000000020000308                CAMC_M
                0x000000002000030c                htim3
                0x000000002000034c                hadc1
                0x000000002000037c                huart1
                0x00000000200003bc                SelectModeType
                0x00000000200003bd                DebugLevel
                0x00000000200003be                gPrebAUDO_INDEX
                0x00000000200003bf                CAMB_M
                0x00000000200003c0                htim2
                0x0000000020000400                huart2
                0x0000000020000440                CAMA_M
                0x0000000020000444                pVS4210_MutiWindows1
                0x000000002000044e                ManVidRes
                0x0000000020000450                pVS4210_JointKind1
                0x000000002000045a                TimeStep
 *fill*         0x000000002000045b        0x1 
 COMMON         0x000000002000045c        0x4 build/stm32f1xx_hal.o
                0x000000002000045c                uwTick
 COMMON         0x0000000020000460        0x1 build/VX_swi2c.o
                0x0000000020000460                gskipsleepflg
 *fill*         0x0000000020000461        0x3 
 COMMON         0x0000000020000464        0x6 build/VX_OSD_Simple.o
                0x0000000020000464                ptcOSDbar
                0x0000000020000468                MenuOSDonFlg
                0x0000000020000469                OSDx2Flg
 *fill*         0x000000002000046a        0x2 
 COMMON         0x000000002000046c       0xa4 build/TP2802.o
                0x000000002000046c                COCRX4
                0x0000000020000478                CurCH
                0x000000002000047c                std
                0x000000002000047d                AHDcmd2
                0x000000002000047e                TVI_Chksum
                0x000000002000047f                presetNum
                0x0000000020000480                ManVidResRx
                0x0000000020000484                flag_AUDIO
                0x0000000020000488                COCRX2
                0x0000000020000494                PTZ_buf
                0x00000000200004a4                state
                0x00000000200004a8                egain
                0x00000000200004ac                flag_MEGA
                0x00000000200004b0                crc
                0x00000000200004b4                tpRxD
                0x00000000200004ce                AHDcmd4
                0x00000000200004cf                flag_LOCKED
                0x00000000200004d0                mode
                0x00000000200004d4                sywd
                0x00000000200004d8                flag_CVBS
                0x00000000200004dc                TVII2CAddress
                0x00000000200004e0                ptztxflag
                0x00000000200004e4                TVI_Command
                0x00000000200004e5                Flisheye_COC
                0x00000000200004e8                COCRX1
                0x00000000200004f4                COCRX3
                0x0000000020000500                revision
                0x0000000020000504                count
                0x0000000020000506                PTZ_pelco
                0x0000000020000508                AHDcmd1
                0x0000000020000509                AHDcmd3
                0x000000002000050c                VideoSave
                0x000000002000050d                TVI_speed
                0x000000002000050e                CurRes
                0x000000002000050f                chip
 COMMON         0x0000000020000510      0x146 build/monitor.o
                0x0000000020000510                argv
                0x000000002000052c                monstr
                0x000000002000054a                MonIndex
                0x000000002000054c                RS_buf
                0x000000002000056c                DVR_buf
                0x000000002000058c                RS2_buf
                0x0000000020000654                MonWdata
                0x0000000020000655                MonRdata
 *fill*         0x0000000020000656        0x2 
 COMMON         0x0000000020000658       0x60 build/SysTimer.o
                0x0000000020000658                g_stTimerEvent
                0x00000000200006a8                BatteryVoltage
                0x00000000200006ac                CameraVolt
                0x00000000200006b0                g_stPowerInfo
                0x00000000200006b4                BatteryBTH
 COMMON         0x00000000200006b8        0x8 build/TOA_Protocol.o
                0x00000000200006b8                protocol_type
                0x00000000200006b9                protocol_len
                0x00000000200006ba                protocol_param
                0x00000000200006bb                protocol_chksum
                0x00000000200006bc                protocol_escape_flag
 COMMON         0x00000000200006c0        0x4 /usr/lib/gcc/arm-none-eabi/4.9.3/../../../arm-none-eabi/lib/armv7-m/libc_nano.a(lib_a-reent.o)
                0x00000000200006c0                errno
 COMMON         0x00000000200006c4       0x8c ./Lib/libite66121dvi.a(hdmitx_sys.o)
                0x00000000200006c4                VideoPixelClock
                0x00000000200006c8                aspec
                0x00000000200006c9                Colorimetry
                0x00000000200006ca                pixelrep
                0x00000000200006cc                bAudioEnable
                0x00000000200006d0                CommunBuff
 COMMON         0x0000000020000750       0x14 ./Lib/libite66121dvi.a(hdmitx_drv.o)
                0x0000000020000750                hdmiTxDev
 COMMON         0x0000000020000764       0x11 ./Lib/libVS4210.a(VS4210.o)
                0x0000000020000764                gaHDMI_MapWindowIndex
                0x0000000020000768                gWindowNum
                0x0000000020000769                gHDMI_Index
                0x000000002000076c                gbVXIS_InputMode
                0x0000000020000770                xchMapl
                0x0000000020000774                gbVXIS_OuputSize
 *fill*         0x0000000020000775        0x3 
 COMMON         0x0000000020000778       0xfe ./Lib/libit6602.a(it6602.o)
                0x0000000020000778                VSDB_Addr
                0x000000002000077c                CurTMDSCLK
                0x0000000020000780                wrburstoff
                0x0000000020000784                ucPortAMPValid
                0x0000000020000788                PreVState
                0x000000002000078c                aviinfoframe
                0x000000002000079c                rxphyC
                0x000000002000079d                rxphyB
                0x00000000200007a0                rxphyadr
                0x00000000200007a4                it6602_DEV
                0x0000000020000834                txphyA
                0x0000000020000838                ucChannelG
                0x000000002000083c                ucChannelR
                0x000000002000083e                wrburstnum
                0x0000000020000840                VState
                0x0000000020000844                rxcurport
                0x0000000020000845                txphyD
                0x0000000020000848                CurVTiming
                0x0000000020000864                ucChannelB
                0x0000000020000866                rxphyA
                0x0000000020000868                txphyadr
                0x000000002000086a                rxphyD
                0x000000002000086b                txphylevel
                0x000000002000086c                AState
                0x0000000020000870                ucEQMode
                0x0000000020000872                txphyB
                0x0000000020000873                txphyC
                0x0000000020000874                ucPortAMPOverWrite
                0x0000000020000878                . = ALIGN (0x4)
 *fill*         0x0000000020000876        0x2 
                0x0000000020000878                _ebss = .
                0x0000000020000878                __bss_end__ = _ebss

._user_heap_stack
                0x0000000020000878      0x600 load address 0x000000000801b5f4
                0x0000000020000878                . = ALIGN (0x8)
                0x0000000020000878                PROVIDE (end, .)
                [!provide]                        PROVIDE (_end, .)
                0x0000000020000a78                . = (. + _Min_Heap_Size)
 *fill*         0x0000000020000878      0x200 
                0x0000000020000e78                . = (. + _Min_Stack_Size)
 *fill*         0x0000000020000a78      0x400 
                0x0000000020000e78                . = ALIGN (0x8)

/DISCARD/
 libc.a(*)
 libm.a(*)
 libgcc.a(*)

.ARM.attributes
                0x0000000000000000       0x29
 *(.ARM.attributes)
 .ARM.attributes
                0x0000000000000000       0x1d /usr/lib/gcc/arm-none-eabi/4.9.3/armv7-m/crti.o
 .ARM.attributes
                0x000000000000001d       0x2d /usr/lib/gcc/arm-none-eabi/4.9.3/armv7-m/crtbegin.o
 .ARM.attributes
                0x000000000000004a       0x33 build/main.o
 .ARM.attributes
                0x000000000000007d       0x33 build/stm32f1xx_it.o
 .ARM.attributes
                0x00000000000000b0       0x33 build/stm32f1xx_hal_msp.o
 .ARM.attributes
                0x00000000000000e3       0x33 build/stm32f1xx_hal_tim.o
 .ARM.attributes
                0x0000000000000116       0x33 build/stm32f1xx_hal_tim_ex.o
 .ARM.attributes
                0x0000000000000149       0x33 build/stm32f1xx_hal_uart.o
 .ARM.attributes
                0x000000000000017c       0x33 build/stm32f1xx_hal.o
 .ARM.attributes
                0x00000000000001af       0x33 build/stm32f1xx_hal_rcc.o
 .ARM.attributes
                0x00000000000001e2       0x33 build/stm32f1xx_hal_gpio.o
 .ARM.attributes
                0x0000000000000215       0x33 build/stm32f1xx_hal_dma.o
 .ARM.attributes
                0x0000000000000248       0x33 build/stm32f1xx_hal_cortex.o
 .ARM.attributes
                0x000000000000027b       0x33 build/system_stm32f1xx.o
 .ARM.attributes
                0x00000000000002ae       0x33 build/VX_swi2c.o
 .ARM.attributes
                0x00000000000002e1       0x33 build/VS4210_param_Modex26.o
 .ARM.attributes
                0x0000000000000314       0x33 build/VS4210_param_Mode88.o
 .ARM.attributes
                0x0000000000000347       0x33 build/VX_OSD.o
 .ARM.attributes
                0x000000000000037a       0x33 build/VX_OSD_Simple.o
 .ARM.attributes
                0x00000000000003ad       0x33 build/TP2802.o
 .ARM.attributes
                0x00000000000003e0       0x33 build/monitor.o
 .ARM.attributes
                0x0000000000000413       0x33 build/Printf.o
 .ARM.attributes
                0x0000000000000446       0x33 build/SysTimer.o
 .ARM.attributes
                0x0000000000000479       0x33 build/exosd.o
 .ARM.attributes
                0x00000000000004ac       0x33 build/TOA_Protocol.o
 .ARM.attributes
                0x00000000000004df       0x33 build/etc_eep.o
 .ARM.attributes
                0x0000000000000512       0x21 build/startup_stm32f103xb.o
 .ARM.attributes
                0x0000000000000533       0x2d /usr/lib/gcc/arm-none-eabi/4.9.3/../../../arm-none-eabi/lib/armv7-m/libc_nano.a(lib_a-errno.o)
 .ARM.attributes
                0x0000000000000560       0x2d /usr/lib/gcc/arm-none-eabi/4.9.3/../../../arm-none-eabi/lib/armv7-m/libc_nano.a(lib_a-impure.o)
 .ARM.attributes
                0x000000000000058d       0x2d /usr/lib/gcc/arm-none-eabi/4.9.3/../../../arm-none-eabi/lib/armv7-m/libc_nano.a(lib_a-init.o)
 .ARM.attributes
                0x00000000000005ba       0x2d /usr/lib/gcc/arm-none-eabi/4.9.3/../../../arm-none-eabi/lib/armv7-m/libc_nano.a(lib_a-memcpy.o)
 .ARM.attributes
                0x00000000000005e7       0x2d /usr/lib/gcc/arm-none-eabi/4.9.3/../../../arm-none-eabi/lib/armv7-m/libc_nano.a(lib_a-memset.o)
 .ARM.attributes
                0x0000000000000614       0x2d /usr/lib/gcc/arm-none-eabi/4.9.3/../../../arm-none-eabi/lib/armv7-m/libc_nano.a(lib_a-printf.o)
 .ARM.attributes
                0x0000000000000641       0x2d /usr/lib/gcc/arm-none-eabi/4.9.3/../../../arm-none-eabi/lib/armv7-m/libc_nano.a(lib_a-puts.o)
 .ARM.attributes
                0x000000000000066e       0x2d /usr/lib/gcc/arm-none-eabi/4.9.3/../../../arm-none-eabi/lib/armv7-m/libc_nano.a(lib_a-wbuf.o)
 .ARM.attributes
                0x000000000000069b       0x2d /usr/lib/gcc/arm-none-eabi/4.9.3/../../../arm-none-eabi/lib/armv7-m/libc_nano.a(lib_a-wsetup.o)
 .ARM.attributes
                0x00000000000006c8       0x2d /usr/lib/gcc/arm-none-eabi/4.9.3/../../../arm-none-eabi/lib/armv7-m/libc_nano.a(lib_a-fflush.o)
 .ARM.attributes
                0x00000000000006f5       0x2d /usr/lib/gcc/arm-none-eabi/4.9.3/../../../arm-none-eabi/lib/armv7-m/libc_nano.a(lib_a-findfp.o)
 .ARM.attributes
                0x0000000000000722       0x2d /usr/lib/gcc/arm-none-eabi/4.9.3/../../../arm-none-eabi/lib/armv7-m/libc_nano.a(lib_a-fwalk.o)
 .ARM.attributes
                0x000000000000074f       0x2d /usr/lib/gcc/arm-none-eabi/4.9.3/../../../arm-none-eabi/lib/armv7-m/libc_nano.a(lib_a-makebuf.o)
 .ARM.attributes
                0x000000000000077c       0x2d /usr/lib/gcc/arm-none-eabi/4.9.3/../../../arm-none-eabi/lib/armv7-m/libc_nano.a(lib_a-nano-freer.o)
 .ARM.attributes
                0x00000000000007a9       0x2d /usr/lib/gcc/arm-none-eabi/4.9.3/../../../arm-none-eabi/lib/armv7-m/libc_nano.a(lib_a-nano-mallocr.o)
 .ARM.attributes
                0x00000000000007d6       0x2d /usr/lib/gcc/arm-none-eabi/4.9.3/../../../arm-none-eabi/lib/armv7-m/libc_nano.a(lib_a-nano-vfprintf.o)
 .ARM.attributes
                0x0000000000000803       0x2d /usr/lib/gcc/arm-none-eabi/4.9.3/../../../arm-none-eabi/lib/armv7-m/libc_nano.a(lib_a-nano-vfprintf_i.o)
 .ARM.attributes
                0x0000000000000830       0x2d /usr/lib/gcc/arm-none-eabi/4.9.3/../../../arm-none-eabi/lib/armv7-m/libc_nano.a(lib_a-sbrkr.o)
 .ARM.attributes
                0x000000000000085d       0x2d /usr/lib/gcc/arm-none-eabi/4.9.3/../../../arm-none-eabi/lib/armv7-m/libc_nano.a(lib_a-stdio.o)
 .ARM.attributes
                0x000000000000088a       0x2d /usr/lib/gcc/arm-none-eabi/4.9.3/../../../arm-none-eabi/lib/armv7-m/libc_nano.a(lib_a-writer.o)
 .ARM.attributes
                0x00000000000008b7       0x2d /usr/lib/gcc/arm-none-eabi/4.9.3/../../../arm-none-eabi/lib/armv7-m/libc_nano.a(lib_a-closer.o)
 .ARM.attributes
                0x00000000000008e4       0x2d /usr/lib/gcc/arm-none-eabi/4.9.3/../../../arm-none-eabi/lib/armv7-m/libc_nano.a(lib_a-fstatr.o)
 .ARM.attributes
                0x0000000000000911       0x2d /usr/lib/gcc/arm-none-eabi/4.9.3/../../../arm-none-eabi/lib/armv7-m/libc_nano.a(lib_a-isattyr.o)
 .ARM.attributes
                0x000000000000093e       0x2d /usr/lib/gcc/arm-none-eabi/4.9.3/../../../arm-none-eabi/lib/armv7-m/libc_nano.a(lib_a-lseekr.o)
 .ARM.attributes
                0x000000000000096b       0x2d /usr/lib/gcc/arm-none-eabi/4.9.3/../../../arm-none-eabi/lib/armv7-m/libc_nano.a(lib_a-memchr.o)
 .ARM.attributes
                0x0000000000000998       0x2d /usr/lib/gcc/arm-none-eabi/4.9.3/../../../arm-none-eabi/lib/armv7-m/libc_nano.a(lib_a-readr.o)
 .ARM.attributes
                0x00000000000009c5       0x2d /usr/lib/gcc/arm-none-eabi/4.9.3/../../../arm-none-eabi/lib/armv7-m/libc_nano.a(lib_a-reent.o)
 .ARM.attributes
                0x00000000000009f2       0x2d /usr/lib/gcc/arm-none-eabi/4.9.3/../../../arm-none-eabi/lib/armv7-m/libnosys.a(close.o)
 .ARM.attributes
                0x0000000000000a1f       0x2d /usr/lib/gcc/arm-none-eabi/4.9.3/../../../arm-none-eabi/lib/armv7-m/libnosys.a(fstat.o)
 .ARM.attributes
                0x0000000000000a4c       0x2d /usr/lib/gcc/arm-none-eabi/4.9.3/../../../arm-none-eabi/lib/armv7-m/libnosys.a(isatty.o)
 .ARM.attributes
                0x0000000000000a79       0x2d /usr/lib/gcc/arm-none-eabi/4.9.3/../../../arm-none-eabi/lib/armv7-m/libnosys.a(lseek.o)
 .ARM.attributes
                0x0000000000000aa6       0x2d /usr/lib/gcc/arm-none-eabi/4.9.3/../../../arm-none-eabi/lib/armv7-m/libnosys.a(read.o)
 .ARM.attributes
                0x0000000000000ad3       0x2d /usr/lib/gcc/arm-none-eabi/4.9.3/../../../arm-none-eabi/lib/armv7-m/libnosys.a(sbrk.o)
 .ARM.attributes
                0x0000000000000b00       0x31 ./Lib/libite66121dvi.a(hdmitx_sys.o)
 .ARM.attributes
                0x0000000000000b31       0x31 ./Lib/libite66121dvi.a(hdmitx_drv.o)
 .ARM.attributes
                0x0000000000000b62       0x31 ./Lib/libite66121dvi.a(tx_csc.o)
 .ARM.attributes
                0x0000000000000b93       0x33 ./Lib/libsw_i2c0.a(sw_i2c0.o)
 .ARM.attributes
                0x0000000000000bc6       0x33 ./Lib/libsw_i2c1.a(sw_i2c1.o)
 .ARM.attributes
                0x0000000000000bf9       0x33 ./Lib/libsw_i2c2.a(sw_i2c2.o)
 .ARM.attributes
                0x0000000000000c2c       0x33 ./Lib/libsw_i2c3.a(sw_i2c3.o)
 .ARM.attributes
                0x0000000000000c5f       0x2c ./Lib/libVS4210.a(VS4210.o)
 .ARM.attributes
                0x0000000000000c8b       0x2c ./Lib/libit6602.a(it6602.o)
 .ARM.attributes
                0x0000000000000cb7       0x1d /usr/lib/gcc/arm-none-eabi/4.9.3/armv7-m/libgcc.a(_udivsi3.o)
 .ARM.attributes
                0x0000000000000cd4       0x1d /usr/lib/gcc/arm-none-eabi/4.9.3/armv7-m/libgcc.a(_divsi3.o)
 .ARM.attributes
                0x0000000000000cf1       0x1d /usr/lib/gcc/arm-none-eabi/4.9.3/armv7-m/libgcc.a(_dvmd_tls.o)
 .ARM.attributes
                0x0000000000000d0e       0x2d /usr/lib/gcc/arm-none-eabi/4.9.3/armv7-m/crtend.o
 .ARM.attributes
                0x0000000000000d3b       0x1d /usr/lib/gcc/arm-none-eabi/4.9.3/armv7-m/crtn.o
OUTPUT(build/TP2824stm32.elf elf32-littlearm)

.comment        0x0000000000000000      0x19f
 .comment       0x0000000000000000       0x38 /usr/lib/gcc/arm-none-eabi/4.9.3/armv7-m/crtbegin.o
                                         0x39 (size before relaxing)
 .comment       0x0000000000000038       0x39 build/main.o
 .comment       0x0000000000000038       0x39 build/stm32f1xx_it.o
 .comment       0x0000000000000038       0x39 build/stm32f1xx_hal_msp.o
 .comment       0x0000000000000038       0x39 build/stm32f1xx_hal_tim.o
 .comment       0x0000000000000038       0x39 build/stm32f1xx_hal_tim_ex.o
 .comment       0x0000000000000038       0x39 build/stm32f1xx_hal_uart.o
 .comment       0x0000000000000038       0x39 build/stm32f1xx_hal.o
 .comment       0x0000000000000038       0x39 build/stm32f1xx_hal_rcc.o
 .comment       0x0000000000000038       0x39 build/stm32f1xx_hal_gpio.o
 .comment       0x0000000000000038       0x39 build/stm32f1xx_hal_dma.o
 .comment       0x0000000000000038       0x39 build/stm32f1xx_hal_cortex.o
 .comment       0x0000000000000038       0x39 build/system_stm32f1xx.o
 .comment       0x0000000000000038       0x39 build/VX_swi2c.o
 .comment       0x0000000000000038       0x39 build/VS4210_param_Modex26.o
 .comment       0x0000000000000038       0x39 build/VS4210_param_Mode88.o
 .comment       0x0000000000000038       0x39 build/VX_OSD.o
 .comment       0x0000000000000038       0x39 build/VX_OSD_Simple.o
 .comment       0x0000000000000038       0x39 build/TP2802.o
 .comment       0x0000000000000038       0x39 build/monitor.o
 .comment       0x0000000000000038       0x39 build/Printf.o
 .comment       0x0000000000000038       0x39 build/SysTimer.o
 .comment       0x0000000000000038       0x39 build/exosd.o
 .comment       0x0000000000000038       0x39 build/TOA_Protocol.o
 .comment       0x0000000000000038       0x39 build/etc_eep.o
 .comment       0x0000000000000038       0x38 /usr/lib/gcc/arm-none-eabi/4.9.3/../../../arm-none-eabi/lib/armv7-m/libc_nano.a(lib_a-errno.o)
                                         0x39 (size before relaxing)
 .comment       0x0000000000000070       0x39 /usr/lib/gcc/arm-none-eabi/4.9.3/../../../arm-none-eabi/lib/armv7-m/libc_nano.a(lib_a-impure.o)
 .comment       0x0000000000000070       0x39 /usr/lib/gcc/arm-none-eabi/4.9.3/../../../arm-none-eabi/lib/armv7-m/libc_nano.a(lib_a-init.o)
 .comment       0x0000000000000070       0x39 /usr/lib/gcc/arm-none-eabi/4.9.3/../../../arm-none-eabi/lib/armv7-m/libc_nano.a(lib_a-memcpy.o)
 .comment       0x0000000000000070       0x39 /usr/lib/gcc/arm-none-eabi/4.9.3/../../../arm-none-eabi/lib/armv7-m/libc_nano.a(lib_a-memset.o)
 .comment       0x0000000000000070       0x39 /usr/lib/gcc/arm-none-eabi/4.9.3/../../../arm-none-eabi/lib/armv7-m/libc_nano.a(lib_a-printf.o)
 .comment       0x0000000000000070       0x39 /usr/lib/gcc/arm-none-eabi/4.9.3/../../../arm-none-eabi/lib/armv7-m/libc_nano.a(lib_a-puts.o)
 .comment       0x0000000000000070       0x39 /usr/lib/gcc/arm-none-eabi/4.9.3/../../../arm-none-eabi/lib/armv7-m/libc_nano.a(lib_a-wbuf.o)
 .comment       0x0000000000000070       0x39 /usr/lib/gcc/arm-none-eabi/4.9.3/../../../arm-none-eabi/lib/armv7-m/libc_nano.a(lib_a-wsetup.o)
 .comment       0x0000000000000070       0x39 /usr/lib/gcc/arm-none-eabi/4.9.3/../../../arm-none-eabi/lib/armv7-m/libc_nano.a(lib_a-fflush.o)
 .comment       0x0000000000000070       0x39 /usr/lib/gcc/arm-none-eabi/4.9.3/../../../arm-none-eabi/lib/armv7-m/libc_nano.a(lib_a-findfp.o)
 .comment       0x0000000000000070       0x39 /usr/lib/gcc/arm-none-eabi/4.9.3/../../../arm-none-eabi/lib/armv7-m/libc_nano.a(lib_a-fwalk.o)
 .comment       0x0000000000000070       0x39 /usr/lib/gcc/arm-none-eabi/4.9.3/../../../arm-none-eabi/lib/armv7-m/libc_nano.a(lib_a-makebuf.o)
 .comment       0x0000000000000070       0x39 /usr/lib/gcc/arm-none-eabi/4.9.3/../../../arm-none-eabi/lib/armv7-m/libc_nano.a(lib_a-nano-freer.o)
 .comment       0x0000000000000070       0x39 /usr/lib/gcc/arm-none-eabi/4.9.3/../../../arm-none-eabi/lib/armv7-m/libc_nano.a(lib_a-nano-mallocr.o)
 .comment       0x0000000000000070       0x39 /usr/lib/gcc/arm-none-eabi/4.9.3/../../../arm-none-eabi/lib/armv7-m/libc_nano.a(lib_a-nano-vfprintf.o)
 .comment       0x0000000000000070       0x39 /usr/lib/gcc/arm-none-eabi/4.9.3/../../../arm-none-eabi/lib/armv7-m/libc_nano.a(lib_a-nano-vfprintf_i.o)
 .comment       0x0000000000000070       0x39 /usr/lib/gcc/arm-none-eabi/4.9.3/../../../arm-none-eabi/lib/armv7-m/libc_nano.a(lib_a-sbrkr.o)
 .comment       0x0000000000000070       0x39 /usr/lib/gcc/arm-none-eabi/4.9.3/../../../arm-none-eabi/lib/armv7-m/libc_nano.a(lib_a-stdio.o)
 .comment       0x0000000000000070       0x39 /usr/lib/gcc/arm-none-eabi/4.9.3/../../../arm-none-eabi/lib/armv7-m/libc_nano.a(lib_a-writer.o)
 .comment       0x0000000000000070       0x39 /usr/lib/gcc/arm-none-eabi/4.9.3/../../../arm-none-eabi/lib/armv7-m/libc_nano.a(lib_a-closer.o)
 .comment       0x0000000000000070       0x39 /usr/lib/gcc/arm-none-eabi/4.9.3/../../../arm-none-eabi/lib/armv7-m/libc_nano.a(lib_a-fstatr.o)
 .comment       0x0000000000000070       0x39 /usr/lib/gcc/arm-none-eabi/4.9.3/../../../arm-none-eabi/lib/armv7-m/libc_nano.a(lib_a-isattyr.o)
 .comment       0x0000000000000070       0x39 /usr/lib/gcc/arm-none-eabi/4.9.3/../../../arm-none-eabi/lib/armv7-m/libc_nano.a(lib_a-lseekr.o)
 .comment       0x0000000000000070       0x39 /usr/lib/gcc/arm-none-eabi/4.9.3/../../../arm-none-eabi/lib/armv7-m/libc_nano.a(lib_a-memchr.o)
 .comment       0x0000000000000070       0x39 /usr/lib/gcc/arm-none-eabi/4.9.3/../../../arm-none-eabi/lib/armv7-m/libc_nano.a(lib_a-readr.o)
 .comment       0x0000000000000070       0x39 /usr/lib/gcc/arm-none-eabi/4.9.3/../../../arm-none-eabi/lib/armv7-m/libc_nano.a(lib_a-reent.o)
 .comment       0x0000000000000070       0x39 /usr/lib/gcc/arm-none-eabi/4.9.3/../../../arm-none-eabi/lib/armv7-m/libnosys.a(close.o)
 .comment       0x0000000000000070       0x39 /usr/lib/gcc/arm-none-eabi/4.9.3/../../../arm-none-eabi/lib/armv7-m/libnosys.a(fstat.o)
 .comment       0x0000000000000070       0x39 /usr/lib/gcc/arm-none-eabi/4.9.3/../../../arm-none-eabi/lib/armv7-m/libnosys.a(isatty.o)
 .comment       0x0000000000000070       0x39 /usr/lib/gcc/arm-none-eabi/4.9.3/../../../arm-none-eabi/lib/armv7-m/libnosys.a(lseek.o)
 .comment       0x0000000000000070       0x39 /usr/lib/gcc/arm-none-eabi/4.9.3/../../../arm-none-eabi/lib/armv7-m/libnosys.a(read.o)
 .comment       0x0000000000000070       0x39 /usr/lib/gcc/arm-none-eabi/4.9.3/../../../arm-none-eabi/lib/armv7-m/libnosys.a(sbrk.o)
 .comment       0x0000000000000070       0x57 ./Lib/libite66121dvi.a(hdmitx_sys.o)
                                         0x58 (size before relaxing)
 .comment       0x00000000000000c7       0x58 ./Lib/libite66121dvi.a(hdmitx_drv.o)
 .comment       0x00000000000000c7       0x58 ./Lib/libite66121dvi.a(tx_csc.o)
 .comment       0x00000000000000c7       0x7f ./Lib/libsw_i2c0.a(sw_i2c0.o)
                                         0x80 (size before relaxing)
 .comment       0x0000000000000146       0x80 ./Lib/libsw_i2c1.a(sw_i2c1.o)
 .comment       0x0000000000000146       0x80 ./Lib/libsw_i2c2.a(sw_i2c2.o)
 .comment       0x0000000000000146       0x80 ./Lib/libsw_i2c3.a(sw_i2c3.o)
 .comment       0x0000000000000146       0x59 ./Lib/libVS4210.a(VS4210.o)
                                         0x5a (size before relaxing)
 .comment       0x000000000000019f       0x5a ./Lib/libit6602.a(it6602.o)
 .comment       0x000000000000019f       0x39 /usr/lib/gcc/arm-none-eabi/4.9.3/armv7-m/crtend.o

.debug_info     0x0000000000000000    0x46b9c
 .debug_info    0x0000000000000000     0x85ed build/main.o
 .debug_info    0x00000000000085ed      0x9d5 build/stm32f1xx_it.o
 .debug_info    0x0000000000008fc2     0x12d4 build/stm32f1xx_hal_msp.o
 .debug_info    0x000000000000a296     0x33d5 build/stm32f1xx_hal_tim.o
 .debug_info    0x000000000000d66b     0x15c2 build/stm32f1xx_hal_tim_ex.o
 .debug_info    0x000000000000ec2d     0x1790 build/stm32f1xx_hal_uart.o
 .debug_info    0x00000000000103bd      0x804 build/stm32f1xx_hal.o
 .debug_info    0x0000000000010bc1      0xa71 build/stm32f1xx_hal_rcc.o
 .debug_info    0x0000000000011632      0x63d build/stm32f1xx_hal_gpio.o
 .debug_info    0x0000000000011c6f      0x810 build/stm32f1xx_hal_dma.o
 .debug_info    0x000000000001247f      0xcbd build/stm32f1xx_hal_cortex.o
 .debug_info    0x000000000001313c      0x407 build/system_stm32f1xx.o
 .debug_info    0x0000000000013543      0xa8e build/VX_swi2c.o
 .debug_info    0x0000000000013fd1     0x4988 build/VS4210_param_Modex26.o
 .debug_info    0x0000000000018959      0x677 build/VS4210_param_Mode88.o
 .debug_info    0x0000000000018fd0      0xaa6 build/VX_OSD.o
 .debug_info    0x0000000000019a76     0x1daa build/VX_OSD_Simple.o
 .debug_info    0x000000000001b820     0x428d build/TP2802.o
 .debug_info    0x000000000001faad     0x4b3f build/monitor.o
 .debug_info    0x00000000000245ec      0x5f4 build/Printf.o
 .debug_info    0x0000000000024be0      0xfac build/SysTimer.o
 .debug_info    0x0000000000025b8c       0x54 build/exosd.o
 .debug_info    0x0000000000025be0      0x945 build/TOA_Protocol.o
 .debug_info    0x0000000000026525      0x5f4 build/etc_eep.o
 .debug_info    0x0000000000026b19       0x56 build/startup_stm32f103xb.o
 .debug_info    0x0000000000026b6f      0x735 /usr/lib/gcc/arm-none-eabi/4.9.3/../../../arm-none-eabi/lib/armv7-m/libc_nano.a(lib_a-errno.o)
 .debug_info    0x00000000000272a4      0x7d3 /usr/lib/gcc/arm-none-eabi/4.9.3/../../../arm-none-eabi/lib/armv7-m/libc_nano.a(lib_a-impure.o)
 .debug_info    0x0000000000027a77      0x105 /usr/lib/gcc/arm-none-eabi/4.9.3/../../../arm-none-eabi/lib/armv7-m/libc_nano.a(lib_a-init.o)
 .debug_info    0x0000000000027b7c      0x104 /usr/lib/gcc/arm-none-eabi/4.9.3/../../../arm-none-eabi/lib/armv7-m/libc_nano.a(lib_a-memcpy.o)
 .debug_info    0x0000000000027c80       0xd3 /usr/lib/gcc/arm-none-eabi/4.9.3/../../../arm-none-eabi/lib/armv7-m/libc_nano.a(lib_a-memset.o)
 .debug_info    0x0000000000027d53      0x895 /usr/lib/gcc/arm-none-eabi/4.9.3/../../../arm-none-eabi/lib/armv7-m/libc_nano.a(lib_a-printf.o)
 .debug_info    0x00000000000285e8      0x924 /usr/lib/gcc/arm-none-eabi/4.9.3/../../../arm-none-eabi/lib/armv7-m/libc_nano.a(lib_a-puts.o)
 .debug_info    0x0000000000028f0c      0x916 /usr/lib/gcc/arm-none-eabi/4.9.3/../../../arm-none-eabi/lib/armv7-m/libc_nano.a(lib_a-wbuf.o)
 .debug_info    0x0000000000029822      0x881 /usr/lib/gcc/arm-none-eabi/4.9.3/../../../arm-none-eabi/lib/armv7-m/libc_nano.a(lib_a-wsetup.o)
 .debug_info    0x000000000002a0a3      0xa00 /usr/lib/gcc/arm-none-eabi/4.9.3/../../../arm-none-eabi/lib/armv7-m/libc_nano.a(lib_a-fflush.o)
 .debug_info    0x000000000002aaa3      0xd5a /usr/lib/gcc/arm-none-eabi/4.9.3/../../../arm-none-eabi/lib/armv7-m/libc_nano.a(lib_a-findfp.o)
 .debug_info    0x000000000002b7fd      0x846 /usr/lib/gcc/arm-none-eabi/4.9.3/../../../arm-none-eabi/lib/armv7-m/libc_nano.a(lib_a-fwalk.o)
 .debug_info    0x000000000002c043      0x98c /usr/lib/gcc/arm-none-eabi/4.9.3/../../../arm-none-eabi/lib/armv7-m/libc_nano.a(lib_a-makebuf.o)
 .debug_info    0x000000000002c9cf      0x81a /usr/lib/gcc/arm-none-eabi/4.9.3/../../../arm-none-eabi/lib/armv7-m/libc_nano.a(lib_a-nano-freer.o)
 .debug_info    0x000000000002d1e9      0x8fb /usr/lib/gcc/arm-none-eabi/4.9.3/../../../arm-none-eabi/lib/armv7-m/libc_nano.a(lib_a-nano-mallocr.o)
 .debug_info    0x000000000002dae4      0xe05 /usr/lib/gcc/arm-none-eabi/4.9.3/../../../arm-none-eabi/lib/armv7-m/libc_nano.a(lib_a-nano-vfprintf.o)
 .debug_info    0x000000000002e8e9      0xb5b /usr/lib/gcc/arm-none-eabi/4.9.3/../../../arm-none-eabi/lib/armv7-m/libc_nano.a(lib_a-nano-vfprintf_i.o)
 .debug_info    0x000000000002f444      0x7a0 /usr/lib/gcc/arm-none-eabi/4.9.3/../../../arm-none-eabi/lib/armv7-m/libc_nano.a(lib_a-sbrkr.o)
 .debug_info    0x000000000002fbe4      0xa36 /usr/lib/gcc/arm-none-eabi/4.9.3/../../../arm-none-eabi/lib/armv7-m/libc_nano.a(lib_a-stdio.o)
 .debug_info    0x000000000003061a      0x7d5 /usr/lib/gcc/arm-none-eabi/4.9.3/../../../arm-none-eabi/lib/armv7-m/libc_nano.a(lib_a-writer.o)
 .debug_info    0x0000000000030def      0x78c /usr/lib/gcc/arm-none-eabi/4.9.3/../../../arm-none-eabi/lib/armv7-m/libc_nano.a(lib_a-closer.o)
 .debug_info    0x000000000003157b      0x90a /usr/lib/gcc/arm-none-eabi/4.9.3/../../../arm-none-eabi/lib/armv7-m/libc_nano.a(lib_a-fstatr.o)
 .debug_info    0x0000000000031e85      0x78c /usr/lib/gcc/arm-none-eabi/4.9.3/../../../arm-none-eabi/lib/armv7-m/libc_nano.a(lib_a-isattyr.o)
 .debug_info    0x0000000000032611      0x7b8 /usr/lib/gcc/arm-none-eabi/4.9.3/../../../arm-none-eabi/lib/armv7-m/libc_nano.a(lib_a-lseekr.o)
 .debug_info    0x0000000000032dc9       0xf8 /usr/lib/gcc/arm-none-eabi/4.9.3/../../../arm-none-eabi/lib/armv7-m/libc_nano.a(lib_a-memchr.o)
 .debug_info    0x0000000000032ec1      0x7ce /usr/lib/gcc/arm-none-eabi/4.9.3/../../../arm-none-eabi/lib/armv7-m/libc_nano.a(lib_a-readr.o)
 .debug_info    0x000000000003368f      0x8fb /usr/lib/gcc/arm-none-eabi/4.9.3/../../../arm-none-eabi/lib/armv7-m/libc_nano.a(lib_a-reent.o)
 .debug_info    0x0000000000033f8a       0xae /usr/lib/gcc/arm-none-eabi/4.9.3/../../../arm-none-eabi/lib/armv7-m/libnosys.a(close.o)
 .debug_info    0x0000000000034038      0x22d /usr/lib/gcc/arm-none-eabi/4.9.3/../../../arm-none-eabi/lib/armv7-m/libnosys.a(fstat.o)
 .debug_info    0x0000000000034265       0xae /usr/lib/gcc/arm-none-eabi/4.9.3/../../../arm-none-eabi/lib/armv7-m/libnosys.a(isatty.o)
 .debug_info    0x0000000000034313       0xca /usr/lib/gcc/arm-none-eabi/4.9.3/../../../arm-none-eabi/lib/armv7-m/libnosys.a(lseek.o)
 .debug_info    0x00000000000343dd       0xd0 /usr/lib/gcc/arm-none-eabi/4.9.3/../../../arm-none-eabi/lib/armv7-m/libnosys.a(read.o)
 .debug_info    0x00000000000344ad       0x99 /usr/lib/gcc/arm-none-eabi/4.9.3/../../../arm-none-eabi/lib/armv7-m/libnosys.a(sbrk.o)
 .debug_info    0x0000000000034546     0x1bcd ./Lib/libite66121dvi.a(hdmitx_sys.o)
 .debug_info    0x0000000000036113     0x31f5 ./Lib/libite66121dvi.a(hdmitx_drv.o)
 .debug_info    0x0000000000039308      0x9ce ./Lib/libite66121dvi.a(tx_csc.o)
 .debug_info    0x0000000000039cd6     0x7c44 ./Lib/libVS4210.a(VS4210.o)
 .debug_info    0x000000000004191a     0x5057 ./Lib/libit6602.a(it6602.o)
 .debug_info    0x0000000000046971       0xb9 /usr/lib/gcc/arm-none-eabi/4.9.3/armv7-m/libgcc.a(_udivsi3.o)
 .debug_info    0x0000000000046a2a       0xb9 /usr/lib/gcc/arm-none-eabi/4.9.3/armv7-m/libgcc.a(_divsi3.o)
 .debug_info    0x0000000000046ae3       0xb9 /usr/lib/gcc/arm-none-eabi/4.9.3/armv7-m/libgcc.a(_dvmd_tls.o)

.debug_abbrev   0x0000000000000000     0x707f
 .debug_abbrev  0x0000000000000000      0x3ce build/main.o
 .debug_abbrev  0x00000000000003ce      0x1a5 build/stm32f1xx_it.o
 .debug_abbrev  0x0000000000000573      0x22f build/stm32f1xx_hal_msp.o
 .debug_abbrev  0x00000000000007a2      0x27b build/stm32f1xx_hal_tim.o
 .debug_abbrev  0x0000000000000a1d      0x276 build/stm32f1xx_hal_tim_ex.o
 .debug_abbrev  0x0000000000000c93      0x2a8 build/stm32f1xx_hal_uart.o
 .debug_abbrev  0x0000000000000f3b      0x200 build/stm32f1xx_hal.o
 .debug_abbrev  0x000000000000113b      0x28c build/stm32f1xx_hal_rcc.o
 .debug_abbrev  0x00000000000013c7      0x1f7 build/stm32f1xx_hal_gpio.o
 .debug_abbrev  0x00000000000015be      0x21c build/stm32f1xx_hal_dma.o
 .debug_abbrev  0x00000000000017da      0x2bf build/stm32f1xx_hal_cortex.o
 .debug_abbrev  0x0000000000001a99      0x122 build/system_stm32f1xx.o
 .debug_abbrev  0x0000000000001bbb      0x1c2 build/VX_swi2c.o
 .debug_abbrev  0x0000000000001d7d       0x80 build/VS4210_param_Modex26.o
 .debug_abbrev  0x0000000000001dfd       0x91 build/VS4210_param_Mode88.o
 .debug_abbrev  0x0000000000001e8e      0x19f build/VX_OSD.o
 .debug_abbrev  0x000000000000202d      0x292 build/VX_OSD_Simple.o
 .debug_abbrev  0x00000000000022bf      0x290 build/TP2802.o
 .debug_abbrev  0x000000000000254f      0x32b build/monitor.o
 .debug_abbrev  0x000000000000287a      0x1f7 build/Printf.o
 .debug_abbrev  0x0000000000002a71      0x2ba build/SysTimer.o
 .debug_abbrev  0x0000000000002d2b       0x45 build/exosd.o
 .debug_abbrev  0x0000000000002d70      0x19e build/TOA_Protocol.o
 .debug_abbrev  0x0000000000002f0e      0x1a9 build/etc_eep.o
 .debug_abbrev  0x00000000000030b7       0x12 build/startup_stm32f103xb.o
 .debug_abbrev  0x00000000000030c9      0x134 /usr/lib/gcc/arm-none-eabi/4.9.3/../../../arm-none-eabi/lib/armv7-m/libc_nano.a(lib_a-errno.o)
 .debug_abbrev  0x00000000000031fd      0x136 /usr/lib/gcc/arm-none-eabi/4.9.3/../../../arm-none-eabi/lib/armv7-m/libc_nano.a(lib_a-impure.o)
 .debug_abbrev  0x0000000000003333       0xba /usr/lib/gcc/arm-none-eabi/4.9.3/../../../arm-none-eabi/lib/armv7-m/libc_nano.a(lib_a-init.o)
 .debug_abbrev  0x00000000000033ed       0xa4 /usr/lib/gcc/arm-none-eabi/4.9.3/../../../arm-none-eabi/lib/armv7-m/libc_nano.a(lib_a-memcpy.o)
 .debug_abbrev  0x0000000000003491       0x8e /usr/lib/gcc/arm-none-eabi/4.9.3/../../../arm-none-eabi/lib/armv7-m/libc_nano.a(lib_a-memset.o)
 .debug_abbrev  0x000000000000351f      0x1ec /usr/lib/gcc/arm-none-eabi/4.9.3/../../../arm-none-eabi/lib/armv7-m/libc_nano.a(lib_a-printf.o)
 .debug_abbrev  0x000000000000370b      0x202 /usr/lib/gcc/arm-none-eabi/4.9.3/../../../arm-none-eabi/lib/armv7-m/libc_nano.a(lib_a-puts.o)
 .debug_abbrev  0x000000000000390d      0x1f7 /usr/lib/gcc/arm-none-eabi/4.9.3/../../../arm-none-eabi/lib/armv7-m/libc_nano.a(lib_a-wbuf.o)
 .debug_abbrev  0x0000000000003b04      0x1a5 /usr/lib/gcc/arm-none-eabi/4.9.3/../../../arm-none-eabi/lib/armv7-m/libc_nano.a(lib_a-wsetup.o)
 .debug_abbrev  0x0000000000003ca9      0x24e /usr/lib/gcc/arm-none-eabi/4.9.3/../../../arm-none-eabi/lib/armv7-m/libc_nano.a(lib_a-fflush.o)
 .debug_abbrev  0x0000000000003ef7      0x300 /usr/lib/gcc/arm-none-eabi/4.9.3/../../../arm-none-eabi/lib/armv7-m/libc_nano.a(lib_a-findfp.o)
 .debug_abbrev  0x00000000000041f7      0x176 /usr/lib/gcc/arm-none-eabi/4.9.3/../../../arm-none-eabi/lib/armv7-m/libc_nano.a(lib_a-fwalk.o)
 .debug_abbrev  0x000000000000436d      0x1ab /usr/lib/gcc/arm-none-eabi/4.9.3/../../../arm-none-eabi/lib/armv7-m/libc_nano.a(lib_a-makebuf.o)
 .debug_abbrev  0x0000000000004518      0x1b6 /usr/lib/gcc/arm-none-eabi/4.9.3/../../../arm-none-eabi/lib/armv7-m/libc_nano.a(lib_a-nano-freer.o)
 .debug_abbrev  0x00000000000046ce      0x250 /usr/lib/gcc/arm-none-eabi/4.9.3/../../../arm-none-eabi/lib/armv7-m/libc_nano.a(lib_a-nano-mallocr.o)
 .debug_abbrev  0x000000000000491e      0x2a5 /usr/lib/gcc/arm-none-eabi/4.9.3/../../../arm-none-eabi/lib/armv7-m/libc_nano.a(lib_a-nano-vfprintf.o)
 .debug_abbrev  0x0000000000004bc3      0x1fb /usr/lib/gcc/arm-none-eabi/4.9.3/../../../arm-none-eabi/lib/armv7-m/libc_nano.a(lib_a-nano-vfprintf_i.o)
 .debug_abbrev  0x0000000000004dbe      0x1a2 /usr/lib/gcc/arm-none-eabi/4.9.3/../../../arm-none-eabi/lib/armv7-m/libc_nano.a(lib_a-sbrkr.o)
 .debug_abbrev  0x0000000000004f60      0x1eb /usr/lib/gcc/arm-none-eabi/4.9.3/../../../arm-none-eabi/lib/armv7-m/libc_nano.a(lib_a-stdio.o)
 .debug_abbrev  0x000000000000514b      0x199 /usr/lib/gcc/arm-none-eabi/4.9.3/../../../arm-none-eabi/lib/armv7-m/libc_nano.a(lib_a-writer.o)
 .debug_abbrev  0x00000000000052e4      0x194 /usr/lib/gcc/arm-none-eabi/4.9.3/../../../arm-none-eabi/lib/armv7-m/libc_nano.a(lib_a-closer.o)
 .debug_abbrev  0x0000000000005478      0x1a3 /usr/lib/gcc/arm-none-eabi/4.9.3/../../../arm-none-eabi/lib/armv7-m/libc_nano.a(lib_a-fstatr.o)
 .debug_abbrev  0x000000000000561b      0x194 /usr/lib/gcc/arm-none-eabi/4.9.3/../../../arm-none-eabi/lib/armv7-m/libc_nano.a(lib_a-isattyr.o)
 .debug_abbrev  0x00000000000057af      0x1a3 /usr/lib/gcc/arm-none-eabi/4.9.3/../../../arm-none-eabi/lib/armv7-m/libc_nano.a(lib_a-lseekr.o)
 .debug_abbrev  0x0000000000005952       0xab /usr/lib/gcc/arm-none-eabi/4.9.3/../../../arm-none-eabi/lib/armv7-m/libc_nano.a(lib_a-memchr.o)
 .debug_abbrev  0x00000000000059fd      0x194 /usr/lib/gcc/arm-none-eabi/4.9.3/../../../arm-none-eabi/lib/armv7-m/libc_nano.a(lib_a-readr.o)
 .debug_abbrev  0x0000000000005b91      0x1f2 /usr/lib/gcc/arm-none-eabi/4.9.3/../../../arm-none-eabi/lib/armv7-m/libc_nano.a(lib_a-reent.o)
 .debug_abbrev  0x0000000000005d83       0x66 /usr/lib/gcc/arm-none-eabi/4.9.3/../../../arm-none-eabi/lib/armv7-m/libnosys.a(close.o)
 .debug_abbrev  0x0000000000005de9       0xbb /usr/lib/gcc/arm-none-eabi/4.9.3/../../../arm-none-eabi/lib/armv7-m/libnosys.a(fstat.o)
 .debug_abbrev  0x0000000000005ea4       0x66 /usr/lib/gcc/arm-none-eabi/4.9.3/../../../arm-none-eabi/lib/armv7-m/libnosys.a(isatty.o)
 .debug_abbrev  0x0000000000005f0a       0x84 /usr/lib/gcc/arm-none-eabi/4.9.3/../../../arm-none-eabi/lib/armv7-m/libnosys.a(lseek.o)
 .debug_abbrev  0x0000000000005f8e       0x8d /usr/lib/gcc/arm-none-eabi/4.9.3/../../../arm-none-eabi/lib/armv7-m/libnosys.a(read.o)
 .debug_abbrev  0x000000000000601b       0x83 /usr/lib/gcc/arm-none-eabi/4.9.3/../../../arm-none-eabi/lib/armv7-m/libnosys.a(sbrk.o)
 .debug_abbrev  0x000000000000609e      0x35d ./Lib/libite66121dvi.a(hdmitx_sys.o)
 .debug_abbrev  0x00000000000063fb      0x35a ./Lib/libite66121dvi.a(hdmitx_drv.o)
 .debug_abbrev  0x0000000000006755      0x16d ./Lib/libite66121dvi.a(tx_csc.o)
 .debug_abbrev  0x00000000000068c2      0x36d ./Lib/libVS4210.a(VS4210.o)
 .debug_abbrev  0x0000000000006c2f      0x414 ./Lib/libit6602.a(it6602.o)
 .debug_abbrev  0x0000000000007043       0x14 /usr/lib/gcc/arm-none-eabi/4.9.3/armv7-m/libgcc.a(_udivsi3.o)
 .debug_abbrev  0x0000000000007057       0x14 /usr/lib/gcc/arm-none-eabi/4.9.3/armv7-m/libgcc.a(_divsi3.o)
 .debug_abbrev  0x000000000000706b       0x14 /usr/lib/gcc/arm-none-eabi/4.9.3/armv7-m/libgcc.a(_dvmd_tls.o)

.debug_loc      0x0000000000000000    0x17670
 .debug_loc     0x0000000000000000      0xb77 build/main.o
 .debug_loc     0x0000000000000b77       0xa0 build/stm32f1xx_it.o
 .debug_loc     0x0000000000000c17      0x2db build/stm32f1xx_hal_msp.o
 .debug_loc     0x0000000000000ef2     0x4308 build/stm32f1xx_hal_tim.o
 .debug_loc     0x00000000000051fa     0x14dc build/stm32f1xx_hal_tim_ex.o
 .debug_loc     0x00000000000066d6     0x17af build/stm32f1xx_hal_uart.o
 .debug_loc     0x0000000000007e85      0x199 build/stm32f1xx_hal.o
 .debug_loc     0x000000000000801e      0x709 build/stm32f1xx_hal_rcc.o
 .debug_loc     0x0000000000008727      0x398 build/stm32f1xx_hal_gpio.o
 .debug_loc     0x0000000000008abf      0x827 build/stm32f1xx_hal_dma.o
 .debug_loc     0x00000000000092e6      0x55f build/stm32f1xx_hal_cortex.o
 .debug_loc     0x0000000000009845       0xe4 build/system_stm32f1xx.o
 .debug_loc     0x0000000000009929      0x79f build/VX_swi2c.o
 .debug_loc     0x000000000000a0c8      0x5dc build/VX_OSD.o
 .debug_loc     0x000000000000a6a4      0xb29 build/VX_OSD_Simple.o
 .debug_loc     0x000000000000b1cd     0x1e9b build/TP2802.o
 .debug_loc     0x000000000000d068      0x6fa build/monitor.o
 .debug_loc     0x000000000000d762      0x66e build/Printf.o
 .debug_loc     0x000000000000ddd0      0x4fe build/SysTimer.o
 .debug_loc     0x000000000000e2ce       0x85 build/TOA_Protocol.o
 .debug_loc     0x000000000000e353      0x1ab build/etc_eep.o
 .debug_loc     0x000000000000e4fe       0x48 /usr/lib/gcc/arm-none-eabi/4.9.3/../../../arm-none-eabi/lib/armv7-m/libc_nano.a(lib_a-init.o)
 .debug_loc     0x000000000000e546       0x87 /usr/lib/gcc/arm-none-eabi/4.9.3/../../../arm-none-eabi/lib/armv7-m/libc_nano.a(lib_a-memcpy.o)
 .debug_loc     0x000000000000e5cd       0x49 /usr/lib/gcc/arm-none-eabi/4.9.3/../../../arm-none-eabi/lib/armv7-m/libc_nano.a(lib_a-memset.o)
 .debug_loc     0x000000000000e616       0x3f /usr/lib/gcc/arm-none-eabi/4.9.3/../../../arm-none-eabi/lib/armv7-m/libc_nano.a(lib_a-printf.o)
 .debug_loc     0x000000000000e655      0x197 /usr/lib/gcc/arm-none-eabi/4.9.3/../../../arm-none-eabi/lib/armv7-m/libc_nano.a(lib_a-puts.o)
 .debug_loc     0x000000000000e7ec      0x113 /usr/lib/gcc/arm-none-eabi/4.9.3/../../../arm-none-eabi/lib/armv7-m/libc_nano.a(lib_a-wbuf.o)
 .debug_loc     0x000000000000e8ff       0x5d /usr/lib/gcc/arm-none-eabi/4.9.3/../../../arm-none-eabi/lib/armv7-m/libc_nano.a(lib_a-wsetup.o)
 .debug_loc     0x000000000000e95c      0x24c /usr/lib/gcc/arm-none-eabi/4.9.3/../../../arm-none-eabi/lib/armv7-m/libc_nano.a(lib_a-fflush.o)
 .debug_loc     0x000000000000eba8      0x200 /usr/lib/gcc/arm-none-eabi/4.9.3/../../../arm-none-eabi/lib/armv7-m/libc_nano.a(lib_a-findfp.o)
 .debug_loc     0x000000000000eda8      0x11f /usr/lib/gcc/arm-none-eabi/4.9.3/../../../arm-none-eabi/lib/armv7-m/libc_nano.a(lib_a-fwalk.o)
 .debug_loc     0x000000000000eec7       0xe0 /usr/lib/gcc/arm-none-eabi/4.9.3/../../../arm-none-eabi/lib/armv7-m/libc_nano.a(lib_a-makebuf.o)
 .debug_loc     0x000000000000efa7      0x172 /usr/lib/gcc/arm-none-eabi/4.9.3/../../../arm-none-eabi/lib/armv7-m/libc_nano.a(lib_a-nano-freer.o)
 .debug_loc     0x000000000000f119      0x304 /usr/lib/gcc/arm-none-eabi/4.9.3/../../../arm-none-eabi/lib/armv7-m/libc_nano.a(lib_a-nano-mallocr.o)
 .debug_loc     0x000000000000f41d      0x4f6 /usr/lib/gcc/arm-none-eabi/4.9.3/../../../arm-none-eabi/lib/armv7-m/libc_nano.a(lib_a-nano-vfprintf.o)
 .debug_loc     0x000000000000f913      0x46d /usr/lib/gcc/arm-none-eabi/4.9.3/../../../arm-none-eabi/lib/armv7-m/libc_nano.a(lib_a-nano-vfprintf_i.o)
 .debug_loc     0x000000000000fd80       0x4d /usr/lib/gcc/arm-none-eabi/4.9.3/../../../arm-none-eabi/lib/armv7-m/libc_nano.a(lib_a-sbrkr.o)
 .debug_loc     0x000000000000fdcd      0x236 /usr/lib/gcc/arm-none-eabi/4.9.3/../../../arm-none-eabi/lib/armv7-m/libc_nano.a(lib_a-stdio.o)
 .debug_loc     0x0000000000010003       0xa5 /usr/lib/gcc/arm-none-eabi/4.9.3/../../../arm-none-eabi/lib/armv7-m/libc_nano.a(lib_a-writer.o)
 .debug_loc     0x00000000000100a8       0x4d /usr/lib/gcc/arm-none-eabi/4.9.3/../../../arm-none-eabi/lib/armv7-m/libc_nano.a(lib_a-closer.o)
 .debug_loc     0x00000000000100f5       0x79 /usr/lib/gcc/arm-none-eabi/4.9.3/../../../arm-none-eabi/lib/armv7-m/libc_nano.a(lib_a-fstatr.o)
 .debug_loc     0x000000000001016e       0x4d /usr/lib/gcc/arm-none-eabi/4.9.3/../../../arm-none-eabi/lib/armv7-m/libc_nano.a(lib_a-isattyr.o)
 .debug_loc     0x00000000000101bb       0xa5 /usr/lib/gcc/arm-none-eabi/4.9.3/../../../arm-none-eabi/lib/armv7-m/libc_nano.a(lib_a-lseekr.o)
 .debug_loc     0x0000000000010260       0xaa /usr/lib/gcc/arm-none-eabi/4.9.3/../../../arm-none-eabi/lib/armv7-m/libc_nano.a(lib_a-memchr.o)
 .debug_loc     0x000000000001030a       0xa5 /usr/lib/gcc/arm-none-eabi/4.9.3/../../../arm-none-eabi/lib/armv7-m/libc_nano.a(lib_a-readr.o)
 .debug_loc     0x00000000000103af       0xfa /usr/lib/gcc/arm-none-eabi/4.9.3/../../../arm-none-eabi/lib/armv7-m/libc_nano.a(lib_a-reent.o)
 .debug_loc     0x00000000000104a9       0x21 /usr/lib/gcc/arm-none-eabi/4.9.3/../../../arm-none-eabi/lib/armv7-m/libnosys.a(close.o)
 .debug_loc     0x00000000000104ca       0x21 /usr/lib/gcc/arm-none-eabi/4.9.3/../../../arm-none-eabi/lib/armv7-m/libnosys.a(fstat.o)
 .debug_loc     0x00000000000104eb       0x21 /usr/lib/gcc/arm-none-eabi/4.9.3/../../../arm-none-eabi/lib/armv7-m/libnosys.a(isatty.o)
 .debug_loc     0x000000000001050c       0x42 /usr/lib/gcc/arm-none-eabi/4.9.3/../../../arm-none-eabi/lib/armv7-m/libnosys.a(lseek.o)
 .debug_loc     0x000000000001054e       0x42 /usr/lib/gcc/arm-none-eabi/4.9.3/../../../arm-none-eabi/lib/armv7-m/libnosys.a(read.o)
 .debug_loc     0x0000000000010590       0x21 /usr/lib/gcc/arm-none-eabi/4.9.3/../../../arm-none-eabi/lib/armv7-m/libnosys.a(sbrk.o)
 .debug_loc     0x00000000000105b1      0x7a9 ./Lib/libite66121dvi.a(hdmitx_sys.o)
 .debug_loc     0x0000000000010d5a     0x18cd ./Lib/libite66121dvi.a(hdmitx_drv.o)
 .debug_loc     0x0000000000012627     0x2576 ./Lib/libVS4210.a(VS4210.o)
 .debug_loc     0x0000000000014b9d     0x2ad3 ./Lib/libit6602.a(it6602.o)

.debug_aranges  0x0000000000000000     0x1c80
 .debug_aranges
                0x0000000000000000      0x140 build/main.o
 .debug_aranges
                0x0000000000000140       0x80 build/stm32f1xx_it.o
 .debug_aranges
                0x00000000000001c0       0x68 build/stm32f1xx_hal_msp.o
 .debug_aranges
                0x0000000000000228      0x3a8 build/stm32f1xx_hal_tim.o
 .debug_aranges
                0x00000000000005d0      0x150 build/stm32f1xx_hal_tim_ex.o
 .debug_aranges
                0x0000000000000720      0x1d0 build/stm32f1xx_hal_uart.o
 .debug_aranges
                0x00000000000008f0       0xe0 build/stm32f1xx_hal.o
 .debug_aranges
                0x00000000000009d0       0x90 build/stm32f1xx_hal_rcc.o
 .debug_aranges
                0x0000000000000a60       0x58 build/stm32f1xx_hal_gpio.o
 .debug_aranges
                0x0000000000000ab8       0x80 build/stm32f1xx_hal_dma.o
 .debug_aranges
                0x0000000000000b38       0x90 build/stm32f1xx_hal_cortex.o
 .debug_aranges
                0x0000000000000bc8       0x28 build/system_stm32f1xx.o
 .debug_aranges
                0x0000000000000bf0       0xa8 build/VX_swi2c.o
 .debug_aranges
                0x0000000000000c98       0x18 build/VS4210_param_Modex26.o
 .debug_aranges
                0x0000000000000cb0       0x18 build/VS4210_param_Mode88.o
 .debug_aranges
                0x0000000000000cc8       0x70 build/VX_OSD.o
 .debug_aranges
                0x0000000000000d38       0x88 build/VX_OSD_Simple.o
 .debug_aranges
                0x0000000000000dc0      0x158 build/TP2802.o
 .debug_aranges
                0x0000000000000f18       0xf8 build/monitor.o
 .debug_aranges
                0x0000000000001010       0x40 build/Printf.o
 .debug_aranges
                0x0000000000001050       0xa0 build/SysTimer.o
 .debug_aranges
                0x00000000000010f0       0x18 build/exosd.o
 .debug_aranges
                0x0000000000001108       0x20 build/TOA_Protocol.o
 .debug_aranges
                0x0000000000001128       0x60 build/etc_eep.o
 .debug_aranges
                0x0000000000001188       0x28 build/startup_stm32f103xb.o
 .debug_aranges
                0x00000000000011b0       0x20 /usr/lib/gcc/arm-none-eabi/4.9.3/../../../arm-none-eabi/lib/armv7-m/libc_nano.a(lib_a-errno.o)
 .debug_aranges
                0x00000000000011d0       0x18 /usr/lib/gcc/arm-none-eabi/4.9.3/../../../arm-none-eabi/lib/armv7-m/libc_nano.a(lib_a-impure.o)
 .debug_aranges
                0x00000000000011e8       0x20 /usr/lib/gcc/arm-none-eabi/4.9.3/../../../arm-none-eabi/lib/armv7-m/libc_nano.a(lib_a-init.o)
 .debug_aranges
                0x0000000000001208       0x20 /usr/lib/gcc/arm-none-eabi/4.9.3/../../../arm-none-eabi/lib/armv7-m/libc_nano.a(lib_a-memcpy.o)
 .debug_aranges
                0x0000000000001228       0x20 /usr/lib/gcc/arm-none-eabi/4.9.3/../../../arm-none-eabi/lib/armv7-m/libc_nano.a(lib_a-memset.o)
 .debug_aranges
                0x0000000000001248       0x28 /usr/lib/gcc/arm-none-eabi/4.9.3/../../../arm-none-eabi/lib/armv7-m/libc_nano.a(lib_a-printf.o)
 .debug_aranges
                0x0000000000001270       0x28 /usr/lib/gcc/arm-none-eabi/4.9.3/../../../arm-none-eabi/lib/armv7-m/libc_nano.a(lib_a-puts.o)
 .debug_aranges
                0x0000000000001298       0x28 /usr/lib/gcc/arm-none-eabi/4.9.3/../../../arm-none-eabi/lib/armv7-m/libc_nano.a(lib_a-wbuf.o)
 .debug_aranges
                0x00000000000012c0       0x20 /usr/lib/gcc/arm-none-eabi/4.9.3/../../../arm-none-eabi/lib/armv7-m/libc_nano.a(lib_a-wsetup.o)
 .debug_aranges
                0x00000000000012e0       0x30 /usr/lib/gcc/arm-none-eabi/4.9.3/../../../arm-none-eabi/lib/armv7-m/libc_nano.a(lib_a-fflush.o)
 .debug_aranges
                0x0000000000001310       0x88 /usr/lib/gcc/arm-none-eabi/4.9.3/../../../arm-none-eabi/lib/armv7-m/libc_nano.a(lib_a-findfp.o)
 .debug_aranges
                0x0000000000001398       0x28 /usr/lib/gcc/arm-none-eabi/4.9.3/../../../arm-none-eabi/lib/armv7-m/libc_nano.a(lib_a-fwalk.o)
 .debug_aranges
                0x00000000000013c0       0x20 /usr/lib/gcc/arm-none-eabi/4.9.3/../../../arm-none-eabi/lib/armv7-m/libc_nano.a(lib_a-makebuf.o)
 .debug_aranges
                0x00000000000013e0       0x20 /usr/lib/gcc/arm-none-eabi/4.9.3/../../../arm-none-eabi/lib/armv7-m/libc_nano.a(lib_a-nano-freer.o)
 .debug_aranges
                0x0000000000001400       0x20 /usr/lib/gcc/arm-none-eabi/4.9.3/../../../arm-none-eabi/lib/armv7-m/libc_nano.a(lib_a-nano-mallocr.o)
 .debug_aranges
                0x0000000000001420       0x40 /usr/lib/gcc/arm-none-eabi/4.9.3/../../../arm-none-eabi/lib/armv7-m/libc_nano.a(lib_a-nano-vfprintf.o)
 .debug_aranges
                0x0000000000001460       0x28 /usr/lib/gcc/arm-none-eabi/4.9.3/../../../arm-none-eabi/lib/armv7-m/libc_nano.a(lib_a-nano-vfprintf_i.o)
 .debug_aranges
                0x0000000000001488       0x20 /usr/lib/gcc/arm-none-eabi/4.9.3/../../../arm-none-eabi/lib/armv7-m/libc_nano.a(lib_a-sbrkr.o)
 .debug_aranges
                0x00000000000014a8       0x40 /usr/lib/gcc/arm-none-eabi/4.9.3/../../../arm-none-eabi/lib/armv7-m/libc_nano.a(lib_a-stdio.o)
 .debug_aranges
                0x00000000000014e8       0x20 /usr/lib/gcc/arm-none-eabi/4.9.3/../../../arm-none-eabi/lib/armv7-m/libc_nano.a(lib_a-writer.o)
 .debug_aranges
                0x0000000000001508       0x20 /usr/lib/gcc/arm-none-eabi/4.9.3/../../../arm-none-eabi/lib/armv7-m/libc_nano.a(lib_a-closer.o)
 .debug_aranges
                0x0000000000001528       0x20 /usr/lib/gcc/arm-none-eabi/4.9.3/../../../arm-none-eabi/lib/armv7-m/libc_nano.a(lib_a-fstatr.o)
 .debug_aranges
                0x0000000000001548       0x20 /usr/lib/gcc/arm-none-eabi/4.9.3/../../../arm-none-eabi/lib/armv7-m/libc_nano.a(lib_a-isattyr.o)
 .debug_aranges
                0x0000000000001568       0x20 /usr/lib/gcc/arm-none-eabi/4.9.3/../../../arm-none-eabi/lib/armv7-m/libc_nano.a(lib_a-lseekr.o)
 .debug_aranges
                0x0000000000001588       0x20 /usr/lib/gcc/arm-none-eabi/4.9.3/../../../arm-none-eabi/lib/armv7-m/libc_nano.a(lib_a-memchr.o)
 .debug_aranges
                0x00000000000015a8       0x20 /usr/lib/gcc/arm-none-eabi/4.9.3/../../../arm-none-eabi/lib/armv7-m/libc_nano.a(lib_a-readr.o)
 .debug_aranges
                0x00000000000015c8       0x28 /usr/lib/gcc/arm-none-eabi/4.9.3/../../../arm-none-eabi/lib/armv7-m/libc_nano.a(lib_a-reent.o)
 .debug_aranges
                0x00000000000015f0       0x20 /usr/lib/gcc/arm-none-eabi/4.9.3/../../../arm-none-eabi/lib/armv7-m/libnosys.a(close.o)
 .debug_aranges
                0x0000000000001610       0x20 /usr/lib/gcc/arm-none-eabi/4.9.3/../../../arm-none-eabi/lib/armv7-m/libnosys.a(fstat.o)
 .debug_aranges
                0x0000000000001630       0x20 /usr/lib/gcc/arm-none-eabi/4.9.3/../../../arm-none-eabi/lib/armv7-m/libnosys.a(isatty.o)
 .debug_aranges
                0x0000000000001650       0x20 /usr/lib/gcc/arm-none-eabi/4.9.3/../../../arm-none-eabi/lib/armv7-m/libnosys.a(lseek.o)
 .debug_aranges
                0x0000000000001670       0x20 /usr/lib/gcc/arm-none-eabi/4.9.3/../../../arm-none-eabi/lib/armv7-m/libnosys.a(read.o)
 .debug_aranges
                0x0000000000001690       0x20 /usr/lib/gcc/arm-none-eabi/4.9.3/../../../arm-none-eabi/lib/armv7-m/libnosys.a(sbrk.o)
 .debug_aranges
                0x00000000000016b0       0x78 ./Lib/libite66121dvi.a(hdmitx_sys.o)
 .debug_aranges
                0x0000000000001728      0x128 ./Lib/libite66121dvi.a(hdmitx_drv.o)
 .debug_aranges
                0x0000000000001850       0x18 ./Lib/libite66121dvi.a(tx_csc.o)
 .debug_aranges
                0x0000000000001868      0x190 ./Lib/libVS4210.a(VS4210.o)
 .debug_aranges
                0x00000000000019f8      0x228 ./Lib/libit6602.a(it6602.o)
 .debug_aranges
                0x0000000000001c20       0x20 /usr/lib/gcc/arm-none-eabi/4.9.3/armv7-m/libgcc.a(_udivsi3.o)
 .debug_aranges
                0x0000000000001c40       0x20 /usr/lib/gcc/arm-none-eabi/4.9.3/armv7-m/libgcc.a(_divsi3.o)
 .debug_aranges
                0x0000000000001c60       0x20 /usr/lib/gcc/arm-none-eabi/4.9.3/armv7-m/libgcc.a(_dvmd_tls.o)

.debug_ranges   0x0000000000000000     0x1908
 .debug_ranges  0x0000000000000000      0x130 build/main.o
 .debug_ranges  0x0000000000000130       0x70 build/stm32f1xx_it.o
 .debug_ranges  0x00000000000001a0       0x58 build/stm32f1xx_hal_msp.o
 .debug_ranges  0x00000000000001f8      0x398 build/stm32f1xx_hal_tim.o
 .debug_ranges  0x0000000000000590      0x140 build/stm32f1xx_hal_tim_ex.o
 .debug_ranges  0x00000000000006d0      0x1c0 build/stm32f1xx_hal_uart.o
 .debug_ranges  0x0000000000000890       0xd0 build/stm32f1xx_hal.o
 .debug_ranges  0x0000000000000960       0x98 build/stm32f1xx_hal_rcc.o
 .debug_ranges  0x00000000000009f8       0x48 build/stm32f1xx_hal_gpio.o
 .debug_ranges  0x0000000000000a40       0x70 build/stm32f1xx_hal_dma.o
 .debug_ranges  0x0000000000000ab0       0x80 build/stm32f1xx_hal_cortex.o
 .debug_ranges  0x0000000000000b30       0x18 build/system_stm32f1xx.o
 .debug_ranges  0x0000000000000b48       0x98 build/VX_swi2c.o
 .debug_ranges  0x0000000000000be0       0x60 build/VX_OSD.o
 .debug_ranges  0x0000000000000c40       0x78 build/VX_OSD_Simple.o
 .debug_ranges  0x0000000000000cb8      0x148 build/TP2802.o
 .debug_ranges  0x0000000000000e00       0xe8 build/monitor.o
 .debug_ranges  0x0000000000000ee8       0x30 build/Printf.o
 .debug_ranges  0x0000000000000f18       0x90 build/SysTimer.o
 .debug_ranges  0x0000000000000fa8       0x10 build/TOA_Protocol.o
 .debug_ranges  0x0000000000000fb8       0x50 build/etc_eep.o
 .debug_ranges  0x0000000000001008       0x20 build/startup_stm32f103xb.o
 .debug_ranges  0x0000000000001028       0x10 /usr/lib/gcc/arm-none-eabi/4.9.3/../../../arm-none-eabi/lib/armv7-m/libc_nano.a(lib_a-errno.o)
 .debug_ranges  0x0000000000001038       0x10 /usr/lib/gcc/arm-none-eabi/4.9.3/../../../arm-none-eabi/lib/armv7-m/libc_nano.a(lib_a-init.o)
 .debug_ranges  0x0000000000001048       0x10 /usr/lib/gcc/arm-none-eabi/4.9.3/../../../arm-none-eabi/lib/armv7-m/libc_nano.a(lib_a-memcpy.o)
 .debug_ranges  0x0000000000001058       0x10 /usr/lib/gcc/arm-none-eabi/4.9.3/../../../arm-none-eabi/lib/armv7-m/libc_nano.a(lib_a-memset.o)
 .debug_ranges  0x0000000000001068       0x18 /usr/lib/gcc/arm-none-eabi/4.9.3/../../../arm-none-eabi/lib/armv7-m/libc_nano.a(lib_a-printf.o)
 .debug_ranges  0x0000000000001080       0x30 /usr/lib/gcc/arm-none-eabi/4.9.3/../../../arm-none-eabi/lib/armv7-m/libc_nano.a(lib_a-puts.o)
 .debug_ranges  0x00000000000010b0       0x18 /usr/lib/gcc/arm-none-eabi/4.9.3/../../../arm-none-eabi/lib/armv7-m/libc_nano.a(lib_a-wbuf.o)
 .debug_ranges  0x00000000000010c8       0x30 /usr/lib/gcc/arm-none-eabi/4.9.3/../../../arm-none-eabi/lib/armv7-m/libc_nano.a(lib_a-wsetup.o)
 .debug_ranges  0x00000000000010f8       0x20 /usr/lib/gcc/arm-none-eabi/4.9.3/../../../arm-none-eabi/lib/armv7-m/libc_nano.a(lib_a-fflush.o)
 .debug_ranges  0x0000000000001118       0x78 /usr/lib/gcc/arm-none-eabi/4.9.3/../../../arm-none-eabi/lib/armv7-m/libc_nano.a(lib_a-findfp.o)
 .debug_ranges  0x0000000000001190       0x18 /usr/lib/gcc/arm-none-eabi/4.9.3/../../../arm-none-eabi/lib/armv7-m/libc_nano.a(lib_a-fwalk.o)
 .debug_ranges  0x00000000000011a8       0x10 /usr/lib/gcc/arm-none-eabi/4.9.3/../../../arm-none-eabi/lib/armv7-m/libc_nano.a(lib_a-makebuf.o)
 .debug_ranges  0x00000000000011b8       0x28 /usr/lib/gcc/arm-none-eabi/4.9.3/../../../arm-none-eabi/lib/armv7-m/libc_nano.a(lib_a-nano-freer.o)
 .debug_ranges  0x00000000000011e0       0x28 /usr/lib/gcc/arm-none-eabi/4.9.3/../../../arm-none-eabi/lib/armv7-m/libc_nano.a(lib_a-nano-mallocr.o)
 .debug_ranges  0x0000000000001208       0x30 /usr/lib/gcc/arm-none-eabi/4.9.3/../../../arm-none-eabi/lib/armv7-m/libc_nano.a(lib_a-nano-vfprintf.o)
 .debug_ranges  0x0000000000001238       0x60 /usr/lib/gcc/arm-none-eabi/4.9.3/../../../arm-none-eabi/lib/armv7-m/libc_nano.a(lib_a-nano-vfprintf_i.o)
 .debug_ranges  0x0000000000001298       0x10 /usr/lib/gcc/arm-none-eabi/4.9.3/../../../arm-none-eabi/lib/armv7-m/libc_nano.a(lib_a-sbrkr.o)
 .debug_ranges  0x00000000000012a8       0x30 /usr/lib/gcc/arm-none-eabi/4.9.3/../../../arm-none-eabi/lib/armv7-m/libc_nano.a(lib_a-stdio.o)
 .debug_ranges  0x00000000000012d8       0x10 /usr/lib/gcc/arm-none-eabi/4.9.3/../../../arm-none-eabi/lib/armv7-m/libc_nano.a(lib_a-writer.o)
 .debug_ranges  0x00000000000012e8       0x10 /usr/lib/gcc/arm-none-eabi/4.9.3/../../../arm-none-eabi/lib/armv7-m/libc_nano.a(lib_a-closer.o)
 .debug_ranges  0x00000000000012f8       0x10 /usr/lib/gcc/arm-none-eabi/4.9.3/../../../arm-none-eabi/lib/armv7-m/libc_nano.a(lib_a-fstatr.o)
 .debug_ranges  0x0000000000001308       0x10 /usr/lib/gcc/arm-none-eabi/4.9.3/../../../arm-none-eabi/lib/armv7-m/libc_nano.a(lib_a-isattyr.o)
 .debug_ranges  0x0000000000001318       0x10 /usr/lib/gcc/arm-none-eabi/4.9.3/../../../arm-none-eabi/lib/armv7-m/libc_nano.a(lib_a-lseekr.o)
 .debug_ranges  0x0000000000001328       0x10 /usr/lib/gcc/arm-none-eabi/4.9.3/../../../arm-none-eabi/lib/armv7-m/libc_nano.a(lib_a-memchr.o)
 .debug_ranges  0x0000000000001338       0x10 /usr/lib/gcc/arm-none-eabi/4.9.3/../../../arm-none-eabi/lib/armv7-m/libc_nano.a(lib_a-readr.o)
 .debug_ranges  0x0000000000001348       0x18 /usr/lib/gcc/arm-none-eabi/4.9.3/../../../arm-none-eabi/lib/armv7-m/libc_nano.a(lib_a-reent.o)
 .debug_ranges  0x0000000000001360       0x10 /usr/lib/gcc/arm-none-eabi/4.9.3/../../../arm-none-eabi/lib/armv7-m/libnosys.a(close.o)
 .debug_ranges  0x0000000000001370       0x10 /usr/lib/gcc/arm-none-eabi/4.9.3/../../../arm-none-eabi/lib/armv7-m/libnosys.a(fstat.o)
 .debug_ranges  0x0000000000001380       0x10 /usr/lib/gcc/arm-none-eabi/4.9.3/../../../arm-none-eabi/lib/armv7-m/libnosys.a(isatty.o)
 .debug_ranges  0x0000000000001390       0x10 /usr/lib/gcc/arm-none-eabi/4.9.3/../../../arm-none-eabi/lib/armv7-m/libnosys.a(lseek.o)
 .debug_ranges  0x00000000000013a0       0x10 /usr/lib/gcc/arm-none-eabi/4.9.3/../../../arm-none-eabi/lib/armv7-m/libnosys.a(read.o)
 .debug_ranges  0x00000000000013b0       0x10 /usr/lib/gcc/arm-none-eabi/4.9.3/../../../arm-none-eabi/lib/armv7-m/libnosys.a(sbrk.o)
 .debug_ranges  0x00000000000013c0       0x80 ./Lib/libite66121dvi.a(hdmitx_sys.o)
 .debug_ranges  0x0000000000001440      0x130 ./Lib/libite66121dvi.a(hdmitx_drv.o)
 .debug_ranges  0x0000000000001570      0x180 ./Lib/libVS4210.a(VS4210.o)
 .debug_ranges  0x00000000000016f0      0x218 ./Lib/libit6602.a(it6602.o)

.debug_line     0x0000000000000000     0xfc66
 .debug_line    0x0000000000000000      0xc5c build/main.o
 .debug_line    0x0000000000000c5c      0x27a build/stm32f1xx_it.o
 .debug_line    0x0000000000000ed6      0x2ad build/stm32f1xx_hal_msp.o
 .debug_line    0x0000000000001183     0x11ae build/stm32f1xx_hal_tim.o
 .debug_line    0x0000000000002331      0x77d build/stm32f1xx_hal_tim_ex.o
 .debug_line    0x0000000000002aae      0xa50 build/stm32f1xx_hal_uart.o
 .debug_line    0x00000000000034fe      0x352 build/stm32f1xx_hal.o
 .debug_line    0x0000000000003850      0x4ba build/stm32f1xx_hal_rcc.o
 .debug_line    0x0000000000003d0a      0x2cc build/stm32f1xx_hal_gpio.o
 .debug_line    0x0000000000003fd6      0x4d7 build/stm32f1xx_hal_dma.o
 .debug_line    0x00000000000044ad      0x2c9 build/stm32f1xx_hal_cortex.o
 .debug_line    0x0000000000004776      0x13c build/system_stm32f1xx.o
 .debug_line    0x00000000000048b2      0x2c6 build/VX_swi2c.o
 .debug_line    0x0000000000004b78       0x56 build/VS4210_param_Modex26.o
 .debug_line    0x0000000000004bce       0x55 build/VS4210_param_Mode88.o
 .debug_line    0x0000000000004c23      0x1b1 build/VX_OSD.o
 .debug_line    0x0000000000004dd4      0x488 build/VX_OSD_Simple.o
 .debug_line    0x000000000000525c      0xc7f build/TP2802.o
 .debug_line    0x0000000000005edb      0x762 build/monitor.o
 .debug_line    0x000000000000663d      0x1b9 build/Printf.o
 .debug_line    0x00000000000067f6      0x3bf build/SysTimer.o
 .debug_line    0x0000000000006bb5       0x2f build/exosd.o
 .debug_line    0x0000000000006be4      0x233 build/TOA_Protocol.o
 .debug_line    0x0000000000006e17      0x1a5 build/etc_eep.o
 .debug_line    0x0000000000006fbc       0x72 build/startup_stm32f103xb.o
 .debug_line    0x000000000000702e      0x10b /usr/lib/gcc/arm-none-eabi/4.9.3/../../../arm-none-eabi/lib/armv7-m/libc_nano.a(lib_a-errno.o)
 .debug_line    0x0000000000007139       0xf1 /usr/lib/gcc/arm-none-eabi/4.9.3/../../../arm-none-eabi/lib/armv7-m/libc_nano.a(lib_a-impure.o)
 .debug_line    0x000000000000722a       0xb7 /usr/lib/gcc/arm-none-eabi/4.9.3/../../../arm-none-eabi/lib/armv7-m/libc_nano.a(lib_a-init.o)
 .debug_line    0x00000000000072e1       0xed /usr/lib/gcc/arm-none-eabi/4.9.3/../../../arm-none-eabi/lib/armv7-m/libc_nano.a(lib_a-memcpy.o)
 .debug_line    0x00000000000073ce       0xee /usr/lib/gcc/arm-none-eabi/4.9.3/../../../arm-none-eabi/lib/armv7-m/libc_nano.a(lib_a-memset.o)
 .debug_line    0x00000000000074bc      0x1a5 /usr/lib/gcc/arm-none-eabi/4.9.3/../../../arm-none-eabi/lib/armv7-m/libc_nano.a(lib_a-printf.o)
 .debug_line    0x0000000000007661      0x1f8 /usr/lib/gcc/arm-none-eabi/4.9.3/../../../arm-none-eabi/lib/armv7-m/libc_nano.a(lib_a-puts.o)
 .debug_line    0x0000000000007859      0x1cc /usr/lib/gcc/arm-none-eabi/4.9.3/../../../arm-none-eabi/lib/armv7-m/libc_nano.a(lib_a-wbuf.o)
 .debug_line    0x0000000000007a25      0x1bf /usr/lib/gcc/arm-none-eabi/4.9.3/../../../arm-none-eabi/lib/armv7-m/libc_nano.a(lib_a-wsetup.o)
 .debug_line    0x0000000000007be4      0x250 /usr/lib/gcc/arm-none-eabi/4.9.3/../../../arm-none-eabi/lib/armv7-m/libc_nano.a(lib_a-fflush.o)
 .debug_line    0x0000000000007e34      0x2c0 /usr/lib/gcc/arm-none-eabi/4.9.3/../../../arm-none-eabi/lib/armv7-m/libc_nano.a(lib_a-findfp.o)
 .debug_line    0x00000000000080f4      0x1b7 /usr/lib/gcc/arm-none-eabi/4.9.3/../../../arm-none-eabi/lib/armv7-m/libc_nano.a(lib_a-fwalk.o)
 .debug_line    0x00000000000082ab      0x1b7 /usr/lib/gcc/arm-none-eabi/4.9.3/../../../arm-none-eabi/lib/armv7-m/libc_nano.a(lib_a-makebuf.o)
 .debug_line    0x0000000000008462      0x145 /usr/lib/gcc/arm-none-eabi/4.9.3/../../../arm-none-eabi/lib/armv7-m/libc_nano.a(lib_a-nano-freer.o)
 .debug_line    0x00000000000085a7      0x199 /usr/lib/gcc/arm-none-eabi/4.9.3/../../../arm-none-eabi/lib/armv7-m/libc_nano.a(lib_a-nano-mallocr.o)
 .debug_line    0x0000000000008740      0x2d3 /usr/lib/gcc/arm-none-eabi/4.9.3/../../../arm-none-eabi/lib/armv7-m/libc_nano.a(lib_a-nano-vfprintf.o)
 .debug_line    0x0000000000008a13      0x305 /usr/lib/gcc/arm-none-eabi/4.9.3/../../../arm-none-eabi/lib/armv7-m/libc_nano.a(lib_a-nano-vfprintf_i.o)
 .debug_line    0x0000000000008d18      0x162 /usr/lib/gcc/arm-none-eabi/4.9.3/../../../arm-none-eabi/lib/armv7-m/libc_nano.a(lib_a-sbrkr.o)
 .debug_line    0x0000000000008e7a      0x1d8 /usr/lib/gcc/arm-none-eabi/4.9.3/../../../arm-none-eabi/lib/armv7-m/libc_nano.a(lib_a-stdio.o)
 .debug_line    0x0000000000009052      0x162 /usr/lib/gcc/arm-none-eabi/4.9.3/../../../arm-none-eabi/lib/armv7-m/libc_nano.a(lib_a-writer.o)
 .debug_line    0x00000000000091b4      0x163 /usr/lib/gcc/arm-none-eabi/4.9.3/../../../arm-none-eabi/lib/armv7-m/libc_nano.a(lib_a-closer.o)
 .debug_line    0x0000000000009317      0x178 /usr/lib/gcc/arm-none-eabi/4.9.3/../../../arm-none-eabi/lib/armv7-m/libc_nano.a(lib_a-fstatr.o)
 .debug_line    0x000000000000948f      0x164 /usr/lib/gcc/arm-none-eabi/4.9.3/../../../arm-none-eabi/lib/armv7-m/libc_nano.a(lib_a-isattyr.o)
 .debug_line    0x00000000000095f3      0x162 /usr/lib/gcc/arm-none-eabi/4.9.3/../../../arm-none-eabi/lib/armv7-m/libc_nano.a(lib_a-lseekr.o)
 .debug_line    0x0000000000009755       0xf0 /usr/lib/gcc/arm-none-eabi/4.9.3/../../../arm-none-eabi/lib/armv7-m/libc_nano.a(lib_a-memchr.o)
 .debug_line    0x0000000000009845      0x161 /usr/lib/gcc/arm-none-eabi/4.9.3/../../../arm-none-eabi/lib/armv7-m/libc_nano.a(lib_a-readr.o)
 .debug_line    0x00000000000099a6      0x19e /usr/lib/gcc/arm-none-eabi/4.9.3/../../../arm-none-eabi/lib/armv7-m/libc_nano.a(lib_a-reent.o)
 .debug_line    0x0000000000009b44       0x5a /usr/lib/gcc/arm-none-eabi/4.9.3/../../../arm-none-eabi/lib/armv7-m/libnosys.a(close.o)
 .debug_line    0x0000000000009b9e       0xc9 /usr/lib/gcc/arm-none-eabi/4.9.3/../../../arm-none-eabi/lib/armv7-m/libnosys.a(fstat.o)
 .debug_line    0x0000000000009c67       0x5b /usr/lib/gcc/arm-none-eabi/4.9.3/../../../arm-none-eabi/lib/armv7-m/libnosys.a(isatty.o)
 .debug_line    0x0000000000009cc2       0x5a /usr/lib/gcc/arm-none-eabi/4.9.3/../../../arm-none-eabi/lib/armv7-m/libnosys.a(lseek.o)
 .debug_line    0x0000000000009d1c       0x59 /usr/lib/gcc/arm-none-eabi/4.9.3/../../../arm-none-eabi/lib/armv7-m/libnosys.a(read.o)
 .debug_line    0x0000000000009d75       0x58 /usr/lib/gcc/arm-none-eabi/4.9.3/../../../arm-none-eabi/lib/armv7-m/libnosys.a(sbrk.o)
 .debug_line    0x0000000000009dcd      0x472 ./Lib/libite66121dvi.a(hdmitx_sys.o)
 .debug_line    0x000000000000a23f      0x6e1 ./Lib/libite66121dvi.a(hdmitx_drv.o)
 .debug_line    0x000000000000a920       0xa7 ./Lib/libite66121dvi.a(tx_csc.o)
 .debug_line    0x000000000000a9c7     0x2a2f ./Lib/libVS4210.a(VS4210.o)
 .debug_line    0x000000000000d3f6     0x273a ./Lib/libit6602.a(it6602.o)
 .debug_line    0x000000000000fb30       0x6c /usr/lib/gcc/arm-none-eabi/4.9.3/armv7-m/libgcc.a(_udivsi3.o)
 .debug_line    0x000000000000fb9c       0x6c /usr/lib/gcc/arm-none-eabi/4.9.3/armv7-m/libgcc.a(_divsi3.o)
 .debug_line    0x000000000000fc08       0x5e /usr/lib/gcc/arm-none-eabi/4.9.3/armv7-m/libgcc.a(_dvmd_tls.o)

.debug_str      0x0000000000000000    0x123d7
 .debug_str     0x0000000000000000     0x2787 build/main.o
                                       0x2967 (size before relaxing)
 .debug_str     0x0000000000002787      0x134 build/stm32f1xx_it.o
                                        0x822 (size before relaxing)
 .debug_str     0x00000000000028bb      0x445 build/stm32f1xx_hal_msp.o
                                        0xcee (size before relaxing)
 .debug_str     0x0000000000002d00      0xc9f build/stm32f1xx_hal_tim.o
                                       0x13fc (size before relaxing)
 .debug_str     0x000000000000399f      0x4d5 build/stm32f1xx_hal_tim_ex.o
                                        0xc14 (size before relaxing)
 .debug_str     0x0000000000003e74      0x518 build/stm32f1xx_hal_uart.o
                                        0xb56 (size before relaxing)
 .debug_str     0x000000000000438c      0x2dd build/stm32f1xx_hal.o
                                        0x7ec (size before relaxing)
 .debug_str     0x0000000000004669      0x1c9 build/stm32f1xx_hal_rcc.o
                                        0x5f6 (size before relaxing)
 .debug_str     0x0000000000004832       0xbf build/stm32f1xx_hal_gpio.o
                                        0x3cb (size before relaxing)
 .debug_str     0x00000000000048f1      0x1f6 build/stm32f1xx_hal_dma.o
                                        0x5c8 (size before relaxing)
 .debug_str     0x0000000000004ae7      0x387 build/stm32f1xx_hal_cortex.o
                                        0x88c (size before relaxing)
 .debug_str     0x0000000000004e6e       0x4a build/system_stm32f1xx.o
                                        0x278 (size before relaxing)
 .debug_str     0x0000000000004eb8      0x15c build/VX_swi2c.o
                                        0xceb (size before relaxing)
 .debug_str     0x0000000000005014     0x766e build/VS4210_param_Modex26.o
                                       0x8128 (size before relaxing)
 .debug_str     0x000000000000c682      0x693 build/VS4210_param_Mode88.o
                                       0x1215 (size before relaxing)
 .debug_str     0x000000000000cd15      0x11d build/VX_OSD.o
                                        0xc6a (size before relaxing)
 .debug_str     0x000000000000ce32      0x9b1 build/VX_OSD_Simple.o
                                       0x18e0 (size before relaxing)
 .debug_str     0x000000000000d7e3      0x7ba build/TP2802.o
                                       0x18d1 (size before relaxing)
 .debug_str     0x000000000000df9d      0x1f4 build/monitor.o
                                       0x131d (size before relaxing)
 .debug_str     0x000000000000e191       0x6c build/Printf.o
                                        0xc3a (size before relaxing)
 .debug_str     0x000000000000e1fd      0x62f build/SysTimer.o
                                       0x147b (size before relaxing)
 .debug_str     0x000000000000e82c        0xf build/exosd.o
                                         0xc3 (size before relaxing)
 .debug_str     0x000000000000e83b       0xac build/TOA_Protocol.o
                                        0xd0d (size before relaxing)
 .debug_str     0x000000000000e8e7       0x6b build/etc_eep.o
                                        0xb9b (size before relaxing)
 .debug_str     0x000000000000e952      0x418 /usr/lib/gcc/arm-none-eabi/4.9.3/../../../arm-none-eabi/lib/armv7-m/libc_nano.a(lib_a-errno.o)
                                        0x523 (size before relaxing)
 .debug_str     0x000000000000ed6a       0xf4 /usr/lib/gcc/arm-none-eabi/4.9.3/../../../arm-none-eabi/lib/armv7-m/libc_nano.a(lib_a-impure.o)
                                        0x57a (size before relaxing)
 .debug_str     0x000000000000ee5e       0xf2 /usr/lib/gcc/arm-none-eabi/4.9.3/../../../arm-none-eabi/lib/armv7-m/libc_nano.a(lib_a-init.o)
                                        0x231 (size before relaxing)
 .debug_str     0x000000000000ef50       0xac /usr/lib/gcc/arm-none-eabi/4.9.3/../../../arm-none-eabi/lib/armv7-m/libc_nano.a(lib_a-memcpy.o)
                                        0x1e6 (size before relaxing)
 .debug_str     0x000000000000effc       0x2e /usr/lib/gcc/arm-none-eabi/4.9.3/../../../arm-none-eabi/lib/armv7-m/libc_nano.a(lib_a-memset.o)
                                        0x1d2 (size before relaxing)
 .debug_str     0x000000000000f02a       0xb4 /usr/lib/gcc/arm-none-eabi/4.9.3/../../../arm-none-eabi/lib/armv7-m/libc_nano.a(lib_a-printf.o)
                                        0x56c (size before relaxing)
 .debug_str     0x000000000000f0de       0x59 /usr/lib/gcc/arm-none-eabi/4.9.3/../../../arm-none-eabi/lib/armv7-m/libc_nano.a(lib_a-puts.o)
                                        0x5a0 (size before relaxing)
 .debug_str     0x000000000000f137       0x3d /usr/lib/gcc/arm-none-eabi/4.9.3/../../../arm-none-eabi/lib/armv7-m/libc_nano.a(lib_a-wbuf.o)
                                        0x59e (size before relaxing)
 .debug_str     0x000000000000f174       0x42 /usr/lib/gcc/arm-none-eabi/4.9.3/../../../arm-none-eabi/lib/armv7-m/libc_nano.a(lib_a-wsetup.o)
                                        0x599 (size before relaxing)
 .debug_str     0x000000000000f1b6       0x5d /usr/lib/gcc/arm-none-eabi/4.9.3/../../../arm-none-eabi/lib/armv7-m/libc_nano.a(lib_a-fflush.o)
                                        0x5da (size before relaxing)
 .debug_str     0x000000000000f213      0x18f /usr/lib/gcc/arm-none-eabi/4.9.3/../../../arm-none-eabi/lib/armv7-m/libc_nano.a(lib_a-findfp.o)
                                        0x726 (size before relaxing)
 .debug_str     0x000000000000f3a2       0x3b /usr/lib/gcc/arm-none-eabi/4.9.3/../../../arm-none-eabi/lib/armv7-m/libc_nano.a(lib_a-fwalk.o)
                                        0x540 (size before relaxing)
 .debug_str     0x000000000000f3dd      0x115 /usr/lib/gcc/arm-none-eabi/4.9.3/../../../arm-none-eabi/lib/armv7-m/libc_nano.a(lib_a-makebuf.o)
                                        0x63d (size before relaxing)
 .debug_str     0x000000000000f4f2       0xfa /usr/lib/gcc/arm-none-eabi/4.9.3/../../../arm-none-eabi/lib/armv7-m/libc_nano.a(lib_a-nano-freer.o)
                                        0x593 (size before relaxing)
 .debug_str     0x000000000000f5ec       0x50 /usr/lib/gcc/arm-none-eabi/4.9.3/../../../arm-none-eabi/lib/armv7-m/libc_nano.a(lib_a-nano-mallocr.o)
                                        0x5c8 (size before relaxing)
 .debug_str     0x000000000000f63c      0x1cb /usr/lib/gcc/arm-none-eabi/4.9.3/../../../arm-none-eabi/lib/armv7-m/libc_nano.a(lib_a-nano-vfprintf.o)
                                        0x710 (size before relaxing)
 .debug_str     0x000000000000f807       0x87 /usr/lib/gcc/arm-none-eabi/4.9.3/../../../arm-none-eabi/lib/armv7-m/libc_nano.a(lib_a-nano-vfprintf_i.o)
                                        0x64b (size before relaxing)
 .debug_str     0x000000000000f88e       0x37 /usr/lib/gcc/arm-none-eabi/4.9.3/../../../arm-none-eabi/lib/armv7-m/libc_nano.a(lib_a-sbrkr.o)
                                        0x532 (size before relaxing)
 .debug_str     0x000000000000f8c5       0x8c /usr/lib/gcc/arm-none-eabi/4.9.3/../../../arm-none-eabi/lib/armv7-m/libc_nano.a(lib_a-stdio.o)
                                        0x596 (size before relaxing)
 .debug_str     0x000000000000f951       0x2d /usr/lib/gcc/arm-none-eabi/4.9.3/../../../arm-none-eabi/lib/armv7-m/libc_nano.a(lib_a-writer.o)
                                        0x52f (size before relaxing)
 .debug_str     0x000000000000f97e       0x2d /usr/lib/gcc/arm-none-eabi/4.9.3/../../../arm-none-eabi/lib/armv7-m/libc_nano.a(lib_a-closer.o)
                                        0x51f (size before relaxing)
 .debug_str     0x000000000000f9ab       0x3a /usr/lib/gcc/arm-none-eabi/4.9.3/../../../arm-none-eabi/lib/armv7-m/libc_nano.a(lib_a-fstatr.o)
                                        0x612 (size before relaxing)
 .debug_str     0x000000000000f9e5       0x36 /usr/lib/gcc/arm-none-eabi/4.9.3/../../../arm-none-eabi/lib/armv7-m/libc_nano.a(lib_a-isattyr.o)
                                        0x529 (size before relaxing)
 .debug_str     0x000000000000fa1b       0x34 /usr/lib/gcc/arm-none-eabi/4.9.3/../../../arm-none-eabi/lib/armv7-m/libc_nano.a(lib_a-lseekr.o)
                                        0x52d (size before relaxing)
 .debug_str     0x000000000000fa4f       0x3e /usr/lib/gcc/arm-none-eabi/4.9.3/../../../arm-none-eabi/lib/armv7-m/libc_nano.a(lib_a-memchr.o)
                                        0x1e2 (size before relaxing)
 .debug_str     0x000000000000fa8d       0x2c /usr/lib/gcc/arm-none-eabi/4.9.3/../../../arm-none-eabi/lib/armv7-m/libc_nano.a(lib_a-readr.o)
                                        0x52d (size before relaxing)
 .debug_str     0x000000000000fab9       0x58 /usr/lib/gcc/arm-none-eabi/4.9.3/../../../arm-none-eabi/lib/armv7-m/libc_nano.a(lib_a-reent.o)
                                        0x55a (size before relaxing)
 .debug_str     0x000000000000fb11      0x103 /usr/lib/gcc/arm-none-eabi/4.9.3/../../../arm-none-eabi/lib/armv7-m/libnosys.a(close.o)
                                        0x1a2 (size before relaxing)
 .debug_str     0x000000000000fc14       0x29 /usr/lib/gcc/arm-none-eabi/4.9.3/../../../arm-none-eabi/lib/armv7-m/libnosys.a(fstat.o)
                                        0x28f (size before relaxing)
 .debug_str     0x000000000000fc3d       0x2a /usr/lib/gcc/arm-none-eabi/4.9.3/../../../arm-none-eabi/lib/armv7-m/libnosys.a(isatty.o)
                                        0x1a2 (size before relaxing)
 .debug_str     0x000000000000fc67       0x29 /usr/lib/gcc/arm-none-eabi/4.9.3/../../../arm-none-eabi/lib/armv7-m/libnosys.a(lseek.o)
                                        0x1a0 (size before relaxing)
 .debug_str     0x000000000000fc90       0x28 /usr/lib/gcc/arm-none-eabi/4.9.3/../../../arm-none-eabi/lib/armv7-m/libnosys.a(read.o)
                                        0x19e (size before relaxing)
 .debug_str     0x000000000000fcb8       0x36 /usr/lib/gcc/arm-none-eabi/4.9.3/../../../arm-none-eabi/lib/armv7-m/libnosys.a(sbrk.o)
                                        0x122 (size before relaxing)
 .debug_str     0x000000000000fcee      0xac7 ./Lib/libite66121dvi.a(hdmitx_sys.o)
                                        0xfe8 (size before relaxing)
 .debug_str     0x00000000000107b5      0x624 ./Lib/libite66121dvi.a(hdmitx_drv.o)
                                       0x1053 (size before relaxing)
 .debug_str     0x0000000000010dd9        0x9 ./Lib/libite66121dvi.a(tx_csc.o)
                                        0x5c8 (size before relaxing)
 .debug_str     0x0000000000010de2      0x6b1 ./Lib/libVS4210.a(VS4210.o)
                                       0x8f0a (size before relaxing)
 .debug_str     0x0000000000011493      0xf44 ./Lib/libit6602.a(it6602.o)
                                       0x1914 (size before relaxing)

.debug_frame    0x0000000000000000     0x4cb8
 .debug_frame   0x0000000000000000      0x440 build/main.o
 .debug_frame   0x0000000000000440      0x11c build/stm32f1xx_it.o
 .debug_frame   0x000000000000055c      0x128 build/stm32f1xx_hal_msp.o
 .debug_frame   0x0000000000000684      0xbd8 build/stm32f1xx_hal_tim.o
 .debug_frame   0x000000000000125c      0x470 build/stm32f1xx_hal_tim_ex.o
 .debug_frame   0x00000000000016cc      0x568 build/stm32f1xx_hal_uart.o
 .debug_frame   0x0000000000001c34      0x1e0 build/stm32f1xx_hal.o
 .debug_frame   0x0000000000001e14      0x1c8 build/stm32f1xx_hal_rcc.o
 .debug_frame   0x0000000000001fdc       0xd4 build/stm32f1xx_hal_gpio.o
 .debug_frame   0x00000000000020b0      0x17c build/stm32f1xx_hal_dma.o
 .debug_frame   0x000000000000222c      0x138 build/stm32f1xx_hal_cortex.o
 .debug_frame   0x0000000000002364       0x30 build/system_stm32f1xx.o
 .debug_frame   0x0000000000002394      0x21c build/VX_swi2c.o
 .debug_frame   0x00000000000025b0      0x144 build/VX_OSD.o
 .debug_frame   0x00000000000026f4      0x1d0 build/VX_OSD_Simple.o
 .debug_frame   0x00000000000028c4      0x4c4 build/TP2802.o
 .debug_frame   0x0000000000002d88      0x288 build/monitor.o
 .debug_frame   0x0000000000003010      0x108 build/Printf.o
 .debug_frame   0x0000000000003118      0x18c build/SysTimer.o
 .debug_frame   0x00000000000032a4       0x2c build/TOA_Protocol.o
 .debug_frame   0x00000000000032d0      0x10c build/etc_eep.o
 .debug_frame   0x00000000000033dc       0x20 /usr/lib/gcc/arm-none-eabi/4.9.3/../../../arm-none-eabi/lib/armv7-m/libc_nano.a(lib_a-errno.o)
 .debug_frame   0x00000000000033fc       0x2c /usr/lib/gcc/arm-none-eabi/4.9.3/../../../arm-none-eabi/lib/armv7-m/libc_nano.a(lib_a-init.o)
 .debug_frame   0x0000000000003428       0x28 /usr/lib/gcc/arm-none-eabi/4.9.3/../../../arm-none-eabi/lib/armv7-m/libc_nano.a(lib_a-memcpy.o)
 .debug_frame   0x0000000000003450       0x20 /usr/lib/gcc/arm-none-eabi/4.9.3/../../../arm-none-eabi/lib/armv7-m/libc_nano.a(lib_a-memset.o)
 .debug_frame   0x0000000000003470       0x74 /usr/lib/gcc/arm-none-eabi/4.9.3/../../../arm-none-eabi/lib/armv7-m/libc_nano.a(lib_a-printf.o)
 .debug_frame   0x00000000000034e4       0x3c /usr/lib/gcc/arm-none-eabi/4.9.3/../../../arm-none-eabi/lib/armv7-m/libc_nano.a(lib_a-puts.o)
 .debug_frame   0x0000000000003520       0x3c /usr/lib/gcc/arm-none-eabi/4.9.3/../../../arm-none-eabi/lib/armv7-m/libc_nano.a(lib_a-wbuf.o)
 .debug_frame   0x000000000000355c       0x2c /usr/lib/gcc/arm-none-eabi/4.9.3/../../../arm-none-eabi/lib/armv7-m/libc_nano.a(lib_a-wsetup.o)
 .debug_frame   0x0000000000003588       0x68 /usr/lib/gcc/arm-none-eabi/4.9.3/../../../arm-none-eabi/lib/armv7-m/libc_nano.a(lib_a-fflush.o)
 .debug_frame   0x00000000000035f0      0x11c /usr/lib/gcc/arm-none-eabi/4.9.3/../../../arm-none-eabi/lib/armv7-m/libc_nano.a(lib_a-findfp.o)
 .debug_frame   0x000000000000370c       0x54 /usr/lib/gcc/arm-none-eabi/4.9.3/../../../arm-none-eabi/lib/armv7-m/libc_nano.a(lib_a-fwalk.o)
 .debug_frame   0x0000000000003760       0x34 /usr/lib/gcc/arm-none-eabi/4.9.3/../../../arm-none-eabi/lib/armv7-m/libc_nano.a(lib_a-makebuf.o)
 .debug_frame   0x0000000000003794       0x2c /usr/lib/gcc/arm-none-eabi/4.9.3/../../../arm-none-eabi/lib/armv7-m/libc_nano.a(lib_a-nano-freer.o)
 .debug_frame   0x00000000000037c0       0x2c /usr/lib/gcc/arm-none-eabi/4.9.3/../../../arm-none-eabi/lib/armv7-m/libc_nano.a(lib_a-nano-mallocr.o)
 .debug_frame   0x00000000000037ec       0xb8 /usr/lib/gcc/arm-none-eabi/4.9.3/../../../arm-none-eabi/lib/armv7-m/libc_nano.a(lib_a-nano-vfprintf.o)
 .debug_frame   0x00000000000038a4       0x58 /usr/lib/gcc/arm-none-eabi/4.9.3/../../../arm-none-eabi/lib/armv7-m/libc_nano.a(lib_a-nano-vfprintf_i.o)
 .debug_frame   0x00000000000038fc       0x2c /usr/lib/gcc/arm-none-eabi/4.9.3/../../../arm-none-eabi/lib/armv7-m/libc_nano.a(lib_a-sbrkr.o)
 .debug_frame   0x0000000000003928       0x88 /usr/lib/gcc/arm-none-eabi/4.9.3/../../../arm-none-eabi/lib/armv7-m/libc_nano.a(lib_a-stdio.o)
 .debug_frame   0x00000000000039b0       0x2c /usr/lib/gcc/arm-none-eabi/4.9.3/../../../arm-none-eabi/lib/armv7-m/libc_nano.a(lib_a-writer.o)
 .debug_frame   0x00000000000039dc       0x2c /usr/lib/gcc/arm-none-eabi/4.9.3/../../../arm-none-eabi/lib/armv7-m/libc_nano.a(lib_a-closer.o)
 .debug_frame   0x0000000000003a08       0x2c /usr/lib/gcc/arm-none-eabi/4.9.3/../../../arm-none-eabi/lib/armv7-m/libc_nano.a(lib_a-fstatr.o)
 .debug_frame   0x0000000000003a34       0x2c /usr/lib/gcc/arm-none-eabi/4.9.3/../../../arm-none-eabi/lib/armv7-m/libc_nano.a(lib_a-isattyr.o)
 .debug_frame   0x0000000000003a60       0x2c /usr/lib/gcc/arm-none-eabi/4.9.3/../../../arm-none-eabi/lib/armv7-m/libc_nano.a(lib_a-lseekr.o)
 .debug_frame   0x0000000000003a8c       0x28 /usr/lib/gcc/arm-none-eabi/4.9.3/../../../arm-none-eabi/lib/armv7-m/libc_nano.a(lib_a-memchr.o)
 .debug_frame   0x0000000000003ab4       0x2c /usr/lib/gcc/arm-none-eabi/4.9.3/../../../arm-none-eabi/lib/armv7-m/libc_nano.a(lib_a-readr.o)
 .debug_frame   0x0000000000003ae0       0x5c /usr/lib/gcc/arm-none-eabi/4.9.3/../../../arm-none-eabi/lib/armv7-m/libc_nano.a(lib_a-reent.o)
 .debug_frame   0x0000000000003b3c       0x20 /usr/lib/gcc/arm-none-eabi/4.9.3/../../../arm-none-eabi/lib/armv7-m/libnosys.a(close.o)
 .debug_frame   0x0000000000003b5c       0x20 /usr/lib/gcc/arm-none-eabi/4.9.3/../../../arm-none-eabi/lib/armv7-m/libnosys.a(fstat.o)
 .debug_frame   0x0000000000003b7c       0x20 /usr/lib/gcc/arm-none-eabi/4.9.3/../../../arm-none-eabi/lib/armv7-m/libnosys.a(isatty.o)
 .debug_frame   0x0000000000003b9c       0x20 /usr/lib/gcc/arm-none-eabi/4.9.3/../../../arm-none-eabi/lib/armv7-m/libnosys.a(lseek.o)
 .debug_frame   0x0000000000003bbc       0x20 /usr/lib/gcc/arm-none-eabi/4.9.3/../../../arm-none-eabi/lib/armv7-m/libnosys.a(read.o)
 .debug_frame   0x0000000000003bdc       0x20 /usr/lib/gcc/arm-none-eabi/4.9.3/../../../arm-none-eabi/lib/armv7-m/libnosys.a(sbrk.o)
 .debug_frame   0x0000000000003bfc      0x164 ./Lib/libite66121dvi.a(hdmitx_sys.o)
 .debug_frame   0x0000000000003d60      0x39c ./Lib/libite66121dvi.a(hdmitx_drv.o)
 .debug_frame   0x00000000000040fc      0x4c4 ./Lib/libVS4210.a(VS4210.o)
 .debug_frame   0x00000000000045c0      0x6b8 ./Lib/libit6602.a(it6602.o)
 .debug_frame   0x0000000000004c78       0x20 /usr/lib/gcc/arm-none-eabi/4.9.3/armv7-m/libgcc.a(_udivsi3.o)
 .debug_frame   0x0000000000004c98       0x20 /usr/lib/gcc/arm-none-eabi/4.9.3/armv7-m/libgcc.a(_divsi3.o)

.stab           0x0000000000000000       0x84
 .stab          0x0000000000000000       0x24 /usr/lib/gcc/arm-none-eabi/4.9.3/../../../arm-none-eabi/lib/armv7-m/libnosys.a(close.o)
 .stab          0x0000000000000024       0x18 /usr/lib/gcc/arm-none-eabi/4.9.3/../../../arm-none-eabi/lib/armv7-m/libnosys.a(fstat.o)
                                         0x24 (size before relaxing)
 .stab          0x000000000000003c       0x18 /usr/lib/gcc/arm-none-eabi/4.9.3/../../../arm-none-eabi/lib/armv7-m/libnosys.a(isatty.o)
                                         0x24 (size before relaxing)
 .stab          0x0000000000000054       0x18 /usr/lib/gcc/arm-none-eabi/4.9.3/../../../arm-none-eabi/lib/armv7-m/libnosys.a(lseek.o)
                                         0x24 (size before relaxing)
 .stab          0x000000000000006c       0x18 /usr/lib/gcc/arm-none-eabi/4.9.3/../../../arm-none-eabi/lib/armv7-m/libnosys.a(read.o)
                                         0x24 (size before relaxing)

.stabstr        0x0000000000000000      0x117
 .stabstr       0x0000000000000000      0x117 /usr/lib/gcc/arm-none-eabi/4.9.3/../../../arm-none-eabi/lib/armv7-m/libnosys.a(close.o)

Cross Reference Table

Symbol                                            File
ACPSTOPCOMMAND                                    build/TP2802.o
ADC1_2_IRQHandler                                 build/startup_stm32f103xb.o
ADC_ConversionStop_Disable                        build/stm32f1xx_hal_adc.o
                                                  build/stm32f1xx_hal_adc_ex.o
ADC_DMAConvCplt                                   build/stm32f1xx_hal_adc.o
                                                  build/stm32f1xx_hal_adc_ex.o
ADC_DMAError                                      build/stm32f1xx_hal_adc.o
                                                  build/stm32f1xx_hal_adc_ex.o
ADC_DMAHalfConvCplt                               build/stm32f1xx_hal_adc.o
                                                  build/stm32f1xx_hal_adc_ex.o
ADC_Enable                                        build/stm32f1xx_hal_adc.o
                                                  build/stm32f1xx_hal_adc_ex.o
AHBPrescTable                                     build/system_stm32f1xx.o
                                                  build/stm32f1xx_hal_rcc.o
AHDBitsReverse                                    build/TP2802.o
AHDcmd1                                           build/TP2802.o
AHDcmd2                                           build/TP2802.o
AHDcmd3                                           build/TP2802.o
AHDcmd4                                           build/TP2802.o
APBPrescTable                                     build/system_stm32f1xx.o
                                                  build/stm32f1xx_hal_rcc.o
AState                                            ./Lib/libit6602.a(it6602.o)
AUDIO_SELECT                                      build/main.o
AccessEnable                                      build/monitor.o
                                                  build/main.o
AdjustAutoDayNight                                build/main.o
Asc1Bin                                           build/monitor.o
Asc2Bin                                           build/monitor.o
AudioDelayCnt                                     ./Lib/libite66121dvi.a(hdmitx_drv.o)
AudioMute                                         build/main.o
Audio_Sel                                         build/main.o
AutoDayNightDelay                                 build/main.o
BOOT_ISSUE                                        build/main.o
                                                  build/SysTimer.o
BatteryBTH                                        build/SysTimer.o
BatteryVoltage                                    build/SysTimer.o
BusFault_Handler                                  build/stm32f1xx_it.o
CA                                                ./Lib/libite66121dvi.a(hdmitx_sys.o)
CAMA_M                                            build/main.o
CAMB_M                                            build/main.o
CAMC_M                                            build/main.o
CAMR_M                                            build/main.o
CAN1_RX1_IRQHandler                               build/startup_stm32f103xb.o
CAN1_SCE_IRQHandler                               build/startup_stm32f103xb.o
CHECK_HDMI720P50                                  build/main.o
CMDCount                                          build/TOA_Protocol.o
COCRX1                                            build/TP2802.o
COCRX2                                            build/TP2802.o
COCRX3                                            build/TP2802.o
COCRX4                                            build/TP2802.o
COCSelectModeType                                 build/TP2802.o
COC_test                                          build/TP2802.o
                                                  build/SysTimer.o
CURRENT_CH                                        build/main.o
                                                  build/TP2802.o
CameraVolt                                        build/SysTimer.o
CheckHDMIRX                                       ./Lib/libit6602.a(it6602.o)
                                                  build/main.o
CheckHDMITX                                       ./Lib/libite66121dvi.a(hdmitx_drv.o)
                                                  ./Lib/libite66121dvi.a(hdmitx_sys.o)
CheckKeyIn                                        build/main.o
CheckSelectInputMode                              build/main.o
CheckTrigger                                      build/main.o
ClearBasicEE                                      build/etc_eep.o
                                                  build/main.o
ClearDisplayedOSD                                 build/VX_OSD.o
Colorimetry                                       ./Lib/libite66121dvi.a(hdmitx_sys.o)
CommunBuff                                        ./Lib/libite66121dvi.a(hdmitx_sys.o)
ConfigAVIInfoFrame                                ./Lib/libite66121dvi.a(hdmitx_sys.o)
ConfigAudioInfoFrm                                ./Lib/libite66121dvi.a(hdmitx_sys.o)
ConvertData                                       build/TP2802.o
CurCH                                             build/TP2802.o
CurRes                                            build/TP2802.o
CurTMDSCLK                                        ./Lib/libit6602.a(it6602.o)
CurVTiming                                        ./Lib/libit6602.a(it6602.o)
DEBUG_MESSAGE                                     build/Printf.o
DMA1_Channel1_IRQHandler                          build/startup_stm32f103xb.o
DMA1_Channel2_IRQHandler                          build/startup_stm32f103xb.o
DMA1_Channel3_IRQHandler                          build/startup_stm32f103xb.o
DMA1_Channel4_IRQHandler                          build/startup_stm32f103xb.o
DMA1_Channel5_IRQHandler                          build/startup_stm32f103xb.o
DMA1_Channel6_IRQHandler                          build/startup_stm32f103xb.o
DMA1_Channel7_IRQHandler                          build/startup_stm32f103xb.o
DVR_buf                                           build/monitor.o
DayNightLevel                                     build/main.o
DebugLevel                                        build/main.o
DebugMon_Handler                                  build/stm32f1xx_it.o
Default_Handler                                   build/startup_stm32f103xb.o
Det_HLock                                         build/TP2802.o
Det_VidRes                                        build/TP2802.o
Det_VideoLoss                                     build/TP2802.o
DisplayedOSD                                      build/VX_OSD.o
DoPrint                                           build/Printf.o
EEPRead                                           ./Lib/libsw_i2c2.a(sw_i2c2.o)
                                                  build/VX_swi2c.o
EEPWrite                                          ./Lib/libsw_i2c2.a(sw_i2c2.o)
                                                  build/VX_swi2c.o
EQ_Detect                                         build/TP2802.o
                                                  build/main.o
EXTI0_IRQHandler                                  build/startup_stm32f103xb.o
EXTI15_10_IRQHandler                              build/startup_stm32f103xb.o
EXTI1_IRQHandler                                  build/startup_stm32f103xb.o
EXTI2_IRQHandler                                  build/stm32f1xx_it.o
EXTI3_IRQHandler                                  build/startup_stm32f103xb.o
EXTI4_IRQHandler                                  build/startup_stm32f103xb.o
EXTI9_5_IRQHandler                                build/startup_stm32f103xb.o
Error_Handler                                     build/main.o
ExOsdContent                                      build/main.o
FLASH_IRQHandler                                  build/startup_stm32f103xb.o
FLASH_PageErase                                   build/stm32f1xx_hal_flash_ex.o
                                                  build/stm32f1xx_hal_flash.o
FLASH_WaitForLastOperation                        build/stm32f1xx_hal_flash.o
                                                  build/stm32f1xx_hal_flash_ex.o
Flisheye_CAM                                      build/TP2802.o
Flisheye_COC                                      build/TP2802.o
Flisheye_VLOSS_Count                              build/TP2802.o
GET_ALC122                                        build/VX_swi2c.o
                                                  build/monitor.o
GET_PCA9554PW                                     build/VX_swi2c.o
GT9147_Scan                                       build/main.o
GetAudioVolEE                                     build/etc_eep.o
GetDebugLevelEE                                   build/etc_eep.o
GetDisplayedOSD                                   build/VX_OSD.o
GetFWRevEE                                        build/etc_eep.o
                                                  build/main.o
GetHDMI_InputMode                                 ./Lib/libit6602.a(it6602.o)
                                                  build/main.o
GetPCAudioVolEE                                   build/etc_eep.o
GetRS232_CMD                                      build/main.o
Get_2824cIrq                                      build/TP2802.o
                                                  build/TOA_Protocol.o
                                                  build/main.o
GraphicsPrint                                     build/Printf.o
                                                  build/TOA_Protocol.o
                                                  build/SysTimer.o
                                                  build/VX_OSD_Simple.o
HAL_ADCEx_Calibration_Start                       build/stm32f1xx_hal_adc_ex.o
HAL_ADCEx_InjectedConfigChannel                   build/stm32f1xx_hal_adc_ex.o
HAL_ADCEx_InjectedConvCpltCallback                build/stm32f1xx_hal_adc_ex.o
                                                  build/stm32f1xx_hal_adc.o
HAL_ADCEx_InjectedGetValue                        build/stm32f1xx_hal_adc_ex.o
HAL_ADCEx_InjectedPollForConversion               build/stm32f1xx_hal_adc_ex.o
HAL_ADCEx_InjectedStart                           build/stm32f1xx_hal_adc_ex.o
HAL_ADCEx_InjectedStart_IT                        build/stm32f1xx_hal_adc_ex.o
HAL_ADCEx_InjectedStop                            build/stm32f1xx_hal_adc_ex.o
HAL_ADCEx_InjectedStop_IT                         build/stm32f1xx_hal_adc_ex.o
HAL_ADCEx_MultiModeConfigChannel                  build/stm32f1xx_hal_adc_ex.o
HAL_ADCEx_MultiModeGetValue                       build/stm32f1xx_hal_adc_ex.o
HAL_ADCEx_MultiModeStart_DMA                      build/stm32f1xx_hal_adc_ex.o
HAL_ADCEx_MultiModeStop_DMA                       build/stm32f1xx_hal_adc_ex.o
HAL_ADC_AnalogWDGConfig                           build/stm32f1xx_hal_adc.o
HAL_ADC_ConfigChannel                             build/stm32f1xx_hal_adc.o
HAL_ADC_ConvCpltCallback                          build/stm32f1xx_hal_adc.o
HAL_ADC_ConvHalfCpltCallback                      build/stm32f1xx_hal_adc.o
HAL_ADC_DeInit                                    build/stm32f1xx_hal_adc.o
HAL_ADC_ErrorCallback                             build/stm32f1xx_hal_adc.o
HAL_ADC_GetError                                  build/stm32f1xx_hal_adc.o
HAL_ADC_GetState                                  build/stm32f1xx_hal_adc.o
HAL_ADC_GetValue                                  build/stm32f1xx_hal_adc.o
HAL_ADC_IRQHandler                                build/stm32f1xx_hal_adc.o
HAL_ADC_Init                                      build/stm32f1xx_hal_adc.o
HAL_ADC_LevelOutOfWindowCallback                  build/stm32f1xx_hal_adc.o
HAL_ADC_MspDeInit                                 build/stm32f1xx_hal_msp.o
HAL_ADC_MspInit                                   build/stm32f1xx_hal_msp.o
HAL_ADC_PollForConversion                         build/stm32f1xx_hal_adc.o
HAL_ADC_PollForEvent                              build/stm32f1xx_hal_adc.o
HAL_ADC_Start                                     build/stm32f1xx_hal_adc.o
HAL_ADC_Start_DMA                                 build/stm32f1xx_hal_adc.o
HAL_ADC_Start_IT                                  build/stm32f1xx_hal_adc.o
HAL_ADC_Stop                                      build/stm32f1xx_hal_adc.o
HAL_ADC_Stop_DMA                                  build/stm32f1xx_hal_adc.o
HAL_ADC_Stop_IT                                   build/stm32f1xx_hal_adc.o
HAL_DBGMCU_DisableDBGSleepMode                    build/stm32f1xx_hal.o
HAL_DBGMCU_DisableDBGStandbyMode                  build/stm32f1xx_hal.o
HAL_DBGMCU_DisableDBGStopMode                     build/stm32f1xx_hal.o
HAL_DBGMCU_EnableDBGSleepMode                     build/stm32f1xx_hal.o
HAL_DBGMCU_EnableDBGStandbyMode                   build/stm32f1xx_hal.o
HAL_DBGMCU_EnableDBGStopMode                      build/stm32f1xx_hal.o
HAL_DMA_Abort                                     build/stm32f1xx_hal_dma.o
                                                  build/stm32f1xx_hal_adc_ex.o
                                                  build/stm32f1xx_hal_adc.o
                                                  build/stm32f1xx_hal_uart.o
HAL_DMA_Abort_IT                                  build/stm32f1xx_hal_dma.o
                                                  build/stm32f1xx_hal_uart.o
                                                  build/stm32f1xx_hal_tim_ex.o
                                                  build/stm32f1xx_hal_tim.o
HAL_DMA_DeInit                                    build/stm32f1xx_hal_dma.o
HAL_DMA_GetError                                  build/stm32f1xx_hal_dma.o
                                                  build/stm32f1xx_hal_uart.o
HAL_DMA_GetState                                  build/stm32f1xx_hal_dma.o
HAL_DMA_IRQHandler                                build/stm32f1xx_hal_dma.o
HAL_DMA_Init                                      build/stm32f1xx_hal_dma.o
HAL_DMA_PollForTransfer                           build/stm32f1xx_hal_dma.o
HAL_DMA_RegisterCallback                          build/stm32f1xx_hal_dma.o
HAL_DMA_Start                                     build/stm32f1xx_hal_dma.o
HAL_DMA_Start_IT                                  build/stm32f1xx_hal_dma.o
                                                  build/stm32f1xx_hal_adc_ex.o
                                                  build/stm32f1xx_hal_adc.o
                                                  build/stm32f1xx_hal_uart.o
                                                  build/stm32f1xx_hal_tim_ex.o
                                                  build/stm32f1xx_hal_tim.o
HAL_DMA_UnRegisterCallback                        build/stm32f1xx_hal_dma.o
HAL_DeInit                                        build/stm32f1xx_hal.o
HAL_Delay                                         build/stm32f1xx_hal.o
                                                  build/TP2802.o
                                                  build/VX_swi2c.o
HAL_EXTI_ClearConfigLine                          build/stm32f1xx_hal_exti.o
HAL_EXTI_ClearPending                             build/stm32f1xx_hal_exti.o
HAL_EXTI_GenerateSWI                              build/stm32f1xx_hal_exti.o
HAL_EXTI_GetConfigLine                            build/stm32f1xx_hal_exti.o
HAL_EXTI_GetHandle                                build/stm32f1xx_hal_exti.o
HAL_EXTI_GetPending                               build/stm32f1xx_hal_exti.o
HAL_EXTI_IRQHandler                               build/stm32f1xx_hal_exti.o
HAL_EXTI_RegisterCallback                         build/stm32f1xx_hal_exti.o
HAL_EXTI_SetConfigLine                            build/stm32f1xx_hal_exti.o
HAL_FLASHEx_Erase                                 build/stm32f1xx_hal_flash_ex.o
HAL_FLASHEx_Erase_IT                              build/stm32f1xx_hal_flash_ex.o
HAL_FLASHEx_OBErase                               build/stm32f1xx_hal_flash_ex.o
HAL_FLASHEx_OBGetConfig                           build/stm32f1xx_hal_flash_ex.o
HAL_FLASHEx_OBGetUserData                         build/stm32f1xx_hal_flash_ex.o
HAL_FLASHEx_OBProgram                             build/stm32f1xx_hal_flash_ex.o
HAL_FLASH_EndOfOperationCallback                  build/stm32f1xx_hal_flash.o
HAL_FLASH_GetError                                build/stm32f1xx_hal_flash.o
HAL_FLASH_IRQHandler                              build/stm32f1xx_hal_flash.o
HAL_FLASH_Lock                                    build/stm32f1xx_hal_flash.o
HAL_FLASH_OB_Launch                               build/stm32f1xx_hal_flash.o
HAL_FLASH_OB_Lock                                 build/stm32f1xx_hal_flash.o
HAL_FLASH_OB_Unlock                               build/stm32f1xx_hal_flash.o
HAL_FLASH_OperationErrorCallback                  build/stm32f1xx_hal_flash.o
HAL_FLASH_Program                                 build/stm32f1xx_hal_flash.o
HAL_FLASH_Program_IT                              build/stm32f1xx_hal_flash.o
HAL_FLASH_Unlock                                  build/stm32f1xx_hal_flash.o
HAL_GPIOEx_ConfigEventout                         build/stm32f1xx_hal_gpio_ex.o
HAL_GPIOEx_DisableEventout                        build/stm32f1xx_hal_gpio_ex.o
HAL_GPIOEx_EnableEventout                         build/stm32f1xx_hal_gpio_ex.o
HAL_GPIO_DeInit                                   build/stm32f1xx_hal_gpio.o
                                                  build/stm32f1xx_hal_msp.o
HAL_GPIO_EXTI_Callback                            build/main.o
HAL_GPIO_EXTI_IRQHandler                          build/stm32f1xx_hal_gpio.o
                                                  build/stm32f1xx_it.o
HAL_GPIO_Init                                     build/stm32f1xx_hal_gpio.o
                                                  ./Lib/libsw_i2c3.a(sw_i2c3.o)
                                                  ./Lib/libsw_i2c2.a(sw_i2c2.o)
                                                  ./Lib/libsw_i2c1.a(sw_i2c1.o)
                                                  ./Lib/libsw_i2c0.a(sw_i2c0.o)
                                                  build/stm32f1xx_hal_rcc.o
                                                  build/stm32f1xx_hal_msp.o
                                                  build/main.o
HAL_GPIO_LockPin                                  build/stm32f1xx_hal_gpio.o
HAL_GPIO_ReadPin                                  build/stm32f1xx_hal_gpio.o
                                                  build/main.o
HAL_GPIO_TogglePin                                build/stm32f1xx_hal_gpio.o
HAL_GPIO_WritePin                                 build/stm32f1xx_hal_gpio.o
                                                  build/SysTimer.o
                                                  build/VX_OSD_Simple.o
                                                  build/main.o
HAL_GetDEVID                                      build/stm32f1xx_hal.o
HAL_GetHalVersion                                 build/stm32f1xx_hal.o
HAL_GetREVID                                      build/stm32f1xx_hal.o
HAL_GetTick                                       build/stm32f1xx_hal.o
                                                  build/stm32f1xx_hal_adc_ex.o
                                                  build/stm32f1xx_hal_adc.o
                                                  build/stm32f1xx_hal_flash.o
                                                  build/stm32f1xx_hal_dma.o
                                                  build/stm32f1xx_hal_rcc_ex.o
                                                  build/stm32f1xx_hal_rcc.o
                                                  build/stm32f1xx_hal_uart.o
HAL_GetTickFreq                                   build/stm32f1xx_hal.o
HAL_GetTickPrio                                   build/stm32f1xx_hal.o
HAL_GetUIDw0                                      build/stm32f1xx_hal.o
HAL_GetUIDw1                                      build/stm32f1xx_hal.o
HAL_GetUIDw2                                      build/stm32f1xx_hal.o
HAL_HalfDuplex_EnableReceiver                     build/stm32f1xx_hal_uart.o
HAL_HalfDuplex_EnableTransmitter                  build/stm32f1xx_hal_uart.o
HAL_HalfDuplex_Init                               build/stm32f1xx_hal_uart.o
HAL_IncTick                                       build/stm32f1xx_hal.o
                                                  build/stm32f1xx_it.o
HAL_Init                                          build/stm32f1xx_hal.o
                                                  build/main.o
HAL_InitTick                                      build/stm32f1xx_hal.o
                                                  build/stm32f1xx_hal_rcc.o
HAL_LIN_Init                                      build/stm32f1xx_hal_uart.o
HAL_LIN_SendBreak                                 build/stm32f1xx_hal_uart.o
HAL_MspDeInit                                     build/stm32f1xx_hal.o
HAL_MspInit                                       build/stm32f1xx_hal_msp.o
HAL_MultiProcessor_EnterMuteMode                  build/stm32f1xx_hal_uart.o
HAL_MultiProcessor_ExitMuteMode                   build/stm32f1xx_hal_uart.o
HAL_MultiProcessor_Init                           build/stm32f1xx_hal_uart.o
HAL_NVIC_ClearPendingIRQ                          build/stm32f1xx_hal_cortex.o
HAL_NVIC_DisableIRQ                               build/stm32f1xx_hal_cortex.o
                                                  build/stm32f1xx_hal_msp.o
HAL_NVIC_EnableIRQ                                build/stm32f1xx_hal_cortex.o
                                                  build/stm32f1xx_hal_msp.o
HAL_NVIC_GetActive                                build/stm32f1xx_hal_cortex.o
HAL_NVIC_GetPendingIRQ                            build/stm32f1xx_hal_cortex.o
HAL_NVIC_GetPriority                              build/stm32f1xx_hal_cortex.o
HAL_NVIC_GetPriorityGrouping                      build/stm32f1xx_hal_cortex.o
HAL_NVIC_SetPendingIRQ                            build/stm32f1xx_hal_cortex.o
HAL_NVIC_SetPriority                              build/stm32f1xx_hal_cortex.o
                                                  build/stm32f1xx_hal.o
                                                  build/stm32f1xx_hal_msp.o
HAL_NVIC_SetPriorityGrouping                      build/stm32f1xx_hal_cortex.o
                                                  build/stm32f1xx_hal.o
HAL_NVIC_SystemReset                              build/stm32f1xx_hal_cortex.o
                                                  build/stm32f1xx_hal_flash.o
HAL_PWR_ConfigPVD                                 build/stm32f1xx_hal_pwr.o
HAL_PWR_DeInit                                    build/stm32f1xx_hal_pwr.o
HAL_PWR_DisableBkUpAccess                         build/stm32f1xx_hal_pwr.o
HAL_PWR_DisablePVD                                build/stm32f1xx_hal_pwr.o
HAL_PWR_DisableSEVOnPend                          build/stm32f1xx_hal_pwr.o
HAL_PWR_DisableSleepOnExit                        build/stm32f1xx_hal_pwr.o
HAL_PWR_DisableWakeUpPin                          build/stm32f1xx_hal_pwr.o
HAL_PWR_EnableBkUpAccess                          build/stm32f1xx_hal_pwr.o
HAL_PWR_EnablePVD                                 build/stm32f1xx_hal_pwr.o
HAL_PWR_EnableSEVOnPend                           build/stm32f1xx_hal_pwr.o
HAL_PWR_EnableSleepOnExit                         build/stm32f1xx_hal_pwr.o
HAL_PWR_EnableWakeUpPin                           build/stm32f1xx_hal_pwr.o
HAL_PWR_EnterSLEEPMode                            build/stm32f1xx_hal_pwr.o
HAL_PWR_EnterSTANDBYMode                          build/stm32f1xx_hal_pwr.o
HAL_PWR_EnterSTOPMode                             build/stm32f1xx_hal_pwr.o
HAL_PWR_PVDCallback                               build/stm32f1xx_hal_pwr.o
HAL_PWR_PVD_IRQHandler                            build/stm32f1xx_hal_pwr.o
HAL_RCCEx_GetPeriphCLKConfig                      build/stm32f1xx_hal_rcc_ex.o
HAL_RCCEx_GetPeriphCLKFreq                        build/stm32f1xx_hal_rcc_ex.o
                                                  build/stm32f1xx_hal_adc_ex.o
                                                  build/stm32f1xx_hal_adc.o
HAL_RCCEx_PeriphCLKConfig                         build/stm32f1xx_hal_rcc_ex.o
HAL_RCC_CSSCallback                               build/stm32f1xx_hal_rcc.o
HAL_RCC_ClockConfig                               build/stm32f1xx_hal_rcc.o
                                                  build/main.o
HAL_RCC_DeInit                                    build/stm32f1xx_hal_rcc.o
HAL_RCC_DisableCSS                                build/stm32f1xx_hal_rcc.o
HAL_RCC_EnableCSS                                 build/stm32f1xx_hal_rcc.o
HAL_RCC_GetClockConfig                            build/stm32f1xx_hal_rcc.o
HAL_RCC_GetHCLKFreq                               build/stm32f1xx_hal_rcc.o
HAL_RCC_GetOscConfig                              build/stm32f1xx_hal_rcc.o
HAL_RCC_GetPCLK1Freq                              build/stm32f1xx_hal_rcc.o
                                                  build/stm32f1xx_hal_uart.o
HAL_RCC_GetPCLK2Freq                              build/stm32f1xx_hal_rcc.o
                                                  build/stm32f1xx_hal_rcc_ex.o
                                                  build/stm32f1xx_hal_uart.o
HAL_RCC_GetSysClockFreq                           build/stm32f1xx_hal_rcc.o
HAL_RCC_MCOConfig                                 build/stm32f1xx_hal_rcc.o
HAL_RCC_NMI_IRQHandler                            build/stm32f1xx_hal_rcc.o
HAL_RCC_OscConfig                                 build/stm32f1xx_hal_rcc.o
                                                  build/main.o
HAL_ResumeTick                                    build/stm32f1xx_hal.o
HAL_SYSTICK_CLKSourceConfig                       build/stm32f1xx_hal_cortex.o
HAL_SYSTICK_Callback                              build/stm32f1xx_hal_cortex.o
HAL_SYSTICK_Config                                build/stm32f1xx_hal_cortex.o
                                                  build/stm32f1xx_hal.o
HAL_SYSTICK_IRQHandler                            build/stm32f1xx_hal_cortex.o
HAL_SetTickFreq                                   build/stm32f1xx_hal.o
HAL_SuspendTick                                   build/stm32f1xx_hal.o
HAL_TIMEx_BreakCallback                           build/stm32f1xx_hal_tim_ex.o
                                                  build/stm32f1xx_hal_tim.o
HAL_TIMEx_CommutCallback                          build/stm32f1xx_hal_tim_ex.o
                                                  build/stm32f1xx_hal_tim.o
HAL_TIMEx_CommutHalfCpltCallback                  build/stm32f1xx_hal_tim_ex.o
HAL_TIMEx_ConfigBreakDeadTime                     build/stm32f1xx_hal_tim_ex.o
HAL_TIMEx_ConfigCommutEvent                       build/stm32f1xx_hal_tim_ex.o
HAL_TIMEx_ConfigCommutEvent_DMA                   build/stm32f1xx_hal_tim_ex.o
HAL_TIMEx_ConfigCommutEvent_IT                    build/stm32f1xx_hal_tim_ex.o
HAL_TIMEx_HallSensor_DeInit                       build/stm32f1xx_hal_tim_ex.o
HAL_TIMEx_HallSensor_GetState                     build/stm32f1xx_hal_tim_ex.o
HAL_TIMEx_HallSensor_Init                         build/stm32f1xx_hal_tim_ex.o
HAL_TIMEx_HallSensor_MspDeInit                    build/stm32f1xx_hal_tim_ex.o
HAL_TIMEx_HallSensor_MspInit                      build/stm32f1xx_hal_tim_ex.o
HAL_TIMEx_HallSensor_Start                        build/stm32f1xx_hal_tim_ex.o
HAL_TIMEx_HallSensor_Start_DMA                    build/stm32f1xx_hal_tim_ex.o
HAL_TIMEx_HallSensor_Start_IT                     build/stm32f1xx_hal_tim_ex.o
HAL_TIMEx_HallSensor_Stop                         build/stm32f1xx_hal_tim_ex.o
HAL_TIMEx_HallSensor_Stop_DMA                     build/stm32f1xx_hal_tim_ex.o
HAL_TIMEx_HallSensor_Stop_IT                      build/stm32f1xx_hal_tim_ex.o
HAL_TIMEx_MasterConfigSynchronization             build/stm32f1xx_hal_tim_ex.o
                                                  build/main.o
HAL_TIMEx_OCN_Start                               build/stm32f1xx_hal_tim_ex.o
HAL_TIMEx_OCN_Start_DMA                           build/stm32f1xx_hal_tim_ex.o
HAL_TIMEx_OCN_Start_IT                            build/stm32f1xx_hal_tim_ex.o
HAL_TIMEx_OCN_Stop                                build/stm32f1xx_hal_tim_ex.o
HAL_TIMEx_OCN_Stop_DMA                            build/stm32f1xx_hal_tim_ex.o
HAL_TIMEx_OCN_Stop_IT                             build/stm32f1xx_hal_tim_ex.o
HAL_TIMEx_OnePulseN_Start                         build/stm32f1xx_hal_tim_ex.o
HAL_TIMEx_OnePulseN_Start_IT                      build/stm32f1xx_hal_tim_ex.o
HAL_TIMEx_OnePulseN_Stop                          build/stm32f1xx_hal_tim_ex.o
HAL_TIMEx_OnePulseN_Stop_IT                       build/stm32f1xx_hal_tim_ex.o
HAL_TIMEx_PWMN_Start                              build/stm32f1xx_hal_tim_ex.o
HAL_TIMEx_PWMN_Start_DMA                          build/stm32f1xx_hal_tim_ex.o
HAL_TIMEx_PWMN_Start_IT                           build/stm32f1xx_hal_tim_ex.o
HAL_TIMEx_PWMN_Stop                               build/stm32f1xx_hal_tim_ex.o
HAL_TIMEx_PWMN_Stop_DMA                           build/stm32f1xx_hal_tim_ex.o
HAL_TIMEx_PWMN_Stop_IT                            build/stm32f1xx_hal_tim_ex.o
HAL_TIMEx_RemapConfig                             build/stm32f1xx_hal_tim_ex.o
HAL_TIM_Base_DeInit                               build/stm32f1xx_hal_tim.o
HAL_TIM_Base_GetState                             build/stm32f1xx_hal_tim.o
HAL_TIM_Base_Init                                 build/stm32f1xx_hal_tim.o
                                                  build/main.o
HAL_TIM_Base_MspDeInit                            build/stm32f1xx_hal_msp.o
HAL_TIM_Base_MspInit                              build/stm32f1xx_hal_msp.o
HAL_TIM_Base_Start                                build/stm32f1xx_hal_tim.o
HAL_TIM_Base_Start_DMA                            build/stm32f1xx_hal_tim.o
HAL_TIM_Base_Start_IT                             build/stm32f1xx_hal_tim.o
                                                  build/main.o
HAL_TIM_Base_Stop                                 build/stm32f1xx_hal_tim.o
HAL_TIM_Base_Stop_DMA                             build/stm32f1xx_hal_tim.o
HAL_TIM_Base_Stop_IT                              build/stm32f1xx_hal_tim.o
HAL_TIM_ConfigClockSource                         build/stm32f1xx_hal_tim.o
                                                  build/main.o
HAL_TIM_ConfigOCrefClear                          build/stm32f1xx_hal_tim.o
HAL_TIM_ConfigTI1Input                            build/stm32f1xx_hal_tim.o
HAL_TIM_DMABurst_ReadStart                        build/stm32f1xx_hal_tim.o
HAL_TIM_DMABurst_ReadStop                         build/stm32f1xx_hal_tim.o
HAL_TIM_DMABurst_WriteStart                       build/stm32f1xx_hal_tim.o
HAL_TIM_DMABurst_WriteStop                        build/stm32f1xx_hal_tim.o
HAL_TIM_Encoder_DeInit                            build/stm32f1xx_hal_tim.o
HAL_TIM_Encoder_GetState                          build/stm32f1xx_hal_tim.o
HAL_TIM_Encoder_Init                              build/stm32f1xx_hal_tim.o
HAL_TIM_Encoder_MspDeInit                         build/stm32f1xx_hal_tim.o
HAL_TIM_Encoder_MspInit                           build/stm32f1xx_hal_tim.o
HAL_TIM_Encoder_Start                             build/stm32f1xx_hal_tim.o
HAL_TIM_Encoder_Start_DMA                         build/stm32f1xx_hal_tim.o
HAL_TIM_Encoder_Start_IT                          build/stm32f1xx_hal_tim.o
HAL_TIM_Encoder_Stop                              build/stm32f1xx_hal_tim.o
HAL_TIM_Encoder_Stop_DMA                          build/stm32f1xx_hal_tim.o
HAL_TIM_Encoder_Stop_IT                           build/stm32f1xx_hal_tim.o
HAL_TIM_ErrorCallback                             build/stm32f1xx_hal_tim.o
HAL_TIM_GenerateEvent                             build/stm32f1xx_hal_tim.o
HAL_TIM_IC_CaptureCallback                        build/stm32f1xx_hal_tim.o
HAL_TIM_IC_CaptureHalfCpltCallback                build/stm32f1xx_hal_tim.o
HAL_TIM_IC_ConfigChannel                          build/stm32f1xx_hal_tim.o
HAL_TIM_IC_DeInit                                 build/stm32f1xx_hal_tim.o
HAL_TIM_IC_GetState                               build/stm32f1xx_hal_tim.o
HAL_TIM_IC_Init                                   build/stm32f1xx_hal_tim.o
HAL_TIM_IC_MspDeInit                              build/stm32f1xx_hal_tim.o
HAL_TIM_IC_MspInit                                build/stm32f1xx_hal_tim.o
HAL_TIM_IC_Start                                  build/stm32f1xx_hal_tim.o
HAL_TIM_IC_Start_DMA                              build/stm32f1xx_hal_tim.o
HAL_TIM_IC_Start_IT                               build/stm32f1xx_hal_tim.o
HAL_TIM_IC_Stop                                   build/stm32f1xx_hal_tim.o
HAL_TIM_IC_Stop_DMA                               build/stm32f1xx_hal_tim.o
HAL_TIM_IC_Stop_IT                                build/stm32f1xx_hal_tim.o
HAL_TIM_IRQHandler                                build/stm32f1xx_hal_tim.o
                                                  build/stm32f1xx_it.o
HAL_TIM_MspPostInit                               build/stm32f1xx_hal_msp.o
HAL_TIM_OC_ConfigChannel                          build/stm32f1xx_hal_tim.o
HAL_TIM_OC_DeInit                                 build/stm32f1xx_hal_tim.o
HAL_TIM_OC_DelayElapsedCallback                   build/stm32f1xx_hal_tim.o
HAL_TIM_OC_GetState                               build/stm32f1xx_hal_tim.o
HAL_TIM_OC_Init                                   build/stm32f1xx_hal_tim.o
HAL_TIM_OC_MspDeInit                              build/stm32f1xx_hal_tim.o
HAL_TIM_OC_MspInit                                build/stm32f1xx_hal_tim.o
HAL_TIM_OC_Start                                  build/stm32f1xx_hal_tim.o
HAL_TIM_OC_Start_DMA                              build/stm32f1xx_hal_tim.o
HAL_TIM_OC_Start_IT                               build/stm32f1xx_hal_tim.o
HAL_TIM_OC_Stop                                   build/stm32f1xx_hal_tim.o
HAL_TIM_OC_Stop_DMA                               build/stm32f1xx_hal_tim.o
HAL_TIM_OC_Stop_IT                                build/stm32f1xx_hal_tim.o
HAL_TIM_OnePulse_ConfigChannel                    build/stm32f1xx_hal_tim.o
HAL_TIM_OnePulse_DeInit                           build/stm32f1xx_hal_tim.o
HAL_TIM_OnePulse_GetState                         build/stm32f1xx_hal_tim.o
HAL_TIM_OnePulse_Init                             build/stm32f1xx_hal_tim.o
HAL_TIM_OnePulse_MspDeInit                        build/stm32f1xx_hal_tim.o
HAL_TIM_OnePulse_MspInit                          build/stm32f1xx_hal_tim.o
HAL_TIM_OnePulse_Start                            build/stm32f1xx_hal_tim.o
HAL_TIM_OnePulse_Start_IT                         build/stm32f1xx_hal_tim.o
HAL_TIM_OnePulse_Stop                             build/stm32f1xx_hal_tim.o
HAL_TIM_OnePulse_Stop_IT                          build/stm32f1xx_hal_tim.o
HAL_TIM_PWM_ConfigChannel                         build/stm32f1xx_hal_tim.o
                                                  build/main.o
HAL_TIM_PWM_DeInit                                build/stm32f1xx_hal_tim.o
HAL_TIM_PWM_GetState                              build/stm32f1xx_hal_tim.o
HAL_TIM_PWM_Init                                  build/stm32f1xx_hal_tim.o
HAL_TIM_PWM_MspDeInit                             build/stm32f1xx_hal_msp.o
HAL_TIM_PWM_MspInit                               build/stm32f1xx_hal_msp.o
HAL_TIM_PWM_PulseFinishedCallback                 build/stm32f1xx_hal_tim.o
HAL_TIM_PWM_PulseFinishedHalfCpltCallback         build/stm32f1xx_hal_tim.o
HAL_TIM_PWM_Start                                 build/stm32f1xx_hal_tim.o
                                                  build/main.o
HAL_TIM_PWM_Start_DMA                             build/stm32f1xx_hal_tim.o
HAL_TIM_PWM_Start_IT                              build/stm32f1xx_hal_tim.o
HAL_TIM_PWM_Stop                                  build/stm32f1xx_hal_tim.o
HAL_TIM_PWM_Stop_DMA                              build/stm32f1xx_hal_tim.o
HAL_TIM_PWM_Stop_IT                               build/stm32f1xx_hal_tim.o
HAL_TIM_PeriodElapsedCallback                     build/main.o
HAL_TIM_PeriodElapsedHalfCpltCallback             build/stm32f1xx_hal_tim.o
HAL_TIM_ReadCapturedValue                         build/stm32f1xx_hal_tim.o
HAL_TIM_SlaveConfigSynchro                        build/stm32f1xx_hal_tim.o
HAL_TIM_SlaveConfigSynchro_IT                     build/stm32f1xx_hal_tim.o
HAL_TIM_TriggerCallback                           build/stm32f1xx_hal_tim.o
HAL_TIM_TriggerHalfCpltCallback                   build/stm32f1xx_hal_tim.o
HAL_UART_Abort                                    build/stm32f1xx_hal_uart.o
HAL_UART_AbortCpltCallback                        build/stm32f1xx_hal_uart.o
HAL_UART_AbortReceive                             build/stm32f1xx_hal_uart.o
HAL_UART_AbortReceiveCpltCallback                 build/stm32f1xx_hal_uart.o
HAL_UART_AbortReceive_IT                          build/stm32f1xx_hal_uart.o
HAL_UART_AbortTransmit                            build/stm32f1xx_hal_uart.o
HAL_UART_AbortTransmitCpltCallback                build/stm32f1xx_hal_uart.o
HAL_UART_AbortTransmit_IT                         build/stm32f1xx_hal_uart.o
HAL_UART_Abort_IT                                 build/stm32f1xx_hal_uart.o
HAL_UART_DMAPause                                 build/stm32f1xx_hal_uart.o
HAL_UART_DMAResume                                build/stm32f1xx_hal_uart.o
HAL_UART_DMAStop                                  build/stm32f1xx_hal_uart.o
HAL_UART_DeInit                                   build/stm32f1xx_hal_uart.o
HAL_UART_ErrorCallback                            build/stm32f1xx_hal_uart.o
HAL_UART_GetError                                 build/stm32f1xx_hal_uart.o
HAL_UART_GetState                                 build/stm32f1xx_hal_uart.o
HAL_UART_IRQHandler                               build/stm32f1xx_hal_uart.o
                                                  build/stm32f1xx_it.o
HAL_UART_Init                                     build/stm32f1xx_hal_uart.o
                                                  build/main.o
HAL_UART_MspDeInit                                build/stm32f1xx_hal_msp.o
HAL_UART_MspInit                                  build/stm32f1xx_hal_msp.o
HAL_UART_Receive                                  build/stm32f1xx_hal_uart.o
HAL_UART_Receive_DMA                              build/stm32f1xx_hal_uart.o
HAL_UART_Receive_IT                               build/stm32f1xx_hal_uart.o
                                                  build/main.o
HAL_UART_RxCpltCallback                           build/main.o
HAL_UART_RxHalfCpltCallback                       build/stm32f1xx_hal_uart.o
HAL_UART_Transmit                                 build/stm32f1xx_hal_uart.o
                                                  build/monitor.o
                                                  build/main.o
HAL_UART_Transmit_DMA                             build/stm32f1xx_hal_uart.o
HAL_UART_Transmit_IT                              build/stm32f1xx_hal_uart.o
HAL_UART_TxCpltCallback                           build/stm32f1xx_hal_uart.o
HAL_UART_TxHalfCpltCallback                       build/stm32f1xx_hal_uart.o
HDA_SetACPV2Data                                  build/TP2802.o
HDA_SetData                                       build/TP2802.o
HDC_SetData                                       build/TP2802.o
HDMIRX_ReadI2C_Byte                               ./Lib/libsw_i2c0.a(sw_i2c0.o)
                                                  ./Lib/libit6602.a(it6602.o)
                                                  build/monitor.o
                                                  build/main.o
HDMIRX_WriteI2C_Byte                              ./Lib/libsw_i2c0.a(sw_i2c0.o)
                                                  ./Lib/libit6602.a(it6602.o)
                                                  build/monitor.o
                                                  build/main.o
HDMIRX_WriteI2C_ByteN                             ./Lib/libsw_i2c0.a(sw_i2c0.o)
                                                  ./Lib/libit6602.a(it6602.o)
HDMITX_AUD_I2S_2ch_24bit                          ./Lib/libite66121dvi.a(hdmitx_drv.o)
HDMITX_AUD_SPDIF_2ch_24bit                        ./Lib/libite66121dvi.a(hdmitx_drv.o)
HDMITX_Aud_CHStatus_LPCM_20bit_48Khz              ./Lib/libite66121dvi.a(hdmitx_drv.o)
HDMITX_ChangeDisplayOption                        ./Lib/libite66121dvi.a(hdmitx_sys.o)
HDMITX_DeaultAudioInfo_Table                      ./Lib/libite66121dvi.a(hdmitx_drv.o)
HDMITX_DefaultAVIInfo_Table                       ./Lib/libite66121dvi.a(hdmitx_drv.o)
HDMITX_DefaultAudio_Table                         ./Lib/libite66121dvi.a(hdmitx_drv.o)
HDMITX_DefaultVideo_Table                         ./Lib/libite66121dvi.a(hdmitx_drv.o)
HDMITX_DevLoopProc                                ./Lib/libite66121dvi.a(hdmitx_sys.o)
                                                  build/main.o
HDMITX_DisableAudioOutput                         ./Lib/libite66121dvi.a(hdmitx_drv.o)
                                                  ./Lib/libite66121dvi.a(hdmitx_sys.o)
HDMITX_DisableVideoOutput                         ./Lib/libite66121dvi.a(hdmitx_drv.o)
                                                  ./Lib/libite66121dvi.a(hdmitx_sys.o)
HDMITX_EnableAVIInfoFrame                         ./Lib/libite66121dvi.a(hdmitx_drv.o)
                                                  ./Lib/libite66121dvi.a(hdmitx_sys.o)
HDMITX_EnableAudioInfoFrame                       ./Lib/libite66121dvi.a(hdmitx_drv.o)
                                                  ./Lib/libite66121dvi.a(hdmitx_sys.o)
HDMITX_EnableAudioOutput                          ./Lib/libite66121dvi.a(hdmitx_drv.o)
                                                  ./Lib/libite66121dvi.a(hdmitx_sys.o)
HDMITX_EnableVSInfoFrame                          ./Lib/libite66121dvi.a(hdmitx_drv.o)
                                                  ./Lib/libite66121dvi.a(hdmitx_sys.o)
HDMITX_EnableVideoOutput                          ./Lib/libite66121dvi.a(hdmitx_drv.o)
                                                  ./Lib/libite66121dvi.a(hdmitx_sys.o)
HDMITX_InitTxDev                                  ./Lib/libite66121dvi.a(hdmitx_drv.o)
                                                  ./Lib/libite66121dvi.a(hdmitx_sys.o)
HDMITX_Init_Table                                 ./Lib/libite66121dvi.a(hdmitx_drv.o)
HDMITX_PowerDown                                  ./Lib/libite66121dvi.a(hdmitx_drv.o)
                                                  ./Lib/libite66121dvi.a(hdmitx_sys.o)
HDMITX_PowerOn                                    ./Lib/libite66121dvi.a(hdmitx_drv.o)
                                                  ./Lib/libite66121dvi.a(hdmitx_sys.o)
HDMITX_PwrDown_Table                              ./Lib/libite66121dvi.a(hdmitx_drv.o)
HDMITX_PwrOn_Table                                ./Lib/libite66121dvi.a(hdmitx_drv.o)
HDMITX_ReadI2C_Byte                               ./Lib/libsw_i2c0.a(sw_i2c0.o)
                                                  ./Lib/libite66121dvi.a(hdmitx_drv.o)
                                                  ./Lib/libite66121dvi.a(hdmitx_sys.o)
HDMITX_ReadI2C_ByteN                              ./Lib/libsw_i2c0.a(sw_i2c0.o)
HDMITX_SetAudioOutput                             ./Lib/libite66121dvi.a(hdmitx_sys.o)
HDMITX_SetDVI_Table                               ./Lib/libite66121dvi.a(hdmitx_drv.o)
HDMITX_SetHDMI_Table                              ./Lib/libite66121dvi.a(hdmitx_drv.o)
HDMITX_SetI2C_Byte                                ./Lib/libsw_i2c0.a(sw_i2c0.o)
                                                  ./Lib/libite66121dvi.a(hdmitx_drv.o)
HDMITX_SetOutput                                  ./Lib/libite66121dvi.a(hdmitx_sys.o)
HDMITX_WriteI2C_Byte                              ./Lib/libsw_i2c0.a(sw_i2c0.o)
                                                  ./Lib/libite66121dvi.a(hdmitx_drv.o)
                                                  ./Lib/libite66121dvi.a(hdmitx_sys.o)
HDMI_Tx_Init                                      ./Lib/libite66121dvi.a(hdmitx_sys.o)
HDMI_Tx_SetAudioFs                                ./Lib/libite66121dvi.a(hdmitx_sys.o)
                                                  build/main.o
HDMI_Tx_SetAudioMute                              ./Lib/libite66121dvi.a(hdmitx_sys.o)
HPDChangeStatus                                   ./Lib/libite66121dvi.a(hdmitx_sys.o)
HPDStatus                                         ./Lib/libite66121dvi.a(hdmitx_sys.o)
HS_Select_Win                                     build/main.o
                                                  build/monitor.o
                                                  build/TP2802.o
HardFault_Handler                                 build/stm32f1xx_it.o
HdmiI2cAddr                                       ./Lib/libit6602.a(it6602.o)
Hex                                               build/Printf.o
I2C0_Read                                         ./Lib/libsw_i2c0.a(sw_i2c0.o)
I2C0_Write                                        ./Lib/libsw_i2c0.a(sw_i2c0.o)
I2C0_WriteNByte                                   ./Lib/libsw_i2c0.a(sw_i2c0.o)
I2C0_nRead                                        ./Lib/libsw_i2c0.a(sw_i2c0.o)
I2C1_ER_IRQHandler                                build/startup_stm32f103xb.o
I2C1_EV_IRQHandler                                build/startup_stm32f103xb.o
I2C2_ER_IRQHandler                                build/startup_stm32f103xb.o
I2C2_EV_IRQHandler                                build/startup_stm32f103xb.o
I2C3_Read                                         ./Lib/libsw_i2c3.a(sw_i2c3.o)
I2C3_Write                                        ./Lib/libsw_i2c3.a(sw_i2c3.o)
I2C3_WriteNByte                                   ./Lib/libsw_i2c3.a(sw_i2c3.o)
I2C3_nRead                                        ./Lib/libsw_i2c3.a(sw_i2c3.o)
I2C4_nRead                                        ./Lib/libsw_i2c3.a(sw_i2c3.o)
I2CDeviceSet1                                     build/TP2802.o
I2CDeviceSet2                                     build/TP2802.o
I2CMultiAttribute                                 build/VX_swi2c.o
                                                  build/VX_OSD.o
I2CMultiWrite                                     build/VX_swi2c.o
                                                  build/VX_OSD_Simple.o
                                                  build/VX_OSD.o
I2CReStart                                        ./Lib/libsw_i2c2.a(sw_i2c2.o)
I2CReStart2                                       ./Lib/libsw_i2c2.a(sw_i2c2.o)
I2CReStart3                                       ./Lib/libsw_i2c3.a(sw_i2c3.o)
I2CReadData                                       ./Lib/libsw_i2c2.a(sw_i2c2.o)
I2CReadData2                                      ./Lib/libsw_i2c2.a(sw_i2c2.o)
I2CReadData3                                      ./Lib/libsw_i2c2.a(sw_i2c2.o)
I2CReadData5                                      ./Lib/libsw_i2c3.a(sw_i2c3.o)
I2CStart                                          ./Lib/libsw_i2c2.a(sw_i2c2.o)
I2CStart2                                         ./Lib/libsw_i2c2.a(sw_i2c2.o)
I2CStart3                                         ./Lib/libsw_i2c3.a(sw_i2c3.o)
I2CStop                                           ./Lib/libsw_i2c2.a(sw_i2c2.o)
I2CStop2                                          ./Lib/libsw_i2c2.a(sw_i2c2.o)
I2CStop3                                          ./Lib/libsw_i2c3.a(sw_i2c3.o)
I2CWriteData                                      ./Lib/libsw_i2c2.a(sw_i2c2.o)
I2CWriteData2                                     ./Lib/libsw_i2c2.a(sw_i2c2.o)
I2CWriteData3                                     ./Lib/libsw_i2c2.a(sw_i2c2.o)
I2CWriteData4                                     ./Lib/libsw_i2c2.a(sw_i2c2.o)
I2CWriteData5                                     ./Lib/libsw_i2c3.a(sw_i2c3.o)
I2CWriteData6                                     ./Lib/libsw_i2c3.a(sw_i2c3.o)
I2Cdelay                                          ./Lib/libsw_i2c2.a(sw_i2c2.o)
I2Cdelay2                                         ./Lib/libsw_i2c2.a(sw_i2c2.o)
I2Cdelay3                                         ./Lib/libsw_i2c3.a(sw_i2c3.o)
INPUT_VIDEO_CHECK                                 build/TP2802.o
IT6602_fsm                                        ./Lib/libit6602.a(it6602.o)
IT6602_fsm_init                                   ./Lib/libit6602.a(it6602.o)
InColorMode                                       ./Lib/libit6602.a(it6602.o)
InitHDMIRX                                        ./Lib/libit6602.a(it6602.o)
                                                  build/main.o
InitHDMITX                                        ./Lib/libite66121dvi.a(hdmitx_drv.o)
                                                  ./Lib/libite66121dvi.a(hdmitx_sys.o)
InitHDMITX_Variable                               ./Lib/libite66121dvi.a(hdmitx_sys.o)
Init_COC_PTZOUT1                                  build/TP2802.o
Init_TP280x_RegSet                                build/TP2802.o
                                                  build/monitor.o
                                                  build/main.o
InitialTimerEvent                                 build/main.o
InstanceData                                      ./Lib/libite66121dvi.a(hdmitx_sys.o)
LCDPowerOFF                                       build/main.o
LCDPowerON                                        build/main.o
LastRefaudfreqnum                                 ./Lib/libite66121dvi.a(hdmitx_drv.o)
LightSensor_ADC                                   build/main.o
LoadEEPROM                                        build/main.o
MCUTimerActiveTimerEvent                          build/SysTimer.o
                                                  build/TP2802.o
                                                  build/main.o
MCUTimerCancelTimerEvent                          build/SysTimer.o
                                                  build/main.o
MCUTimerCheckEventValid                           build/SysTimer.o
MCUTimerCheckTimerEvent                           build/SysTimer.o
MCUTimerClrEventValid                             build/SysTimer.o
MCUTimerDelayXms                                  build/SysTimer.o
MCUTimerEventProc                                 build/SysTimer.o
MCUTimerGetEventID                                build/SysTimer.o
MCUTimerGetEventTime                              build/SysTimer.o
MCUTimerGetTimerCounter                           build/SysTimer.o
MCUTimerInitialTimerEvent                         build/SysTimer.o
                                                  build/main.o
MCUTimerReactiveTimerEvent                        build/SysTimer.o
                                                  build/monitor.o
ManVidRes                                         build/main.o
ManVidResRx                                       build/TP2802.o
ManualAGC                                         build/TP2802.o
MemManage_Handler                                 build/stm32f1xx_it.o
MenuOSDonFlg                                      build/VX_OSD_Simple.o
Mode0_1080P_param                                 build/VX_OSD_Simple.o
Mode0_720P_param                                  build/VX_OSD_Simple.o
Mode12_w0_1080P_param                             build/VX_OSD_Simple.o
Mode12_w0_720P_param                              build/VX_OSD_Simple.o
Mode12_w1_1080P_param                             build/VX_OSD_Simple.o
Mode12_w1_720P_param                              build/VX_OSD_Simple.o
Mode13_w0_1080P_param                             build/VX_OSD_Simple.o
Mode13_w0_720P_param                              build/VX_OSD_Simple.o
Mode13_w1_1080P_param                             build/VX_OSD_Simple.o
Mode13_w1_720P_param                              build/VX_OSD_Simple.o
Mode1_w0_1080P_param                              build/VX_OSD_Simple.o
Mode1_w0_720P_param                               build/VX_OSD_Simple.o
Mode1_w1_1080P_param                              build/VX_OSD_Simple.o
Mode1_w1_720P_param                               build/VX_OSD_Simple.o
Mode1_w2_1080P_param                              build/VX_OSD_Simple.o
Mode1_w2_720P_param                               build/VX_OSD_Simple.o
Mode1_w3_1080P_param                              build/VX_OSD_Simple.o
Mode1_w3_720P_param                               build/VX_OSD_Simple.o
Mode24_w0_1080P_param                             build/VX_OSD_Simple.o
Mode24_w0_720P_param                              build/VX_OSD_Simple.o
Mode24_w1_1080P_param                             build/VX_OSD_Simple.o
Mode24_w1_720P_param                              build/VX_OSD_Simple.o
Mode2_w0_1080P_param                              build/VX_OSD_Simple.o
Mode2_w0_720P_param                               build/VX_OSD_Simple.o
Mode2_w1_1080P_param                              build/VX_OSD_Simple.o
Mode2_w1_720P_param                               build/VX_OSD_Simple.o
Mode2_w2_1080P_param                              build/VX_OSD_Simple.o
Mode2_w2_720P_param                               build/VX_OSD_Simple.o
Mode2_w3_1080P_param                              build/VX_OSD_Simple.o
Mode2_w3_720P_param                               build/VX_OSD_Simple.o
Mode6_w0_1080P_param                              build/VX_OSD_Simple.o
Mode6_w0_720P_param                               build/VX_OSD_Simple.o
Mode6_w1_1080P_param                              build/VX_OSD_Simple.o
Mode6_w1_720P_param                               build/VX_OSD_Simple.o
Mode6_w2_1080P_param                              build/VX_OSD_Simple.o
Mode6_w2_720P_param                               build/VX_OSD_Simple.o
Mode6_w3_1080P_param                              build/VX_OSD_Simple.o
Mode6_w3_720P_param                               build/VX_OSD_Simple.o
MonAddress                                        build/monitor.o
MonDumpI2C                                        build/monitor.o
MonGetCommand                                     build/monitor.o
MonHelp                                           build/monitor.o
MonIncDecI2C                                      build/monitor.o
MonIndex                                          build/monitor.o
MonNewDumpI2C                                     build/monitor.o
MonNewReadI2C                                     build/monitor.o
MonNewWriteI2C                                    build/monitor.o
MonRdata                                          build/monitor.o
MonReadI2C                                        build/monitor.o
MonTxDump                                         build/monitor.o
MonWdata                                          build/monitor.o
MonWriteBit                                       build/monitor.o
MonWriteI2C                                       build/monitor.o
Mon_tx                                            build/monitor.o
Monitor                                           build/monitor.o
                                                  build/main.o
Monitor_I2C                                       build/monitor.o
Monitor_flag                                      build/monitor.o
                                                  build/Printf.o
NMI_Handler                                       build/stm32f1xx_it.o
OSDPreSecCount                                    build/main.o
OSDSecCount                                       build/main.o
OSDStateFlg                                       build/main.o
OSD_1024X768P_param                               build/VX_OSD_Simple.o
OSD_1280X1024P_param                              build/VX_OSD_Simple.o
OSD_1280X768P_param                               build/VX_OSD_Simple.o
OSD_1280X800P_param                               build/VX_OSD_Simple.o
OSD_1280x720P_param                               build/VX_OSD_Simple.o
OSD_1360X768P_param                               build/VX_OSD_Simple.o
OSD_1366X768P_param                               build/VX_OSD_Simple.o
OSD_1400X1050P_param                              build/VX_OSD_Simple.o
OSD_1440X900P_param                               build/VX_OSD_Simple.o
OSD_1600X1200P_param                              build/VX_OSD_Simple.o
OSD_1680X1050P_param                              build/VX_OSD_Simple.o
OSD_1920X1200P_param                              build/VX_OSD_Simple.o
OSD_1920x1080I_param                              build/VX_OSD_Simple.o
OSD_1920x1080P_param                              build/VX_OSD_Simple.o
OSD_640X480P_param                                build/VX_OSD_Simple.o
OSD_720x480I60_param                              build/VX_OSD_Simple.o
OSD_720x480P60_param                              build/VX_OSD_Simple.o
OSD_720x576I50_param                              build/VX_OSD_Simple.o
OSD_720x576P50_param                              build/VX_OSD_Simple.o
OSD_800X600P_param                                build/VX_OSD_Simple.o
OSD_CH0_param                                     build/VX_OSD_Simple.o
OSD_CH1_param                                     build/VX_OSD_Simple.o
OSD_CH2_param                                     build/VX_OSD_Simple.o
OSD_CH3_param                                     build/VX_OSD_Simple.o
OSD_Clear                                         build/VX_OSD_Simple.o
                                                  ./Lib/libVS4210.a(VS4210.o)
OSD_Clear_234                                     build/VX_OSD_Simple.o
                                                  ./Lib/libVS4210.a(VS4210.o)
OSD_Clear_34                                      build/VX_OSD_Simple.o
                                                  ./Lib/libVS4210.a(VS4210.o)
OSD_Clear_4                                       build/VX_OSD_Simple.o
                                                  ./Lib/libVS4210.a(VS4210.o)
OSD_Clear_All                                     build/VX_OSD_Simple.o
                                                  ./Lib/libVS4210.a(VS4210.o)
                                                  build/main.o
OSD_MIRROR                                        build/main.o
OSD_No_Signal_param                               build/VX_OSD_Simple.o
OSD_SPEAKER                                       build/main.o
OSD_Show_Flg                                      build/main.o
OSDx2Flg                                          build/VX_OSD_Simple.o
OsdDumpAttribute                                  build/VX_OSD.o
                                                  build/VX_OSD_Simple.o
OsdDumpString                                     build/VX_OSD.o
                                                  build/VX_OSD_Simple.o
OutCD                                             ./Lib/libit6602.a(it6602.o)
OutColorMode                                      ./Lib/libit6602.a(it6602.o)
OutputColorDepth                                  ./Lib/libite66121dvi.a(hdmitx_sys.o)
PSW_Flag                                          build/SysTimer.o
PTZ_buf                                           build/TP2802.o
PTZ_pelco                                         build/TP2802.o
PVD_IRQHandler                                    build/startup_stm32f103xb.o
PWMLevel                                          build/main.o
ParseEDID                                         ./Lib/libite66121dvi.a(hdmitx_sys.o)
PendSV_Handler                                    build/stm32f1xx_it.o
PowerFlag                                         build/main.o
PowerLED                                          build/SysTimer.o
                                                  build/main.o
PreCOCSelectModeType                              build/TP2802.o
PreMode0inputmode                                 ./Lib/libVS4210.a(VS4210.o)
PreVState                                         ./Lib/libit6602.a(it6602.o)
                                                  build/main.o
PreVXIS_FULLOuputModeflg                          ./Lib/libVS4210.a(VS4210.o)
PrebVXIS_InputMode                                build/main.o
Printf                                            build/Printf.o
                                                  build/etc_eep.o
                                                  build/TOA_Protocol.o
                                                  build/SysTimer.o
                                                  build/monitor.o
                                                  build/TP2802.o
                                                  build/main.o
Priority                                          build/main.o
                                                  build/etc_eep.o
Prompt                                            build/monitor.o
PtzTxChNum                                        build/TP2802.o
                                                  build/TOA_Protocol.o
Puts                                              build/Printf.o
QuadBoxId                                         build/TP2802.o
QuadBoxMode                                       build/TP2802.o
RCC_IRQHandler                                    build/startup_stm32f103xb.o
REG_F6                                            build/TP2802.o
REG_F7                                            build/TP2802.o
REG_FA                                            build/TP2802.o
RS2_Xbusy                                         build/monitor.o
RS2_buf                                           build/monitor.o
                                                  build/main.o
RS2_in                                            build/monitor.o
                                                  build/main.o
RS2_out                                           build/monitor.o
RS2_ready                                         build/monitor.o
                                                  build/TOA_Protocol.o
                                                  build/main.o
RS2_rx                                            build/monitor.o
                                                  build/TOA_Protocol.o
RS2_tx                                            build/monitor.o
                                                  build/TOA_Protocol.o
RS_Xbusy                                          build/monitor.o
RS_buf                                            build/monitor.o
                                                  build/main.o
RS_in                                             build/monitor.o
                                                  build/main.o
RS_out                                            build/monitor.o
RS_ready                                          build/monitor.o
                                                  build/main.o
RS_rx                                             build/monitor.o
RS_tx                                             build/monitor.o
                                                  build/Printf.o
RTC_Alarm_IRQHandler                              build/startup_stm32f103xb.o
RTC_IRQHandler                                    build/startup_stm32f103xb.o
ReadEEP                                           build/VX_swi2c.o
                                                  build/etc_eep.o
                                                  build/monitor.o
ReadGain                                          build/TP2802.o
ReadI2C                                           ./Lib/libsw_i2c2.a(sw_i2c2.o)
                                                  build/VX_swi2c.o
ReadI2C2                                          ./Lib/libsw_i2c2.a(sw_i2c2.o)
ReadI2C3                                          ./Lib/libsw_i2c2.a(sw_i2c2.o)
                                                  build/VX_swi2c.o
ResetOSDValue                                     build/etc_eep.o
Reset_Handler                                     build/startup_stm32f103xb.o
SET_AHD_MDOE                                      build/main.o
SET_AHD_SYNC_PARA                                 build/monitor.o
                                                  build/SysTimer.o
SET_ALC122                                        build/VX_swi2c.o
                                                  build/monitor.o
SET_Audio_Mute                                    build/main.o
SET_HDMI_640_480P_PARA                            build/monitor.o
SET_HDMI_SYNC_PARA                                build/monitor.o
                                                  build/SysTimer.o
SET_PCA9554PW                                     build/VX_swi2c.o
SET_VS4210_1280_720_out                           build/main.o
SET_VS4210_720_480_out                            build/main.o
                                                  build/monitor.o
SPI1_IRQHandler                                   build/startup_stm32f103xb.o
SPI2_IRQHandler                                   build/startup_stm32f103xb.o
SVC_Handler                                       build/stm32f1xx_it.o
SW_I2C0Read                                       ./Lib/libsw_i2c0.a(sw_i2c0.o)
SW_I2C0Write                                      ./Lib/libsw_i2c0.a(sw_i2c0.o)
SW_I2C0WriteNByte                                 ./Lib/libsw_i2c0.a(sw_i2c0.o)
SW_I2C0_Init                                      ./Lib/libsw_i2c0.a(sw_i2c0.o)
                                                  build/main.o
SW_I2C1Read                                       ./Lib/libsw_i2c1.a(sw_i2c1.o)
                                                  ./Lib/libsw_i2c0.a(sw_i2c0.o)
                                                  build/VX_swi2c.o
SW_I2C1Write                                      ./Lib/libsw_i2c1.a(sw_i2c1.o)
                                                  ./Lib/libsw_i2c0.a(sw_i2c0.o)
                                                  build/VX_swi2c.o
SW_I2C1WriteNByte                                 ./Lib/libsw_i2c1.a(sw_i2c1.o)
                                                  ./Lib/libsw_i2c0.a(sw_i2c0.o)
                                                  build/VX_swi2c.o
SW_I2C1_Init                                      ./Lib/libsw_i2c1.a(sw_i2c1.o)
                                                  build/main.o
SW_I2C1nRead                                      ./Lib/libsw_i2c1.a(sw_i2c1.o)
SW_I2C2Read                                       ./Lib/libsw_i2c2.a(sw_i2c2.o)
                                                  ./Lib/libsw_i2c0.a(sw_i2c0.o)
                                                  build/VX_swi2c.o
SW_I2C2Write                                      ./Lib/libsw_i2c2.a(sw_i2c2.o)
                                                  ./Lib/libsw_i2c0.a(sw_i2c0.o)
                                                  build/VX_swi2c.o
SW_I2C2WriteNByte                                 ./Lib/libsw_i2c2.a(sw_i2c2.o)
                                                  ./Lib/libsw_i2c0.a(sw_i2c0.o)
SW_I2C2_Init                                      ./Lib/libsw_i2c2.a(sw_i2c2.o)
                                                  build/main.o
SW_I2C2nRead                                      ./Lib/libsw_i2c2.a(sw_i2c2.o)
SW_I2C3_Init                                      ./Lib/libsw_i2c3.a(sw_i2c3.o)
                                                  build/main.o
SYS_AND                                           build/TP2802.o
SYS_MODE                                          build/TP2802.o
SaveFWRevEE                                       build/etc_eep.o
                                                  build/main.o
Scan_Channels                                     build/TP2802.o
SelectInputMode                                   build/main.o
                                                  build/SysTimer.o
                                                  build/monitor.o
                                                  build/TP2802.o
SelectModeType                                    build/main.o
SetAudioVolEE                                     build/etc_eep.o
SetCGain                                          build/TP2802.o
SetDisplayedOSD                                   build/VX_OSD.o
SetOsdPosition                                    build/VX_OSD.o
                                                  build/VX_OSD_Simple.o
SetOsdSize                                        build/VX_OSD.o
                                                  build/VX_OSD_Simple.o
SetOsdStartAddress                                build/VX_OSD.o
                                                  build/VX_OSD_Simple.o
SetPCAudioVolEE                                   build/etc_eep.o
SetRegPage                                        build/TP2802.o
Set_HDA                                           build/TP2802.o
Set_HDC                                           build/TP2802.o
Set_Mirror_COC                                    build/TP2802.o
Set_PLL_StartUp                                   build/TP2802.o
Set_ResWithAutoDet                                build/TP2802.o
Set_VidRes                                        build/TP2802.o
Set_Video_Loss_OSD                                build/VX_OSD_Simple.o
                                                  build/SysTimer.o
                                                  build/TP2802.o
                                                  build/main.o
ShowWorkingTimer                                  build/SysTimer.o
SwapBit                                           build/TP2802.o
SysTick_Handler                                   build/stm32f1xx_it.o
SysTimerEventProc                                 build/SysTimer.o
SysTimerHandler                                   build/SysTimer.o
                                                  build/main.o
SystemClock_Config                                build/main.o
SystemCoreClock                                   build/system_stm32f1xx.o
                                                  build/stm32f1xx_hal_adc_ex.o
                                                  build/stm32f1xx_hal_adc.o
                                                  build/stm32f1xx_hal_rcc.o
                                                  build/stm32f1xx_hal.o
SystemCoreClockUpdate                             build/system_stm32f1xx.o
SystemInit                                        build/system_stm32f1xx.o
                                                  build/startup_stm32f103xb.o
TAMPER_IRQHandler                                 build/startup_stm32f103xb.o
TIM1_BRK_IRQHandler                               build/startup_stm32f103xb.o
TIM1_CC_IRQHandler                                build/startup_stm32f103xb.o
TIM1_TRG_COM_IRQHandler                           build/startup_stm32f103xb.o
TIM1_UP_IRQHandler                                build/startup_stm32f103xb.o
TIM2_IRQHandler                                   build/startup_stm32f103xb.o
TIM3_IRQHandler                                   build/stm32f1xx_it.o
TIM4_IRQHandler                                   build/startup_stm32f103xb.o
TIMEx_DMACommutationCplt                          build/stm32f1xx_hal_tim_ex.o
                                                  build/stm32f1xx_hal_tim.o
TIMEx_DMACommutationHalfCplt                      build/stm32f1xx_hal_tim_ex.o
                                                  build/stm32f1xx_hal_tim.o
TIM_Base_SetConfig                                build/stm32f1xx_hal_tim.o
                                                  build/stm32f1xx_hal_tim_ex.o
TIM_CCxChannelCmd                                 build/stm32f1xx_hal_tim.o
                                                  build/stm32f1xx_hal_tim_ex.o
TIM_DMACaptureCplt                                build/stm32f1xx_hal_tim.o
                                                  build/stm32f1xx_hal_tim_ex.o
TIM_DMACaptureHalfCplt                            build/stm32f1xx_hal_tim.o
                                                  build/stm32f1xx_hal_tim_ex.o
TIM_DMADelayPulseCplt                             build/stm32f1xx_hal_tim.o
                                                  build/stm32f1xx_hal_tim_ex.o
TIM_DMADelayPulseHalfCplt                         build/stm32f1xx_hal_tim.o
                                                  build/stm32f1xx_hal_tim_ex.o
TIM_DMAError                                      build/stm32f1xx_hal_tim.o
                                                  build/stm32f1xx_hal_tim_ex.o
TIM_ETR_SetConfig                                 build/stm32f1xx_hal_tim.o
TIM_OC2_SetConfig                                 build/stm32f1xx_hal_tim.o
                                                  build/stm32f1xx_hal_tim_ex.o
TIM_TI1_SetConfig                                 build/stm32f1xx_hal_tim.o
                                                  build/stm32f1xx_hal_tim_ex.o
TOAReceivePaser                                   build/TOA_Protocol.o
                                                  build/main.o
TP2802D_DataSet                                   build/TP2802.o
TP2802_FORMAT_DataSet                             build/TP2802.o
TP2822_DataSet                                    build/TP2802.o
TP2823_DataSet                                    build/TP2802.o
TP2823_MODE_DataSet                               build/TP2802.o
TP2824C_AHD_FHD_PTZ_DataSet                       build/TP2802.o
TP2824C_CVBS_PTZ_DataSet                          build/TP2802.o
TP2824C_CVIHD_PTZ_DataSet                         build/TP2802.o
TP2824C_DataSet                                   build/TP2802.o
TP2824C_HDA_DataSet                               build/TP2802.o
TP2824C_HDC_DataSet                               build/TP2802.o
TP2824C_MODE_DataSet                              build/TP2802.o
TP2824C_PTZ_mode                                  build/TP2802.o
TP2824C_RX_init                                   build/TP2802.o
TP2824C_StartTX                                   build/TP2802.o
TP2824C_TVI_FHD_PTZ_DataSet                       build/TP2802.o
TP2824_PTZ_init                                   build/TP2802.o
TP2824_PTZ_mode                                   build/TP2802.o
TP2826_DataSet                                    build/TP2802.o
TP2826_HDA_DataSet                                build/TP2802.o
TP2826_HDC_DataSet                                build/TP2802.o
TP2826_MODE_DataSet                               build/TP2802.o
TP2833_DataSet                                    build/TP2802.o
TP2833_HDA_DataSet                                build/TP2802.o
TP2833_MODE_DataSet                               build/TP2802.o
TP2834_Audio_DataSet                              build/TP2802.o
TP2834_DataSet                                    build/TP2802.o
TP2834_MODE_DataSet                               build/TP2802.o
TP2853C_DataSet                                   build/TP2802.o
TP2853C_HDA_DataSet                               build/TP2802.o
TP2853C_HDC_DataSet                               build/TP2802.o
TP2853C_MODE_DataSet                              build/TP2802.o
TP_InputMode                                      build/TP2802.o
                                                  build/SysTimer.o
                                                  build/monitor.o
                                                  build/main.o
TP_bt1120_1080P_1080P_mode0_w0                    build/main.o
                                                  build/SysTimer.o
                                                  build/monitor.o
TP_bt1120_720P_1080P_mode0_w0                     build/main.o
                                                  build/SysTimer.o
                                                  build/monitor.o
TP_bt1120_NTSC_1080P_mode0_w0                     build/main.o
                                                  build/SysTimer.o
                                                  build/monitor.o
TP_bt1120_PAL_1080P_mode0_w0                      build/main.o
                                                  build/SysTimer.o
                                                  build/monitor.o
TVICommandToAHData                                build/TP2802.o
TVII2CAddress                                     build/TP2802.o
                                                  build/VX_swi2c.o
TVI_Chksum                                        build/TP2802.o
                                                  build/TOA_Protocol.o
                                                  build/monitor.o
TVI_Command                                       build/TP2802.o
                                                  build/TOA_Protocol.o
                                                  build/monitor.o
TVI_speed                                         build/TP2802.o
                                                  build/TOA_Protocol.o
                                                  build/monitor.o
Tim1_count                                        build/main.o
TimeStep                                          build/main.o
TriggerHandler                                    build/main.o
TxCount                                           build/main.o
TxWrBstSeq                                        ./Lib/libit6602.a(it6602.o)
USART1_IRQHandler                                 build/stm32f1xx_it.o
USART2_IRQHandler                                 build/stm32f1xx_it.o
USART3_IRQHandler                                 build/startup_stm32f103xb.o
USBWakeUp_IRQHandler                              build/startup_stm32f103xb.o
USB_HP_CAN1_TX_IRQHandler                         build/startup_stm32f103xb.o
USB_LP_CAN1_RX0_IRQHandler                        build/startup_stm32f103xb.o
UsageFault_Handler                                build/stm32f1xx_it.o
UserDefineFont1                                   build/exosd.o
                                                  build/main.o
UserInterfaceTimerEventProc                       build/SysTimer.o
V3D_EntryCnt                                      ./Lib/libit6602.a(it6602.o)
VS4210_ADDR                                       build/main.o
                                                  build/VX_OSD_Simple.o
                                                  build/VX_OSD.o
                                                  build/VX_swi2c.o
VS4210_Addr_88param                               build/VS4210_param_Mode88.o
                                                  ./Lib/libVS4210.a(VS4210.o)
                                                  build/main.o
VS4210_Addr_param                                 build/VS4210_param_Modex26.o
                                                  ./Lib/libVS4210.a(VS4210.o)
VS4210_CloseAllWindows                            ./Lib/libVS4210.a(VS4210.o)
VS4210_CloseWindowsX                              ./Lib/libVS4210.a(VS4210.o)
VS4210_FULL88init2                                build/main.o
VS4210_Line_Clear                                 ./Lib/libVS4210.a(VS4210.o)
VS4210_Line_Draw                                  ./Lib/libVS4210.a(VS4210.o)
VS4210_No_Signal_Init                             ./Lib/libVS4210.a(VS4210.o)
VS4210_OpenWindowsPIP0                            ./Lib/libVS4210.a(VS4210.o)
VS4210_OpenWindowsX                               ./Lib/libVS4210.a(VS4210.o)
VS4210_PowerDown                                  ./Lib/libVS4210.a(VS4210.o)
VS4210_PowerResume                                ./Lib/libVS4210.a(VS4210.o)
VS4210_Rx_NoSignal                                ./Lib/libVS4210.a(VS4210.o)
                                                  build/TP2802.o
                                                  build/main.o
VS4210_SetHVLenght                                ./Lib/libVS4210.a(VS4210.o)
VS4210_SetInModeOutMode                           ./Lib/libVS4210.a(VS4210.o)
                                                  build/main.o
VS4210_SetInputSizeHV                             ./Lib/libVS4210.a(VS4210.o)
                                                  build/main.o
VS4210_SetMutiWindows                             ./Lib/libVS4210.a(VS4210.o)
                                                  build/main.o
VS4210_StartInit                                  ./Lib/libVS4210.a(VS4210.o)
VS4210_SwitchChannel                              ./Lib/libVS4210.a(VS4210.o)
VS4210_TP_bt1120_1080P_1080P_mode0_w0_88param     build/VS4210_param_Mode88.o
                                                  build/main.o
VS4210_TP_bt1120_720P_1080P_mode0_w0_88param      build/VS4210_param_Mode88.o
                                                  build/main.o
VS4210_TP_bt1120_NTSC_1080P_mode0_w0_88param      build/VS4210_param_Mode88.o
                                                  build/main.o
VS4210_TP_bt1120_PAL_1080P_mode0_w0_88param       build/VS4210_param_Mode88.o
                                                  build/main.o
VS4210_channel0clear                              ./Lib/libVS4210.a(VS4210.o)
VS4210_clearAllsignal                             ./Lib/libVS4210.a(VS4210.o)
VS4210_displayoff                                 ./Lib/libVS4210.a(VS4210.o)
VS4210_displayon                                  ./Lib/libVS4210.a(VS4210.o)
VS4210_hdmi1024x768_1080P_mode0_w0_88param        build/VS4210_param_Mode88.o
                                                  ./Lib/libVS4210.a(VS4210.o)
VS4210_hdmi1024x768_1080P_mode12_w0_param         build/VS4210_param_Modex26.o
                                                  ./Lib/libVS4210.a(VS4210.o)
VS4210_hdmi1024x768_1080P_mode12_w1_param         build/VS4210_param_Modex26.o
                                                  ./Lib/libVS4210.a(VS4210.o)
VS4210_hdmi1024x768_1080P_mode13_w0_param         build/VS4210_param_Modex26.o
                                                  ./Lib/libVS4210.a(VS4210.o)
VS4210_hdmi1024x768_1080P_mode13_w1_param         build/VS4210_param_Modex26.o
                                                  ./Lib/libVS4210.a(VS4210.o)
VS4210_hdmi1024x768_1080P_mode1_w0_param          build/VS4210_param_Modex26.o
                                                  ./Lib/libVS4210.a(VS4210.o)
VS4210_hdmi1024x768_1080P_mode1_w1_param          build/VS4210_param_Modex26.o
                                                  ./Lib/libVS4210.a(VS4210.o)
VS4210_hdmi1024x768_1080P_mode1_w2_param          build/VS4210_param_Modex26.o
                                                  ./Lib/libVS4210.a(VS4210.o)
VS4210_hdmi1024x768_1080P_mode1_w3_param          build/VS4210_param_Modex26.o
                                                  ./Lib/libVS4210.a(VS4210.o)
VS4210_hdmi1024x768_1080P_mode2_w0_param          build/VS4210_param_Modex26.o
                                                  ./Lib/libVS4210.a(VS4210.o)
VS4210_hdmi1024x768_1080P_mode2_w1_param          build/VS4210_param_Modex26.o
                                                  ./Lib/libVS4210.a(VS4210.o)
VS4210_hdmi1024x768_1080P_mode2_w2_param          build/VS4210_param_Modex26.o
                                                  ./Lib/libVS4210.a(VS4210.o)
VS4210_hdmi1024x768_1080P_mode2_w3_param          build/VS4210_param_Modex26.o
                                                  ./Lib/libVS4210.a(VS4210.o)
VS4210_hdmi1024x768_1080P_mode6_w0_param          build/VS4210_param_Modex26.o
                                                  ./Lib/libVS4210.a(VS4210.o)
VS4210_hdmi1024x768_1080P_mode6_w1_param          build/VS4210_param_Modex26.o
                                                  ./Lib/libVS4210.a(VS4210.o)
VS4210_hdmi1024x768_1080P_mode6_w2_param          build/VS4210_param_Modex26.o
                                                  ./Lib/libVS4210.a(VS4210.o)
VS4210_hdmi1024x768_1080P_mode6_w3_param          build/VS4210_param_Modex26.o
                                                  ./Lib/libVS4210.a(VS4210.o)
VS4210_hdmi1024x768_1080P_mode6pip_w0_param       build/VS4210_param_Modex26.o
                                                  ./Lib/libVS4210.a(VS4210.o)
VS4210_hdmi1024x768_1080P_mode6pip_w1_param       build/VS4210_param_Modex26.o
                                                  ./Lib/libVS4210.a(VS4210.o)
VS4210_hdmi1024x768_1080P_mode6pip_w2_param       build/VS4210_param_Modex26.o
                                                  ./Lib/libVS4210.a(VS4210.o)
VS4210_hdmi1024x768_1080P_mode6pip_w3_param       build/VS4210_param_Modex26.o
                                                  ./Lib/libVS4210.a(VS4210.o)
VS4210_hdmi1024x768_720P_mode0_w0_88param         build/VS4210_param_Mode88.o
                                                  ./Lib/libVS4210.a(VS4210.o)
VS4210_hdmi1024x768_720P_mode12_w0_param          build/VS4210_param_Modex26.o
                                                  ./Lib/libVS4210.a(VS4210.o)
VS4210_hdmi1024x768_720P_mode12_w1_param          build/VS4210_param_Modex26.o
                                                  ./Lib/libVS4210.a(VS4210.o)
VS4210_hdmi1024x768_720P_mode13_w0_param          build/VS4210_param_Modex26.o
                                                  ./Lib/libVS4210.a(VS4210.o)
VS4210_hdmi1024x768_720P_mode13_w1_param          build/VS4210_param_Modex26.o
                                                  ./Lib/libVS4210.a(VS4210.o)
VS4210_hdmi1024x768_720P_mode1_w0_param           build/VS4210_param_Modex26.o
                                                  ./Lib/libVS4210.a(VS4210.o)
VS4210_hdmi1024x768_720P_mode1_w1_param           build/VS4210_param_Modex26.o
                                                  ./Lib/libVS4210.a(VS4210.o)
VS4210_hdmi1024x768_720P_mode1_w2_param           build/VS4210_param_Modex26.o
                                                  ./Lib/libVS4210.a(VS4210.o)
VS4210_hdmi1024x768_720P_mode1_w3_param           build/VS4210_param_Modex26.o
                                                  ./Lib/libVS4210.a(VS4210.o)
VS4210_hdmi1024x768_720P_mode24_w0_param          build/VS4210_param_Modex26.o
                                                  ./Lib/libVS4210.a(VS4210.o)
VS4210_hdmi1024x768_720P_mode24_w1_param          build/VS4210_param_Modex26.o
                                                  ./Lib/libVS4210.a(VS4210.o)
VS4210_hdmi1024x768_720P_mode2_w0_param           build/VS4210_param_Modex26.o
                                                  ./Lib/libVS4210.a(VS4210.o)
VS4210_hdmi1024x768_720P_mode2_w1_param           build/VS4210_param_Modex26.o
                                                  ./Lib/libVS4210.a(VS4210.o)
VS4210_hdmi1024x768_720P_mode2_w2_param           build/VS4210_param_Modex26.o
                                                  ./Lib/libVS4210.a(VS4210.o)
VS4210_hdmi1024x768_720P_mode2_w3_param           build/VS4210_param_Modex26.o
                                                  ./Lib/libVS4210.a(VS4210.o)
VS4210_hdmi1024x768_720P_mode6_w0_param           build/VS4210_param_Modex26.o
                                                  ./Lib/libVS4210.a(VS4210.o)
VS4210_hdmi1024x768_720P_mode6_w1_param           build/VS4210_param_Modex26.o
                                                  ./Lib/libVS4210.a(VS4210.o)
VS4210_hdmi1024x768_720P_mode6_w2_param           build/VS4210_param_Modex26.o
                                                  ./Lib/libVS4210.a(VS4210.o)
VS4210_hdmi1024x768_720P_mode6_w3_param           build/VS4210_param_Modex26.o
                                                  ./Lib/libVS4210.a(VS4210.o)
VS4210_hdmi1080P_1080P_mode0_w0_88param           build/VS4210_param_Mode88.o
                                                  ./Lib/libVS4210.a(VS4210.o)
VS4210_hdmi1080P_1080P_mode12_w0_param            build/VS4210_param_Modex26.o
                                                  ./Lib/libVS4210.a(VS4210.o)
VS4210_hdmi1080P_1080P_mode12_w1_param            build/VS4210_param_Modex26.o
                                                  ./Lib/libVS4210.a(VS4210.o)
VS4210_hdmi1080P_1080P_mode13_w0_param            build/VS4210_param_Modex26.o
                                                  ./Lib/libVS4210.a(VS4210.o)
VS4210_hdmi1080P_1080P_mode13_w1_param            build/VS4210_param_Modex26.o
                                                  ./Lib/libVS4210.a(VS4210.o)
VS4210_hdmi1080P_1080P_mode1_w0_param             build/VS4210_param_Modex26.o
                                                  ./Lib/libVS4210.a(VS4210.o)
VS4210_hdmi1080P_1080P_mode1_w1_param             build/VS4210_param_Modex26.o
                                                  ./Lib/libVS4210.a(VS4210.o)
VS4210_hdmi1080P_1080P_mode1_w2_param             build/VS4210_param_Modex26.o
                                                  ./Lib/libVS4210.a(VS4210.o)
VS4210_hdmi1080P_1080P_mode1_w3_param             build/VS4210_param_Modex26.o
                                                  ./Lib/libVS4210.a(VS4210.o)
VS4210_hdmi1080P_1080P_mode2_w0_param             build/VS4210_param_Modex26.o
                                                  ./Lib/libVS4210.a(VS4210.o)
VS4210_hdmi1080P_1080P_mode2_w1_param             build/VS4210_param_Modex26.o
                                                  ./Lib/libVS4210.a(VS4210.o)
VS4210_hdmi1080P_1080P_mode2_w2_param             build/VS4210_param_Modex26.o
                                                  ./Lib/libVS4210.a(VS4210.o)
VS4210_hdmi1080P_1080P_mode2_w3_param             build/VS4210_param_Modex26.o
                                                  ./Lib/libVS4210.a(VS4210.o)
VS4210_hdmi1080P_1080P_mode6_w0_param             build/VS4210_param_Modex26.o
                                                  ./Lib/libVS4210.a(VS4210.o)
VS4210_hdmi1080P_1080P_mode6_w1_param             build/VS4210_param_Modex26.o
                                                  ./Lib/libVS4210.a(VS4210.o)
VS4210_hdmi1080P_1080P_mode6_w2_param             build/VS4210_param_Modex26.o
                                                  ./Lib/libVS4210.a(VS4210.o)
VS4210_hdmi1080P_1080P_mode6_w3_param             build/VS4210_param_Modex26.o
                                                  ./Lib/libVS4210.a(VS4210.o)
VS4210_hdmi1080P_1080P_mode6pip_w0_param          build/VS4210_param_Modex26.o
                                                  ./Lib/libVS4210.a(VS4210.o)
VS4210_hdmi1080P_1080P_mode6pip_w1_param          build/VS4210_param_Modex26.o
                                                  ./Lib/libVS4210.a(VS4210.o)
VS4210_hdmi1080P_1080P_mode6pip_w2_param          build/VS4210_param_Modex26.o
                                                  ./Lib/libVS4210.a(VS4210.o)
VS4210_hdmi1080P_1080P_mode6pip_w3_param          build/VS4210_param_Modex26.o
                                                  ./Lib/libVS4210.a(VS4210.o)
VS4210_hdmi1080P_720P_mode0_w0_88param            build/VS4210_param_Mode88.o
                                                  ./Lib/libVS4210.a(VS4210.o)
VS4210_hdmi1080P_720P_mode12_w0_param             build/VS4210_param_Modex26.o
                                                  ./Lib/libVS4210.a(VS4210.o)
VS4210_hdmi1080P_720P_mode12_w1_param             build/VS4210_param_Modex26.o
                                                  ./Lib/libVS4210.a(VS4210.o)
VS4210_hdmi1080P_720P_mode13_w0_param             build/VS4210_param_Modex26.o
                                                  ./Lib/libVS4210.a(VS4210.o)
VS4210_hdmi1080P_720P_mode13_w1_param             build/VS4210_param_Modex26.o
                                                  ./Lib/libVS4210.a(VS4210.o)
VS4210_hdmi1080P_720P_mode1_w0_param              build/VS4210_param_Modex26.o
                                                  ./Lib/libVS4210.a(VS4210.o)
VS4210_hdmi1080P_720P_mode1_w1_param              build/VS4210_param_Modex26.o
                                                  ./Lib/libVS4210.a(VS4210.o)
VS4210_hdmi1080P_720P_mode1_w2_param              build/VS4210_param_Modex26.o
                                                  ./Lib/libVS4210.a(VS4210.o)
VS4210_hdmi1080P_720P_mode1_w3_param              build/VS4210_param_Modex26.o
                                                  ./Lib/libVS4210.a(VS4210.o)
VS4210_hdmi1080P_720P_mode24_w0_param             build/VS4210_param_Modex26.o
                                                  ./Lib/libVS4210.a(VS4210.o)
VS4210_hdmi1080P_720P_mode24_w1_param             build/VS4210_param_Modex26.o
                                                  ./Lib/libVS4210.a(VS4210.o)
VS4210_hdmi1080P_720P_mode2_w0_param              build/VS4210_param_Modex26.o
                                                  ./Lib/libVS4210.a(VS4210.o)
VS4210_hdmi1080P_720P_mode2_w1_param              build/VS4210_param_Modex26.o
                                                  ./Lib/libVS4210.a(VS4210.o)
VS4210_hdmi1080P_720P_mode2_w2_param              build/VS4210_param_Modex26.o
                                                  ./Lib/libVS4210.a(VS4210.o)
VS4210_hdmi1080P_720P_mode2_w3_param              build/VS4210_param_Modex26.o
                                                  ./Lib/libVS4210.a(VS4210.o)
VS4210_hdmi1080P_720P_mode6_w0_param              build/VS4210_param_Modex26.o
                                                  ./Lib/libVS4210.a(VS4210.o)
VS4210_hdmi1080P_720P_mode6_w1_param              build/VS4210_param_Modex26.o
                                                  ./Lib/libVS4210.a(VS4210.o)
VS4210_hdmi1080P_720P_mode6_w2_param              build/VS4210_param_Modex26.o
                                                  ./Lib/libVS4210.a(VS4210.o)
VS4210_hdmi1080P_720P_mode6_w3_param              build/VS4210_param_Modex26.o
                                                  ./Lib/libVS4210.a(VS4210.o)
VS4210_hdmi1080i_1080P_mode0_w0_88param           build/VS4210_param_Mode88.o
                                                  ./Lib/libVS4210.a(VS4210.o)
VS4210_hdmi1080i_1080P_mode12_w0_param            build/VS4210_param_Modex26.o
                                                  ./Lib/libVS4210.a(VS4210.o)
VS4210_hdmi1080i_1080P_mode12_w1_param            build/VS4210_param_Modex26.o
                                                  ./Lib/libVS4210.a(VS4210.o)
VS4210_hdmi1080i_1080P_mode13_w0_param            build/VS4210_param_Modex26.o
                                                  ./Lib/libVS4210.a(VS4210.o)
VS4210_hdmi1080i_1080P_mode13_w1_param            build/VS4210_param_Modex26.o
                                                  ./Lib/libVS4210.a(VS4210.o)
VS4210_hdmi1080i_1080P_mode1_w0_param             build/VS4210_param_Modex26.o
                                                  ./Lib/libVS4210.a(VS4210.o)
VS4210_hdmi1080i_1080P_mode1_w1_param             build/VS4210_param_Modex26.o
                                                  ./Lib/libVS4210.a(VS4210.o)
VS4210_hdmi1080i_1080P_mode1_w2_param             build/VS4210_param_Modex26.o
                                                  ./Lib/libVS4210.a(VS4210.o)
VS4210_hdmi1080i_1080P_mode1_w3_param             build/VS4210_param_Modex26.o
                                                  ./Lib/libVS4210.a(VS4210.o)
VS4210_hdmi1080i_1080P_mode2_w0_param             build/VS4210_param_Modex26.o
                                                  ./Lib/libVS4210.a(VS4210.o)
VS4210_hdmi1080i_1080P_mode2_w1_param             build/VS4210_param_Modex26.o
                                                  ./Lib/libVS4210.a(VS4210.o)
VS4210_hdmi1080i_1080P_mode2_w2_param             build/VS4210_param_Modex26.o
                                                  ./Lib/libVS4210.a(VS4210.o)
VS4210_hdmi1080i_1080P_mode2_w3_param             build/VS4210_param_Modex26.o
                                                  ./Lib/libVS4210.a(VS4210.o)
VS4210_hdmi1080i_1080P_mode6_w0_param             build/VS4210_param_Modex26.o
                                                  ./Lib/libVS4210.a(VS4210.o)
VS4210_hdmi1080i_1080P_mode6_w1_param             build/VS4210_param_Modex26.o
                                                  ./Lib/libVS4210.a(VS4210.o)
VS4210_hdmi1080i_1080P_mode6_w2_param             build/VS4210_param_Modex26.o
                                                  ./Lib/libVS4210.a(VS4210.o)
VS4210_hdmi1080i_1080P_mode6_w3_param             build/VS4210_param_Modex26.o
                                                  ./Lib/libVS4210.a(VS4210.o)
VS4210_hdmi1080i_1080P_mode6pip_w0_param          build/VS4210_param_Modex26.o
                                                  ./Lib/libVS4210.a(VS4210.o)
VS4210_hdmi1080i_1080P_mode6pip_w1_param          build/VS4210_param_Modex26.o
                                                  ./Lib/libVS4210.a(VS4210.o)
VS4210_hdmi1080i_1080P_mode6pip_w2_param          build/VS4210_param_Modex26.o
                                                  ./Lib/libVS4210.a(VS4210.o)
VS4210_hdmi1080i_1080P_mode6pip_w3_param          build/VS4210_param_Modex26.o
                                                  ./Lib/libVS4210.a(VS4210.o)
VS4210_hdmi1080i_720P_mode0_w0_88param            build/VS4210_param_Mode88.o
                                                  ./Lib/libVS4210.a(VS4210.o)
VS4210_hdmi1080i_720P_mode12_w0_param             build/VS4210_param_Modex26.o
                                                  ./Lib/libVS4210.a(VS4210.o)
VS4210_hdmi1080i_720P_mode12_w1_param             build/VS4210_param_Modex26.o
                                                  ./Lib/libVS4210.a(VS4210.o)
VS4210_hdmi1080i_720P_mode13_w0_param             build/VS4210_param_Modex26.o
                                                  ./Lib/libVS4210.a(VS4210.o)
VS4210_hdmi1080i_720P_mode13_w1_param             build/VS4210_param_Modex26.o
                                                  ./Lib/libVS4210.a(VS4210.o)
VS4210_hdmi1080i_720P_mode1_w0_param              build/VS4210_param_Modex26.o
                                                  ./Lib/libVS4210.a(VS4210.o)
VS4210_hdmi1080i_720P_mode1_w1_param              build/VS4210_param_Modex26.o
                                                  ./Lib/libVS4210.a(VS4210.o)
VS4210_hdmi1080i_720P_mode1_w2_param              build/VS4210_param_Modex26.o
                                                  ./Lib/libVS4210.a(VS4210.o)
VS4210_hdmi1080i_720P_mode1_w3_param              build/VS4210_param_Modex26.o
                                                  ./Lib/libVS4210.a(VS4210.o)
VS4210_hdmi1080i_720P_mode24_w0_param             build/VS4210_param_Modex26.o
                                                  ./Lib/libVS4210.a(VS4210.o)
VS4210_hdmi1080i_720P_mode24_w1_param             build/VS4210_param_Modex26.o
                                                  ./Lib/libVS4210.a(VS4210.o)
VS4210_hdmi1080i_720P_mode2_w0_param              build/VS4210_param_Modex26.o
                                                  ./Lib/libVS4210.a(VS4210.o)
VS4210_hdmi1080i_720P_mode2_w1_param              build/VS4210_param_Modex26.o
                                                  ./Lib/libVS4210.a(VS4210.o)
VS4210_hdmi1080i_720P_mode2_w2_param              build/VS4210_param_Modex26.o
                                                  ./Lib/libVS4210.a(VS4210.o)
VS4210_hdmi1080i_720P_mode2_w3_param              build/VS4210_param_Modex26.o
                                                  ./Lib/libVS4210.a(VS4210.o)
VS4210_hdmi1080i_720P_mode6_w0_param              build/VS4210_param_Modex26.o
                                                  ./Lib/libVS4210.a(VS4210.o)
VS4210_hdmi1080i_720P_mode6_w1_param              build/VS4210_param_Modex26.o
                                                  ./Lib/libVS4210.a(VS4210.o)
VS4210_hdmi1080i_720P_mode6_w2_param              build/VS4210_param_Modex26.o
                                                  ./Lib/libVS4210.a(VS4210.o)
VS4210_hdmi1080i_720P_mode6_w3_param              build/VS4210_param_Modex26.o
                                                  ./Lib/libVS4210.a(VS4210.o)
VS4210_hdmi1280x1024_1080P_mode0_w0_88param       build/VS4210_param_Mode88.o
                                                  ./Lib/libVS4210.a(VS4210.o)
VS4210_hdmi1280x1024_1080P_mode12_w0_param        build/VS4210_param_Modex26.o
                                                  ./Lib/libVS4210.a(VS4210.o)
VS4210_hdmi1280x1024_1080P_mode12_w1_param        build/VS4210_param_Modex26.o
                                                  ./Lib/libVS4210.a(VS4210.o)
VS4210_hdmi1280x1024_1080P_mode13_w0_param        build/VS4210_param_Modex26.o
                                                  ./Lib/libVS4210.a(VS4210.o)
VS4210_hdmi1280x1024_1080P_mode13_w1_param        build/VS4210_param_Modex26.o
                                                  ./Lib/libVS4210.a(VS4210.o)
VS4210_hdmi1280x1024_1080P_mode1_w0_param         build/VS4210_param_Modex26.o
                                                  ./Lib/libVS4210.a(VS4210.o)
VS4210_hdmi1280x1024_1080P_mode1_w1_param         build/VS4210_param_Modex26.o
                                                  ./Lib/libVS4210.a(VS4210.o)
VS4210_hdmi1280x1024_1080P_mode1_w2_param         build/VS4210_param_Modex26.o
                                                  ./Lib/libVS4210.a(VS4210.o)
VS4210_hdmi1280x1024_1080P_mode1_w3_param         build/VS4210_param_Modex26.o
                                                  ./Lib/libVS4210.a(VS4210.o)
VS4210_hdmi1280x1024_1080P_mode2_w0_param         build/VS4210_param_Modex26.o
                                                  ./Lib/libVS4210.a(VS4210.o)
VS4210_hdmi1280x1024_1080P_mode2_w1_param         build/VS4210_param_Modex26.o
                                                  ./Lib/libVS4210.a(VS4210.o)
VS4210_hdmi1280x1024_1080P_mode2_w2_param         build/VS4210_param_Modex26.o
                                                  ./Lib/libVS4210.a(VS4210.o)
VS4210_hdmi1280x1024_1080P_mode2_w3_param         build/VS4210_param_Modex26.o
                                                  ./Lib/libVS4210.a(VS4210.o)
VS4210_hdmi1280x1024_1080P_mode6_w0_param         build/VS4210_param_Modex26.o
                                                  ./Lib/libVS4210.a(VS4210.o)
VS4210_hdmi1280x1024_1080P_mode6_w1_param         build/VS4210_param_Modex26.o
                                                  ./Lib/libVS4210.a(VS4210.o)
VS4210_hdmi1280x1024_1080P_mode6_w2_param         build/VS4210_param_Modex26.o
                                                  ./Lib/libVS4210.a(VS4210.o)
VS4210_hdmi1280x1024_1080P_mode6_w3_param         build/VS4210_param_Modex26.o
                                                  ./Lib/libVS4210.a(VS4210.o)
VS4210_hdmi1280x1024_1080P_mode6pip_w0_param      build/VS4210_param_Modex26.o
                                                  ./Lib/libVS4210.a(VS4210.o)
VS4210_hdmi1280x1024_1080P_mode6pip_w1_param      build/VS4210_param_Modex26.o
                                                  ./Lib/libVS4210.a(VS4210.o)
VS4210_hdmi1280x1024_1080P_mode6pip_w2_param      build/VS4210_param_Modex26.o
                                                  ./Lib/libVS4210.a(VS4210.o)
VS4210_hdmi1280x1024_1080P_mode6pip_w3_param      build/VS4210_param_Modex26.o
                                                  ./Lib/libVS4210.a(VS4210.o)
VS4210_hdmi1280x1024_720P_mode0_w0_88param        build/VS4210_param_Mode88.o
                                                  ./Lib/libVS4210.a(VS4210.o)
VS4210_hdmi1280x1024_720P_mode12_w0_param         build/VS4210_param_Modex26.o
                                                  ./Lib/libVS4210.a(VS4210.o)
VS4210_hdmi1280x1024_720P_mode12_w1_param         build/VS4210_param_Modex26.o
                                                  ./Lib/libVS4210.a(VS4210.o)
VS4210_hdmi1280x1024_720P_mode13_w0_param         build/VS4210_param_Modex26.o
                                                  ./Lib/libVS4210.a(VS4210.o)
VS4210_hdmi1280x1024_720P_mode13_w1_param         build/VS4210_param_Modex26.o
                                                  ./Lib/libVS4210.a(VS4210.o)
VS4210_hdmi1280x1024_720P_mode1_w0_param          build/VS4210_param_Modex26.o
                                                  ./Lib/libVS4210.a(VS4210.o)
VS4210_hdmi1280x1024_720P_mode1_w1_param          build/VS4210_param_Modex26.o
                                                  ./Lib/libVS4210.a(VS4210.o)
VS4210_hdmi1280x1024_720P_mode1_w2_param          build/VS4210_param_Modex26.o
                                                  ./Lib/libVS4210.a(VS4210.o)
VS4210_hdmi1280x1024_720P_mode1_w3_param          build/VS4210_param_Modex26.o
                                                  ./Lib/libVS4210.a(VS4210.o)
VS4210_hdmi1280x1024_720P_mode24_w0_param         build/VS4210_param_Modex26.o
                                                  ./Lib/libVS4210.a(VS4210.o)
VS4210_hdmi1280x1024_720P_mode24_w1_param         build/VS4210_param_Modex26.o
                                                  ./Lib/libVS4210.a(VS4210.o)
VS4210_hdmi1280x1024_720P_mode2_w0_param          build/VS4210_param_Modex26.o
                                                  ./Lib/libVS4210.a(VS4210.o)
VS4210_hdmi1280x1024_720P_mode2_w1_param          build/VS4210_param_Modex26.o
                                                  ./Lib/libVS4210.a(VS4210.o)
VS4210_hdmi1280x1024_720P_mode2_w2_param          build/VS4210_param_Modex26.o
                                                  ./Lib/libVS4210.a(VS4210.o)
VS4210_hdmi1280x1024_720P_mode2_w3_param          build/VS4210_param_Modex26.o
                                                  ./Lib/libVS4210.a(VS4210.o)
VS4210_hdmi1280x1024_720P_mode6_w0_param          build/VS4210_param_Modex26.o
                                                  ./Lib/libVS4210.a(VS4210.o)
VS4210_hdmi1280x1024_720P_mode6_w1_param          build/VS4210_param_Modex26.o
                                                  ./Lib/libVS4210.a(VS4210.o)
VS4210_hdmi1280x1024_720P_mode6_w2_param          build/VS4210_param_Modex26.o
                                                  ./Lib/libVS4210.a(VS4210.o)
VS4210_hdmi1280x1024_720P_mode6_w3_param          build/VS4210_param_Modex26.o
                                                  ./Lib/libVS4210.a(VS4210.o)
VS4210_hdmi1280x768_1080P_mode0_w0_88param        build/VS4210_param_Mode88.o
                                                  ./Lib/libVS4210.a(VS4210.o)
VS4210_hdmi1280x768_1080P_mode12_w0_param         build/VS4210_param_Modex26.o
                                                  ./Lib/libVS4210.a(VS4210.o)
VS4210_hdmi1280x768_1080P_mode12_w1_param         build/VS4210_param_Modex26.o
                                                  ./Lib/libVS4210.a(VS4210.o)
VS4210_hdmi1280x768_1080P_mode13_w0_param         build/VS4210_param_Modex26.o
                                                  ./Lib/libVS4210.a(VS4210.o)
VS4210_hdmi1280x768_1080P_mode13_w1_param         build/VS4210_param_Modex26.o
                                                  ./Lib/libVS4210.a(VS4210.o)
VS4210_hdmi1280x768_1080P_mode1_w0_param          build/VS4210_param_Modex26.o
                                                  ./Lib/libVS4210.a(VS4210.o)
VS4210_hdmi1280x768_1080P_mode1_w1_param          build/VS4210_param_Modex26.o
                                                  ./Lib/libVS4210.a(VS4210.o)
VS4210_hdmi1280x768_1080P_mode1_w2_param          build/VS4210_param_Modex26.o
                                                  ./Lib/libVS4210.a(VS4210.o)
VS4210_hdmi1280x768_1080P_mode1_w3_param          build/VS4210_param_Modex26.o
                                                  ./Lib/libVS4210.a(VS4210.o)
VS4210_hdmi1280x768_1080P_mode2_w0_param          build/VS4210_param_Modex26.o
                                                  ./Lib/libVS4210.a(VS4210.o)
VS4210_hdmi1280x768_1080P_mode2_w1_param          build/VS4210_param_Modex26.o
                                                  ./Lib/libVS4210.a(VS4210.o)
VS4210_hdmi1280x768_1080P_mode2_w2_param          build/VS4210_param_Modex26.o
                                                  ./Lib/libVS4210.a(VS4210.o)
VS4210_hdmi1280x768_1080P_mode2_w3_param          build/VS4210_param_Modex26.o
                                                  ./Lib/libVS4210.a(VS4210.o)
VS4210_hdmi1280x768_1080P_mode6_w0_param          build/VS4210_param_Modex26.o
                                                  ./Lib/libVS4210.a(VS4210.o)
VS4210_hdmi1280x768_1080P_mode6_w1_param          build/VS4210_param_Modex26.o
                                                  ./Lib/libVS4210.a(VS4210.o)
VS4210_hdmi1280x768_1080P_mode6_w2_param          build/VS4210_param_Modex26.o
                                                  ./Lib/libVS4210.a(VS4210.o)
VS4210_hdmi1280x768_1080P_mode6_w3_param          build/VS4210_param_Modex26.o
                                                  ./Lib/libVS4210.a(VS4210.o)
VS4210_hdmi1280x768_1080P_mode6pip_w0_param       build/VS4210_param_Modex26.o
                                                  ./Lib/libVS4210.a(VS4210.o)
VS4210_hdmi1280x768_1080P_mode6pip_w1_param       build/VS4210_param_Modex26.o
                                                  ./Lib/libVS4210.a(VS4210.o)
VS4210_hdmi1280x768_1080P_mode6pip_w2_param       build/VS4210_param_Modex26.o
                                                  ./Lib/libVS4210.a(VS4210.o)
VS4210_hdmi1280x768_1080P_mode6pip_w3_param       build/VS4210_param_Modex26.o
                                                  ./Lib/libVS4210.a(VS4210.o)
VS4210_hdmi1280x768_720P_mode0_w0_88param         build/VS4210_param_Mode88.o
                                                  ./Lib/libVS4210.a(VS4210.o)
VS4210_hdmi1280x768_720P_mode12_w0_param          build/VS4210_param_Modex26.o
                                                  ./Lib/libVS4210.a(VS4210.o)
VS4210_hdmi1280x768_720P_mode12_w1_param          build/VS4210_param_Modex26.o
                                                  ./Lib/libVS4210.a(VS4210.o)
VS4210_hdmi1280x768_720P_mode13_w0_param          build/VS4210_param_Modex26.o
                                                  ./Lib/libVS4210.a(VS4210.o)
VS4210_hdmi1280x768_720P_mode13_w1_param          build/VS4210_param_Modex26.o
                                                  ./Lib/libVS4210.a(VS4210.o)
VS4210_hdmi1280x768_720P_mode1_w0_param           build/VS4210_param_Modex26.o
                                                  ./Lib/libVS4210.a(VS4210.o)
VS4210_hdmi1280x768_720P_mode1_w1_param           build/VS4210_param_Modex26.o
                                                  ./Lib/libVS4210.a(VS4210.o)
VS4210_hdmi1280x768_720P_mode1_w2_param           build/VS4210_param_Modex26.o
                                                  ./Lib/libVS4210.a(VS4210.o)
VS4210_hdmi1280x768_720P_mode1_w3_param           build/VS4210_param_Modex26.o
                                                  ./Lib/libVS4210.a(VS4210.o)
VS4210_hdmi1280x768_720P_mode24_w0_param          build/VS4210_param_Modex26.o
                                                  ./Lib/libVS4210.a(VS4210.o)
VS4210_hdmi1280x768_720P_mode24_w1_param          build/VS4210_param_Modex26.o
                                                  ./Lib/libVS4210.a(VS4210.o)
VS4210_hdmi1280x768_720P_mode2_w0_param           build/VS4210_param_Modex26.o
                                                  ./Lib/libVS4210.a(VS4210.o)
VS4210_hdmi1280x768_720P_mode2_w1_param           build/VS4210_param_Modex26.o
                                                  ./Lib/libVS4210.a(VS4210.o)
VS4210_hdmi1280x768_720P_mode2_w2_param           build/VS4210_param_Modex26.o
                                                  ./Lib/libVS4210.a(VS4210.o)
VS4210_hdmi1280x768_720P_mode2_w3_param           build/VS4210_param_Modex26.o
                                                  ./Lib/libVS4210.a(VS4210.o)
VS4210_hdmi1280x768_720P_mode6_w0_param           build/VS4210_param_Modex26.o
                                                  ./Lib/libVS4210.a(VS4210.o)
VS4210_hdmi1280x768_720P_mode6_w1_param           build/VS4210_param_Modex26.o
                                                  ./Lib/libVS4210.a(VS4210.o)
VS4210_hdmi1280x768_720P_mode6_w2_param           build/VS4210_param_Modex26.o
                                                  ./Lib/libVS4210.a(VS4210.o)
VS4210_hdmi1280x768_720P_mode6_w3_param           build/VS4210_param_Modex26.o
                                                  ./Lib/libVS4210.a(VS4210.o)
VS4210_hdmi1280x800_1080P_mode0_w0_88param        build/VS4210_param_Mode88.o
                                                  ./Lib/libVS4210.a(VS4210.o)
VS4210_hdmi1280x800_1080P_mode12_w0_param         build/VS4210_param_Modex26.o
                                                  ./Lib/libVS4210.a(VS4210.o)
VS4210_hdmi1280x800_1080P_mode12_w1_param         build/VS4210_param_Modex26.o
                                                  ./Lib/libVS4210.a(VS4210.o)
VS4210_hdmi1280x800_1080P_mode13_w0_param         build/VS4210_param_Modex26.o
                                                  ./Lib/libVS4210.a(VS4210.o)
VS4210_hdmi1280x800_1080P_mode13_w1_param         build/VS4210_param_Modex26.o
                                                  ./Lib/libVS4210.a(VS4210.o)
VS4210_hdmi1280x800_1080P_mode1_w0_param          build/VS4210_param_Modex26.o
                                                  ./Lib/libVS4210.a(VS4210.o)
VS4210_hdmi1280x800_1080P_mode1_w1_param          build/VS4210_param_Modex26.o
                                                  ./Lib/libVS4210.a(VS4210.o)
VS4210_hdmi1280x800_1080P_mode1_w2_param          build/VS4210_param_Modex26.o
                                                  ./Lib/libVS4210.a(VS4210.o)
VS4210_hdmi1280x800_1080P_mode1_w3_param          build/VS4210_param_Modex26.o
                                                  ./Lib/libVS4210.a(VS4210.o)
VS4210_hdmi1280x800_1080P_mode2_w0_param          build/VS4210_param_Modex26.o
                                                  ./Lib/libVS4210.a(VS4210.o)
VS4210_hdmi1280x800_1080P_mode2_w1_param          build/VS4210_param_Modex26.o
                                                  ./Lib/libVS4210.a(VS4210.o)
VS4210_hdmi1280x800_1080P_mode2_w2_param          build/VS4210_param_Modex26.o
                                                  ./Lib/libVS4210.a(VS4210.o)
VS4210_hdmi1280x800_1080P_mode2_w3_param          build/VS4210_param_Modex26.o
                                                  ./Lib/libVS4210.a(VS4210.o)
VS4210_hdmi1280x800_1080P_mode6_w0_param          build/VS4210_param_Modex26.o
                                                  ./Lib/libVS4210.a(VS4210.o)
VS4210_hdmi1280x800_1080P_mode6_w1_param          build/VS4210_param_Modex26.o
                                                  ./Lib/libVS4210.a(VS4210.o)
VS4210_hdmi1280x800_1080P_mode6_w2_param          build/VS4210_param_Modex26.o
                                                  ./Lib/libVS4210.a(VS4210.o)
VS4210_hdmi1280x800_1080P_mode6_w3_param          build/VS4210_param_Modex26.o
                                                  ./Lib/libVS4210.a(VS4210.o)
VS4210_hdmi1280x800_1080P_mode6pip_w0_param       build/VS4210_param_Modex26.o
                                                  ./Lib/libVS4210.a(VS4210.o)
VS4210_hdmi1280x800_1080P_mode6pip_w1_param       build/VS4210_param_Modex26.o
                                                  ./Lib/libVS4210.a(VS4210.o)
VS4210_hdmi1280x800_1080P_mode6pip_w2_param       build/VS4210_param_Modex26.o
                                                  ./Lib/libVS4210.a(VS4210.o)
VS4210_hdmi1280x800_1080P_mode6pip_w3_param       build/VS4210_param_Modex26.o
                                                  ./Lib/libVS4210.a(VS4210.o)
VS4210_hdmi1280x800_720P_mode0_w0_88param         build/VS4210_param_Mode88.o
                                                  ./Lib/libVS4210.a(VS4210.o)
VS4210_hdmi1280x800_720P_mode12_w0_param          build/VS4210_param_Modex26.o
                                                  ./Lib/libVS4210.a(VS4210.o)
VS4210_hdmi1280x800_720P_mode12_w1_param          build/VS4210_param_Modex26.o
                                                  ./Lib/libVS4210.a(VS4210.o)
VS4210_hdmi1280x800_720P_mode13_w0_param          build/VS4210_param_Modex26.o
                                                  ./Lib/libVS4210.a(VS4210.o)
VS4210_hdmi1280x800_720P_mode13_w1_param          build/VS4210_param_Modex26.o
                                                  ./Lib/libVS4210.a(VS4210.o)
VS4210_hdmi1280x800_720P_mode1_w0_param           build/VS4210_param_Modex26.o
                                                  ./Lib/libVS4210.a(VS4210.o)
VS4210_hdmi1280x800_720P_mode1_w1_param           build/VS4210_param_Modex26.o
                                                  ./Lib/libVS4210.a(VS4210.o)
VS4210_hdmi1280x800_720P_mode1_w2_param           build/VS4210_param_Modex26.o
                                                  ./Lib/libVS4210.a(VS4210.o)
VS4210_hdmi1280x800_720P_mode1_w3_param           build/VS4210_param_Modex26.o
                                                  ./Lib/libVS4210.a(VS4210.o)
VS4210_hdmi1280x800_720P_mode24_w0_param          build/VS4210_param_Modex26.o
                                                  ./Lib/libVS4210.a(VS4210.o)
VS4210_hdmi1280x800_720P_mode24_w1_param          build/VS4210_param_Modex26.o
                                                  ./Lib/libVS4210.a(VS4210.o)
VS4210_hdmi1280x800_720P_mode2_w0_param           build/VS4210_param_Modex26.o
                                                  ./Lib/libVS4210.a(VS4210.o)
VS4210_hdmi1280x800_720P_mode2_w1_param           build/VS4210_param_Modex26.o
                                                  ./Lib/libVS4210.a(VS4210.o)
VS4210_hdmi1280x800_720P_mode2_w2_param           build/VS4210_param_Modex26.o
                                                  ./Lib/libVS4210.a(VS4210.o)
VS4210_hdmi1280x800_720P_mode2_w3_param           build/VS4210_param_Modex26.o
                                                  ./Lib/libVS4210.a(VS4210.o)
VS4210_hdmi1280x800_720P_mode6_w0_param           build/VS4210_param_Modex26.o
                                                  ./Lib/libVS4210.a(VS4210.o)
VS4210_hdmi1280x800_720P_mode6_w1_param           build/VS4210_param_Modex26.o
                                                  ./Lib/libVS4210.a(VS4210.o)
VS4210_hdmi1280x800_720P_mode6_w2_param           build/VS4210_param_Modex26.o
                                                  ./Lib/libVS4210.a(VS4210.o)
VS4210_hdmi1280x800_720P_mode6_w3_param           build/VS4210_param_Modex26.o
                                                  ./Lib/libVS4210.a(VS4210.o)
VS4210_hdmi1360x768_1080P_mode0_w0_88param        build/VS4210_param_Mode88.o
                                                  ./Lib/libVS4210.a(VS4210.o)
VS4210_hdmi1360x768_1080P_mode12_w0_param         build/VS4210_param_Modex26.o
                                                  ./Lib/libVS4210.a(VS4210.o)
VS4210_hdmi1360x768_1080P_mode12_w1_param         build/VS4210_param_Modex26.o
                                                  ./Lib/libVS4210.a(VS4210.o)
VS4210_hdmi1360x768_1080P_mode13_w0_param         build/VS4210_param_Modex26.o
                                                  ./Lib/libVS4210.a(VS4210.o)
VS4210_hdmi1360x768_1080P_mode13_w1_param         build/VS4210_param_Modex26.o
                                                  ./Lib/libVS4210.a(VS4210.o)
VS4210_hdmi1360x768_1080P_mode1_w0_param          build/VS4210_param_Modex26.o
                                                  ./Lib/libVS4210.a(VS4210.o)
VS4210_hdmi1360x768_1080P_mode1_w1_param          build/VS4210_param_Modex26.o
                                                  ./Lib/libVS4210.a(VS4210.o)
VS4210_hdmi1360x768_1080P_mode1_w2_param          build/VS4210_param_Modex26.o
                                                  ./Lib/libVS4210.a(VS4210.o)
VS4210_hdmi1360x768_1080P_mode1_w3_param          build/VS4210_param_Modex26.o
                                                  ./Lib/libVS4210.a(VS4210.o)
VS4210_hdmi1360x768_1080P_mode2_w0_param          build/VS4210_param_Modex26.o
                                                  ./Lib/libVS4210.a(VS4210.o)
VS4210_hdmi1360x768_1080P_mode2_w1_param          build/VS4210_param_Modex26.o
                                                  ./Lib/libVS4210.a(VS4210.o)
VS4210_hdmi1360x768_1080P_mode2_w2_param          build/VS4210_param_Modex26.o
                                                  ./Lib/libVS4210.a(VS4210.o)
VS4210_hdmi1360x768_1080P_mode2_w3_param          build/VS4210_param_Modex26.o
                                                  ./Lib/libVS4210.a(VS4210.o)
VS4210_hdmi1360x768_1080P_mode6_w0_param          build/VS4210_param_Modex26.o
                                                  ./Lib/libVS4210.a(VS4210.o)
VS4210_hdmi1360x768_1080P_mode6_w1_param          build/VS4210_param_Modex26.o
                                                  ./Lib/libVS4210.a(VS4210.o)
VS4210_hdmi1360x768_1080P_mode6_w2_param          build/VS4210_param_Modex26.o
                                                  ./Lib/libVS4210.a(VS4210.o)
VS4210_hdmi1360x768_1080P_mode6_w3_param          build/VS4210_param_Modex26.o
                                                  ./Lib/libVS4210.a(VS4210.o)
VS4210_hdmi1360x768_1080P_mode6pip_w0_param       build/VS4210_param_Modex26.o
                                                  ./Lib/libVS4210.a(VS4210.o)
VS4210_hdmi1360x768_1080P_mode6pip_w1_param       build/VS4210_param_Modex26.o
                                                  ./Lib/libVS4210.a(VS4210.o)
VS4210_hdmi1360x768_1080P_mode6pip_w2_param       build/VS4210_param_Modex26.o
                                                  ./Lib/libVS4210.a(VS4210.o)
VS4210_hdmi1360x768_1080P_mode6pip_w3_param       build/VS4210_param_Modex26.o
                                                  ./Lib/libVS4210.a(VS4210.o)
VS4210_hdmi1360x768_720P_mode0_w0_88param         build/VS4210_param_Mode88.o
                                                  ./Lib/libVS4210.a(VS4210.o)
VS4210_hdmi1360x768_720P_mode12_w0_param          build/VS4210_param_Modex26.o
                                                  ./Lib/libVS4210.a(VS4210.o)
VS4210_hdmi1360x768_720P_mode12_w1_param          build/VS4210_param_Modex26.o
                                                  ./Lib/libVS4210.a(VS4210.o)
VS4210_hdmi1360x768_720P_mode13_w0_param          build/VS4210_param_Modex26.o
                                                  ./Lib/libVS4210.a(VS4210.o)
VS4210_hdmi1360x768_720P_mode13_w1_param          build/VS4210_param_Modex26.o
                                                  ./Lib/libVS4210.a(VS4210.o)
VS4210_hdmi1360x768_720P_mode1_w0_param           build/VS4210_param_Modex26.o
                                                  ./Lib/libVS4210.a(VS4210.o)
VS4210_hdmi1360x768_720P_mode1_w1_param           build/VS4210_param_Modex26.o
                                                  ./Lib/libVS4210.a(VS4210.o)
VS4210_hdmi1360x768_720P_mode1_w2_param           build/VS4210_param_Modex26.o
                                                  ./Lib/libVS4210.a(VS4210.o)
VS4210_hdmi1360x768_720P_mode1_w3_param           build/VS4210_param_Modex26.o
                                                  ./Lib/libVS4210.a(VS4210.o)
VS4210_hdmi1360x768_720P_mode24_w0_param          build/VS4210_param_Modex26.o
                                                  ./Lib/libVS4210.a(VS4210.o)
VS4210_hdmi1360x768_720P_mode24_w1_param          build/VS4210_param_Modex26.o
                                                  ./Lib/libVS4210.a(VS4210.o)
VS4210_hdmi1360x768_720P_mode2_w0_param           build/VS4210_param_Modex26.o
                                                  ./Lib/libVS4210.a(VS4210.o)
VS4210_hdmi1360x768_720P_mode2_w1_param           build/VS4210_param_Modex26.o
                                                  ./Lib/libVS4210.a(VS4210.o)
VS4210_hdmi1360x768_720P_mode2_w2_param           build/VS4210_param_Modex26.o
                                                  ./Lib/libVS4210.a(VS4210.o)
VS4210_hdmi1360x768_720P_mode2_w3_param           build/VS4210_param_Modex26.o
                                                  ./Lib/libVS4210.a(VS4210.o)
VS4210_hdmi1360x768_720P_mode6_w0_param           build/VS4210_param_Modex26.o
                                                  ./Lib/libVS4210.a(VS4210.o)
VS4210_hdmi1360x768_720P_mode6_w1_param           build/VS4210_param_Modex26.o
                                                  ./Lib/libVS4210.a(VS4210.o)
VS4210_hdmi1360x768_720P_mode6_w2_param           build/VS4210_param_Modex26.o
                                                  ./Lib/libVS4210.a(VS4210.o)
VS4210_hdmi1360x768_720P_mode6_w3_param           build/VS4210_param_Modex26.o
                                                  ./Lib/libVS4210.a(VS4210.o)
VS4210_hdmi1366x768_1080P_mode0_w0_88param        build/VS4210_param_Mode88.o
                                                  ./Lib/libVS4210.a(VS4210.o)
VS4210_hdmi1366x768_1080P_mode12_w0_param         build/VS4210_param_Modex26.o
                                                  ./Lib/libVS4210.a(VS4210.o)
VS4210_hdmi1366x768_1080P_mode12_w1_param         build/VS4210_param_Modex26.o
                                                  ./Lib/libVS4210.a(VS4210.o)
VS4210_hdmi1366x768_1080P_mode13_w0_param         build/VS4210_param_Modex26.o
                                                  ./Lib/libVS4210.a(VS4210.o)
VS4210_hdmi1366x768_1080P_mode13_w1_param         build/VS4210_param_Modex26.o
                                                  ./Lib/libVS4210.a(VS4210.o)
VS4210_hdmi1366x768_1080P_mode1_w0_param          build/VS4210_param_Modex26.o
                                                  ./Lib/libVS4210.a(VS4210.o)
VS4210_hdmi1366x768_1080P_mode1_w1_param          build/VS4210_param_Modex26.o
                                                  ./Lib/libVS4210.a(VS4210.o)
VS4210_hdmi1366x768_1080P_mode1_w2_param          build/VS4210_param_Modex26.o
                                                  ./Lib/libVS4210.a(VS4210.o)
VS4210_hdmi1366x768_1080P_mode1_w3_param          build/VS4210_param_Modex26.o
                                                  ./Lib/libVS4210.a(VS4210.o)
VS4210_hdmi1366x768_1080P_mode2_w0_param          build/VS4210_param_Modex26.o
                                                  ./Lib/libVS4210.a(VS4210.o)
VS4210_hdmi1366x768_1080P_mode2_w1_param          build/VS4210_param_Modex26.o
                                                  ./Lib/libVS4210.a(VS4210.o)
VS4210_hdmi1366x768_1080P_mode2_w2_param          build/VS4210_param_Modex26.o
                                                  ./Lib/libVS4210.a(VS4210.o)
VS4210_hdmi1366x768_1080P_mode2_w3_param          build/VS4210_param_Modex26.o
                                                  ./Lib/libVS4210.a(VS4210.o)
VS4210_hdmi1366x768_1080P_mode6_w0_param          build/VS4210_param_Modex26.o
                                                  ./Lib/libVS4210.a(VS4210.o)
VS4210_hdmi1366x768_1080P_mode6_w1_param          build/VS4210_param_Modex26.o
                                                  ./Lib/libVS4210.a(VS4210.o)
VS4210_hdmi1366x768_1080P_mode6_w2_param          build/VS4210_param_Modex26.o
                                                  ./Lib/libVS4210.a(VS4210.o)
VS4210_hdmi1366x768_1080P_mode6_w3_param          build/VS4210_param_Modex26.o
                                                  ./Lib/libVS4210.a(VS4210.o)
VS4210_hdmi1366x768_1080P_mode6pip_w0_param       build/VS4210_param_Modex26.o
                                                  ./Lib/libVS4210.a(VS4210.o)
VS4210_hdmi1366x768_1080P_mode6pip_w1_param       build/VS4210_param_Modex26.o
                                                  ./Lib/libVS4210.a(VS4210.o)
VS4210_hdmi1366x768_1080P_mode6pip_w2_param       build/VS4210_param_Modex26.o
                                                  ./Lib/libVS4210.a(VS4210.o)
VS4210_hdmi1366x768_1080P_mode6pip_w3_param       build/VS4210_param_Modex26.o
                                                  ./Lib/libVS4210.a(VS4210.o)
VS4210_hdmi1366x768_720P_mode0_w0_88param         build/VS4210_param_Mode88.o
                                                  ./Lib/libVS4210.a(VS4210.o)
VS4210_hdmi1366x768_720P_mode12_w0_param          build/VS4210_param_Modex26.o
                                                  ./Lib/libVS4210.a(VS4210.o)
VS4210_hdmi1366x768_720P_mode12_w1_param          build/VS4210_param_Modex26.o
                                                  ./Lib/libVS4210.a(VS4210.o)
VS4210_hdmi1366x768_720P_mode13_w0_param          build/VS4210_param_Modex26.o
                                                  ./Lib/libVS4210.a(VS4210.o)
VS4210_hdmi1366x768_720P_mode13_w1_param          build/VS4210_param_Modex26.o
                                                  ./Lib/libVS4210.a(VS4210.o)
VS4210_hdmi1366x768_720P_mode1_w0_param           build/VS4210_param_Modex26.o
                                                  ./Lib/libVS4210.a(VS4210.o)
VS4210_hdmi1366x768_720P_mode1_w1_param           build/VS4210_param_Modex26.o
                                                  ./Lib/libVS4210.a(VS4210.o)
VS4210_hdmi1366x768_720P_mode1_w2_param           build/VS4210_param_Modex26.o
                                                  ./Lib/libVS4210.a(VS4210.o)
VS4210_hdmi1366x768_720P_mode1_w3_param           build/VS4210_param_Modex26.o
                                                  ./Lib/libVS4210.a(VS4210.o)
VS4210_hdmi1366x768_720P_mode24_w0_param          build/VS4210_param_Modex26.o
                                                  ./Lib/libVS4210.a(VS4210.o)
VS4210_hdmi1366x768_720P_mode24_w1_param          build/VS4210_param_Modex26.o
                                                  ./Lib/libVS4210.a(VS4210.o)
VS4210_hdmi1366x768_720P_mode2_w0_param           build/VS4210_param_Modex26.o
                                                  ./Lib/libVS4210.a(VS4210.o)
VS4210_hdmi1366x768_720P_mode2_w1_param           build/VS4210_param_Modex26.o
                                                  ./Lib/libVS4210.a(VS4210.o)
VS4210_hdmi1366x768_720P_mode2_w2_param           build/VS4210_param_Modex26.o
                                                  ./Lib/libVS4210.a(VS4210.o)
VS4210_hdmi1366x768_720P_mode2_w3_param           build/VS4210_param_Modex26.o
                                                  ./Lib/libVS4210.a(VS4210.o)
VS4210_hdmi1366x768_720P_mode6_w0_param           build/VS4210_param_Modex26.o
                                                  ./Lib/libVS4210.a(VS4210.o)
VS4210_hdmi1366x768_720P_mode6_w1_param           build/VS4210_param_Modex26.o
                                                  ./Lib/libVS4210.a(VS4210.o)
VS4210_hdmi1366x768_720P_mode6_w2_param           build/VS4210_param_Modex26.o
                                                  ./Lib/libVS4210.a(VS4210.o)
VS4210_hdmi1366x768_720P_mode6_w3_param           build/VS4210_param_Modex26.o
                                                  ./Lib/libVS4210.a(VS4210.o)
VS4210_hdmi1400x1050_1080P_mode0_w0_88param       build/VS4210_param_Mode88.o
                                                  ./Lib/libVS4210.a(VS4210.o)
VS4210_hdmi1400x1050_1080P_mode12_w0_param        build/VS4210_param_Modex26.o
                                                  ./Lib/libVS4210.a(VS4210.o)
VS4210_hdmi1400x1050_1080P_mode12_w1_param        build/VS4210_param_Modex26.o
                                                  ./Lib/libVS4210.a(VS4210.o)
VS4210_hdmi1400x1050_1080P_mode13_w0_param        build/VS4210_param_Modex26.o
                                                  ./Lib/libVS4210.a(VS4210.o)
VS4210_hdmi1400x1050_1080P_mode13_w1_param        build/VS4210_param_Modex26.o
                                                  ./Lib/libVS4210.a(VS4210.o)
VS4210_hdmi1400x1050_1080P_mode1_w0_param         build/VS4210_param_Modex26.o
                                                  ./Lib/libVS4210.a(VS4210.o)
VS4210_hdmi1400x1050_1080P_mode1_w1_param         build/VS4210_param_Modex26.o
                                                  ./Lib/libVS4210.a(VS4210.o)
VS4210_hdmi1400x1050_1080P_mode1_w2_param         build/VS4210_param_Modex26.o
                                                  ./Lib/libVS4210.a(VS4210.o)
VS4210_hdmi1400x1050_1080P_mode1_w3_param         build/VS4210_param_Modex26.o
                                                  ./Lib/libVS4210.a(VS4210.o)
VS4210_hdmi1400x1050_1080P_mode2_w0_param         build/VS4210_param_Modex26.o
                                                  ./Lib/libVS4210.a(VS4210.o)
VS4210_hdmi1400x1050_1080P_mode2_w1_param         build/VS4210_param_Modex26.o
                                                  ./Lib/libVS4210.a(VS4210.o)
VS4210_hdmi1400x1050_1080P_mode2_w2_param         build/VS4210_param_Modex26.o
                                                  ./Lib/libVS4210.a(VS4210.o)
VS4210_hdmi1400x1050_1080P_mode2_w3_param         build/VS4210_param_Modex26.o
                                                  ./Lib/libVS4210.a(VS4210.o)
VS4210_hdmi1400x1050_1080P_mode6_w0_param         build/VS4210_param_Modex26.o
                                                  ./Lib/libVS4210.a(VS4210.o)
VS4210_hdmi1400x1050_1080P_mode6_w1_param         build/VS4210_param_Modex26.o
                                                  ./Lib/libVS4210.a(VS4210.o)
VS4210_hdmi1400x1050_1080P_mode6_w2_param         build/VS4210_param_Modex26.o
                                                  ./Lib/libVS4210.a(VS4210.o)
VS4210_hdmi1400x1050_1080P_mode6_w3_param         build/VS4210_param_Modex26.o
                                                  ./Lib/libVS4210.a(VS4210.o)
VS4210_hdmi1400x1050_1080P_mode6pip_w0_param      build/VS4210_param_Modex26.o
                                                  ./Lib/libVS4210.a(VS4210.o)
VS4210_hdmi1400x1050_1080P_mode6pip_w1_param      build/VS4210_param_Modex26.o
                                                  ./Lib/libVS4210.a(VS4210.o)
VS4210_hdmi1400x1050_1080P_mode6pip_w2_param      build/VS4210_param_Modex26.o
                                                  ./Lib/libVS4210.a(VS4210.o)
VS4210_hdmi1400x1050_1080P_mode6pip_w3_param      build/VS4210_param_Modex26.o
                                                  ./Lib/libVS4210.a(VS4210.o)
VS4210_hdmi1400x1050_720P_mode0_w0_88param        build/VS4210_param_Mode88.o
                                                  ./Lib/libVS4210.a(VS4210.o)
VS4210_hdmi1400x1050_720P_mode12_w0_param         build/VS4210_param_Modex26.o
                                                  ./Lib/libVS4210.a(VS4210.o)
VS4210_hdmi1400x1050_720P_mode12_w1_param         build/VS4210_param_Modex26.o
                                                  ./Lib/libVS4210.a(VS4210.o)
VS4210_hdmi1400x1050_720P_mode13_w0_param         build/VS4210_param_Modex26.o
                                                  ./Lib/libVS4210.a(VS4210.o)
VS4210_hdmi1400x1050_720P_mode13_w1_param         build/VS4210_param_Modex26.o
                                                  ./Lib/libVS4210.a(VS4210.o)
VS4210_hdmi1400x1050_720P_mode1_w0_param          build/VS4210_param_Modex26.o
                                                  ./Lib/libVS4210.a(VS4210.o)
VS4210_hdmi1400x1050_720P_mode1_w1_param          build/VS4210_param_Modex26.o
                                                  ./Lib/libVS4210.a(VS4210.o)
VS4210_hdmi1400x1050_720P_mode1_w2_param          build/VS4210_param_Modex26.o
                                                  ./Lib/libVS4210.a(VS4210.o)
VS4210_hdmi1400x1050_720P_mode1_w3_param          build/VS4210_param_Modex26.o
                                                  ./Lib/libVS4210.a(VS4210.o)
VS4210_hdmi1400x1050_720P_mode24_w0_param         build/VS4210_param_Modex26.o
                                                  ./Lib/libVS4210.a(VS4210.o)
VS4210_hdmi1400x1050_720P_mode24_w1_param         build/VS4210_param_Modex26.o
                                                  ./Lib/libVS4210.a(VS4210.o)
VS4210_hdmi1400x1050_720P_mode2_w0_param          build/VS4210_param_Modex26.o
                                                  ./Lib/libVS4210.a(VS4210.o)
VS4210_hdmi1400x1050_720P_mode2_w1_param          build/VS4210_param_Modex26.o
                                                  ./Lib/libVS4210.a(VS4210.o)
VS4210_hdmi1400x1050_720P_mode2_w2_param          build/VS4210_param_Modex26.o
                                                  ./Lib/libVS4210.a(VS4210.o)
VS4210_hdmi1400x1050_720P_mode2_w3_param          build/VS4210_param_Modex26.o
                                                  ./Lib/libVS4210.a(VS4210.o)
VS4210_hdmi1400x1050_720P_mode6_w0_param          build/VS4210_param_Modex26.o
                                                  ./Lib/libVS4210.a(VS4210.o)
VS4210_hdmi1400x1050_720P_mode6_w1_param          build/VS4210_param_Modex26.o
                                                  ./Lib/libVS4210.a(VS4210.o)
VS4210_hdmi1400x1050_720P_mode6_w2_param          build/VS4210_param_Modex26.o
                                                  ./Lib/libVS4210.a(VS4210.o)
VS4210_hdmi1400x1050_720P_mode6_w3_param          build/VS4210_param_Modex26.o
                                                  ./Lib/libVS4210.a(VS4210.o)
VS4210_hdmi1440x900_1080P_mode0_w0_88param        build/VS4210_param_Mode88.o
                                                  ./Lib/libVS4210.a(VS4210.o)
VS4210_hdmi1440x900_1080P_mode12_w0_param         build/VS4210_param_Modex26.o
                                                  ./Lib/libVS4210.a(VS4210.o)
VS4210_hdmi1440x900_1080P_mode12_w1_param         build/VS4210_param_Modex26.o
                                                  ./Lib/libVS4210.a(VS4210.o)
VS4210_hdmi1440x900_1080P_mode13_w0_param         build/VS4210_param_Modex26.o
                                                  ./Lib/libVS4210.a(VS4210.o)
VS4210_hdmi1440x900_1080P_mode13_w1_param         build/VS4210_param_Modex26.o
                                                  ./Lib/libVS4210.a(VS4210.o)
VS4210_hdmi1440x900_1080P_mode1_w0_param          build/VS4210_param_Modex26.o
                                                  ./Lib/libVS4210.a(VS4210.o)
VS4210_hdmi1440x900_1080P_mode1_w1_param          build/VS4210_param_Modex26.o
                                                  ./Lib/libVS4210.a(VS4210.o)
VS4210_hdmi1440x900_1080P_mode1_w2_param          build/VS4210_param_Modex26.o
                                                  ./Lib/libVS4210.a(VS4210.o)
VS4210_hdmi1440x900_1080P_mode1_w3_param          build/VS4210_param_Modex26.o
                                                  ./Lib/libVS4210.a(VS4210.o)
VS4210_hdmi1440x900_1080P_mode2_w0_param          build/VS4210_param_Modex26.o
                                                  ./Lib/libVS4210.a(VS4210.o)
VS4210_hdmi1440x900_1080P_mode2_w1_param          build/VS4210_param_Modex26.o
                                                  ./Lib/libVS4210.a(VS4210.o)
VS4210_hdmi1440x900_1080P_mode2_w2_param          build/VS4210_param_Modex26.o
                                                  ./Lib/libVS4210.a(VS4210.o)
VS4210_hdmi1440x900_1080P_mode2_w3_param          build/VS4210_param_Modex26.o
                                                  ./Lib/libVS4210.a(VS4210.o)
VS4210_hdmi1440x900_1080P_mode6_w0_param          build/VS4210_param_Modex26.o
                                                  ./Lib/libVS4210.a(VS4210.o)
VS4210_hdmi1440x900_1080P_mode6_w1_param          build/VS4210_param_Modex26.o
                                                  ./Lib/libVS4210.a(VS4210.o)
VS4210_hdmi1440x900_1080P_mode6_w2_param          build/VS4210_param_Modex26.o
                                                  ./Lib/libVS4210.a(VS4210.o)
VS4210_hdmi1440x900_1080P_mode6_w3_param          build/VS4210_param_Modex26.o
                                                  ./Lib/libVS4210.a(VS4210.o)
VS4210_hdmi1440x900_1080P_mode6pip_w0_param       build/VS4210_param_Modex26.o
                                                  ./Lib/libVS4210.a(VS4210.o)
VS4210_hdmi1440x900_1080P_mode6pip_w1_param       build/VS4210_param_Modex26.o
                                                  ./Lib/libVS4210.a(VS4210.o)
VS4210_hdmi1440x900_1080P_mode6pip_w2_param       build/VS4210_param_Modex26.o
                                                  ./Lib/libVS4210.a(VS4210.o)
VS4210_hdmi1440x900_1080P_mode6pip_w3_param       build/VS4210_param_Modex26.o
                                                  ./Lib/libVS4210.a(VS4210.o)
VS4210_hdmi1440x900_720P_mode0_w0_88param         build/VS4210_param_Mode88.o
                                                  ./Lib/libVS4210.a(VS4210.o)
VS4210_hdmi1440x900_720P_mode12_w0_param          build/VS4210_param_Modex26.o
                                                  ./Lib/libVS4210.a(VS4210.o)
VS4210_hdmi1440x900_720P_mode12_w1_param          build/VS4210_param_Modex26.o
                                                  ./Lib/libVS4210.a(VS4210.o)
VS4210_hdmi1440x900_720P_mode13_w0_param          build/VS4210_param_Modex26.o
                                                  ./Lib/libVS4210.a(VS4210.o)
VS4210_hdmi1440x900_720P_mode13_w1_param          build/VS4210_param_Modex26.o
                                                  ./Lib/libVS4210.a(VS4210.o)
VS4210_hdmi1440x900_720P_mode1_w0_param           build/VS4210_param_Modex26.o
                                                  ./Lib/libVS4210.a(VS4210.o)
VS4210_hdmi1440x900_720P_mode1_w1_param           build/VS4210_param_Modex26.o
                                                  ./Lib/libVS4210.a(VS4210.o)
VS4210_hdmi1440x900_720P_mode1_w2_param           build/VS4210_param_Modex26.o
                                                  ./Lib/libVS4210.a(VS4210.o)
VS4210_hdmi1440x900_720P_mode1_w3_param           build/VS4210_param_Modex26.o
                                                  ./Lib/libVS4210.a(VS4210.o)
VS4210_hdmi1440x900_720P_mode24_w0_param          build/VS4210_param_Modex26.o
                                                  ./Lib/libVS4210.a(VS4210.o)
VS4210_hdmi1440x900_720P_mode24_w1_param          build/VS4210_param_Modex26.o
                                                  ./Lib/libVS4210.a(VS4210.o)
VS4210_hdmi1440x900_720P_mode2_w0_param           build/VS4210_param_Modex26.o
                                                  ./Lib/libVS4210.a(VS4210.o)
VS4210_hdmi1440x900_720P_mode2_w1_param           build/VS4210_param_Modex26.o
                                                  ./Lib/libVS4210.a(VS4210.o)
VS4210_hdmi1440x900_720P_mode2_w2_param           build/VS4210_param_Modex26.o
                                                  ./Lib/libVS4210.a(VS4210.o)
VS4210_hdmi1440x900_720P_mode2_w3_param           build/VS4210_param_Modex26.o
                                                  ./Lib/libVS4210.a(VS4210.o)
VS4210_hdmi1440x900_720P_mode6_w0_param           build/VS4210_param_Modex26.o
                                                  ./Lib/libVS4210.a(VS4210.o)
VS4210_hdmi1440x900_720P_mode6_w1_param           build/VS4210_param_Modex26.o
                                                  ./Lib/libVS4210.a(VS4210.o)
VS4210_hdmi1440x900_720P_mode6_w2_param           build/VS4210_param_Modex26.o
                                                  ./Lib/libVS4210.a(VS4210.o)
VS4210_hdmi1440x900_720P_mode6_w3_param           build/VS4210_param_Modex26.o
                                                  ./Lib/libVS4210.a(VS4210.o)
VS4210_hdmi1600x1200_1080P_mode0_w0_88param       build/VS4210_param_Mode88.o
                                                  ./Lib/libVS4210.a(VS4210.o)
VS4210_hdmi1600x1200_1080P_mode12_w0_param        build/VS4210_param_Modex26.o
                                                  ./Lib/libVS4210.a(VS4210.o)
VS4210_hdmi1600x1200_1080P_mode12_w1_param        build/VS4210_param_Modex26.o
                                                  ./Lib/libVS4210.a(VS4210.o)
VS4210_hdmi1600x1200_1080P_mode13_w0_param        build/VS4210_param_Modex26.o
                                                  ./Lib/libVS4210.a(VS4210.o)
VS4210_hdmi1600x1200_1080P_mode13_w1_param        build/VS4210_param_Modex26.o
                                                  ./Lib/libVS4210.a(VS4210.o)
VS4210_hdmi1600x1200_1080P_mode1_w0_param         build/VS4210_param_Modex26.o
                                                  ./Lib/libVS4210.a(VS4210.o)
VS4210_hdmi1600x1200_1080P_mode1_w1_param         build/VS4210_param_Modex26.o
                                                  ./Lib/libVS4210.a(VS4210.o)
VS4210_hdmi1600x1200_1080P_mode1_w2_param         build/VS4210_param_Modex26.o
                                                  ./Lib/libVS4210.a(VS4210.o)
VS4210_hdmi1600x1200_1080P_mode1_w3_param         build/VS4210_param_Modex26.o
                                                  ./Lib/libVS4210.a(VS4210.o)
VS4210_hdmi1600x1200_1080P_mode2_w0_param         build/VS4210_param_Modex26.o
                                                  ./Lib/libVS4210.a(VS4210.o)
VS4210_hdmi1600x1200_1080P_mode2_w1_param         build/VS4210_param_Modex26.o
                                                  ./Lib/libVS4210.a(VS4210.o)
VS4210_hdmi1600x1200_1080P_mode2_w2_param         build/VS4210_param_Modex26.o
                                                  ./Lib/libVS4210.a(VS4210.o)
VS4210_hdmi1600x1200_1080P_mode2_w3_param         build/VS4210_param_Modex26.o
                                                  ./Lib/libVS4210.a(VS4210.o)
VS4210_hdmi1600x1200_1080P_mode6_w0_param         build/VS4210_param_Modex26.o
                                                  ./Lib/libVS4210.a(VS4210.o)
VS4210_hdmi1600x1200_1080P_mode6_w1_param         build/VS4210_param_Modex26.o
                                                  ./Lib/libVS4210.a(VS4210.o)
VS4210_hdmi1600x1200_1080P_mode6_w2_param         build/VS4210_param_Modex26.o
                                                  ./Lib/libVS4210.a(VS4210.o)
VS4210_hdmi1600x1200_1080P_mode6_w3_param         build/VS4210_param_Modex26.o
                                                  ./Lib/libVS4210.a(VS4210.o)
VS4210_hdmi1600x1200_1080P_mode6pip_w0_param      build/VS4210_param_Modex26.o
                                                  ./Lib/libVS4210.a(VS4210.o)
VS4210_hdmi1600x1200_1080P_mode6pip_w3_param      build/VS4210_param_Modex26.o
VS4210_hdmi1600x1200_720P_mode0_w0_88param        build/VS4210_param_Mode88.o
                                                  ./Lib/libVS4210.a(VS4210.o)
VS4210_hdmi1600x1200_720P_mode12_w0_param         build/VS4210_param_Modex26.o
                                                  ./Lib/libVS4210.a(VS4210.o)
VS4210_hdmi1600x1200_720P_mode12_w1_param         build/VS4210_param_Modex26.o
                                                  ./Lib/libVS4210.a(VS4210.o)
VS4210_hdmi1600x1200_720P_mode13_w0_param         build/VS4210_param_Modex26.o
                                                  ./Lib/libVS4210.a(VS4210.o)
VS4210_hdmi1600x1200_720P_mode13_w1_param         build/VS4210_param_Modex26.o
                                                  ./Lib/libVS4210.a(VS4210.o)
VS4210_hdmi1600x1200_720P_mode1_w0_param          build/VS4210_param_Modex26.o
                                                  ./Lib/libVS4210.a(VS4210.o)
VS4210_hdmi1600x1200_720P_mode1_w1_param          build/VS4210_param_Modex26.o
                                                  ./Lib/libVS4210.a(VS4210.o)
VS4210_hdmi1600x1200_720P_mode1_w2_param          build/VS4210_param_Modex26.o
                                                  ./Lib/libVS4210.a(VS4210.o)
VS4210_hdmi1600x1200_720P_mode1_w3_param          build/VS4210_param_Modex26.o
                                                  ./Lib/libVS4210.a(VS4210.o)
VS4210_hdmi1600x1200_720P_mode24_w0_param         build/VS4210_param_Modex26.o
                                                  ./Lib/libVS4210.a(VS4210.o)
VS4210_hdmi1600x1200_720P_mode24_w1_param         build/VS4210_param_Modex26.o
                                                  ./Lib/libVS4210.a(VS4210.o)
VS4210_hdmi1600x1200_720P_mode2_w0_param          build/VS4210_param_Modex26.o
                                                  ./Lib/libVS4210.a(VS4210.o)
VS4210_hdmi1600x1200_720P_mode2_w1_param          build/VS4210_param_Modex26.o
                                                  ./Lib/libVS4210.a(VS4210.o)
VS4210_hdmi1600x1200_720P_mode2_w2_param          build/VS4210_param_Modex26.o
                                                  ./Lib/libVS4210.a(VS4210.o)
VS4210_hdmi1600x1200_720P_mode2_w3_param          build/VS4210_param_Modex26.o
                                                  ./Lib/libVS4210.a(VS4210.o)
VS4210_hdmi1600x1200_720P_mode6_w0_param          build/VS4210_param_Modex26.o
                                                  ./Lib/libVS4210.a(VS4210.o)
VS4210_hdmi1600x1200_720P_mode6_w1_param          build/VS4210_param_Modex26.o
                                                  ./Lib/libVS4210.a(VS4210.o)
VS4210_hdmi1600x1200_720P_mode6_w2_param          build/VS4210_param_Modex26.o
                                                  ./Lib/libVS4210.a(VS4210.o)
VS4210_hdmi1600x1200_720P_mode6_w3_param          build/VS4210_param_Modex26.o
                                                  ./Lib/libVS4210.a(VS4210.o)
VS4210_hdmi1680x1050_1080P_mode0_w0_88param       build/VS4210_param_Mode88.o
                                                  ./Lib/libVS4210.a(VS4210.o)
VS4210_hdmi1680x1050_1080P_mode12_w0_param        build/VS4210_param_Modex26.o
                                                  ./Lib/libVS4210.a(VS4210.o)
VS4210_hdmi1680x1050_1080P_mode12_w1_param        build/VS4210_param_Modex26.o
                                                  ./Lib/libVS4210.a(VS4210.o)
VS4210_hdmi1680x1050_1080P_mode13_w0_param        build/VS4210_param_Modex26.o
                                                  ./Lib/libVS4210.a(VS4210.o)
VS4210_hdmi1680x1050_1080P_mode13_w1_param        build/VS4210_param_Modex26.o
                                                  ./Lib/libVS4210.a(VS4210.o)
VS4210_hdmi1680x1050_1080P_mode1_w0_param         build/VS4210_param_Modex26.o
                                                  ./Lib/libVS4210.a(VS4210.o)
VS4210_hdmi1680x1050_1080P_mode1_w1_param         build/VS4210_param_Modex26.o
                                                  ./Lib/libVS4210.a(VS4210.o)
VS4210_hdmi1680x1050_1080P_mode1_w2_param         build/VS4210_param_Modex26.o
                                                  ./Lib/libVS4210.a(VS4210.o)
VS4210_hdmi1680x1050_1080P_mode1_w3_param         build/VS4210_param_Modex26.o
                                                  ./Lib/libVS4210.a(VS4210.o)
VS4210_hdmi1680x1050_1080P_mode2_w0_param         build/VS4210_param_Modex26.o
                                                  ./Lib/libVS4210.a(VS4210.o)
VS4210_hdmi1680x1050_1080P_mode2_w1_param         build/VS4210_param_Modex26.o
                                                  ./Lib/libVS4210.a(VS4210.o)
VS4210_hdmi1680x1050_1080P_mode2_w2_param         build/VS4210_param_Modex26.o
                                                  ./Lib/libVS4210.a(VS4210.o)
VS4210_hdmi1680x1050_1080P_mode2_w3_param         build/VS4210_param_Modex26.o
                                                  ./Lib/libVS4210.a(VS4210.o)
VS4210_hdmi1680x1050_1080P_mode6_w0_param         build/VS4210_param_Modex26.o
                                                  ./Lib/libVS4210.a(VS4210.o)
VS4210_hdmi1680x1050_1080P_mode6_w1_param         build/VS4210_param_Modex26.o
                                                  ./Lib/libVS4210.a(VS4210.o)
VS4210_hdmi1680x1050_1080P_mode6_w2_param         build/VS4210_param_Modex26.o
                                                  ./Lib/libVS4210.a(VS4210.o)
VS4210_hdmi1680x1050_1080P_mode6_w3_param         build/VS4210_param_Modex26.o
                                                  ./Lib/libVS4210.a(VS4210.o)
VS4210_hdmi1680x1050_1080P_mode6pip_w0_param      build/VS4210_param_Modex26.o
                                                  ./Lib/libVS4210.a(VS4210.o)
VS4210_hdmi1680x1050_1080P_mode6pip_w1_param      build/VS4210_param_Modex26.o
                                                  ./Lib/libVS4210.a(VS4210.o)
VS4210_hdmi1680x1050_1080P_mode6pip_w2_param      build/VS4210_param_Modex26.o
                                                  ./Lib/libVS4210.a(VS4210.o)
VS4210_hdmi1680x1050_1080P_mode6pip_w3_param      build/VS4210_param_Modex26.o
                                                  ./Lib/libVS4210.a(VS4210.o)
VS4210_hdmi1680x1050_720P_mode0_w0_88param        build/VS4210_param_Mode88.o
                                                  ./Lib/libVS4210.a(VS4210.o)
VS4210_hdmi1680x1050_720P_mode12_w0_param         build/VS4210_param_Modex26.o
                                                  ./Lib/libVS4210.a(VS4210.o)
VS4210_hdmi1680x1050_720P_mode12_w1_param         build/VS4210_param_Modex26.o
                                                  ./Lib/libVS4210.a(VS4210.o)
VS4210_hdmi1680x1050_720P_mode13_w0_param         build/VS4210_param_Modex26.o
                                                  ./Lib/libVS4210.a(VS4210.o)
VS4210_hdmi1680x1050_720P_mode13_w1_param         build/VS4210_param_Modex26.o
                                                  ./Lib/libVS4210.a(VS4210.o)
VS4210_hdmi1680x1050_720P_mode1_w0_param          build/VS4210_param_Modex26.o
                                                  ./Lib/libVS4210.a(VS4210.o)
VS4210_hdmi1680x1050_720P_mode1_w1_param          build/VS4210_param_Modex26.o
                                                  ./Lib/libVS4210.a(VS4210.o)
VS4210_hdmi1680x1050_720P_mode1_w2_param          build/VS4210_param_Modex26.o
                                                  ./Lib/libVS4210.a(VS4210.o)
VS4210_hdmi1680x1050_720P_mode1_w3_param          build/VS4210_param_Modex26.o
                                                  ./Lib/libVS4210.a(VS4210.o)
VS4210_hdmi1680x1050_720P_mode24_w0_param         build/VS4210_param_Modex26.o
                                                  ./Lib/libVS4210.a(VS4210.o)
VS4210_hdmi1680x1050_720P_mode24_w1_param         build/VS4210_param_Modex26.o
                                                  ./Lib/libVS4210.a(VS4210.o)
VS4210_hdmi1680x1050_720P_mode2_w0_param          build/VS4210_param_Modex26.o
                                                  ./Lib/libVS4210.a(VS4210.o)
VS4210_hdmi1680x1050_720P_mode2_w1_param          build/VS4210_param_Modex26.o
                                                  ./Lib/libVS4210.a(VS4210.o)
VS4210_hdmi1680x1050_720P_mode2_w2_param          build/VS4210_param_Modex26.o
                                                  ./Lib/libVS4210.a(VS4210.o)
VS4210_hdmi1680x1050_720P_mode2_w3_param          build/VS4210_param_Modex26.o
                                                  ./Lib/libVS4210.a(VS4210.o)
VS4210_hdmi1680x1050_720P_mode6_w0_param          build/VS4210_param_Modex26.o
                                                  ./Lib/libVS4210.a(VS4210.o)
VS4210_hdmi1680x1050_720P_mode6_w1_param          build/VS4210_param_Modex26.o
                                                  ./Lib/libVS4210.a(VS4210.o)
VS4210_hdmi1680x1050_720P_mode6_w2_param          build/VS4210_param_Modex26.o
                                                  ./Lib/libVS4210.a(VS4210.o)
VS4210_hdmi1680x1050_720P_mode6_w3_param          build/VS4210_param_Modex26.o
                                                  ./Lib/libVS4210.a(VS4210.o)
VS4210_hdmi1920x1080_720P_mode24_w0_param         build/VS4210_param_Modex26.o
VS4210_hdmi1920x1080_720P_mode24_w1_param         build/VS4210_param_Modex26.o
VS4210_hdmi1920x1200_1080P_mode0_w0_88param       build/VS4210_param_Mode88.o
                                                  ./Lib/libVS4210.a(VS4210.o)
VS4210_hdmi1920x1200_1080P_mode12_w0_param        build/VS4210_param_Modex26.o
                                                  ./Lib/libVS4210.a(VS4210.o)
VS4210_hdmi1920x1200_1080P_mode12_w1_param        build/VS4210_param_Modex26.o
                                                  ./Lib/libVS4210.a(VS4210.o)
VS4210_hdmi1920x1200_1080P_mode13_w0_param        build/VS4210_param_Modex26.o
                                                  ./Lib/libVS4210.a(VS4210.o)
VS4210_hdmi1920x1200_1080P_mode13_w1_param        build/VS4210_param_Modex26.o
                                                  ./Lib/libVS4210.a(VS4210.o)
VS4210_hdmi1920x1200_1080P_mode1_w0_param         build/VS4210_param_Modex26.o
                                                  ./Lib/libVS4210.a(VS4210.o)
VS4210_hdmi1920x1200_1080P_mode1_w1_param         build/VS4210_param_Modex26.o
                                                  ./Lib/libVS4210.a(VS4210.o)
VS4210_hdmi1920x1200_1080P_mode1_w2_param         build/VS4210_param_Modex26.o
                                                  ./Lib/libVS4210.a(VS4210.o)
VS4210_hdmi1920x1200_1080P_mode1_w3_param         build/VS4210_param_Modex26.o
                                                  ./Lib/libVS4210.a(VS4210.o)
VS4210_hdmi1920x1200_1080P_mode2_w0_param         build/VS4210_param_Modex26.o
                                                  ./Lib/libVS4210.a(VS4210.o)
VS4210_hdmi1920x1200_1080P_mode2_w1_param         build/VS4210_param_Modex26.o
                                                  ./Lib/libVS4210.a(VS4210.o)
VS4210_hdmi1920x1200_1080P_mode2_w2_param         build/VS4210_param_Modex26.o
                                                  ./Lib/libVS4210.a(VS4210.o)
VS4210_hdmi1920x1200_1080P_mode2_w3_param         build/VS4210_param_Modex26.o
                                                  ./Lib/libVS4210.a(VS4210.o)
VS4210_hdmi1920x1200_1080P_mode6_w0_param         build/VS4210_param_Modex26.o
                                                  ./Lib/libVS4210.a(VS4210.o)
VS4210_hdmi1920x1200_1080P_mode6_w1_param         build/VS4210_param_Modex26.o
                                                  ./Lib/libVS4210.a(VS4210.o)
VS4210_hdmi1920x1200_1080P_mode6_w2_param         build/VS4210_param_Modex26.o
                                                  ./Lib/libVS4210.a(VS4210.o)
VS4210_hdmi1920x1200_1080P_mode6_w3_param         build/VS4210_param_Modex26.o
                                                  ./Lib/libVS4210.a(VS4210.o)
VS4210_hdmi1920x1200_1080P_mode6pip_w0_param      build/VS4210_param_Modex26.o
                                                  ./Lib/libVS4210.a(VS4210.o)
VS4210_hdmi1920x1200_1080P_mode6pip_w3_param      build/VS4210_param_Modex26.o
VS4210_hdmi1920x1200_720P_mode0_w0_88param        build/VS4210_param_Mode88.o
                                                  ./Lib/libVS4210.a(VS4210.o)
VS4210_hdmi1920x1200_720P_mode12_w0_param         build/VS4210_param_Modex26.o
                                                  ./Lib/libVS4210.a(VS4210.o)
VS4210_hdmi1920x1200_720P_mode12_w1_param         build/VS4210_param_Modex26.o
                                                  ./Lib/libVS4210.a(VS4210.o)
VS4210_hdmi1920x1200_720P_mode13_w0_param         build/VS4210_param_Modex26.o
                                                  ./Lib/libVS4210.a(VS4210.o)
VS4210_hdmi1920x1200_720P_mode13_w1_param         build/VS4210_param_Modex26.o
                                                  ./Lib/libVS4210.a(VS4210.o)
VS4210_hdmi1920x1200_720P_mode1_w0_param          build/VS4210_param_Modex26.o
                                                  ./Lib/libVS4210.a(VS4210.o)
VS4210_hdmi1920x1200_720P_mode1_w1_param          build/VS4210_param_Modex26.o
                                                  ./Lib/libVS4210.a(VS4210.o)
VS4210_hdmi1920x1200_720P_mode1_w2_param          build/VS4210_param_Modex26.o
                                                  ./Lib/libVS4210.a(VS4210.o)
VS4210_hdmi1920x1200_720P_mode1_w3_param          build/VS4210_param_Modex26.o
                                                  ./Lib/libVS4210.a(VS4210.o)
VS4210_hdmi1920x1200_720P_mode24_w0_param         build/VS4210_param_Modex26.o
                                                  ./Lib/libVS4210.a(VS4210.o)
VS4210_hdmi1920x1200_720P_mode24_w1_param         build/VS4210_param_Modex26.o
                                                  ./Lib/libVS4210.a(VS4210.o)
VS4210_hdmi1920x1200_720P_mode2_w0_param          build/VS4210_param_Modex26.o
                                                  ./Lib/libVS4210.a(VS4210.o)
VS4210_hdmi1920x1200_720P_mode2_w1_param          build/VS4210_param_Modex26.o
                                                  ./Lib/libVS4210.a(VS4210.o)
VS4210_hdmi1920x1200_720P_mode2_w2_param          build/VS4210_param_Modex26.o
                                                  ./Lib/libVS4210.a(VS4210.o)
VS4210_hdmi1920x1200_720P_mode2_w3_param          build/VS4210_param_Modex26.o
                                                  ./Lib/libVS4210.a(VS4210.o)
VS4210_hdmi1920x1200_720P_mode6_w0_param          build/VS4210_param_Modex26.o
                                                  ./Lib/libVS4210.a(VS4210.o)
VS4210_hdmi1920x1200_720P_mode6_w1_param          build/VS4210_param_Modex26.o
                                                  ./Lib/libVS4210.a(VS4210.o)
VS4210_hdmi1920x1200_720P_mode6_w2_param          build/VS4210_param_Modex26.o
                                                  ./Lib/libVS4210.a(VS4210.o)
VS4210_hdmi1920x1200_720P_mode6_w3_param          build/VS4210_param_Modex26.o
                                                  ./Lib/libVS4210.a(VS4210.o)
VS4210_hdmi480P_1080P_mode0_w0_88param            build/VS4210_param_Mode88.o
                                                  ./Lib/libVS4210.a(VS4210.o)
VS4210_hdmi480P_1080P_mode12_w0_param             build/VS4210_param_Modex26.o
                                                  ./Lib/libVS4210.a(VS4210.o)
VS4210_hdmi480P_1080P_mode12_w1_param             build/VS4210_param_Modex26.o
                                                  ./Lib/libVS4210.a(VS4210.o)
VS4210_hdmi480P_1080P_mode13_w0_param             build/VS4210_param_Modex26.o
                                                  ./Lib/libVS4210.a(VS4210.o)
VS4210_hdmi480P_1080P_mode13_w1_param             build/VS4210_param_Modex26.o
                                                  ./Lib/libVS4210.a(VS4210.o)
VS4210_hdmi480P_1080P_mode1_w0_param              build/VS4210_param_Modex26.o
                                                  ./Lib/libVS4210.a(VS4210.o)
VS4210_hdmi480P_1080P_mode1_w1_param              build/VS4210_param_Modex26.o
                                                  ./Lib/libVS4210.a(VS4210.o)
VS4210_hdmi480P_1080P_mode1_w2_param              build/VS4210_param_Modex26.o
                                                  ./Lib/libVS4210.a(VS4210.o)
VS4210_hdmi480P_1080P_mode1_w3_param              build/VS4210_param_Modex26.o
                                                  ./Lib/libVS4210.a(VS4210.o)
VS4210_hdmi480P_1080P_mode2_w0_param              build/VS4210_param_Modex26.o
                                                  ./Lib/libVS4210.a(VS4210.o)
VS4210_hdmi480P_1080P_mode2_w1_param              build/VS4210_param_Modex26.o
                                                  ./Lib/libVS4210.a(VS4210.o)
VS4210_hdmi480P_1080P_mode2_w2_param              build/VS4210_param_Modex26.o
                                                  ./Lib/libVS4210.a(VS4210.o)
VS4210_hdmi480P_1080P_mode2_w3_param              build/VS4210_param_Modex26.o
                                                  ./Lib/libVS4210.a(VS4210.o)
VS4210_hdmi480P_1080P_mode6_w0_param              build/VS4210_param_Modex26.o
                                                  ./Lib/libVS4210.a(VS4210.o)
VS4210_hdmi480P_1080P_mode6_w1_param              build/VS4210_param_Modex26.o
                                                  ./Lib/libVS4210.a(VS4210.o)
VS4210_hdmi480P_1080P_mode6_w2_param              build/VS4210_param_Modex26.o
                                                  ./Lib/libVS4210.a(VS4210.o)
VS4210_hdmi480P_1080P_mode6_w3_param              build/VS4210_param_Modex26.o
                                                  ./Lib/libVS4210.a(VS4210.o)
VS4210_hdmi480P_1080P_mode6pip_w0_param           build/VS4210_param_Modex26.o
                                                  ./Lib/libVS4210.a(VS4210.o)
VS4210_hdmi480P_1080P_mode6pip_w1_param           build/VS4210_param_Modex26.o
                                                  ./Lib/libVS4210.a(VS4210.o)
VS4210_hdmi480P_1080P_mode6pip_w2_param           build/VS4210_param_Modex26.o
                                                  ./Lib/libVS4210.a(VS4210.o)
VS4210_hdmi480P_1080P_mode6pip_w3_param           build/VS4210_param_Modex26.o
                                                  ./Lib/libVS4210.a(VS4210.o)
VS4210_hdmi480P_720P_mode0_w0_88param             build/VS4210_param_Mode88.o
                                                  ./Lib/libVS4210.a(VS4210.o)
VS4210_hdmi480P_720P_mode12_w0_param              build/VS4210_param_Modex26.o
                                                  ./Lib/libVS4210.a(VS4210.o)
VS4210_hdmi480P_720P_mode12_w1_param              build/VS4210_param_Modex26.o
                                                  ./Lib/libVS4210.a(VS4210.o)
VS4210_hdmi480P_720P_mode13_w0_param              build/VS4210_param_Modex26.o
                                                  ./Lib/libVS4210.a(VS4210.o)
VS4210_hdmi480P_720P_mode13_w1_param              build/VS4210_param_Modex26.o
                                                  ./Lib/libVS4210.a(VS4210.o)
VS4210_hdmi480P_720P_mode1_w0_param               build/VS4210_param_Modex26.o
                                                  ./Lib/libVS4210.a(VS4210.o)
VS4210_hdmi480P_720P_mode1_w1_param               build/VS4210_param_Modex26.o
                                                  ./Lib/libVS4210.a(VS4210.o)
VS4210_hdmi480P_720P_mode1_w2_param               build/VS4210_param_Modex26.o
                                                  ./Lib/libVS4210.a(VS4210.o)
VS4210_hdmi480P_720P_mode1_w3_param               build/VS4210_param_Modex26.o
                                                  ./Lib/libVS4210.a(VS4210.o)
VS4210_hdmi480P_720P_mode24_w0_param              build/VS4210_param_Modex26.o
                                                  ./Lib/libVS4210.a(VS4210.o)
VS4210_hdmi480P_720P_mode24_w1_param              build/VS4210_param_Modex26.o
                                                  ./Lib/libVS4210.a(VS4210.o)
VS4210_hdmi480P_720P_mode2_w0_param               build/VS4210_param_Modex26.o
                                                  ./Lib/libVS4210.a(VS4210.o)
VS4210_hdmi480P_720P_mode2_w1_param               build/VS4210_param_Modex26.o
                                                  ./Lib/libVS4210.a(VS4210.o)
VS4210_hdmi480P_720P_mode2_w2_param               build/VS4210_param_Modex26.o
                                                  ./Lib/libVS4210.a(VS4210.o)
VS4210_hdmi480P_720P_mode2_w3_param               build/VS4210_param_Modex26.o
                                                  ./Lib/libVS4210.a(VS4210.o)
VS4210_hdmi480P_720P_mode6_w0_param               build/VS4210_param_Modex26.o
                                                  ./Lib/libVS4210.a(VS4210.o)
VS4210_hdmi480P_720P_mode6_w1_param               build/VS4210_param_Modex26.o
                                                  ./Lib/libVS4210.a(VS4210.o)
VS4210_hdmi480P_720P_mode6_w2_param               build/VS4210_param_Modex26.o
                                                  ./Lib/libVS4210.a(VS4210.o)
VS4210_hdmi480P_720P_mode6_w3_param               build/VS4210_param_Modex26.o
                                                  ./Lib/libVS4210.a(VS4210.o)
VS4210_hdmi480i_1080P_mode0_w0_88param            build/VS4210_param_Mode88.o
                                                  ./Lib/libVS4210.a(VS4210.o)
VS4210_hdmi480i_1080P_mode12_w0_param             build/VS4210_param_Modex26.o
                                                  ./Lib/libVS4210.a(VS4210.o)
VS4210_hdmi480i_1080P_mode12_w1_param             build/VS4210_param_Modex26.o
                                                  ./Lib/libVS4210.a(VS4210.o)
VS4210_hdmi480i_1080P_mode13_w0_param             build/VS4210_param_Modex26.o
                                                  ./Lib/libVS4210.a(VS4210.o)
VS4210_hdmi480i_1080P_mode13_w1_param             build/VS4210_param_Modex26.o
                                                  ./Lib/libVS4210.a(VS4210.o)
VS4210_hdmi480i_1080P_mode1_w0_param              build/VS4210_param_Modex26.o
                                                  ./Lib/libVS4210.a(VS4210.o)
VS4210_hdmi480i_1080P_mode1_w1_param              build/VS4210_param_Modex26.o
                                                  ./Lib/libVS4210.a(VS4210.o)
VS4210_hdmi480i_1080P_mode1_w2_param              build/VS4210_param_Modex26.o
                                                  ./Lib/libVS4210.a(VS4210.o)
VS4210_hdmi480i_1080P_mode1_w3_param              build/VS4210_param_Modex26.o
                                                  ./Lib/libVS4210.a(VS4210.o)
VS4210_hdmi480i_1080P_mode2_w0_param              build/VS4210_param_Modex26.o
                                                  ./Lib/libVS4210.a(VS4210.o)
VS4210_hdmi480i_1080P_mode2_w1_param              build/VS4210_param_Modex26.o
                                                  ./Lib/libVS4210.a(VS4210.o)
VS4210_hdmi480i_1080P_mode2_w2_param              build/VS4210_param_Modex26.o
                                                  ./Lib/libVS4210.a(VS4210.o)
VS4210_hdmi480i_1080P_mode2_w3_param              build/VS4210_param_Modex26.o
                                                  ./Lib/libVS4210.a(VS4210.o)
VS4210_hdmi480i_1080P_mode6_w0_param              build/VS4210_param_Modex26.o
                                                  ./Lib/libVS4210.a(VS4210.o)
VS4210_hdmi480i_1080P_mode6_w1_param              build/VS4210_param_Modex26.o
                                                  ./Lib/libVS4210.a(VS4210.o)
VS4210_hdmi480i_1080P_mode6_w2_param              build/VS4210_param_Modex26.o
                                                  ./Lib/libVS4210.a(VS4210.o)
VS4210_hdmi480i_1080P_mode6_w3_param              build/VS4210_param_Modex26.o
                                                  ./Lib/libVS4210.a(VS4210.o)
VS4210_hdmi480i_1080P_mode6pip_w0_param           build/VS4210_param_Modex26.o
                                                  ./Lib/libVS4210.a(VS4210.o)
VS4210_hdmi480i_1080P_mode6pip_w1_param           build/VS4210_param_Modex26.o
                                                  ./Lib/libVS4210.a(VS4210.o)
VS4210_hdmi480i_1080P_mode6pip_w2_param           build/VS4210_param_Modex26.o
                                                  ./Lib/libVS4210.a(VS4210.o)
VS4210_hdmi480i_1080P_mode6pip_w3_param           build/VS4210_param_Modex26.o
                                                  ./Lib/libVS4210.a(VS4210.o)
VS4210_hdmi480i_720P_mode0_w0_88param             build/VS4210_param_Mode88.o
                                                  ./Lib/libVS4210.a(VS4210.o)
VS4210_hdmi480i_720P_mode12_w0_param              build/VS4210_param_Modex26.o
                                                  ./Lib/libVS4210.a(VS4210.o)
VS4210_hdmi480i_720P_mode12_w1_param              build/VS4210_param_Modex26.o
                                                  ./Lib/libVS4210.a(VS4210.o)
VS4210_hdmi480i_720P_mode13_w0_param              build/VS4210_param_Modex26.o
                                                  ./Lib/libVS4210.a(VS4210.o)
VS4210_hdmi480i_720P_mode13_w1_param              build/VS4210_param_Modex26.o
                                                  ./Lib/libVS4210.a(VS4210.o)
VS4210_hdmi480i_720P_mode1_w0_param               build/VS4210_param_Modex26.o
                                                  ./Lib/libVS4210.a(VS4210.o)
VS4210_hdmi480i_720P_mode1_w1_param               build/VS4210_param_Modex26.o
                                                  ./Lib/libVS4210.a(VS4210.o)
VS4210_hdmi480i_720P_mode1_w2_param               build/VS4210_param_Modex26.o
                                                  ./Lib/libVS4210.a(VS4210.o)
VS4210_hdmi480i_720P_mode1_w3_param               build/VS4210_param_Modex26.o
                                                  ./Lib/libVS4210.a(VS4210.o)
VS4210_hdmi480i_720P_mode24_w0_param              build/VS4210_param_Modex26.o
                                                  ./Lib/libVS4210.a(VS4210.o)
VS4210_hdmi480i_720P_mode24_w1_param              build/VS4210_param_Modex26.o
                                                  ./Lib/libVS4210.a(VS4210.o)
VS4210_hdmi480i_720P_mode2_w0_param               build/VS4210_param_Modex26.o
                                                  ./Lib/libVS4210.a(VS4210.o)
VS4210_hdmi480i_720P_mode2_w1_param               build/VS4210_param_Modex26.o
                                                  ./Lib/libVS4210.a(VS4210.o)
VS4210_hdmi480i_720P_mode2_w2_param               build/VS4210_param_Modex26.o
                                                  ./Lib/libVS4210.a(VS4210.o)
VS4210_hdmi480i_720P_mode2_w3_param               build/VS4210_param_Modex26.o
                                                  ./Lib/libVS4210.a(VS4210.o)
VS4210_hdmi480i_720P_mode6_w0_param               build/VS4210_param_Modex26.o
                                                  ./Lib/libVS4210.a(VS4210.o)
VS4210_hdmi480i_720P_mode6_w1_param               build/VS4210_param_Modex26.o
                                                  ./Lib/libVS4210.a(VS4210.o)
VS4210_hdmi480i_720P_mode6_w2_param               build/VS4210_param_Modex26.o
                                                  ./Lib/libVS4210.a(VS4210.o)
VS4210_hdmi480i_720P_mode6_w3_param               build/VS4210_param_Modex26.o
                                                  ./Lib/libVS4210.a(VS4210.o)
VS4210_hdmi576P_1080P_mode0_w0_88param            build/VS4210_param_Mode88.o
                                                  ./Lib/libVS4210.a(VS4210.o)
VS4210_hdmi576P_1080P_mode12_w0_param             build/VS4210_param_Modex26.o
                                                  ./Lib/libVS4210.a(VS4210.o)
VS4210_hdmi576P_1080P_mode12_w1_param             build/VS4210_param_Modex26.o
                                                  ./Lib/libVS4210.a(VS4210.o)
VS4210_hdmi576P_1080P_mode13_w0_param             build/VS4210_param_Modex26.o
                                                  ./Lib/libVS4210.a(VS4210.o)
VS4210_hdmi576P_1080P_mode13_w1_param             build/VS4210_param_Modex26.o
                                                  ./Lib/libVS4210.a(VS4210.o)
VS4210_hdmi576P_1080P_mode1_w0_param              build/VS4210_param_Modex26.o
                                                  ./Lib/libVS4210.a(VS4210.o)
VS4210_hdmi576P_1080P_mode1_w1_param              build/VS4210_param_Modex26.o
                                                  ./Lib/libVS4210.a(VS4210.o)
VS4210_hdmi576P_1080P_mode1_w2_param              build/VS4210_param_Modex26.o
                                                  ./Lib/libVS4210.a(VS4210.o)
VS4210_hdmi576P_1080P_mode1_w3_param              build/VS4210_param_Modex26.o
                                                  ./Lib/libVS4210.a(VS4210.o)
VS4210_hdmi576P_1080P_mode2_w0_param              build/VS4210_param_Modex26.o
                                                  ./Lib/libVS4210.a(VS4210.o)
VS4210_hdmi576P_1080P_mode2_w1_param              build/VS4210_param_Modex26.o
                                                  ./Lib/libVS4210.a(VS4210.o)
VS4210_hdmi576P_1080P_mode2_w2_param              build/VS4210_param_Modex26.o
                                                  ./Lib/libVS4210.a(VS4210.o)
VS4210_hdmi576P_1080P_mode2_w3_param              build/VS4210_param_Modex26.o
                                                  ./Lib/libVS4210.a(VS4210.o)
VS4210_hdmi576P_1080P_mode6_w0_param              build/VS4210_param_Modex26.o
                                                  ./Lib/libVS4210.a(VS4210.o)
VS4210_hdmi576P_1080P_mode6_w1_param              build/VS4210_param_Modex26.o
                                                  ./Lib/libVS4210.a(VS4210.o)
VS4210_hdmi576P_1080P_mode6_w2_param              build/VS4210_param_Modex26.o
                                                  ./Lib/libVS4210.a(VS4210.o)
VS4210_hdmi576P_1080P_mode6_w3_param              build/VS4210_param_Modex26.o
                                                  ./Lib/libVS4210.a(VS4210.o)
VS4210_hdmi576P_1080P_mode6pip_w0_param           build/VS4210_param_Modex26.o
                                                  ./Lib/libVS4210.a(VS4210.o)
VS4210_hdmi576P_1080P_mode6pip_w1_param           build/VS4210_param_Modex26.o
                                                  ./Lib/libVS4210.a(VS4210.o)
VS4210_hdmi576P_1080P_mode6pip_w2_param           build/VS4210_param_Modex26.o
                                                  ./Lib/libVS4210.a(VS4210.o)
VS4210_hdmi576P_1080P_mode6pip_w3_param           build/VS4210_param_Modex26.o
                                                  ./Lib/libVS4210.a(VS4210.o)
VS4210_hdmi576P_720P_mode0_w0_88param             build/VS4210_param_Mode88.o
                                                  ./Lib/libVS4210.a(VS4210.o)
VS4210_hdmi576P_720P_mode12_w0_param              build/VS4210_param_Modex26.o
                                                  ./Lib/libVS4210.a(VS4210.o)
VS4210_hdmi576P_720P_mode12_w1_param              build/VS4210_param_Modex26.o
                                                  ./Lib/libVS4210.a(VS4210.o)
VS4210_hdmi576P_720P_mode13_w0_param              build/VS4210_param_Modex26.o
                                                  ./Lib/libVS4210.a(VS4210.o)
VS4210_hdmi576P_720P_mode13_w1_param              build/VS4210_param_Modex26.o
                                                  ./Lib/libVS4210.a(VS4210.o)
VS4210_hdmi576P_720P_mode1_w0_param               build/VS4210_param_Modex26.o
                                                  ./Lib/libVS4210.a(VS4210.o)
VS4210_hdmi576P_720P_mode1_w1_param               build/VS4210_param_Modex26.o
                                                  ./Lib/libVS4210.a(VS4210.o)
VS4210_hdmi576P_720P_mode1_w2_param               build/VS4210_param_Modex26.o
                                                  ./Lib/libVS4210.a(VS4210.o)
VS4210_hdmi576P_720P_mode1_w3_param               build/VS4210_param_Modex26.o
                                                  ./Lib/libVS4210.a(VS4210.o)
VS4210_hdmi576P_720P_mode24_w0_param              build/VS4210_param_Modex26.o
                                                  ./Lib/libVS4210.a(VS4210.o)
VS4210_hdmi576P_720P_mode24_w1_param              build/VS4210_param_Modex26.o
                                                  ./Lib/libVS4210.a(VS4210.o)
VS4210_hdmi576P_720P_mode2_w0_param               build/VS4210_param_Modex26.o
                                                  ./Lib/libVS4210.a(VS4210.o)
VS4210_hdmi576P_720P_mode2_w1_param               build/VS4210_param_Modex26.o
                                                  ./Lib/libVS4210.a(VS4210.o)
VS4210_hdmi576P_720P_mode2_w2_param               build/VS4210_param_Modex26.o
                                                  ./Lib/libVS4210.a(VS4210.o)
VS4210_hdmi576P_720P_mode2_w3_param               build/VS4210_param_Modex26.o
                                                  ./Lib/libVS4210.a(VS4210.o)
VS4210_hdmi576P_720P_mode6_w0_param               build/VS4210_param_Modex26.o
                                                  ./Lib/libVS4210.a(VS4210.o)
VS4210_hdmi576P_720P_mode6_w1_param               build/VS4210_param_Modex26.o
                                                  ./Lib/libVS4210.a(VS4210.o)
VS4210_hdmi576P_720P_mode6_w2_param               build/VS4210_param_Modex26.o
                                                  ./Lib/libVS4210.a(VS4210.o)
VS4210_hdmi576P_720P_mode6_w3_param               build/VS4210_param_Modex26.o
                                                  ./Lib/libVS4210.a(VS4210.o)
VS4210_hdmi576i_1080P_mode0_w0_88param            build/VS4210_param_Mode88.o
                                                  ./Lib/libVS4210.a(VS4210.o)
VS4210_hdmi576i_1080P_mode12_w0_param             build/VS4210_param_Modex26.o
                                                  ./Lib/libVS4210.a(VS4210.o)
VS4210_hdmi576i_1080P_mode12_w1_param             build/VS4210_param_Modex26.o
                                                  ./Lib/libVS4210.a(VS4210.o)
VS4210_hdmi576i_1080P_mode13_w0_param             build/VS4210_param_Modex26.o
                                                  ./Lib/libVS4210.a(VS4210.o)
VS4210_hdmi576i_1080P_mode13_w1_param             build/VS4210_param_Modex26.o
                                                  ./Lib/libVS4210.a(VS4210.o)
VS4210_hdmi576i_1080P_mode1_w0_param              build/VS4210_param_Modex26.o
                                                  ./Lib/libVS4210.a(VS4210.o)
VS4210_hdmi576i_1080P_mode1_w1_param              build/VS4210_param_Modex26.o
                                                  ./Lib/libVS4210.a(VS4210.o)
VS4210_hdmi576i_1080P_mode1_w2_param              build/VS4210_param_Modex26.o
                                                  ./Lib/libVS4210.a(VS4210.o)
VS4210_hdmi576i_1080P_mode1_w3_param              build/VS4210_param_Modex26.o
                                                  ./Lib/libVS4210.a(VS4210.o)
VS4210_hdmi576i_1080P_mode2_w0_param              build/VS4210_param_Modex26.o
                                                  ./Lib/libVS4210.a(VS4210.o)
VS4210_hdmi576i_1080P_mode2_w1_param              build/VS4210_param_Modex26.o
                                                  ./Lib/libVS4210.a(VS4210.o)
VS4210_hdmi576i_1080P_mode2_w2_param              build/VS4210_param_Modex26.o
                                                  ./Lib/libVS4210.a(VS4210.o)
VS4210_hdmi576i_1080P_mode2_w3_param              build/VS4210_param_Modex26.o
                                                  ./Lib/libVS4210.a(VS4210.o)
VS4210_hdmi576i_1080P_mode6_w0_param              build/VS4210_param_Modex26.o
                                                  ./Lib/libVS4210.a(VS4210.o)
VS4210_hdmi576i_1080P_mode6_w1_param              build/VS4210_param_Modex26.o
                                                  ./Lib/libVS4210.a(VS4210.o)
VS4210_hdmi576i_1080P_mode6_w2_param              build/VS4210_param_Modex26.o
                                                  ./Lib/libVS4210.a(VS4210.o)
VS4210_hdmi576i_1080P_mode6_w3_param              build/VS4210_param_Modex26.o
                                                  ./Lib/libVS4210.a(VS4210.o)
VS4210_hdmi576i_1080P_mode6pip_w0_param           build/VS4210_param_Modex26.o
                                                  ./Lib/libVS4210.a(VS4210.o)
VS4210_hdmi576i_1080P_mode6pip_w1_param           build/VS4210_param_Modex26.o
                                                  ./Lib/libVS4210.a(VS4210.o)
VS4210_hdmi576i_1080P_mode6pip_w2_param           build/VS4210_param_Modex26.o
                                                  ./Lib/libVS4210.a(VS4210.o)
VS4210_hdmi576i_1080P_mode6pip_w3_param           build/VS4210_param_Modex26.o
                                                  ./Lib/libVS4210.a(VS4210.o)
VS4210_hdmi576i_720P_mode0_w0_88param             build/VS4210_param_Mode88.o
                                                  ./Lib/libVS4210.a(VS4210.o)
VS4210_hdmi576i_720P_mode12_w0_param              build/VS4210_param_Modex26.o
                                                  ./Lib/libVS4210.a(VS4210.o)
VS4210_hdmi576i_720P_mode12_w1_param              build/VS4210_param_Modex26.o
                                                  ./Lib/libVS4210.a(VS4210.o)
VS4210_hdmi576i_720P_mode13_w0_param              build/VS4210_param_Modex26.o
                                                  ./Lib/libVS4210.a(VS4210.o)
VS4210_hdmi576i_720P_mode13_w1_param              build/VS4210_param_Modex26.o
                                                  ./Lib/libVS4210.a(VS4210.o)
VS4210_hdmi576i_720P_mode1_w0_param               build/VS4210_param_Modex26.o
                                                  ./Lib/libVS4210.a(VS4210.o)
VS4210_hdmi576i_720P_mode1_w1_param               build/VS4210_param_Modex26.o
                                                  ./Lib/libVS4210.a(VS4210.o)
VS4210_hdmi576i_720P_mode1_w2_param               build/VS4210_param_Modex26.o
                                                  ./Lib/libVS4210.a(VS4210.o)
VS4210_hdmi576i_720P_mode1_w3_param               build/VS4210_param_Modex26.o
                                                  ./Lib/libVS4210.a(VS4210.o)
VS4210_hdmi576i_720P_mode24_w0_param              build/VS4210_param_Modex26.o
                                                  ./Lib/libVS4210.a(VS4210.o)
VS4210_hdmi576i_720P_mode24_w1_param              build/VS4210_param_Modex26.o
                                                  ./Lib/libVS4210.a(VS4210.o)
VS4210_hdmi576i_720P_mode2_w0_param               build/VS4210_param_Modex26.o
                                                  ./Lib/libVS4210.a(VS4210.o)
VS4210_hdmi576i_720P_mode2_w1_param               build/VS4210_param_Modex26.o
                                                  ./Lib/libVS4210.a(VS4210.o)
VS4210_hdmi576i_720P_mode2_w2_param               build/VS4210_param_Modex26.o
                                                  ./Lib/libVS4210.a(VS4210.o)
VS4210_hdmi576i_720P_mode2_w3_param               build/VS4210_param_Modex26.o
                                                  ./Lib/libVS4210.a(VS4210.o)
VS4210_hdmi576i_720P_mode6_w0_param               build/VS4210_param_Modex26.o
                                                  ./Lib/libVS4210.a(VS4210.o)
VS4210_hdmi576i_720P_mode6_w1_param               build/VS4210_param_Modex26.o
                                                  ./Lib/libVS4210.a(VS4210.o)
VS4210_hdmi576i_720P_mode6_w2_param               build/VS4210_param_Modex26.o
                                                  ./Lib/libVS4210.a(VS4210.o)
VS4210_hdmi576i_720P_mode6_w3_param               build/VS4210_param_Modex26.o
                                                  ./Lib/libVS4210.a(VS4210.o)
VS4210_hdmi640x480_1080P_mode0_w0_88param         build/VS4210_param_Mode88.o
                                                  ./Lib/libVS4210.a(VS4210.o)
VS4210_hdmi640x480_1080P_mode12_w0_param          build/VS4210_param_Modex26.o
                                                  ./Lib/libVS4210.a(VS4210.o)
VS4210_hdmi640x480_1080P_mode12_w1_param          build/VS4210_param_Modex26.o
                                                  ./Lib/libVS4210.a(VS4210.o)
VS4210_hdmi640x480_1080P_mode13_w0_param          build/VS4210_param_Modex26.o
                                                  ./Lib/libVS4210.a(VS4210.o)
VS4210_hdmi640x480_1080P_mode13_w1_param          build/VS4210_param_Modex26.o
                                                  ./Lib/libVS4210.a(VS4210.o)
VS4210_hdmi640x480_1080P_mode1_w0_param           build/VS4210_param_Modex26.o
                                                  ./Lib/libVS4210.a(VS4210.o)
VS4210_hdmi640x480_1080P_mode1_w1_param           build/VS4210_param_Modex26.o
                                                  ./Lib/libVS4210.a(VS4210.o)
VS4210_hdmi640x480_1080P_mode1_w2_param           build/VS4210_param_Modex26.o
                                                  ./Lib/libVS4210.a(VS4210.o)
VS4210_hdmi640x480_1080P_mode1_w3_param           build/VS4210_param_Modex26.o
                                                  ./Lib/libVS4210.a(VS4210.o)
VS4210_hdmi640x480_1080P_mode2_w0_param           build/VS4210_param_Modex26.o
                                                  ./Lib/libVS4210.a(VS4210.o)
VS4210_hdmi640x480_1080P_mode2_w1_param           build/VS4210_param_Modex26.o
                                                  ./Lib/libVS4210.a(VS4210.o)
VS4210_hdmi640x480_1080P_mode2_w2_param           build/VS4210_param_Modex26.o
                                                  ./Lib/libVS4210.a(VS4210.o)
VS4210_hdmi640x480_1080P_mode2_w3_param           build/VS4210_param_Modex26.o
                                                  ./Lib/libVS4210.a(VS4210.o)
VS4210_hdmi640x480_1080P_mode6_w0_param           build/VS4210_param_Modex26.o
                                                  ./Lib/libVS4210.a(VS4210.o)
VS4210_hdmi640x480_1080P_mode6_w1_param           build/VS4210_param_Modex26.o
                                                  ./Lib/libVS4210.a(VS4210.o)
VS4210_hdmi640x480_1080P_mode6_w2_param           build/VS4210_param_Modex26.o
                                                  ./Lib/libVS4210.a(VS4210.o)
VS4210_hdmi640x480_1080P_mode6_w3_param           build/VS4210_param_Modex26.o
                                                  ./Lib/libVS4210.a(VS4210.o)
VS4210_hdmi640x480_1080P_mode6pip_w0_param        build/VS4210_param_Modex26.o
                                                  ./Lib/libVS4210.a(VS4210.o)
VS4210_hdmi640x480_1080P_mode6pip_w1_param        build/VS4210_param_Modex26.o
                                                  ./Lib/libVS4210.a(VS4210.o)
VS4210_hdmi640x480_1080P_mode6pip_w2_param        build/VS4210_param_Modex26.o
                                                  ./Lib/libVS4210.a(VS4210.o)
VS4210_hdmi640x480_1080P_mode6pip_w3_param        build/VS4210_param_Modex26.o
                                                  ./Lib/libVS4210.a(VS4210.o)
VS4210_hdmi640x480_720P_mode0_w0_88param          build/VS4210_param_Mode88.o
                                                  ./Lib/libVS4210.a(VS4210.o)
VS4210_hdmi640x480_720P_mode12_w0_param           build/VS4210_param_Modex26.o
                                                  ./Lib/libVS4210.a(VS4210.o)
VS4210_hdmi640x480_720P_mode12_w1_param           build/VS4210_param_Modex26.o
                                                  ./Lib/libVS4210.a(VS4210.o)
VS4210_hdmi640x480_720P_mode13_w0_param           build/VS4210_param_Modex26.o
                                                  ./Lib/libVS4210.a(VS4210.o)
VS4210_hdmi640x480_720P_mode13_w1_param           build/VS4210_param_Modex26.o
                                                  ./Lib/libVS4210.a(VS4210.o)
VS4210_hdmi640x480_720P_mode1_w0_param            build/VS4210_param_Modex26.o
                                                  ./Lib/libVS4210.a(VS4210.o)
VS4210_hdmi640x480_720P_mode1_w1_param            build/VS4210_param_Modex26.o
                                                  ./Lib/libVS4210.a(VS4210.o)
VS4210_hdmi640x480_720P_mode1_w2_param            build/VS4210_param_Modex26.o
                                                  ./Lib/libVS4210.a(VS4210.o)
VS4210_hdmi640x480_720P_mode1_w3_param            build/VS4210_param_Modex26.o
                                                  ./Lib/libVS4210.a(VS4210.o)
VS4210_hdmi640x480_720P_mode24_w0_param           build/VS4210_param_Modex26.o
                                                  ./Lib/libVS4210.a(VS4210.o)
VS4210_hdmi640x480_720P_mode24_w1_param           build/VS4210_param_Modex26.o
                                                  ./Lib/libVS4210.a(VS4210.o)
VS4210_hdmi640x480_720P_mode2_w0_param            build/VS4210_param_Modex26.o
                                                  ./Lib/libVS4210.a(VS4210.o)
VS4210_hdmi640x480_720P_mode2_w1_param            build/VS4210_param_Modex26.o
                                                  ./Lib/libVS4210.a(VS4210.o)
VS4210_hdmi640x480_720P_mode2_w2_param            build/VS4210_param_Modex26.o
                                                  ./Lib/libVS4210.a(VS4210.o)
VS4210_hdmi640x480_720P_mode2_w3_param            build/VS4210_param_Modex26.o
                                                  ./Lib/libVS4210.a(VS4210.o)
VS4210_hdmi640x480_720P_mode6_w0_param            build/VS4210_param_Modex26.o
                                                  ./Lib/libVS4210.a(VS4210.o)
VS4210_hdmi640x480_720P_mode6_w1_param            build/VS4210_param_Modex26.o
                                                  ./Lib/libVS4210.a(VS4210.o)
VS4210_hdmi640x480_720P_mode6_w2_param            build/VS4210_param_Modex26.o
                                                  ./Lib/libVS4210.a(VS4210.o)
VS4210_hdmi640x480_720P_mode6_w3_param            build/VS4210_param_Modex26.o
                                                  ./Lib/libVS4210.a(VS4210.o)
VS4210_hdmi720P_1080P_mode0_w0_88param            build/VS4210_param_Mode88.o
                                                  ./Lib/libVS4210.a(VS4210.o)
VS4210_hdmi720P_1080P_mode12_w0_param             build/VS4210_param_Modex26.o
                                                  ./Lib/libVS4210.a(VS4210.o)
VS4210_hdmi720P_1080P_mode12_w1_param             build/VS4210_param_Modex26.o
                                                  ./Lib/libVS4210.a(VS4210.o)
VS4210_hdmi720P_1080P_mode13_w0_param             build/VS4210_param_Modex26.o
                                                  ./Lib/libVS4210.a(VS4210.o)
VS4210_hdmi720P_1080P_mode13_w1_param             build/VS4210_param_Modex26.o
                                                  ./Lib/libVS4210.a(VS4210.o)
VS4210_hdmi720P_1080P_mode1_w0_param              build/VS4210_param_Modex26.o
                                                  ./Lib/libVS4210.a(VS4210.o)
VS4210_hdmi720P_1080P_mode1_w1_param              build/VS4210_param_Modex26.o
                                                  ./Lib/libVS4210.a(VS4210.o)
VS4210_hdmi720P_1080P_mode1_w2_param              build/VS4210_param_Modex26.o
                                                  ./Lib/libVS4210.a(VS4210.o)
VS4210_hdmi720P_1080P_mode1_w3_param              build/VS4210_param_Modex26.o
                                                  ./Lib/libVS4210.a(VS4210.o)
VS4210_hdmi720P_1080P_mode2_w0_param              build/VS4210_param_Modex26.o
                                                  ./Lib/libVS4210.a(VS4210.o)
VS4210_hdmi720P_1080P_mode2_w1_param              build/VS4210_param_Modex26.o
                                                  ./Lib/libVS4210.a(VS4210.o)
VS4210_hdmi720P_1080P_mode2_w2_param              build/VS4210_param_Modex26.o
                                                  ./Lib/libVS4210.a(VS4210.o)
VS4210_hdmi720P_1080P_mode2_w3_param              build/VS4210_param_Modex26.o
                                                  ./Lib/libVS4210.a(VS4210.o)
VS4210_hdmi720P_1080P_mode6_w0_param              build/VS4210_param_Modex26.o
                                                  ./Lib/libVS4210.a(VS4210.o)
VS4210_hdmi720P_1080P_mode6_w1_param              build/VS4210_param_Modex26.o
                                                  ./Lib/libVS4210.a(VS4210.o)
VS4210_hdmi720P_1080P_mode6_w2_param              build/VS4210_param_Modex26.o
                                                  ./Lib/libVS4210.a(VS4210.o)
VS4210_hdmi720P_1080P_mode6_w3_param              build/VS4210_param_Modex26.o
                                                  ./Lib/libVS4210.a(VS4210.o)
VS4210_hdmi720P_1080P_mode6pip_w0_param           build/VS4210_param_Modex26.o
                                                  ./Lib/libVS4210.a(VS4210.o)
VS4210_hdmi720P_1080P_mode6pip_w1_param           build/VS4210_param_Modex26.o
                                                  ./Lib/libVS4210.a(VS4210.o)
VS4210_hdmi720P_1080P_mode6pip_w2_param           build/VS4210_param_Modex26.o
                                                  ./Lib/libVS4210.a(VS4210.o)
VS4210_hdmi720P_1080P_mode6pip_w3_param           build/VS4210_param_Modex26.o
                                                  ./Lib/libVS4210.a(VS4210.o)
VS4210_hdmi720P_720P_mode0_w0_88param             build/VS4210_param_Mode88.o
                                                  ./Lib/libVS4210.a(VS4210.o)
VS4210_hdmi720P_720P_mode12_w0_param              build/VS4210_param_Modex26.o
                                                  ./Lib/libVS4210.a(VS4210.o)
VS4210_hdmi720P_720P_mode12_w1_param              build/VS4210_param_Modex26.o
                                                  ./Lib/libVS4210.a(VS4210.o)
VS4210_hdmi720P_720P_mode13_w0_param              build/VS4210_param_Modex26.o
                                                  ./Lib/libVS4210.a(VS4210.o)
VS4210_hdmi720P_720P_mode13_w1_param              build/VS4210_param_Modex26.o
                                                  ./Lib/libVS4210.a(VS4210.o)
VS4210_hdmi720P_720P_mode1_w0_param               build/VS4210_param_Modex26.o
                                                  ./Lib/libVS4210.a(VS4210.o)
VS4210_hdmi720P_720P_mode1_w1_param               build/VS4210_param_Modex26.o
                                                  ./Lib/libVS4210.a(VS4210.o)
VS4210_hdmi720P_720P_mode1_w2_param               build/VS4210_param_Modex26.o
                                                  ./Lib/libVS4210.a(VS4210.o)
VS4210_hdmi720P_720P_mode1_w3_param               build/VS4210_param_Modex26.o
                                                  ./Lib/libVS4210.a(VS4210.o)
VS4210_hdmi720P_720P_mode24_w0_param              build/VS4210_param_Modex26.o
                                                  ./Lib/libVS4210.a(VS4210.o)
VS4210_hdmi720P_720P_mode24_w1_param              build/VS4210_param_Modex26.o
                                                  ./Lib/libVS4210.a(VS4210.o)
VS4210_hdmi720P_720P_mode2_w0_param               build/VS4210_param_Modex26.o
                                                  ./Lib/libVS4210.a(VS4210.o)
VS4210_hdmi720P_720P_mode2_w1_param               build/VS4210_param_Modex26.o
                                                  ./Lib/libVS4210.a(VS4210.o)
VS4210_hdmi720P_720P_mode2_w2_param               build/VS4210_param_Modex26.o
                                                  ./Lib/libVS4210.a(VS4210.o)
VS4210_hdmi720P_720P_mode2_w3_param               build/VS4210_param_Modex26.o
                                                  ./Lib/libVS4210.a(VS4210.o)
VS4210_hdmi720P_720P_mode6_w0_param               build/VS4210_param_Modex26.o
                                                  ./Lib/libVS4210.a(VS4210.o)
VS4210_hdmi720P_720P_mode6_w1_param               build/VS4210_param_Modex26.o
                                                  ./Lib/libVS4210.a(VS4210.o)
VS4210_hdmi720P_720P_mode6_w2_param               build/VS4210_param_Modex26.o
                                                  ./Lib/libVS4210.a(VS4210.o)
VS4210_hdmi720P_720P_mode6_w3_param               build/VS4210_param_Modex26.o
                                                  ./Lib/libVS4210.a(VS4210.o)
VS4210_hdmi800x600_1080P_mode0_w0_88param         build/VS4210_param_Mode88.o
                                                  ./Lib/libVS4210.a(VS4210.o)
VS4210_hdmi800x600_1080P_mode12_w0_param          build/VS4210_param_Modex26.o
                                                  ./Lib/libVS4210.a(VS4210.o)
VS4210_hdmi800x600_1080P_mode12_w1_param          build/VS4210_param_Modex26.o
                                                  ./Lib/libVS4210.a(VS4210.o)
VS4210_hdmi800x600_1080P_mode13_w0_param          build/VS4210_param_Modex26.o
                                                  ./Lib/libVS4210.a(VS4210.o)
VS4210_hdmi800x600_1080P_mode13_w1_param          build/VS4210_param_Modex26.o
                                                  ./Lib/libVS4210.a(VS4210.o)
VS4210_hdmi800x600_1080P_mode1_w0_param           build/VS4210_param_Modex26.o
                                                  ./Lib/libVS4210.a(VS4210.o)
VS4210_hdmi800x600_1080P_mode1_w1_param           build/VS4210_param_Modex26.o
                                                  ./Lib/libVS4210.a(VS4210.o)
VS4210_hdmi800x600_1080P_mode1_w2_param           build/VS4210_param_Modex26.o
                                                  ./Lib/libVS4210.a(VS4210.o)
VS4210_hdmi800x600_1080P_mode1_w3_param           build/VS4210_param_Modex26.o
                                                  ./Lib/libVS4210.a(VS4210.o)
VS4210_hdmi800x600_1080P_mode2_w0_param           build/VS4210_param_Modex26.o
                                                  ./Lib/libVS4210.a(VS4210.o)
VS4210_hdmi800x600_1080P_mode2_w1_param           build/VS4210_param_Modex26.o
                                                  ./Lib/libVS4210.a(VS4210.o)
VS4210_hdmi800x600_1080P_mode2_w2_param           build/VS4210_param_Modex26.o
                                                  ./Lib/libVS4210.a(VS4210.o)
VS4210_hdmi800x600_1080P_mode2_w3_param           build/VS4210_param_Modex26.o
                                                  ./Lib/libVS4210.a(VS4210.o)
VS4210_hdmi800x600_1080P_mode6_w0_param           build/VS4210_param_Modex26.o
                                                  ./Lib/libVS4210.a(VS4210.o)
VS4210_hdmi800x600_1080P_mode6_w1_param           build/VS4210_param_Modex26.o
                                                  ./Lib/libVS4210.a(VS4210.o)
VS4210_hdmi800x600_1080P_mode6_w2_param           build/VS4210_param_Modex26.o
                                                  ./Lib/libVS4210.a(VS4210.o)
VS4210_hdmi800x600_1080P_mode6_w3_param           build/VS4210_param_Modex26.o
                                                  ./Lib/libVS4210.a(VS4210.o)
VS4210_hdmi800x600_1080P_mode6pip_w0_param        build/VS4210_param_Modex26.o
                                                  ./Lib/libVS4210.a(VS4210.o)
VS4210_hdmi800x600_1080P_mode6pip_w1_param        build/VS4210_param_Modex26.o
                                                  ./Lib/libVS4210.a(VS4210.o)
VS4210_hdmi800x600_1080P_mode6pip_w2_param        build/VS4210_param_Modex26.o
                                                  ./Lib/libVS4210.a(VS4210.o)
VS4210_hdmi800x600_1080P_mode6pip_w3_param        build/VS4210_param_Modex26.o
                                                  ./Lib/libVS4210.a(VS4210.o)
VS4210_hdmi800x600_720P_mode0_w0_88param          build/VS4210_param_Mode88.o
                                                  ./Lib/libVS4210.a(VS4210.o)
VS4210_hdmi800x600_720P_mode12_w0_param           build/VS4210_param_Modex26.o
                                                  ./Lib/libVS4210.a(VS4210.o)
VS4210_hdmi800x600_720P_mode12_w1_param           build/VS4210_param_Modex26.o
                                                  ./Lib/libVS4210.a(VS4210.o)
VS4210_hdmi800x600_720P_mode13_w0_param           build/VS4210_param_Modex26.o
                                                  ./Lib/libVS4210.a(VS4210.o)
VS4210_hdmi800x600_720P_mode13_w1_param           build/VS4210_param_Modex26.o
                                                  ./Lib/libVS4210.a(VS4210.o)
VS4210_hdmi800x600_720P_mode1_w0_param            build/VS4210_param_Modex26.o
                                                  ./Lib/libVS4210.a(VS4210.o)
VS4210_hdmi800x600_720P_mode1_w1_param            build/VS4210_param_Modex26.o
                                                  ./Lib/libVS4210.a(VS4210.o)
VS4210_hdmi800x600_720P_mode1_w2_param            build/VS4210_param_Modex26.o
                                                  ./Lib/libVS4210.a(VS4210.o)
VS4210_hdmi800x600_720P_mode1_w3_param            build/VS4210_param_Modex26.o
                                                  ./Lib/libVS4210.a(VS4210.o)
VS4210_hdmi800x600_720P_mode24_w0_param           build/VS4210_param_Modex26.o
                                                  ./Lib/libVS4210.a(VS4210.o)
VS4210_hdmi800x600_720P_mode24_w1_param           build/VS4210_param_Modex26.o
                                                  ./Lib/libVS4210.a(VS4210.o)
VS4210_hdmi800x600_720P_mode2_w0_param            build/VS4210_param_Modex26.o
                                                  ./Lib/libVS4210.a(VS4210.o)
VS4210_hdmi800x600_720P_mode2_w1_param            build/VS4210_param_Modex26.o
                                                  ./Lib/libVS4210.a(VS4210.o)
VS4210_hdmi800x600_720P_mode2_w2_param            build/VS4210_param_Modex26.o
                                                  ./Lib/libVS4210.a(VS4210.o)
VS4210_hdmi800x600_720P_mode2_w3_param            build/VS4210_param_Modex26.o
                                                  ./Lib/libVS4210.a(VS4210.o)
VS4210_hdmi800x600_720P_mode6_w0_param            build/VS4210_param_Modex26.o
                                                  ./Lib/libVS4210.a(VS4210.o)
VS4210_hdmi800x600_720P_mode6_w1_param            build/VS4210_param_Modex26.o
                                                  ./Lib/libVS4210.a(VS4210.o)
VS4210_hdmi800x600_720P_mode6_w2_param            build/VS4210_param_Modex26.o
                                                  ./Lib/libVS4210.a(VS4210.o)
VS4210_hdmi800x600_720P_mode6_w3_param            build/VS4210_param_Modex26.o
                                                  ./Lib/libVS4210.a(VS4210.o)
VS4210_init_Input_MODE88                          ./Lib/libVS4210.a(VS4210.o)
VS4210_init_mode                                  ./Lib/libVS4210.a(VS4210.o)
VS8812Read                                        build/VX_swi2c.o
                                                  build/monitor.o
VS8812Write                                       build/VX_swi2c.o
                                                  build/monitor.o
VS8812_ADDR                                       build/main.o
                                                  build/VX_swi2c.o
VSDB_Addr                                         ./Lib/libit6602.a(it6602.o)
VState                                            ./Lib/libit6602.a(it6602.o)
                                                  build/main.o
VXISI2CRead                                       build/VX_swi2c.o
                                                  ./Lib/libVS4210.a(VS4210.o)
                                                  build/TOA_Protocol.o
                                                  build/SysTimer.o
                                                  build/monitor.o
                                                  build/VX_OSD_Simple.o
                                                  build/VX_OSD.o
                                                  build/main.o
VXISI2CWrite                                      build/VX_swi2c.o
                                                  ./Lib/libVS4210.a(VS4210.o)
                                                  build/TOA_Protocol.o
                                                  build/SysTimer.o
                                                  build/monitor.o
                                                  build/TP2802.o
                                                  build/VX_OSD_Simple.o
                                                  build/VX_OSD.o
                                                  build/main.o
VXIS_fSetOsdOnOff                                 build/VX_OSD.o
                                                  build/VX_OSD_Simple.o
VXIS_fSetOsdx2                                    build/VX_OSD.o
                                                  build/VX_OSD_Simple.o
                                                  build/main.o
VXIS_fShowInOutMode                               build/VX_OSD_Simple.o
                                                  ./Lib/libVS4210.a(VS4210.o)
VXIS_fShowInOutMode0Fast                          build/VX_OSD_Simple.o
                                                  ./Lib/libVS4210.a(VS4210.o)
VXOSD_SelectExContent                             build/VX_OSD_Simple.o
VXOSD_ShowExContent                               build/VX_OSD_Simple.o
VXOSD_UseFont_init                                build/VX_OSD_Simple.o
                                                  build/main.o
VideoPixelClock                                   ./Lib/libite66121dvi.a(hdmitx_sys.o)
VideoSave                                         build/TP2802.o
WDT_Echo_Count                                    build/SysTimer.o
WWDG_IRQHandler                                   build/startup_stm32f103xb.o
WaitPowerOn                                       build/main.o
WriteEEP                                          build/VX_swi2c.o
                                                  build/etc_eep.o
                                                  build/monitor.o
                                                  build/main.o
WriteI2C                                          ./Lib/libsw_i2c2.a(sw_i2c2.o)
                                                  build/VX_swi2c.o
WriteI2C3                                         ./Lib/libsw_i2c2.a(sw_i2c2.o)
                                                  build/VX_swi2c.o
_ITM_deregisterTMCloneTable                       /usr/lib/gcc/arm-none-eabi/4.9.3/armv7-m/crtbegin.o
_ITM_registerTMCloneTable                         /usr/lib/gcc/arm-none-eabi/4.9.3/armv7-m/crtbegin.o
_Jv_RegisterClasses                               /usr/lib/gcc/arm-none-eabi/4.9.3/armv7-m/crtbegin.o
__TMC_END__                                       /usr/lib/gcc/arm-none-eabi/4.9.3/armv7-m/crtend.o
                                                  /usr/lib/gcc/arm-none-eabi/4.9.3/armv7-m/crtbegin.o
__aeabi_idiv                                      /usr/lib/gcc/arm-none-eabi/4.9.3/armv7-m/libgcc.a(_divsi3.o)
                                                  ./Lib/libit6602.a(it6602.o)
__aeabi_idiv0                                     /usr/lib/gcc/arm-none-eabi/4.9.3/armv7-m/libgcc.a(_dvmd_tls.o)
                                                  /usr/lib/gcc/arm-none-eabi/4.9.3/armv7-m/libgcc.a(_divsi3.o)
                                                  /usr/lib/gcc/arm-none-eabi/4.9.3/armv7-m/libgcc.a(_udivsi3.o)
__aeabi_idivmod                                   /usr/lib/gcc/arm-none-eabi/4.9.3/armv7-m/libgcc.a(_divsi3.o)
__aeabi_ldiv0                                     /usr/lib/gcc/arm-none-eabi/4.9.3/armv7-m/libgcc.a(_dvmd_tls.o)
__aeabi_uidiv                                     /usr/lib/gcc/arm-none-eabi/4.9.3/armv7-m/libgcc.a(_udivsi3.o)
                                                  ./Lib/libite66121dvi.a(hdmitx_sys.o)
__aeabi_uidivmod                                  /usr/lib/gcc/arm-none-eabi/4.9.3/armv7-m/libgcc.a(_udivsi3.o)
__atexit_dummy                                    /usr/lib/gcc/arm-none-eabi/4.9.3/../../../arm-none-eabi/lib/armv7-m/libc_nano.a(lib_a-__atexit.o)
__bss_end__                                       /usr/lib/gcc/arm-none-eabi/4.9.3/../../../arm-none-eabi/lib/armv7-m/crt0.o
__bss_start__                                     /usr/lib/gcc/arm-none-eabi/4.9.3/../../../arm-none-eabi/lib/armv7-m/crt0.o
__call_exitprocs                                  /usr/lib/gcc/arm-none-eabi/4.9.3/../../../arm-none-eabi/lib/armv7-m/libc_nano.a(lib_a-__call_atexit.o)
                                                  /usr/lib/gcc/arm-none-eabi/4.9.3/../../../arm-none-eabi/lib/armv7-m/libc_nano.a(lib_a-__atexit.o)
                                                  /usr/lib/gcc/arm-none-eabi/4.9.3/../../../arm-none-eabi/lib/armv7-m/libc_nano.a(lib_a-exit.o)
__ctype_ptr__                                     /usr/lib/gcc/arm-none-eabi/4.9.3/../../../arm-none-eabi/lib/armv7-m/libc_nano.a(lib_a-ctype_.o)
                                                  /usr/lib/gcc/arm-none-eabi/4.9.3/../../../arm-none-eabi/lib/armv7-m/libc_nano.a(lib_a-strtol.o)
__deregister_frame_info                           /usr/lib/gcc/arm-none-eabi/4.9.3/armv7-m/crtbegin.o
__divsi3                                          /usr/lib/gcc/arm-none-eabi/4.9.3/armv7-m/libgcc.a(_divsi3.o)
__dso_handle                                      /usr/lib/gcc/arm-none-eabi/4.9.3/armv7-m/crtbegin.o
__errno                                           /usr/lib/gcc/arm-none-eabi/4.9.3/../../../arm-none-eabi/lib/armv7-m/libc_nano.a(lib_a-errno.o)
                                                  build/main.o
__fini_array_end                                  /usr/lib/gcc/arm-none-eabi/4.9.3/../../../arm-none-eabi/lib/armv7-m/libc_nano.a(lib_a-fini.o)
__fini_array_start                                /usr/lib/gcc/arm-none-eabi/4.9.3/../../../arm-none-eabi/lib/armv7-m/libc_nano.a(lib_a-fini.o)
__fp_lock_all                                     /usr/lib/gcc/arm-none-eabi/4.9.3/../../../arm-none-eabi/lib/armv7-m/libc_nano.a(lib_a-findfp.o)
__fp_unlock_all                                   /usr/lib/gcc/arm-none-eabi/4.9.3/../../../arm-none-eabi/lib/armv7-m/libc_nano.a(lib_a-findfp.o)
__init_array_end                                  /usr/lib/gcc/arm-none-eabi/4.9.3/../../../arm-none-eabi/lib/armv7-m/libc_nano.a(lib_a-init.o)
__init_array_start                                /usr/lib/gcc/arm-none-eabi/4.9.3/../../../arm-none-eabi/lib/armv7-m/libc_nano.a(lib_a-init.o)
__libc_fini_array                                 /usr/lib/gcc/arm-none-eabi/4.9.3/../../../arm-none-eabi/lib/armv7-m/libc_nano.a(lib_a-fini.o)
                                                  /usr/lib/gcc/arm-none-eabi/4.9.3/../../../arm-none-eabi/lib/armv7-m/crt0.o
__libc_init_array                                 /usr/lib/gcc/arm-none-eabi/4.9.3/../../../arm-none-eabi/lib/armv7-m/libc_nano.a(lib_a-init.o)
                                                  build/startup_stm32f103xb.o
                                                  /usr/lib/gcc/arm-none-eabi/4.9.3/../../../arm-none-eabi/lib/armv7-m/crt0.o
__malloc_free_list                                /usr/lib/gcc/arm-none-eabi/4.9.3/../../../arm-none-eabi/lib/armv7-m/libc_nano.a(lib_a-nano-mallocr.o)
                                                  /usr/lib/gcc/arm-none-eabi/4.9.3/../../../arm-none-eabi/lib/armv7-m/libc_nano.a(lib_a-nano-freer.o)
__malloc_sbrk_start                               /usr/lib/gcc/arm-none-eabi/4.9.3/../../../arm-none-eabi/lib/armv7-m/libc_nano.a(lib_a-nano-mallocr.o)
__preinit_array_end                               /usr/lib/gcc/arm-none-eabi/4.9.3/../../../arm-none-eabi/lib/armv7-m/libc_nano.a(lib_a-init.o)
__preinit_array_start                             /usr/lib/gcc/arm-none-eabi/4.9.3/../../../arm-none-eabi/lib/armv7-m/libc_nano.a(lib_a-init.o)
__register_exitproc                               /usr/lib/gcc/arm-none-eabi/4.9.3/../../../arm-none-eabi/lib/armv7-m/libc_nano.a(lib_a-__atexit.o)
                                                  /usr/lib/gcc/arm-none-eabi/4.9.3/../../../arm-none-eabi/lib/armv7-m/libc_nano.a(lib_a-atexit.o)
__register_frame_info                             /usr/lib/gcc/arm-none-eabi/4.9.3/armv7-m/crtbegin.o
__sclose                                          /usr/lib/gcc/arm-none-eabi/4.9.3/../../../arm-none-eabi/lib/armv7-m/libc_nano.a(lib_a-stdio.o)
                                                  /usr/lib/gcc/arm-none-eabi/4.9.3/../../../arm-none-eabi/lib/armv7-m/libc_nano.a(lib_a-findfp.o)
__seofread                                        /usr/lib/gcc/arm-none-eabi/4.9.3/../../../arm-none-eabi/lib/armv7-m/libc_nano.a(lib_a-stdio.o)
__sf_fake_stderr                                  /usr/lib/gcc/arm-none-eabi/4.9.3/../../../arm-none-eabi/lib/armv7-m/libc_nano.a(lib_a-findfp.o)
                                                  /usr/lib/gcc/arm-none-eabi/4.9.3/../../../arm-none-eabi/lib/armv7-m/libc_nano.a(lib_a-nano-vfprintf.o)
                                                  /usr/lib/gcc/arm-none-eabi/4.9.3/../../../arm-none-eabi/lib/armv7-m/libc_nano.a(lib_a-fflush.o)
                                                  /usr/lib/gcc/arm-none-eabi/4.9.3/../../../arm-none-eabi/lib/armv7-m/libc_nano.a(lib_a-wsetup.o)
                                                  /usr/lib/gcc/arm-none-eabi/4.9.3/../../../arm-none-eabi/lib/armv7-m/libc_nano.a(lib_a-wbuf.o)
                                                  /usr/lib/gcc/arm-none-eabi/4.9.3/../../../arm-none-eabi/lib/armv7-m/libc_nano.a(lib_a-puts.o)
                                                  /usr/lib/gcc/arm-none-eabi/4.9.3/../../../arm-none-eabi/lib/armv7-m/libc_nano.a(lib_a-impure.o)
__sf_fake_stdin                                   /usr/lib/gcc/arm-none-eabi/4.9.3/../../../arm-none-eabi/lib/armv7-m/libc_nano.a(lib_a-findfp.o)
                                                  /usr/lib/gcc/arm-none-eabi/4.9.3/../../../arm-none-eabi/lib/armv7-m/libc_nano.a(lib_a-nano-vfprintf.o)
                                                  /usr/lib/gcc/arm-none-eabi/4.9.3/../../../arm-none-eabi/lib/armv7-m/libc_nano.a(lib_a-fflush.o)
                                                  /usr/lib/gcc/arm-none-eabi/4.9.3/../../../arm-none-eabi/lib/armv7-m/libc_nano.a(lib_a-wsetup.o)
                                                  /usr/lib/gcc/arm-none-eabi/4.9.3/../../../arm-none-eabi/lib/armv7-m/libc_nano.a(lib_a-wbuf.o)
                                                  /usr/lib/gcc/arm-none-eabi/4.9.3/../../../arm-none-eabi/lib/armv7-m/libc_nano.a(lib_a-puts.o)
                                                  /usr/lib/gcc/arm-none-eabi/4.9.3/../../../arm-none-eabi/lib/armv7-m/libc_nano.a(lib_a-impure.o)
__sf_fake_stdout                                  /usr/lib/gcc/arm-none-eabi/4.9.3/../../../arm-none-eabi/lib/armv7-m/libc_nano.a(lib_a-findfp.o)
                                                  /usr/lib/gcc/arm-none-eabi/4.9.3/../../../arm-none-eabi/lib/armv7-m/libc_nano.a(lib_a-nano-vfprintf.o)
                                                  /usr/lib/gcc/arm-none-eabi/4.9.3/../../../arm-none-eabi/lib/armv7-m/libc_nano.a(lib_a-fflush.o)
                                                  /usr/lib/gcc/arm-none-eabi/4.9.3/../../../arm-none-eabi/lib/armv7-m/libc_nano.a(lib_a-wsetup.o)
                                                  /usr/lib/gcc/arm-none-eabi/4.9.3/../../../arm-none-eabi/lib/armv7-m/libc_nano.a(lib_a-wbuf.o)
                                                  /usr/lib/gcc/arm-none-eabi/4.9.3/../../../arm-none-eabi/lib/armv7-m/libc_nano.a(lib_a-puts.o)
                                                  /usr/lib/gcc/arm-none-eabi/4.9.3/../../../arm-none-eabi/lib/armv7-m/libc_nano.a(lib_a-impure.o)
__sflush_r                                        /usr/lib/gcc/arm-none-eabi/4.9.3/../../../arm-none-eabi/lib/armv7-m/libc_nano.a(lib_a-fflush.o)
__sfmoreglue                                      /usr/lib/gcc/arm-none-eabi/4.9.3/../../../arm-none-eabi/lib/armv7-m/libc_nano.a(lib_a-findfp.o)
__sfp                                             /usr/lib/gcc/arm-none-eabi/4.9.3/../../../arm-none-eabi/lib/armv7-m/libc_nano.a(lib_a-findfp.o)
__sfp_lock_acquire                                /usr/lib/gcc/arm-none-eabi/4.9.3/../../../arm-none-eabi/lib/armv7-m/libc_nano.a(lib_a-findfp.o)
__sfp_lock_release                                /usr/lib/gcc/arm-none-eabi/4.9.3/../../../arm-none-eabi/lib/armv7-m/libc_nano.a(lib_a-findfp.o)
__sfputs_r                                        /usr/lib/gcc/arm-none-eabi/4.9.3/../../../arm-none-eabi/lib/armv7-m/libc_nano.a(lib_a-nano-vfprintf.o)
__sfvwrite_r                                      /usr/lib/gcc/arm-none-eabi/4.9.3/../../../arm-none-eabi/lib/armv7-m/libc_nano.a(lib_a-fvwrite.o)
                                                  /usr/lib/gcc/arm-none-eabi/4.9.3/../../../arm-none-eabi/lib/armv7-m/libc_nano.a(lib_a-nano-vfprintf.o)
__sinit                                           /usr/lib/gcc/arm-none-eabi/4.9.3/../../../arm-none-eabi/lib/armv7-m/libc_nano.a(lib_a-findfp.o)
                                                  /usr/lib/gcc/arm-none-eabi/4.9.3/../../../arm-none-eabi/lib/armv7-m/libc_nano.a(lib_a-nano-vfprintf.o)
                                                  /usr/lib/gcc/arm-none-eabi/4.9.3/../../../arm-none-eabi/lib/armv7-m/libc_nano.a(lib_a-fflush.o)
                                                  /usr/lib/gcc/arm-none-eabi/4.9.3/../../../arm-none-eabi/lib/armv7-m/libc_nano.a(lib_a-wsetup.o)
                                                  /usr/lib/gcc/arm-none-eabi/4.9.3/../../../arm-none-eabi/lib/armv7-m/libc_nano.a(lib_a-wbuf.o)
                                                  /usr/lib/gcc/arm-none-eabi/4.9.3/../../../arm-none-eabi/lib/armv7-m/libc_nano.a(lib_a-puts.o)
                                                  /usr/lib/gcc/arm-none-eabi/4.9.3/../../../arm-none-eabi/lib/armv7-m/libc_nano.a(lib_a-printf.o)
__sinit_lock_acquire                              /usr/lib/gcc/arm-none-eabi/4.9.3/../../../arm-none-eabi/lib/armv7-m/libc_nano.a(lib_a-findfp.o)
__sinit_lock_release                              /usr/lib/gcc/arm-none-eabi/4.9.3/../../../arm-none-eabi/lib/armv7-m/libc_nano.a(lib_a-findfp.o)
__smakebuf_r                                      /usr/lib/gcc/arm-none-eabi/4.9.3/../../../arm-none-eabi/lib/armv7-m/libc_nano.a(lib_a-makebuf.o)
                                                  /usr/lib/gcc/arm-none-eabi/4.9.3/../../../arm-none-eabi/lib/armv7-m/libc_nano.a(lib_a-wsetup.o)
__sprint_r                                        /usr/lib/gcc/arm-none-eabi/4.9.3/../../../arm-none-eabi/lib/armv7-m/libc_nano.a(lib_a-nano-vfprintf.o)
__sread                                           /usr/lib/gcc/arm-none-eabi/4.9.3/../../../arm-none-eabi/lib/armv7-m/libc_nano.a(lib_a-stdio.o)
                                                  /usr/lib/gcc/arm-none-eabi/4.9.3/../../../arm-none-eabi/lib/armv7-m/libc_nano.a(lib_a-findfp.o)
__sseek                                           /usr/lib/gcc/arm-none-eabi/4.9.3/../../../arm-none-eabi/lib/armv7-m/libc_nano.a(lib_a-stdio.o)
                                                  /usr/lib/gcc/arm-none-eabi/4.9.3/../../../arm-none-eabi/lib/armv7-m/libc_nano.a(lib_a-findfp.o)
__stack                                           /usr/lib/gcc/arm-none-eabi/4.9.3/../../../arm-none-eabi/lib/armv7-m/crt0.o
__swbuf                                           /usr/lib/gcc/arm-none-eabi/4.9.3/../../../arm-none-eabi/lib/armv7-m/libc_nano.a(lib_a-wbuf.o)
__swbuf_r                                         /usr/lib/gcc/arm-none-eabi/4.9.3/../../../arm-none-eabi/lib/armv7-m/libc_nano.a(lib_a-wbuf.o)
                                                  /usr/lib/gcc/arm-none-eabi/4.9.3/../../../arm-none-eabi/lib/armv7-m/libc_nano.a(lib_a-nano-vfprintf.o)
                                                  /usr/lib/gcc/arm-none-eabi/4.9.3/../../../arm-none-eabi/lib/armv7-m/libc_nano.a(lib_a-puts.o)
__swrite                                          /usr/lib/gcc/arm-none-eabi/4.9.3/../../../arm-none-eabi/lib/armv7-m/libc_nano.a(lib_a-stdio.o)
                                                  /usr/lib/gcc/arm-none-eabi/4.9.3/../../../arm-none-eabi/lib/armv7-m/libc_nano.a(lib_a-findfp.o)
__swsetup_r                                       /usr/lib/gcc/arm-none-eabi/4.9.3/../../../arm-none-eabi/lib/armv7-m/libc_nano.a(lib_a-wsetup.o)
                                                  /usr/lib/gcc/arm-none-eabi/4.9.3/../../../arm-none-eabi/lib/armv7-m/libc_nano.a(lib_a-fvwrite.o)
                                                  /usr/lib/gcc/arm-none-eabi/4.9.3/../../../arm-none-eabi/lib/armv7-m/libc_nano.a(lib_a-nano-vfprintf.o)
                                                  /usr/lib/gcc/arm-none-eabi/4.9.3/../../../arm-none-eabi/lib/armv7-m/libc_nano.a(lib_a-wbuf.o)
                                                  /usr/lib/gcc/arm-none-eabi/4.9.3/../../../arm-none-eabi/lib/armv7-m/libc_nano.a(lib_a-puts.o)
__udivsi3                                         /usr/lib/gcc/arm-none-eabi/4.9.3/armv7-m/libgcc.a(_udivsi3.o)
_cleanup                                          /usr/lib/gcc/arm-none-eabi/4.9.3/../../../arm-none-eabi/lib/armv7-m/libc_nano.a(lib_a-findfp.o)
_cleanup_r                                        /usr/lib/gcc/arm-none-eabi/4.9.3/../../../arm-none-eabi/lib/armv7-m/libc_nano.a(lib_a-findfp.o)
                                                  /usr/lib/gcc/arm-none-eabi/4.9.3/../../../arm-none-eabi/lib/armv7-m/libc_nano.a(lib_a-makebuf.o)
_close                                            /usr/lib/gcc/arm-none-eabi/4.9.3/../../../arm-none-eabi/lib/armv7-m/libnosys.a(close.o)
                                                  /usr/lib/gcc/arm-none-eabi/4.9.3/../../../arm-none-eabi/lib/armv7-m/libc_nano.a(lib_a-closer.o)
_close_r                                          /usr/lib/gcc/arm-none-eabi/4.9.3/../../../arm-none-eabi/lib/armv7-m/libc_nano.a(lib_a-closer.o)
                                                  /usr/lib/gcc/arm-none-eabi/4.9.3/../../../arm-none-eabi/lib/armv7-m/libc_nano.a(lib_a-stdio.o)
_ctype_                                           /usr/lib/gcc/arm-none-eabi/4.9.3/../../../arm-none-eabi/lib/armv7-m/libc_nano.a(lib_a-ctype_.o)
_ebss                                             build/startup_stm32f103xb.o
_edata                                            build/startup_stm32f103xb.o
_estack                                           build/startup_stm32f103xb.o
_exit                                             /usr/lib/gcc/arm-none-eabi/4.9.3/../../../arm-none-eabi/lib/armv7-m/libnosys.a(_exit.o)
                                                  /usr/lib/gcc/arm-none-eabi/4.9.3/../../../arm-none-eabi/lib/armv7-m/libc_nano.a(lib_a-exit.o)
_fflush_r                                         /usr/lib/gcc/arm-none-eabi/4.9.3/../../../arm-none-eabi/lib/armv7-m/libc_nano.a(lib_a-fflush.o)
                                                  /usr/lib/gcc/arm-none-eabi/4.9.3/../../../arm-none-eabi/lib/armv7-m/libc_nano.a(lib_a-fvwrite.o)
                                                  /usr/lib/gcc/arm-none-eabi/4.9.3/../../../arm-none-eabi/lib/armv7-m/libc_nano.a(lib_a-findfp.o)
                                                  /usr/lib/gcc/arm-none-eabi/4.9.3/../../../arm-none-eabi/lib/armv7-m/libc_nano.a(lib_a-wbuf.o)
_fini                                             /usr/lib/gcc/arm-none-eabi/4.9.3/armv7-m/crti.o
                                                  /usr/lib/gcc/arm-none-eabi/4.9.3/../../../arm-none-eabi/lib/armv7-m/libc_nano.a(lib_a-fini.o)
_free_r                                           /usr/lib/gcc/arm-none-eabi/4.9.3/../../../arm-none-eabi/lib/armv7-m/libc_nano.a(lib_a-nano-freer.o)
                                                  /usr/lib/gcc/arm-none-eabi/4.9.3/../../../arm-none-eabi/lib/armv7-m/libc_nano.a(lib_a-reent.o)
                                                  /usr/lib/gcc/arm-none-eabi/4.9.3/../../../arm-none-eabi/lib/armv7-m/libc_nano.a(lib_a-nano-reallocr.o)
                                                  /usr/lib/gcc/arm-none-eabi/4.9.3/../../../arm-none-eabi/lib/armv7-m/libc_nano.a(lib_a-fvwrite.o)
                                                  /usr/lib/gcc/arm-none-eabi/4.9.3/../../../arm-none-eabi/lib/armv7-m/libc_nano.a(lib_a-fflush.o)
                                                  /usr/lib/gcc/arm-none-eabi/4.9.3/../../../arm-none-eabi/lib/armv7-m/libc_nano.a(lib_a-wsetup.o)
_fstat                                            /usr/lib/gcc/arm-none-eabi/4.9.3/../../../arm-none-eabi/lib/armv7-m/libnosys.a(fstat.o)
                                                  /usr/lib/gcc/arm-none-eabi/4.9.3/../../../arm-none-eabi/lib/armv7-m/libc_nano.a(lib_a-fstatr.o)
_fstat_r                                          /usr/lib/gcc/arm-none-eabi/4.9.3/../../../arm-none-eabi/lib/armv7-m/libc_nano.a(lib_a-fstatr.o)
                                                  /usr/lib/gcc/arm-none-eabi/4.9.3/../../../arm-none-eabi/lib/armv7-m/libc_nano.a(lib_a-makebuf.o)
_fwalk                                            /usr/lib/gcc/arm-none-eabi/4.9.3/../../../arm-none-eabi/lib/armv7-m/libc_nano.a(lib_a-fwalk.o)
                                                  /usr/lib/gcc/arm-none-eabi/4.9.3/../../../arm-none-eabi/lib/armv7-m/libc_nano.a(lib_a-findfp.o)
_fwalk_reent                                      /usr/lib/gcc/arm-none-eabi/4.9.3/../../../arm-none-eabi/lib/armv7-m/libc_nano.a(lib_a-fwalk.o)
                                                  /usr/lib/gcc/arm-none-eabi/4.9.3/../../../arm-none-eabi/lib/armv7-m/libc_nano.a(lib_a-findfp.o)
                                                  /usr/lib/gcc/arm-none-eabi/4.9.3/../../../arm-none-eabi/lib/armv7-m/libc_nano.a(lib_a-fflush.o)
_global_atexit                                    /usr/lib/gcc/arm-none-eabi/4.9.3/../../../arm-none-eabi/lib/armv7-m/libc_nano.a(lib_a-__call_atexit.o)
                                                  /usr/lib/gcc/arm-none-eabi/4.9.3/../../../arm-none-eabi/lib/armv7-m/libc_nano.a(lib_a-__atexit.o)
_global_impure_ptr                                /usr/lib/gcc/arm-none-eabi/4.9.3/../../../arm-none-eabi/lib/armv7-m/libc_nano.a(lib_a-impure.o)
                                                  /usr/lib/gcc/arm-none-eabi/4.9.3/../../../arm-none-eabi/lib/armv7-m/libc_nano.a(lib_a-findfp.o)
                                                  /usr/lib/gcc/arm-none-eabi/4.9.3/../../../arm-none-eabi/lib/armv7-m/libc_nano.a(lib_a-fflush.o)
                                                  /usr/lib/gcc/arm-none-eabi/4.9.3/../../../arm-none-eabi/lib/armv7-m/libc_nano.a(lib_a-exit.o)
_impure_ptr                                       /usr/lib/gcc/arm-none-eabi/4.9.3/../../../arm-none-eabi/lib/armv7-m/libc_nano.a(lib_a-impure.o)
                                                  /usr/lib/gcc/arm-none-eabi/4.9.3/../../../arm-none-eabi/lib/armv7-m/libc_nano.a(lib_a-reent.o)
                                                  /usr/lib/gcc/arm-none-eabi/4.9.3/../../../arm-none-eabi/lib/armv7-m/libc_nano.a(lib_a-nano-vfprintf.o)
                                                  /usr/lib/gcc/arm-none-eabi/4.9.3/../../../arm-none-eabi/lib/armv7-m/libc_nano.a(lib_a-findfp.o)
                                                  /usr/lib/gcc/arm-none-eabi/4.9.3/../../../arm-none-eabi/lib/armv7-m/libc_nano.a(lib_a-fflush.o)
                                                  /usr/lib/gcc/arm-none-eabi/4.9.3/../../../arm-none-eabi/lib/armv7-m/libc_nano.a(lib_a-wsetup.o)
                                                  /usr/lib/gcc/arm-none-eabi/4.9.3/../../../arm-none-eabi/lib/armv7-m/libc_nano.a(lib_a-wbuf.o)
                                                  /usr/lib/gcc/arm-none-eabi/4.9.3/../../../arm-none-eabi/lib/armv7-m/libc_nano.a(lib_a-strtol.o)
                                                  /usr/lib/gcc/arm-none-eabi/4.9.3/../../../arm-none-eabi/lib/armv7-m/libc_nano.a(lib_a-puts.o)
                                                  /usr/lib/gcc/arm-none-eabi/4.9.3/../../../arm-none-eabi/lib/armv7-m/libc_nano.a(lib_a-printf.o)
                                                  /usr/lib/gcc/arm-none-eabi/4.9.3/../../../arm-none-eabi/lib/armv7-m/libc_nano.a(lib_a-errno.o)
_init                                             /usr/lib/gcc/arm-none-eabi/4.9.3/armv7-m/crti.o
                                                  /usr/lib/gcc/arm-none-eabi/4.9.3/../../../arm-none-eabi/lib/armv7-m/libc_nano.a(lib_a-init.o)
_iprintf_r                                        /usr/lib/gcc/arm-none-eabi/4.9.3/../../../arm-none-eabi/lib/armv7-m/libc_nano.a(lib_a-printf.o)
_isatty                                           /usr/lib/gcc/arm-none-eabi/4.9.3/../../../arm-none-eabi/lib/armv7-m/libnosys.a(isatty.o)
                                                  /usr/lib/gcc/arm-none-eabi/4.9.3/../../../arm-none-eabi/lib/armv7-m/libc_nano.a(lib_a-isattyr.o)
_isatty_r                                         /usr/lib/gcc/arm-none-eabi/4.9.3/../../../arm-none-eabi/lib/armv7-m/libc_nano.a(lib_a-isattyr.o)
                                                  /usr/lib/gcc/arm-none-eabi/4.9.3/../../../arm-none-eabi/lib/armv7-m/libc_nano.a(lib_a-makebuf.o)
_lseek                                            /usr/lib/gcc/arm-none-eabi/4.9.3/../../../arm-none-eabi/lib/armv7-m/libnosys.a(lseek.o)
                                                  /usr/lib/gcc/arm-none-eabi/4.9.3/../../../arm-none-eabi/lib/armv7-m/libc_nano.a(lib_a-lseekr.o)
_lseek_r                                          /usr/lib/gcc/arm-none-eabi/4.9.3/../../../arm-none-eabi/lib/armv7-m/libc_nano.a(lib_a-lseekr.o)
                                                  /usr/lib/gcc/arm-none-eabi/4.9.3/../../../arm-none-eabi/lib/armv7-m/libc_nano.a(lib_a-stdio.o)
_mainCRTStartup                                   /usr/lib/gcc/arm-none-eabi/4.9.3/../../../arm-none-eabi/lib/armv7-m/crt0.o
_malloc_r                                         /usr/lib/gcc/arm-none-eabi/4.9.3/../../../arm-none-eabi/lib/armv7-m/libc_nano.a(lib_a-nano-mallocr.o)
                                                  /usr/lib/gcc/arm-none-eabi/4.9.3/../../../arm-none-eabi/lib/armv7-m/libc_nano.a(lib_a-nano-reallocr.o)
                                                  /usr/lib/gcc/arm-none-eabi/4.9.3/../../../arm-none-eabi/lib/armv7-m/libc_nano.a(lib_a-fvwrite.o)
                                                  /usr/lib/gcc/arm-none-eabi/4.9.3/../../../arm-none-eabi/lib/armv7-m/libc_nano.a(lib_a-makebuf.o)
                                                  /usr/lib/gcc/arm-none-eabi/4.9.3/../../../arm-none-eabi/lib/armv7-m/libc_nano.a(lib_a-findfp.o)
_malloc_usable_size_r                             /usr/lib/gcc/arm-none-eabi/4.9.3/../../../arm-none-eabi/lib/armv7-m/libc_nano.a(lib_a-nano-msizer.o)
                                                  /usr/lib/gcc/arm-none-eabi/4.9.3/../../../arm-none-eabi/lib/armv7-m/libc_nano.a(lib_a-nano-reallocr.o)
_printf_common                                    /usr/lib/gcc/arm-none-eabi/4.9.3/../../../arm-none-eabi/lib/armv7-m/libc_nano.a(lib_a-nano-vfprintf_i.o)
_printf_float                                     /usr/lib/gcc/arm-none-eabi/4.9.3/../../../arm-none-eabi/lib/armv7-m/libc_nano.a(lib_a-nano-vfprintf.o)
_printf_i                                         /usr/lib/gcc/arm-none-eabi/4.9.3/../../../arm-none-eabi/lib/armv7-m/libc_nano.a(lib_a-nano-vfprintf_i.o)
                                                  /usr/lib/gcc/arm-none-eabi/4.9.3/../../../arm-none-eabi/lib/armv7-m/libc_nano.a(lib_a-nano-vfprintf.o)
_printf_r                                         /usr/lib/gcc/arm-none-eabi/4.9.3/../../../arm-none-eabi/lib/armv7-m/libc_nano.a(lib_a-printf.o)
_puts_r                                           /usr/lib/gcc/arm-none-eabi/4.9.3/../../../arm-none-eabi/lib/armv7-m/libc_nano.a(lib_a-puts.o)
_read                                             /usr/lib/gcc/arm-none-eabi/4.9.3/../../../arm-none-eabi/lib/armv7-m/libnosys.a(read.o)
                                                  /usr/lib/gcc/arm-none-eabi/4.9.3/../../../arm-none-eabi/lib/armv7-m/libc_nano.a(lib_a-readr.o)
_read_r                                           /usr/lib/gcc/arm-none-eabi/4.9.3/../../../arm-none-eabi/lib/armv7-m/libc_nano.a(lib_a-readr.o)
                                                  /usr/lib/gcc/arm-none-eabi/4.9.3/../../../arm-none-eabi/lib/armv7-m/libc_nano.a(lib_a-stdio.o)
_realloc_r                                        /usr/lib/gcc/arm-none-eabi/4.9.3/../../../arm-none-eabi/lib/armv7-m/libc_nano.a(lib_a-nano-reallocr.o)
                                                  /usr/lib/gcc/arm-none-eabi/4.9.3/../../../arm-none-eabi/lib/armv7-m/libc_nano.a(lib_a-fvwrite.o)
_reclaim_reent                                    /usr/lib/gcc/arm-none-eabi/4.9.3/../../../arm-none-eabi/lib/armv7-m/libc_nano.a(lib_a-reent.o)
_sbrk                                             /usr/lib/gcc/arm-none-eabi/4.9.3/../../../arm-none-eabi/lib/armv7-m/libnosys.a(sbrk.o)
                                                  /usr/lib/gcc/arm-none-eabi/4.9.3/../../../arm-none-eabi/lib/armv7-m/libc_nano.a(lib_a-sbrkr.o)
_sbrk_r                                           /usr/lib/gcc/arm-none-eabi/4.9.3/../../../arm-none-eabi/lib/armv7-m/libc_nano.a(lib_a-sbrkr.o)
                                                  /usr/lib/gcc/arm-none-eabi/4.9.3/../../../arm-none-eabi/lib/armv7-m/libc_nano.a(lib_a-nano-mallocr.o)
_sbss                                             build/startup_stm32f103xb.o
_sdata                                            build/startup_stm32f103xb.o
_sidata                                           build/startup_stm32f103xb.o
_start                                            /usr/lib/gcc/arm-none-eabi/4.9.3/../../../arm-none-eabi/lib/armv7-m/crt0.o
_strtol_r                                         /usr/lib/gcc/arm-none-eabi/4.9.3/../../../arm-none-eabi/lib/armv7-m/libc_nano.a(lib_a-strtol.o)
_vfiprintf_r                                      /usr/lib/gcc/arm-none-eabi/4.9.3/../../../arm-none-eabi/lib/armv7-m/libc_nano.a(lib_a-nano-vfprintf.o)
_vfprintf_r                                       /usr/lib/gcc/arm-none-eabi/4.9.3/../../../arm-none-eabi/lib/armv7-m/libc_nano.a(lib_a-nano-vfprintf.o)
                                                  /usr/lib/gcc/arm-none-eabi/4.9.3/../../../arm-none-eabi/lib/armv7-m/libc_nano.a(lib_a-printf.o)
_write                                            build/main.o
                                                  /usr/lib/gcc/arm-none-eabi/4.9.3/../../../arm-none-eabi/lib/armv7-m/libc_nano.a(lib_a-writer.o)
_write_r                                          /usr/lib/gcc/arm-none-eabi/4.9.3/../../../arm-none-eabi/lib/armv7-m/libc_nano.a(lib_a-writer.o)
                                                  /usr/lib/gcc/arm-none-eabi/4.9.3/../../../arm-none-eabi/lib/armv7-m/libc_nano.a(lib_a-stdio.o)
a2i                                               build/monitor.o
aLineMode1080PMode12Lin1                          build/VX_OSD_Simple.o
                                                  ./Lib/libVS4210.a(VS4210.o)
aLineMode1080PMode1Lin1                           build/VX_OSD_Simple.o
                                                  ./Lib/libVS4210.a(VS4210.o)
aLineMode1080PMode1Lin2                           build/VX_OSD_Simple.o
                                                  ./Lib/libVS4210.a(VS4210.o)
aLineMode1080PMode2Lin1                           build/VX_OSD_Simple.o
                                                  ./Lib/libVS4210.a(VS4210.o)
aLineMode1080PMode2Lin2                           build/VX_OSD_Simple.o
                                                  ./Lib/libVS4210.a(VS4210.o)
aLineMode1080PMode2Lin3                           build/VX_OSD_Simple.o
                                                  ./Lib/libVS4210.a(VS4210.o)
aLineMode1080PMode6Lin1                           build/VX_OSD_Simple.o
                                                  ./Lib/libVS4210.a(VS4210.o)
aLineMode1080PMode6Lin2                           build/VX_OSD_Simple.o
                                                  ./Lib/libVS4210.a(VS4210.o)
aLineMode1080PMode6Lin3                           build/VX_OSD_Simple.o
                                                  ./Lib/libVS4210.a(VS4210.o)
aLineMode720PMode12Lin1                           build/VX_OSD_Simple.o
                                                  ./Lib/libVS4210.a(VS4210.o)
aLineMode720PMode1Lin1                            build/VX_OSD_Simple.o
                                                  ./Lib/libVS4210.a(VS4210.o)
aLineMode720PMode1Lin2                            build/VX_OSD_Simple.o
                                                  ./Lib/libVS4210.a(VS4210.o)
aLineMode720PMode2Lin1                            build/VX_OSD_Simple.o
                                                  ./Lib/libVS4210.a(VS4210.o)
aLineMode720PMode2Lin2                            build/VX_OSD_Simple.o
                                                  ./Lib/libVS4210.a(VS4210.o)
aLineMode720PMode2Lin3                            build/VX_OSD_Simple.o
                                                  ./Lib/libVS4210.a(VS4210.o)
aLineMode720PMode6Lin1                            build/VX_OSD_Simple.o
                                                  ./Lib/libVS4210.a(VS4210.o)
aLineMode720PMode6Lin2                            build/VX_OSD_Simple.o
                                                  ./Lib/libVS4210.a(VS4210.o)
aLineMode720PMode6Lin3                            build/VX_OSD_Simple.o
                                                  ./Lib/libVS4210.a(VS4210.o)
aLineModeReg                                      build/VX_OSD_Simple.o
                                                  ./Lib/libVS4210.a(VS4210.o)
argc                                              build/monitor.o
argv                                              build/monitor.o
aspec                                             ./Lib/libite66121dvi.a(hdmitx_sys.o)
atexit                                            /usr/lib/gcc/arm-none-eabi/4.9.3/../../../arm-none-eabi/lib/armv7-m/libc_nano.a(lib_a-atexit.o)
                                                  /usr/lib/gcc/arm-none-eabi/4.9.3/../../../arm-none-eabi/lib/armv7-m/crt0.o
aviinfoframe                                      ./Lib/libit6602.a(it6602.o)
bAudioEnable                                      ./Lib/libite66121dvi.a(hdmitx_sys.o)
bCSCMtx_YUV2RGB_ITU601_0_255                      ./Lib/libite66121dvi.a(tx_csc.o)
                                                  ./Lib/libite66121dvi.a(hdmitx_drv.o)
bCSCMtx_YUV2RGB_ITU601_16_235                     ./Lib/libite66121dvi.a(tx_csc.o)
                                                  ./Lib/libite66121dvi.a(hdmitx_drv.o)
bCSCMtx_YUV2RGB_ITU709_0_255                      ./Lib/libite66121dvi.a(tx_csc.o)
                                                  ./Lib/libite66121dvi.a(hdmitx_drv.o)
bCSCMtx_YUV2RGB_ITU709_16_235                     ./Lib/libite66121dvi.a(tx_csc.o)
                                                  ./Lib/libite66121dvi.a(hdmitx_drv.o)
bForceCTS                                         ./Lib/libite66121dvi.a(hdmitx_drv.o)
bHDMIMode                                         ./Lib/libite66121dvi.a(hdmitx_sys.o)
bInputColorMode                                   ./Lib/libite66121dvi.a(hdmitx_sys.o)
bOutputAudioChannel                               ./Lib/libite66121dvi.a(hdmitx_sys.o)
bOutputAudioType                                  ./Lib/libite66121dvi.a(hdmitx_sys.o)
bOutputColorMode                                  ./Lib/libite66121dvi.a(hdmitx_sys.o)
bSignal                                           build/main.o
                                                  ./Lib/libVS4210.a(VS4210.o)
                                                  build/monitor.o
bVloss_Flag                                       build/VX_OSD_Simple.o
                                                  build/SysTimer.o
chip                                              build/TP2802.o
cleanup_glue                                      /usr/lib/gcc/arm-none-eabi/4.9.3/../../../arm-none-eabi/lib/armv7-m/libc_nano.a(lib_a-reent.o)
count                                             build/TP2802.o
crc                                               build/TP2802.o
day                                               build/SysTimer.o
                                                  build/monitor.o
delay                                             build/VX_swi2c.o
                                                  build/TP2802.o
                                                  build/main.o
delay1ms                                          build/VX_swi2c.o
                                                  ./Lib/libit6602.a(it6602.o)
                                                  ./Lib/libsw_i2c3.a(sw_i2c3.o)
                                                  ./Lib/libsw_i2c0.a(sw_i2c0.o)
delayTX1ms                                        build/VX_swi2c.o
                                                  ./Lib/libite66121dvi.a(hdmitx_drv.o)
echo                                              build/monitor.o
egain                                             build/TP2802.o
end                                               /usr/lib/gcc/arm-none-eabi/4.9.3/../../../arm-none-eabi/lib/armv7-m/libnosys.a(sbrk.o)
errno                                             /usr/lib/gcc/arm-none-eabi/4.9.3/../../../arm-none-eabi/lib/armv7-m/libc_nano.a(lib_a-reent.o)
                                                  /usr/lib/gcc/arm-none-eabi/4.9.3/../../../arm-none-eabi/lib/armv7-m/libnosys.a(read.o)
                                                  /usr/lib/gcc/arm-none-eabi/4.9.3/../../../arm-none-eabi/lib/armv7-m/libnosys.a(lseek.o)
                                                  /usr/lib/gcc/arm-none-eabi/4.9.3/../../../arm-none-eabi/lib/armv7-m/libnosys.a(isatty.o)
                                                  /usr/lib/gcc/arm-none-eabi/4.9.3/../../../arm-none-eabi/lib/armv7-m/libnosys.a(fstat.o)
                                                  /usr/lib/gcc/arm-none-eabi/4.9.3/../../../arm-none-eabi/lib/armv7-m/libnosys.a(close.o)
                                                  /usr/lib/gcc/arm-none-eabi/4.9.3/../../../arm-none-eabi/lib/armv7-m/libc_nano.a(lib_a-readr.o)
                                                  /usr/lib/gcc/arm-none-eabi/4.9.3/../../../arm-none-eabi/lib/armv7-m/libc_nano.a(lib_a-lseekr.o)
                                                  /usr/lib/gcc/arm-none-eabi/4.9.3/../../../arm-none-eabi/lib/armv7-m/libc_nano.a(lib_a-isattyr.o)
                                                  /usr/lib/gcc/arm-none-eabi/4.9.3/../../../arm-none-eabi/lib/armv7-m/libc_nano.a(lib_a-fstatr.o)
                                                  /usr/lib/gcc/arm-none-eabi/4.9.3/../../../arm-none-eabi/lib/armv7-m/libc_nano.a(lib_a-closer.o)
                                                  /usr/lib/gcc/arm-none-eabi/4.9.3/../../../arm-none-eabi/lib/armv7-m/libc_nano.a(lib_a-writer.o)
                                                  /usr/lib/gcc/arm-none-eabi/4.9.3/../../../arm-none-eabi/lib/armv7-m/libc_nano.a(lib_a-sbrkr.o)
exit                                              /usr/lib/gcc/arm-none-eabi/4.9.3/../../../arm-none-eabi/lib/armv7-m/libc_nano.a(lib_a-exit.o)
                                                  /usr/lib/gcc/arm-none-eabi/4.9.3/../../../arm-none-eabi/lib/armv7-m/crt0.o
fflush                                            /usr/lib/gcc/arm-none-eabi/4.9.3/../../../arm-none-eabi/lib/armv7-m/libc_nano.a(lib_a-fflush.o)
flag_AUDIO                                        build/TP2802.o
flag_CVBS                                         build/TP2802.o
flag_LOCKED                                       build/TP2802.o
flag_MEGA                                         build/TP2802.o
free                                              /usr/lib/gcc/arm-none-eabi/4.9.3/../../../arm-none-eabi/lib/armv7-m/libc_nano.a(lib_a-__call_atexit.o)
gChannel0HDMIindex                                ./Lib/libVS4210.a(VS4210.o)
gHActive                                          ./Lib/libVS4210.a(VS4210.o)
                                                  ./Lib/libit6602.a(it6602.o)
                                                  build/main.o
gHDMI_Index                                       ./Lib/libVS4210.a(VS4210.o)
                                                  ./Lib/libit6602.a(it6602.o)
                                                  ./Lib/libsw_i2c0.a(sw_i2c0.o)
                                                  build/monitor.o
                                                  build/main.o
gHDMI_TxIndex                                     ./Lib/libite66121dvi.a(hdmitx_sys.o)
                                                  ./Lib/libite66121dvi.a(hdmitx_drv.o)
gHTotal                                           ./Lib/libVS4210.a(VS4210.o)
                                                  ./Lib/libit6602.a(it6602.o)
                                                  build/main.o
gMode0LoopCount                                   build/main.o
gMode0LoopFlg                                     build/main.o
gMode0LoopSecCmpVal                               build/main.o
gMode0LoopSecCount                                build/main.o
gPreAudioSampleFreq                               build/main.o
gPrebAUDO_INDEX                                   build/main.o
gRxLoopFlg                                        build/main.o
gVActive                                          ./Lib/libVS4210.a(VS4210.o)
                                                  ./Lib/libit6602.a(it6602.o)
                                                  build/main.o
gVTotal                                           ./Lib/libVS4210.a(VS4210.o)
                                                  ./Lib/libit6602.a(it6602.o)
                                                  build/main.o
gWindowNum                                        ./Lib/libVS4210.a(VS4210.o)
g_bNotifyTimer0Int                                build/SysTimer.o
                                                  build/main.o
g_pfnVectors                                      build/startup_stm32f103xb.o
g_stPowerInfo                                     build/SysTimer.o
g_stTimerEvent                                    build/SysTimer.o
g_usTimerCounter                                  build/SysTimer.o
                                                  build/main.o
gaHDMI_MapWindowIndex                             ./Lib/libVS4210.a(VS4210.o)
                                                  build/VX_OSD_Simple.o
gaOpenWindowflg                                   ./Lib/libVS4210.a(VS4210.o)
gabVXIS_Input_mirrorH                             build/main.o
gbAUDO_INDEX                                      build/main.o
gbPreVXIS_InputMode                               ./Lib/libVS4210.a(VS4210.o)
gbVXIS_InputMode                                  ./Lib/libVS4210.a(VS4210.o)
                                                  ./Lib/libit6602.a(it6602.o)
                                                  build/TP2802.o
                                                  build/main.o
gbVXIS_OuputModeflg                               ./Lib/libVS4210.a(VS4210.o)
                                                  build/TP2802.o
gbVXIS_OuputSize                                  ./Lib/libVS4210.a(VS4210.o)
                                                  ./Lib/libite66121dvi.a(hdmitx_sys.o)
                                                  build/VX_OSD_Simple.o
getHDMIRXAudioInfo                                ./Lib/libit6602.a(it6602.o)
                                                  build/main.o
getHDMITX_EDIDBlock                               ./Lib/libite66121dvi.a(hdmitx_drv.o)
                                                  ./Lib/libite66121dvi.a(hdmitx_sys.o)
getHDMITX_EDIDBytes                               ./Lib/libite66121dvi.a(hdmitx_drv.o)
getHDMITX_LinkStatus                              ./Lib/libite66121dvi.a(hdmitx_drv.o)
                                                  ./Lib/libite66121dvi.a(hdmitx_sys.o)
get_vid_info                                      ./Lib/libit6602.a(it6602.o)
gskipsleepflg                                     build/VX_swi2c.o
gu8AudioMode                                      ./Lib/libVS4210.a(VS4210.o)
                                                  build/VX_OSD_Simple.o
gu8PreAudioMode                                   ./Lib/libVS4210.a(VS4210.o)
gvideofftmp                                       ./Lib/libVS4210.a(VS4210.o)
hadc1                                             build/main.o
half_scaler                                       build/main.o
hardware_init_hook                                /usr/lib/gcc/arm-none-eabi/4.9.3/../../../arm-none-eabi/lib/armv7-m/crt0.o
hdmiTxDev                                         ./Lib/libite66121dvi.a(hdmitx_drv.o)
hdmitx_AbortDDC                                   ./Lib/libite66121dvi.a(hdmitx_drv.o)
hdmitx_ClearDDCFIFO                               ./Lib/libite66121dvi.a(hdmitx_drv.o)
hdmitx_FireAFE                                    ./Lib/libite66121dvi.a(hdmitx_drv.o)
hdmitx_LoadRegSetting                             ./Lib/libite66121dvi.a(hdmitx_drv.o)
hdmitx_SetAVIInfoFrame                            ./Lib/libite66121dvi.a(hdmitx_drv.o)
hdmitx_SetAudioInfoFrame                          ./Lib/libite66121dvi.a(hdmitx_drv.o)
hdmitx_SetCSCScale                                ./Lib/libite66121dvi.a(hdmitx_drv.o)
hdmitx_SetInputMode                               ./Lib/libite66121dvi.a(hdmitx_drv.o)
hdmitx_SetVSIInfoFrame                            ./Lib/libite66121dvi.a(hdmitx_drv.o)
hdmitx_SetupAFE                                   ./Lib/libite66121dvi.a(hdmitx_drv.o)
hour                                              build/SysTimer.o
                                                  build/monitor.o
hs_toupper                                        build/monitor.o
htim2                                             build/main.o
htim3                                             build/main.o
                                                  build/stm32f1xx_it.o
huart1                                            build/main.o
                                                  build/monitor.o
                                                  build/stm32f1xx_it.o
huart2                                            build/main.o
                                                  build/monitor.o
                                                  build/stm32f1xx_it.o
iHPD_ON_count                                     ./Lib/libite66121dvi.a(hdmitx_sys.o)
iprintf                                           /usr/lib/gcc/arm-none-eabi/4.9.3/../../../arm-none-eabi/lib/armv7-m/libc_nano.a(lib_a-printf.o)
isHPD_ON_Flg                                      ./Lib/libite66121dvi.a(hdmitx_sys.o)
isfirstinit                                       ./Lib/libVS4210.a(VS4210.o)
it6602HPDCtrl                                     ./Lib/libit6602.a(it6602.o)
it6602PortSelect                                  ./Lib/libit6602.a(it6602.o)
it6602_DEV                                        ./Lib/libit6602.a(it6602.o)
keytic                                            build/main.o
led_Flag                                          build/SysTimer.o
main                                              build/main.o
                                                  build/startup_stm32f103xb.o
                                                  /usr/lib/gcc/arm-none-eabi/4.9.3/../../../arm-none-eabi/lib/armv7-m/crt0.o
main_init                                         build/main.o
main_loop                                         build/main.o
malloc                                            /usr/lib/gcc/arm-none-eabi/4.9.3/../../../arm-none-eabi/lib/armv7-m/libc_nano.a(lib_a-__atexit.o)
memchr                                            /usr/lib/gcc/arm-none-eabi/4.9.3/../../../arm-none-eabi/lib/armv7-m/libc_nano.a(lib_a-memchr.o)
                                                  /usr/lib/gcc/arm-none-eabi/4.9.3/../../../arm-none-eabi/lib/armv7-m/libc_nano.a(lib_a-fvwrite.o)
                                                  /usr/lib/gcc/arm-none-eabi/4.9.3/../../../arm-none-eabi/lib/armv7-m/libc_nano.a(lib_a-nano-vfprintf_i.o)
                                                  /usr/lib/gcc/arm-none-eabi/4.9.3/../../../arm-none-eabi/lib/armv7-m/libc_nano.a(lib_a-nano-vfprintf.o)
memcpy                                            /usr/lib/gcc/arm-none-eabi/4.9.3/../../../arm-none-eabi/lib/armv7-m/libc_nano.a(lib_a-memcpy.o)
                                                  /usr/lib/gcc/arm-none-eabi/4.9.3/../../../arm-none-eabi/lib/armv7-m/libc_nano.a(lib_a-nano-reallocr.o)
                                                  /usr/lib/gcc/arm-none-eabi/4.9.3/../../../arm-none-eabi/lib/armv7-m/libc_nano.a(lib_a-fvwrite.o)
                                                  build/VX_OSD_Simple.o
memmove                                           /usr/lib/gcc/arm-none-eabi/4.9.3/../../../arm-none-eabi/lib/armv7-m/libc_nano.a(lib_a-memmove.o)
                                                  /usr/lib/gcc/arm-none-eabi/4.9.3/../../../arm-none-eabi/lib/armv7-m/libc_nano.a(lib_a-fvwrite.o)
memset                                            /usr/lib/gcc/arm-none-eabi/4.9.3/../../../arm-none-eabi/lib/armv7-m/libc_nano.a(lib_a-memset.o)
                                                  /usr/lib/gcc/arm-none-eabi/4.9.3/../../../arm-none-eabi/lib/armv7-m/libc_nano.a(lib_a-findfp.o)
                                                  build/VX_swi2c.o
                                                  build/main.o
                                                  /usr/lib/gcc/arm-none-eabi/4.9.3/../../../arm-none-eabi/lib/armv7-m/crt0.o
minute                                            build/SysTimer.o
                                                  build/monitor.o
mode                                              build/TP2802.o
                                                  build/SysTimer.o
                                                  build/main.o
monstr                                            build/monitor.o
month                                             build/SysTimer.o
msleep                                            build/VX_swi2c.o
                                                  ./Lib/libVS4210.a(VS4210.o)
                                                  ./Lib/libsw_i2c2.a(sw_i2c2.o)
                                                  build/TP2802.o
                                                  build/main.o
newInRes                                          build/TP2802.o
                                                  build/etc_eep.o
                                                  build/TOA_Protocol.o
                                                  build/SysTimer.o
                                                  build/Printf.o
                                                  build/monitor.o
                                                  build/main.o
onMode0                                           ./Lib/libVS4210.a(VS4210.o)
osd_cont_write                                    build/VX_OSD_Simple.o
pFlash                                            build/stm32f1xx_hal_flash.o
                                                  build/stm32f1xx_hal_flash_ex.o
pVS4210_JointKind1                                build/main.o
pVS4210_MutiWindows1                              build/main.o
pixelrep                                          ./Lib/libite66121dvi.a(hdmitx_sys.o)
presetNum                                         build/TP2802.o
                                                  build/TOA_Protocol.o
                                                  build/monitor.o
printf                                            /usr/lib/gcc/arm-none-eabi/4.9.3/../../../arm-none-eabi/lib/armv7-m/libc_nano.a(lib_a-printf.o)
                                                  build/TP2802.o
                                                  build/main.o
protocol_chksum                                   build/TOA_Protocol.o
protocol_cmd                                      build/TOA_Protocol.o
protocol_data                                     build/TOA_Protocol.o
protocol_data_count                               build/TOA_Protocol.o
protocol_escape_flag                              build/TOA_Protocol.o
protocol_len                                      build/TOA_Protocol.o
protocol_param                                    build/TOA_Protocol.o
protocol_state                                    build/TOA_Protocol.o
protocol_type                                     build/TOA_Protocol.o
ptcOSDbar                                         build/VX_OSD_Simple.o
ptztxflag                                         build/TP2802.o
                                                  build/TOA_Protocol.o
                                                  build/monitor.o
puts                                              /usr/lib/gcc/arm-none-eabi/4.9.3/../../../arm-none-eabi/lib/armv7-m/libc_nano.a(lib_a-puts.o)
                                                  build/TP2802.o
                                                  build/main.o
revision                                          build/TP2802.o
rxcurport                                         ./Lib/libit6602.a(it6602.o)
rxphyA                                            ./Lib/libit6602.a(it6602.o)
rxphyB                                            ./Lib/libit6602.a(it6602.o)
rxphyC                                            ./Lib/libit6602.a(it6602.o)
rxphyD                                            ./Lib/libit6602.a(it6602.o)
rxphyadr                                          ./Lib/libit6602.a(it6602.o)
second                                            build/SysTimer.o
                                                  build/monitor.o
setHDMITX_AVMute                                  ./Lib/libite66121dvi.a(hdmitx_drv.o)
                                                  ./Lib/libite66121dvi.a(hdmitx_sys.o)
setHDMITX_AudioChannelEnable                      ./Lib/libite66121dvi.a(hdmitx_drv.o)
setHDMITX_ChStat                                  ./Lib/libite66121dvi.a(hdmitx_drv.o)
setHDMITX_DSDAudio                                ./Lib/libite66121dvi.a(hdmitx_drv.o)
setHDMITX_HBRAudio                                ./Lib/libite66121dvi.a(hdmitx_drv.o)
setHDMITX_LPCMAudio                               ./Lib/libite66121dvi.a(hdmitx_drv.o)
setHDMITX_NCTS                                    ./Lib/libite66121dvi.a(hdmitx_drv.o)
setHDMITX_NLPCMAudio                              ./Lib/libite66121dvi.a(hdmitx_drv.o)
setHDMITX_VideoSignalType                         ./Lib/libite66121dvi.a(hdmitx_drv.o)
                                                  ./Lib/libite66121dvi.a(hdmitx_sys.o)
setTransParentIndex                               build/VX_OSD.o
                                                  build/VX_OSD_Simple.o
setloopoutmode                                    build/main.o
show_vid_info                                     ./Lib/libit6602.a(it6602.o)
software_init_hook                                /usr/lib/gcc/arm-none-eabi/4.9.3/../../../arm-none-eabi/lib/armv7-m/crt0.o
state                                             build/TP2802.o
std                                               build/TP2802.o
stricmp                                           build/monitor.o
strtol                                            /usr/lib/gcc/arm-none-eabi/4.9.3/../../../arm-none-eabi/lib/armv7-m/libc_nano.a(lib_a-strtol.o)
                                                  build/main.o
sywd                                              build/TP2802.o
tic02                                             build/SysTimer.o
                                                  build/main.o
tic03                                             build/SysTimer.o
                                                  build/main.o
tic04                                             build/SysTimer.o
                                                  build/main.o
tic05                                             build/SysTimer.o
tp28xx_byte_read                                  build/VX_swi2c.o
                                                  build/monitor.o
                                                  build/TP2802.o
tp28xx_byte_write                                 build/VX_swi2c.o
                                                  build/monitor.o
                                                  build/TP2802.o
tpRxD                                             build/TP2802.o
tptic                                             build/main.o
txphyA                                            ./Lib/libit6602.a(it6602.o)
txphyB                                            ./Lib/libit6602.a(it6602.o)
txphyC                                            ./Lib/libit6602.a(it6602.o)
txphyD                                            ./Lib/libit6602.a(it6602.o)
txphyadr                                          ./Lib/libit6602.a(it6602.o)
txphylevel                                        ./Lib/libit6602.a(it6602.o)
u8DrawBoxColor                                    ./Lib/libVS4210.a(VS4210.o)
u8DrawBoxFlg                                      ./Lib/libVS4210.a(VS4210.o)
u8PreDrawBoxColor                                 ./Lib/libVS4210.a(VS4210.o)
u8PreDrawOSDFlg                                   ./Lib/libVS4210.a(VS4210.o)
u8gDrawOSDFlg                                     ./Lib/libVS4210.a(VS4210.o)
                                                  build/VX_OSD_Simple.o
uComOnChipInitial                                 build/main.o
ucChannelB                                        ./Lib/libit6602.a(it6602.o)
ucChannelG                                        ./Lib/libit6602.a(it6602.o)
ucChannelR                                        ./Lib/libit6602.a(it6602.o)
ucEQMode                                          ./Lib/libit6602.a(it6602.o)
ucPortAMPOverWrite                                ./Lib/libit6602.a(it6602.o)
ucPortAMPValid                                    ./Lib/libit6602.a(it6602.o)
ulAudioSampleFS                                   ./Lib/libite66121dvi.a(hdmitx_sys.o)
user_pwm_setvalue                                 build/main.o
                                                  build/monitor.o
uwTick                                            build/stm32f1xx_hal.o
uwTickFreq                                        build/stm32f1xx_hal.o
uwTickPrio                                        build/stm32f1xx_hal.o
                                                  build/stm32f1xx_hal_rcc.o
vfiprintf                                         /usr/lib/gcc/arm-none-eabi/4.9.3/../../../arm-none-eabi/lib/armv7-m/libc_nano.a(lib_a-nano-vfprintf.o)
vfprintf                                          /usr/lib/gcc/arm-none-eabi/4.9.3/../../../arm-none-eabi/lib/armv7-m/libc_nano.a(lib_a-nano-vfprintf.o)
wakeupcnt                                         ./Lib/libit6602.a(it6602.o)
wrburstnum                                        ./Lib/libit6602.a(it6602.o)
wrburstoff                                        ./Lib/libit6602.a(it6602.o)
xchMapl                                           ./Lib/libVS4210.a(VS4210.o)
year1                                             build/SysTimer.o
year2                                             build/SysTimer.o
