ARM GAS  /tmp/ccZU1AeU.s 			page 1


   1              		.cpu cortex-m3
   2              		.eabi_attribute 20, 1
   3              		.eabi_attribute 21, 1
   4              		.eabi_attribute 23, 3
   5              		.eabi_attribute 24, 1
   6              		.eabi_attribute 25, 1
   7              		.eabi_attribute 26, 1
   8              		.eabi_attribute 30, 1
   9              		.eabi_attribute 34, 1
  10              		.eabi_attribute 18, 4
  11              		.file	"TP2802.c"
  12              		.text
  13              	.Ltext0:
  14              		.cfi_sections	.debug_frame
  15              		.section	.text.tp2824_reset_default,"ax",%progbits
  16              		.align	1
  17              		.syntax unified
  18              		.thumb
  19              		.thumb_func
  20              		.fpu softvfp
  22              	tp2824_reset_default:
  23              	.LFB79:
  24              		.file 1 "TP2824/TP2802.c"
   1:TP2824/TP2802.c **** // *****************************************************
   2:TP2824/TP2802.c **** // Company : Techpoint Inc
   3:TP2824/TP2802.c **** // $Date: 2014-03-10
   4:TP2824/TP2802.c **** // $Log:  $
   5:TP2824/TP2802.c **** // ******************************************************
   6:TP2824/TP2802.c **** #include "VXIS_Extern_Define.h"
   7:TP2824/TP2802.c **** #include "stdlib.h"
   8:TP2824/TP2802.c **** //#include "tpinc/Device_Rx.h"
   9:TP2824/TP2802.c **** #include "tpinc/TP2802.h"
  10:TP2824/TP2802.c **** 
  11:TP2824/TP2802.c **** #include "VX_swi2c.h"
  12:TP2824/TP2802.c **** #include "VS4210.h"
  13:TP2824/TP2802.c **** #include "etc_eep.h"
  14:TP2824/TP2802.c **** #include "keyremo.h"
  15:TP2824/TP2802.c **** #include "Printf.h"
  16:TP2824/TP2802.c **** #include "stm32f1xx_hal.h"
  17:TP2824/TP2802.c **** 
  18:TP2824/TP2802.c **** //extern tByte ManVidResRx;
  19:TP2824/TP2802.c **** 
  20:TP2824/TP2802.c **** tByte ManVidResRx;
  21:TP2824/TP2802.c **** extern tByte ManSelCh;
  22:TP2824/TP2802.c **** extern tByte gRxLoopFlg;
  23:TP2824/TP2802.c **** 
  24:TP2824/TP2802.c **** #ifndef TRUE
  25:TP2824/TP2802.c **** #define TRUE 1
  26:TP2824/TP2802.c **** #endif
  27:TP2824/TP2802.c **** 
  28:TP2824/TP2802.c **** #ifndef FALSE
  29:TP2824/TP2802.c **** #define FALSE 0
  30:TP2824/TP2802.c **** #endif
  31:TP2824/TP2802.c **** 
  32:TP2824/TP2802.c **** //TP2802D EQ for short cable option
  33:TP2824/TP2802.c **** #define TP2802D_EQ_SHORT 0x0d
  34:TP2824/TP2802.c **** #define TP2802D_CGAIN_SHORT 0x74
ARM GAS  /tmp/ccZU1AeU.s 			page 2


  35:TP2824/TP2802.c **** //#define TP2802D_EQ_SHORT 0x01
  36:TP2824/TP2802.c **** //#define TP2802D_CGAIN_SHORT 0x70
  37:TP2824/TP2802.c **** 
  38:TP2824/TP2802.c **** //#define CVI_TEST 0
  39:TP2824/TP2802.c **** //#define AHD_TEST 1
  40:TP2824/TP2802.c **** 
  41:TP2824/TP2802.c **** #define CH_PER_CHIP 1//0x04
  42:TP2824/TP2802.c **** #define MAX_COUNT 	0xff
  43:TP2824/TP2802.c **** 
  44:TP2824/TP2802.c **** //extern void CreateMDIN340VideoInstance(void);
  45:TP2824/TP2802.c **** 
  46:TP2824/TP2802.c **** tByte newInRes[4] = {7,7,7,7} ;
  47:TP2824/TP2802.c **** 
  48:TP2824/TP2802.c **** extern bit DetAutoRes;
  49:TP2824/TP2802.c **** tByte	state[CH_PER_CHIP];
  50:TP2824/TP2802.c **** tByte	count[CH_PER_CHIP];
  51:TP2824/TP2802.c **** tByte	mode[CH_PER_CHIP];
  52:TP2824/TP2802.c **** tByte	std[CH_PER_CHIP];
  53:TP2824/TP2802.c **** tByte	egain[CH_PER_CHIP][4];
  54:TP2824/TP2802.c **** tByte	VideoSave[CH_PER_CHIP];
  55:TP2824/TP2802.c **** //tByte	ch_boot_reset[CH_PER_CHIP]={0,0,0,0};
  56:TP2824/TP2802.c **** tByte	revision;
  57:TP2824/TP2802.c **** tByte	chip;
  58:TP2824/TP2802.c **** tByte	flag_LOCKED;
  59:TP2824/TP2802.c **** tByte   TVII2CAddress;
  60:TP2824/TP2802.c **** tByte	PTZ_buf[16];
  61:TP2824/TP2802.c **** tWord   PTZ_pelco;
  62:TP2824/TP2802.c **** tByte   CurRes;
  63:TP2824/TP2802.c **** tByte   CurCH;
  64:TP2824/TP2802.c **** tByte crc;
  65:TP2824/TP2802.c **** bit sywd;
  66:TP2824/TP2802.c **** bit flag_CVBS;
  67:TP2824/TP2802.c **** bit flag_AUDIO;
  68:TP2824/TP2802.c **** bit flag_MEGA;
  69:TP2824/TP2802.c **** 
  70:TP2824/TP2802.c **** tcByte SYS_MODE[]= {0x01,0x02,0x04,0x08,0x0f};
  71:TP2824/TP2802.c **** tcByte SYS_AND[] = {0xfe,0xfd,0xfb,0xf7,0xf0};
  72:TP2824/TP2802.c **** 
  73:TP2824/TP2802.c **** tcByte REG_F6[4]= {0x00,0x11,0x22,0x33};
  74:TP2824/TP2802.c **** tcByte REG_F7[4]= {0x44,0x55,0x66,0x77};
  75:TP2824/TP2802.c **** tcByte REG_FA[4]= {0xBB,0xCC,0xDD,0xEE};
  76:TP2824/TP2802.c **** 
  77:TP2824/TP2802.c **** //cocrx
  78:TP2824/TP2802.c **** tByte     tpRxD[26];
  79:TP2824/TP2802.c **** BYTE COCRX1[12];
  80:TP2824/TP2802.c **** BYTE COCRX2[12];
  81:TP2824/TP2802.c **** BYTE COCRX3[12];
  82:TP2824/TP2802.c **** BYTE COCRX4[12];
  83:TP2824/TP2802.c **** /*
  84:TP2824/TP2802.c **** extern BYTE AHDcmd1,AHDcmd2,AHDcmd3,AHDcmd4;
  85:TP2824/TP2802.c **** extern BYTE TVI_Command;
  86:TP2824/TP2802.c **** extern BYTE presetNum;
  87:TP2824/TP2802.c **** extern BYTE TVI_Chksum;
  88:TP2824/TP2802.c **** extern BYTE TVI_speed;
  89:TP2824/TP2802.c **** extern bit ptztxflag;
  90:TP2824/TP2802.c **** */
  91:TP2824/TP2802.c **** BYTE AHDcmd1,AHDcmd2,AHDcmd3,AHDcmd4;
ARM GAS  /tmp/ccZU1AeU.s 			page 3


  92:TP2824/TP2802.c **** BYTE TVI_Command;
  93:TP2824/TP2802.c **** BYTE presetNum;
  94:TP2824/TP2802.c **** BYTE TVI_Chksum;
  95:TP2824/TP2802.c **** BYTE TVI_speed;
  96:TP2824/TP2802.c **** bit ptztxflag;
  97:TP2824/TP2802.c **** BYTE Flisheye_CAM[4]={0};
  98:TP2824/TP2802.c **** BYTE Flisheye_COC;
  99:TP2824/TP2802.c **** tByte TP_InputMode=7;
 100:TP2824/TP2802.c **** 
 101:TP2824/TP2802.c **** WORD Flisheye_VLOSS_Count[4]={0};
 102:TP2824/TP2802.c **** 
 103:TP2824/TP2802.c **** //BYTE Flisheye_CAM[4]={1,1,1,1};
 104:TP2824/TP2802.c **** BYTE	COCSelectModeType[4]={5,5,5,5};
 105:TP2824/TP2802.c **** BYTE	PreCOCSelectModeType[4]={5,5,5,5};
 106:TP2824/TP2802.c **** 
 107:TP2824/TP2802.c **** //extern BYTE PtzTxChNum;//0:ch1 / 1:ch2 / 2:ch3 / 3:ch4
 108:TP2824/TP2802.c **** 
 109:TP2824/TP2802.c **** BYTE PtzTxChNum=0;//0:ch1 / 1:ch2 / 2:ch3 / 3:ch4
 110:TP2824/TP2802.c **** //extern BYTE QuadBoxId;//1:ch1 / 2:ch2 / 4:ch3 / 8:ch4
 111:TP2824/TP2802.c **** BYTE QuadBoxId=0;//1:ch1 / 2:ch2 / 4:ch3 / 8:ch4
 112:TP2824/TP2802.c **** BYTE QuadBoxMode=0;
 113:TP2824/TP2802.c **** 
 114:TP2824/TP2802.c **** extern BYTE SelectInputMode;
 115:TP2824/TP2802.c **** extern BYTE BOOT_ISSUE;
 116:TP2824/TP2802.c **** extern tByte  OSDSecCount;
 117:TP2824/TP2802.c **** extern tByte  OSDStateFlg;
 118:TP2824/TP2802.c **** 
 119:TP2824/TP2802.c **** 
 120:TP2824/TP2802.c **** extern BYTE	SelectModeType;
 121:TP2824/TP2802.c **** extern volatile BYTE MainSetSelectMode[13];
 122:TP2824/TP2802.c **** extern BYTE BOOT_ISSUE;
 123:TP2824/TP2802.c **** extern  BYTE CURRENT_CH;
 124:TP2824/TP2802.c **** extern BYTE BOX_ISSUE;
 125:TP2824/TP2802.c **** extern BYTE TriggerStatus;
 126:TP2824/TP2802.c **** extern BYTE TriggerFlag;
 127:TP2824/TP2802.c **** extern BYTE TriggerMode;
 128:TP2824/TP2802.c **** extern BYTE	PowerFlag;
 129:TP2824/TP2802.c **** 
 130:TP2824/TP2802.c **** 
 131:TP2824/TP2802.c **** enum
 132:TP2824/TP2802.c **** {
 133:TP2824/TP2802.c ****     TP2802C=0x02,
 134:TP2824/TP2802.c ****     TP2804 =0x04,
 135:TP2824/TP2802.c ****     TP2802D=0x05,
 136:TP2824/TP2802.c ****     TP2822 =0x22,
 137:TP2824/TP2802.c ****     TP2823 =0x23,
 138:TP2824/TP2802.c ****     TP2834 =0x24,
 139:TP2824/TP2802.c ****     TP2833 =0x25,
 140:TP2824/TP2802.c ****     TP2853C=0x26,
 141:TP2824/TP2802.c ****     TP2824C=0x27,
 142:TP2824/TP2802.c ****     TP2826 =0x2f
 143:TP2824/TP2802.c **** };
 144:TP2824/TP2802.c **** 
 145:TP2824/TP2802.c **** tcByte TP2824C_DataSet[] =
 146:TP2824/TP2802.c **** {
 147:TP2824/TP2802.c ****     0x40, 0x04,
 148:TP2824/TP2802.c ****     0x07, 0xC0,
ARM GAS  /tmp/ccZU1AeU.s 			page 4


 149:TP2824/TP2802.c ****     0x0B, 0xC0,
 150:TP2824/TP2802.c ****     0x21, 0x84,
 151:TP2824/TP2802.c ****     0x38, 0x00,
 152:TP2824/TP2802.c ****     0x3A, 0x22,
 153:TP2824/TP2802.c ****     0x3B, 0x05,
 154:TP2824/TP2802.c ****     0x26, 0x04,
 155:TP2824/TP2802.c ****     //0x4d, 0x07,
 156:TP2824/TP2802.c ****     //0x4e, 0x05,
 157:TP2824/TP2802.c ****     0x4d, 0x0F,
 158:TP2824/TP2802.c ****     0x4e, 0x0F,  //chunyu
 159:TP2824/TP2802.c ****     0xf1, 0x00,//different with TP2826
 160:TP2824/TP2802.c ****     0x10,0x67,//ryan@20210611 TOA changes the Brighness=0x67
 161:TP2824/TP2802.c ****     0x12,0x70,//ryan@20210611 TOA changes the UVGAIN=0x70	
 162:TP2824/TP2802.c **** /*cocrx
 163:TP2824/TP2802.c **** //PTZ RX
 164:TP2824/TP2802.c **** //	0xc6, 0x1F,//0x19,	//TXBITCNNUM
 165:TP2824/TP2802.c **** //	0xc7, 0x78,		//TXHST
 166:TP2824/TP2802.c **** 	0xcb, 0x07,		//RXLINE1
 167:TP2824/TP2802.c **** 	0xcc, 0x08,		//RXLINE2
 168:TP2824/TP2802.c **** 	0xcd, 0x00,//0x09,		//RXLINE3
 169:TP2824/TP2802.c **** 	0xce, 0x00,//0x0a,		//RXLINE4
 170:TP2824/TP2802.c **** 	0xcf, 0x04,		//RXFREQ
 171:TP2824/TP2802.c **** 	0xd0, 0x00,		//RXFREQ
 172:TP2824/TP2802.c **** 	0xd1, 0x00,		//RXFREQ
 173:TP2824/TP2802.c **** 	0xd2, 0x60,		//RXTHLEVEL
 174:TP2824/TP2802.c **** 	0xd3, 0x10,		//RXHINUM
 175:TP2824/TP2802.c **** 	0xd4, 0x06,		//RXHST / RXHEND
 176:TP2824/TP2802.c **** 	0xd5, 0xbe,		//RXHST
 177:TP2824/TP2802.c **** 	0xd6, 0x39,		//RXHEND
 178:TP2824/TP2802.c **** 	0xd7, 0x27,		//RXBITNUM
 179:TP2824/TP2802.c **** */	
 180:TP2824/TP2802.c ****     0xff, 0xff
 181:TP2824/TP2802.c **** };
 182:TP2824/TP2802.c **** 
 183:TP2824/TP2802.c **** tcByte TP2826_DataSet[] =
 184:TP2824/TP2802.c **** {
 185:TP2824/TP2802.c ****     0x40, 0x04,
 186:TP2824/TP2802.c ****     0x07, 0xC0,
 187:TP2824/TP2802.c ****     0x0B, 0xC0,
 188:TP2824/TP2802.c ****     0x21, 0x84,
 189:TP2824/TP2802.c ****     0x38, 0x00,
 190:TP2824/TP2802.c ****     0x3A, 0x22,
 191:TP2824/TP2802.c ****     0x3B, 0x05,
 192:TP2824/TP2802.c ****     0x26, 0x04,
 193:TP2824/TP2802.c ****     0x4d, 0x07,
 194:TP2824/TP2802.c ****     0x4e, 0x05,
 195:TP2824/TP2802.c ****     0xf1, 0x07,
 196:TP2824/TP2802.c ****     0xff, 0xff
 197:TP2824/TP2802.c **** };
 198:TP2824/TP2802.c **** 
 199:TP2824/TP2802.c **** 
 200:TP2824/TP2802.c **** tcByte TP2826_MODE_DataSet[5][20]=
 201:TP2824/TP2802.c **** {
 202:TP2824/TP2802.c ****     {0x0c,0x0d,0x20,0x26,0x2b,0x2d,0x2e,0x30,0x31,0x32,0x33,0x39,0x2c,0x21,0x22,0x23,0x25,0x27,0x28
 203:TP2824/TP2802.c ****     {0x03,0x50,0x30,0x05,0x60,0x30,0x70,0x48,0xbb,0x2e,0x90,0x1c,0x0a,0x84,0x36,0x3c,0xff,0x2d,0x00
 204:TP2824/TP2802.c ****     {0x13,0x50,0x30,0x05,0x60,0x30,0x70,0x48,0xbb,0x2e,0x90,0x18,0x0a,0x84,0x36,0x3c,0xff,0x2d,0x00
 205:TP2824/TP2802.c ****     {0x13,0x50,0x40,0x05,0x70,0x68,0x5e,0x62,0xbb,0x96,0xc0,0x04,0x2a,0x84,0x36,0x3c,0xff,0x2d,0x00
ARM GAS  /tmp/ccZU1AeU.s 			page 5


 206:TP2824/TP2802.c ****     {0x13,0x51,0x48,0x05,0x70,0x60,0x5e,0x7a,0x4a,0x4d,0xf0,0x04,0x2a,0x84,0x37,0x3f,0xff,0x2d,0x00
 207:TP2824/TP2802.c **** };
 208:TP2824/TP2802.c **** tcByte TP2824C_MODE_DataSet[5][20]=
 209:TP2824/TP2802.c **** {
 210:TP2824/TP2802.c ****     {0x0c,0x0d,0x20,0x26,0x2b,0x2d,0x2e,0x30,0x31,0x32,0x33,0x39,0x2c,0x21,0x22,0x23,0x25,0x27,0x28
 211:TP2824/TP2802.c ****     {0x03,0x50,0x30,0x05,0x60,0x30,0x70,0x48,0xbb,0x2e,0x90,0x1c,0x0a,0x84,0x36,0x3c,0xff,0x2d,0x00
 212:TP2824/TP2802.c ****     {0x13,0x50,0x30,0x05,0x60,0x30,0x70,0x48,0xbb,0x2e,0x90,0x18,0x0a,0x84,0x36,0x3c,0xff,0x2d,0x00
 213:TP2824/TP2802.c ****     {0x13,0x50,0x40,0x05,0x70,0x68,0x5e,0x62,0xbb,0x96,0xc0,0x04,0x2a,0x84,0x36,0x3c,0xff,0x2d,0x00
 214:TP2824/TP2802.c ****     {0x13,0x51,0x48,0x05,0x70,0x60,0x5e,0x7a,0x4a,0x4d,0xf0,0x04,0x2a,0x84,0x37,0x3f,0xff,0x2d,0x00
 215:TP2824/TP2802.c **** };
 216:TP2824/TP2802.c **** 
 217:TP2824/TP2802.c **** tcByte TP2826_HDA_DataSet[5][12]=
 218:TP2824/TP2802.c **** {
 219:TP2824/TP2802.c ****     {0x0c,0x20,0x2b,0x2d,0x2e,0x30,0x31,0x32,0x33,0x21,0x25,0xff}, //ADDR
 220:TP2824/TP2802.c ****     {0x03,0x40,0x60,0x48,0x40,0x27,0x72,0x80,0x77,0x46,0xfe,0xff}, //720p30
 221:TP2824/TP2802.c ****     {0x03,0x40,0x60,0x48,0x40,0x27,0x88,0x04,0x23,0x46,0xfe,0xff}, //720p25
 222:TP2824/TP2802.c ****     {0x03,0x38,0x60,0x44,0x40,0x29,0x65,0x78,0x16,0x46,0xfe,0xff}, //1080p30
 223:TP2824/TP2802.c ****     {0x03,0x3c,0x60,0x44,0x40,0x29,0x61,0x78,0x16,0x46,0xfe,0xff}, //1080p25
 224:TP2824/TP2802.c **** };
 225:TP2824/TP2802.c **** tcByte TP2824C_HDA_DataSet[5][12]=
 226:TP2824/TP2802.c **** {
 227:TP2824/TP2802.c ****     {0x0c,0x20,0x2b,0x2d,0x2e,0x30,0x31,0x32,0x33,0x21,0x25,0xff}, //ADDR
 228:TP2824/TP2802.c ****     {0x03,0x40,0x60,0x48,0x40,0x27,0x72,0x80,0x77,0x46,0xfe,0xff}, //720p30
 229:TP2824/TP2802.c ****     {0x03,0x40,0x60,0x48,0x40,0x27,0x88,0x04,0x23,0x46,0xfe,0xff}, //720p25
 230:TP2824/TP2802.c ****     {0x03,0x38,0x60,0x44,0x40,0x29,0x65,0x78,0x16,0x46,0xfe,0xff}, //1080p30
 231:TP2824/TP2802.c ****     {0x03,0x3c,0x60,0x44,0x40,0x29,0x61,0x78,0x16,0x46,0xfe,0xff}, //1080p25
 232:TP2824/TP2802.c **** };
 233:TP2824/TP2802.c **** tcByte TP2826_HDC_DataSet[5][20]=
 234:TP2824/TP2802.c **** {
 235:TP2824/TP2802.c ****     {0x0c,0x15,0x16,0x17,0x18,0x19,0x1a,0x1c,0x1d,0x20,0x2b,0x2d,0x2e,0x30,0x31,0x32,0x33,0x27,0x28
 236:TP2824/TP2802.c ****     {0x03,0x13,0x08,0x00,0x19,0xd0,0x25,0x06,0x72,0x30,0x60,0x37,0x40,0x48,0x67,0x6f,0x30,0x5a,0x04
 237:TP2824/TP2802.c ****     {0x03,0x13,0x0a,0x00,0x19,0xd0,0x25,0x06,0x7a,0x3a,0x60,0x42,0x40,0x48,0x67,0x6f,0x33,0x5a,0x04
 238:TP2824/TP2802.c ****     {0x03,0x13,0x60,0x80,0x29,0x38,0x47,0x09,0x60,0x3c,0x60,0x47,0x40,0x41,0x82,0x27,0xa4,0x5a,0x04
 239:TP2824/TP2802.c ****     {0x03,0x13,0x60,0x80,0x29,0x38,0x47,0x09,0x60,0x50,0x60,0x54,0x40,0x41,0x82,0x27,0xa2,0x5a,0x04
 240:TP2824/TP2802.c **** };
 241:TP2824/TP2802.c **** tcByte TP2824C_HDC_DataSet[5][20]=
 242:TP2824/TP2802.c **** {
 243:TP2824/TP2802.c ****     {0x0c,0x15,0x16,0x17,0x18,0x19,0x1a,0x1c,0x1d,0x20,0x2b,0x2d,0x2e,0x30,0x31,0x32,0x33,0x27,0x28
 244:TP2824/TP2802.c ****     {0x03,0x13,0x08,0x00,0x19,0xd0,0x25,0x06,0x72,0x30,0x60,0x37,0x40,0x48,0x67,0x6f,0x30,0x5a,0x04
 245:TP2824/TP2802.c ****     {0x03,0x13,0x0a,0x00,0x19,0xd0,0x25,0x06,0x7a,0x3a,0x60,0x42,0x40,0x48,0x67,0x6f,0x33,0x5a,0x04
 246:TP2824/TP2802.c ****     {0x03,0x13,0x60,0x80,0x29,0x38,0x47,0x09,0x60,0x3c,0x60,0x47,0x40,0x41,0x82,0x27,0xa4,0x5a,0x04
 247:TP2824/TP2802.c ****     {0x03,0x13,0x60,0x80,0x29,0x38,0x47,0x09,0x60,0x50,0x60,0x54,0x40,0x41,0x82,0x27,0xa2,0x5a,0x04
 248:TP2824/TP2802.c **** };
 249:TP2824/TP2802.c **** tcByte TP2853C_DataSet[] =
 250:TP2824/TP2802.c **** {
 251:TP2824/TP2802.c ****     0x40, 0x04,
 252:TP2824/TP2802.c ****     0x07, 0xC0,
 253:TP2824/TP2802.c ****     0x0B, 0xC0,
 254:TP2824/TP2802.c ****     0x21, 0x84,
 255:TP2824/TP2802.c ****     0x38, 0x00,
 256:TP2824/TP2802.c ****     0x3A, 0x32,
 257:TP2824/TP2802.c ****     0x3B, 0x05,
 258:TP2824/TP2802.c ****     0x26, 0x04,
 259:TP2824/TP2802.c ****     0x4d, 0x03,
 260:TP2824/TP2802.c ****     0x4e, 0x03,
 261:TP2824/TP2802.c ****     0x4f, 0x01,
 262:TP2824/TP2802.c ****     0xf5, 0xf0,
ARM GAS  /tmp/ccZU1AeU.s 			page 6


 263:TP2824/TP2802.c ****     0xf1,0x07,//tp2826c
 264:TP2824/TP2802.c **** 
 265:TP2824/TP2802.c ****     0xff, 0xff
 266:TP2824/TP2802.c **** };
 267:TP2824/TP2802.c **** tcByte TP2853C_MODE_DataSet[5][18]=
 268:TP2824/TP2802.c **** {
 269:TP2824/TP2802.c ****     {0x0c,0x0d,0x20,0x26,0x2b,0x2d,0x2e,0x30,0x31,0x32,0x33,0x39,0x2c,0x21,0x25,0x27,0x28,0xff}, //
 270:TP2824/TP2802.c ****     {0x03,0x50,0x30,0x05,0x60,0x30,0x70,0x48,0xbb,0x2e,0x90,0x0c,0x0a,0x84,0xf0,0x2d,0x00,0xff}, //
 271:TP2824/TP2802.c ****     {0x13,0x50,0x30,0x05,0x60,0x30,0x70,0x48,0xbb,0x2e,0x90,0x08,0x0a,0x84,0xf0,0x2d,0x00,0xff},	//
 272:TP2824/TP2802.c ****     {0x13,0x50,0x40,0x05,0x70,0x68,0x5e,0x62,0xbb,0x96,0xc0,0x04,0x2a,0x84,0xf0,0x2d,0x00,0xff}, //
 273:TP2824/TP2802.c ****     {0x13,0x51,0x48,0x05,0x70,0x60,0x5e,0x7a,0x4a,0x4d,0xf0,0x04,0x2a,0x84,0xf0,0x2d,0x00,0xff}  //
 274:TP2824/TP2802.c **** };
 275:TP2824/TP2802.c **** tcByte TP2853C_HDA_DataSet[5][10]=
 276:TP2824/TP2802.c **** {
 277:TP2824/TP2802.c ****     {0x2b,0x2d,0x2e,0x30,0x31,0x32,0x33,0x21,0x25,0xff}, //ADDR
 278:TP2824/TP2802.c ****     {0x70,0x48,0x5e,0x27,0x72,0x80,0x77,0x44,0xf0,0xff}, //720p30
 279:TP2824/TP2802.c ****     {0x70,0x48,0x5e,0x27,0x88,0x04,0x23,0x44,0xf0,0xff}, //720p25
 280:TP2824/TP2802.c ****     {0x58,0x45,0x50,0x29,0x65,0x78,0x16,0x44,0xf0,0xff}, //1080p30
 281:TP2824/TP2802.c ****     {0x58,0x45,0x40,0x29,0x61,0x78,0x16,0x44,0xf0,0xff}, //1080p25
 282:TP2824/TP2802.c **** };
 283:TP2824/TP2802.c **** tcByte TP2853C_HDC_DataSet[5][13]=
 284:TP2824/TP2802.c **** {
 285:TP2824/TP2802.c ****     {0x15,0x16,0x20,0x2b,0x2d,0x2e,0x30,0x31,0x32,0x33,0x27,0x28,0xff}, //ADDR
 286:TP2824/TP2802.c ****     {0x13,0x40,0x50,0x60,0x42,0x40,0x48,0x67,0x2e,0x90,0x5a,0x04,0xff}, //720p30
 287:TP2824/TP2802.c ****     {0x13,0x40,0x50,0x60,0x42,0x40,0x48,0x67,0x2e,0x90,0x5a,0x04,0xff}, //720p25
 288:TP2824/TP2802.c ****     {0x13,0x20,0x48,0x60,0x45,0x40,0x41,0x83,0x2e,0x90,0x5a,0x04,0xff}, //1080p30
 289:TP2824/TP2802.c ****     {0x13,0x84,0x48,0x60,0x45,0x40,0x41,0x83,0x2e,0x90,0x5a,0x04,0xff}, //1080p25
 290:TP2824/TP2802.c **** };
 291:TP2824/TP2802.c **** 
 292:TP2824/TP2802.c **** tcByte TP2834_Audio_DataSet[]=
 293:TP2824/TP2802.c **** {
 294:TP2824/TP2802.c **** //audio
 295:TP2824/TP2802.c ****     0x40, 0x40, //audio page
 296:TP2824/TP2802.c ****     0x00, 0x01, //A1
 297:TP2824/TP2802.c ****     0x01, 0x02, //A2
 298:TP2824/TP2802.c ****     0x02, 0x03, //A3
 299:TP2824/TP2802.c ****     0x03, 0x04, //A4
 300:TP2824/TP2802.c ****     0x04, 0x11, //AUX
 301:TP2824/TP2802.c ****     0x17, 0x00,
 302:TP2824/TP2802.c ****     0x18, 0x10, //5ch mode
 303:TP2824/TP2802.c ****     0x19, 0x0f,
 304:TP2824/TP2802.c ****     0x1A, 0x15, //PB to DAC
 305:TP2824/TP2802.c ****     0x1b, 0x01, //PB master
 306:TP2824/TP2802.c ****     0x37, 0x20,
 307:TP2824/TP2802.c **** 
 308:TP2824/TP2802.c ****     0x1d, 0x08,
 309:TP2824/TP2802.c ****     0x1d, 0x00,
 310:TP2824/TP2802.c **** 
 311:TP2824/TP2802.c ****     0x3c, 0x3f,
 312:TP2824/TP2802.c ****     0x3c, 0x00,
 313:TP2824/TP2802.c **** 
 314:TP2824/TP2802.c ****     0x3d, 0x01, //ADC reset
 315:TP2824/TP2802.c ****     0xff, 0xff
 316:TP2824/TP2802.c **** };
 317:TP2824/TP2802.c **** 
 318:TP2824/TP2802.c **** tcByte TP2833_DataSet[] =
 319:TP2824/TP2802.c **** {
ARM GAS  /tmp/ccZU1AeU.s 			page 7


 320:TP2824/TP2802.c **** 
 321:TP2824/TP2802.c ****     0x40, 0x04,
 322:TP2824/TP2802.c ****     0x07, 0xC0,
 323:TP2824/TP2802.c ****     0x0B, 0xC0,
 324:TP2824/TP2802.c ****     0x22, 0x36,
 325:TP2824/TP2802.c ****     0x38, 0x40,
 326:TP2824/TP2802.c ****     0x26, 0x04,
 327:TP2824/TP2802.c ****     0x4d, 0x03,
 328:TP2824/TP2802.c ****     0x4e, 0x03,
 329:TP2824/TP2802.c ****     0x4f, 0x01,
 330:TP2824/TP2802.c ****     0xff, 0xff
 331:TP2824/TP2802.c **** };
 332:TP2824/TP2802.c **** tcByte TP2833_MODE_DataSet[5][14]=
 333:TP2824/TP2802.c **** {
 334:TP2824/TP2802.c ****     {0x0c,0x0d,0x20,0x26,0x2b,0x2d,0x2e,0x30,0x31,0x32,0x33,0x39,0x18,0xff},
 335:TP2824/TP2802.c ****     {0x03,0x50,0x30,0x05,0x58,0x30,0x70,0x48,0xbb,0x2e,0x90,0x0c,0x12,0xff},
 336:TP2824/TP2802.c ****     {0x13,0x50,0x30,0x05,0x58,0x30,0x70,0x48,0xbb,0x2e,0x90,0x08,0x12,0xff},
 337:TP2824/TP2802.c ****     {0x13,0x50,0x40,0x05,0x70,0x68,0x5e,0x62,0xbb,0x96,0xc0,0x04,0x11,0xff},
 338:TP2824/TP2802.c ****     {0x13,0x51,0x48,0x05,0x70,0x60,0x5e,0x7a,0x4a,0x4d,0xf0,0x04,0x11,0xff}
 339:TP2824/TP2802.c **** };
 340:TP2824/TP2802.c **** tcByte TP2833_HDA_DataSet[5][8]=
 341:TP2824/TP2802.c **** {
 342:TP2824/TP2802.c ****     {0x2b,0x2d,0x2e,0x30,0x31,0x32,0x33,0xff}, //ADDR
 343:TP2824/TP2802.c ****     {0x70,0x48,0x5e,0x27,0x72,0x80,0x77,0xff}, //720p30
 344:TP2824/TP2802.c ****     {0x70,0x48,0x5e,0x27,0x88,0x04,0x23,0xff}, //720p25
 345:TP2824/TP2802.c ****     {0x58,0x45,0x50,0x29,0x65,0x78,0x16,0xff}, //1080p30
 346:TP2824/TP2802.c ****     {0x58,0x45,0x40,0x29,0x61,0x78,0x16,0xff}, //1080p25
 347:TP2824/TP2802.c **** };
 348:TP2824/TP2802.c **** 
 349:TP2824/TP2802.c **** tcByte TP2834_DataSet[] =
 350:TP2824/TP2802.c **** {
 351:TP2824/TP2802.c **** 
 352:TP2824/TP2802.c ****     //video
 353:TP2824/TP2802.c ****     0x40, 0x04,
 354:TP2824/TP2802.c ****     0x07, 0xc0,
 355:TP2824/TP2802.c ****     0x0b, 0xc0,
 356:TP2824/TP2802.c ****     0x3a, 0x70,
 357:TP2824/TP2802.c ****     0x26, 0x01,
 358:TP2824/TP2802.c **** 
 359:TP2824/TP2802.c ****     0x4d, 0x0f,
 360:TP2824/TP2802.c ****     0x4e, 0x0f,
 361:TP2824/TP2802.c **** 
 362:TP2824/TP2802.c ****     0xff, 0xff
 363:TP2824/TP2802.c **** };
 364:TP2824/TP2802.c **** tcByte TP2834_MODE_DataSet[5][13]=
 365:TP2824/TP2802.c **** {
 366:TP2824/TP2802.c ****     {0x0c,0x0d,0x20,0x26,0x2b,0x2d,0x2e,0x30,0x31,0x32,0x33,0x39,0xff},
 367:TP2824/TP2802.c ****     {0x03,0x10,0x60,0x02,0x58,0x30,0x70,0x48,0xbb,0x2e,0x90,0x8c,0xff},
 368:TP2824/TP2802.c ****     {0x03,0x10,0x60,0x02,0x58,0x30,0x70,0x48,0xbb,0x2e,0x90,0x88,0xff},
 369:TP2824/TP2802.c ****     {0x43,0x10,0xa0,0x12,0x70,0x68,0x5e,0x62,0xbb,0x96,0xc0,0x84,0xff},
 370:TP2824/TP2802.c ****     {0x43,0x11,0xb0,0x02,0x70,0x60,0x5e,0x7a,0x4a,0x4d,0xf0,0x84,0xff}
 371:TP2824/TP2802.c **** };
 372:TP2824/TP2802.c **** 
 373:TP2824/TP2802.c **** //////////////////////////////////////////////////////
 374:TP2824/TP2802.c **** ////
 375:TP2824/TP2802.c **** /////////////////////////////////////////////////////
 376:TP2824/TP2802.c **** 
ARM GAS  /tmp/ccZU1AeU.s 			page 8


 377:TP2824/TP2802.c **** tcByte TP2823_DataSet[] =
 378:TP2824/TP2802.c **** {
 379:TP2824/TP2802.c **** 
 380:TP2824/TP2802.c ****     //video
 381:TP2824/TP2802.c ****     0x40, 0x04,
 382:TP2824/TP2802.c ****     0x0b, 0x60,
 383:TP2824/TP2802.c ****     0x22, 0x34,
 384:TP2824/TP2802.c ****     0x23, 0x44,
 385:TP2824/TP2802.c ****     0x26, 0x01,
 386:TP2824/TP2802.c ****     0x38, 0x40,
 387:TP2824/TP2802.c ****     0x3f, 0x08,
 388:TP2824/TP2802.c **** 
 389:TP2824/TP2802.c ****     0x4d, 0x03,
 390:TP2824/TP2802.c ****     0x4e, 0x33,
 391:TP2824/TP2802.c ****     0xfa, 0x00,
 392:TP2824/TP2802.c **** 
 393:TP2824/TP2802.c ****     0xff, 0xff
 394:TP2824/TP2802.c **** };
 395:TP2824/TP2802.c **** tcByte TP2823_MODE_DataSet[5][13]=
 396:TP2824/TP2802.c **** {
 397:TP2824/TP2802.c ****     {0x0c,0x0d,0x20,0x26,0x2b,0x2d,0x2e,0x30,0x31,0x32,0x33,0x39,0xff},
 398:TP2824/TP2802.c ****     {0x43,0x10,0x60,0x02,0x58,0x30,0x70,0x48,0xbb,0x2e,0x90,0x30,0xff},
 399:TP2824/TP2802.c ****     {0x53,0x10,0x60,0x02,0x58,0x30,0x70,0x48,0xbb,0x2e,0x90,0x20,0xff},
 400:TP2824/TP2802.c ****     {0x53,0x10,0xa0,0x12,0x70,0x68,0x5e,0x62,0xbb,0x96,0xc0,0x10,0xff},
 401:TP2824/TP2802.c ****     {0x53,0x11,0xb0,0x02,0x70,0x60,0x5e,0x7a,0x4a,0x4d,0xf0,0x10,0xff}
 402:TP2824/TP2802.c **** };
 403:TP2824/TP2802.c **** tcByte TP2822_DataSet[] =
 404:TP2824/TP2802.c **** {
 405:TP2824/TP2802.c **** 
 406:TP2824/TP2802.c ****     0x40, 0x04,
 407:TP2824/TP2802.c ****     0x39, 0x00,
 408:TP2824/TP2802.c ****     0x3d, 0x08,
 409:TP2824/TP2802.c ****     0x3a, 0x01,
 410:TP2824/TP2802.c **** 
 411:TP2824/TP2802.c ****     0x30, 0x48,
 412:TP2824/TP2802.c ****     0x31, 0xbb,
 413:TP2824/TP2802.c ****     0x32, 0x2e,
 414:TP2824/TP2802.c ****     0x33, 0x90,
 415:TP2824/TP2802.c **** 
 416:TP2824/TP2802.c ****     0x4d, 0x03,
 417:TP2824/TP2802.c ****     0x4e, 0x33,
 418:TP2824/TP2802.c ****     0x3d, 0x00,
 419:TP2824/TP2802.c **** 
 420:TP2824/TP2802.c ****     0xff, 0xff
 421:TP2824/TP2802.c **** };
 422:TP2824/TP2802.c **** 
 423:TP2824/TP2802.c **** tcByte TP2802D_DataSet[] =
 424:TP2824/TP2802.c **** {
 425:TP2824/TP2802.c ****     0x40, 0x04,
 426:TP2824/TP2802.c **** //		0x07, 0xc0,
 427:TP2824/TP2802.c **** //		0x0b, 0xc0,
 428:TP2824/TP2802.c ****     0x2b, 0x44,
 429:TP2824/TP2802.c ****     0x23, 0x50,
 430:TP2824/TP2802.c ****     0x39, 0x42,
 431:TP2824/TP2802.c ****     0x3a, 0x01,
 432:TP2824/TP2802.c **** 
 433:TP2824/TP2802.c ****     0x30, 0x48,
ARM GAS  /tmp/ccZU1AeU.s 			page 9


 434:TP2824/TP2802.c ****     0x31, 0xbb,
 435:TP2824/TP2802.c ****     0x32, 0x2e,
 436:TP2824/TP2802.c ****     0x33, 0x90,
 437:TP2824/TP2802.c **** 
 438:TP2824/TP2802.c ****     0x4d, 0x0f,
 439:TP2824/TP2802.c ****     0x4e, 0xff,
 440:TP2824/TP2802.c **** 
 441:TP2824/TP2802.c ****     //now TP2801A just support 2 lines, to disable line3&4, else IRQ is in trouble.
 442:TP2824/TP2802.c ****     0x40, 0x01,
 443:TP2824/TP2802.c ****     0x50, 0x00,
 444:TP2824/TP2802.c ****     0x51, 0x00,
 445:TP2824/TP2802.c ****     0x52, 0x00,
 446:TP2824/TP2802.c ****     0x7F, 0x00,
 447:TP2824/TP2802.c ****     0x80, 0x00,
 448:TP2824/TP2802.c ****     0x81, 0x00,
 449:TP2824/TP2802.c **** 
 450:TP2824/TP2802.c ****     //0x50~0xb2 need bank switch
 451:TP2824/TP2802.c ****     0x40, 0x00,
 452:TP2824/TP2802.c ****     //TX total 34bit, valid load 32bit
 453:TP2824/TP2802.c ****     0x50, 0x00,
 454:TP2824/TP2802.c ****     0x51, 0x0b,
 455:TP2824/TP2802.c ****     0x52, 0x0c,
 456:TP2824/TP2802.c ****     0x53, 0x19,
 457:TP2824/TP2802.c ****     0x54, 0x78,
 458:TP2824/TP2802.c ****     0x55, 0x21,
 459:TP2824/TP2802.c ****     0x7e, 0x0f,   //
 460:TP2824/TP2802.c **** 
 461:TP2824/TP2802.c ****     // RX total 40bit, valid load 39bit
 462:TP2824/TP2802.c ****     0x7F, 0x00,
 463:TP2824/TP2802.c ****     0x80, 0x07,
 464:TP2824/TP2802.c ****     0x81, 0x08,
 465:TP2824/TP2802.c ****     0x82, 0x04,
 466:TP2824/TP2802.c ****     0x83, 0x00,
 467:TP2824/TP2802.c ****     0x84, 0x00,
 468:TP2824/TP2802.c ****     0x85, 0x60,
 469:TP2824/TP2802.c ****     0x86, 0x10,
 470:TP2824/TP2802.c ****     0x87, 0x06,
 471:TP2824/TP2802.c ****     0x88, 0xBE,
 472:TP2824/TP2802.c ****     0x89, 0x39,
 473:TP2824/TP2802.c ****     0x8A, 0x27,   //
 474:TP2824/TP2802.c ****     0xB9, 0x0F,   //RX channel enable
 475:TP2824/TP2802.c ****     0xff, 0xff
 476:TP2824/TP2802.c **** };
 477:TP2824/TP2802.c **** 
 478:TP2824/TP2802.c **** /*
 479:TP2824/TP2802.c **** //total 34bit, valid load 32bit
 480:TP2824/TP2802.c **** tcByte TP2822_PTZ_DataSet[] = {
 481:TP2824/TP2802.c **** 
 482:TP2824/TP2802.c **** 		//PTZ
 483:TP2824/TP2802.c **** 		0x40, 0x10,
 484:TP2824/TP2802.c **** 		0xc8, 0x21,
 485:TP2824/TP2802.c **** 		0xe0, 0x21,
 486:TP2824/TP2802.c **** 		0x40, 0x00,
 487:TP2824/TP2802.c **** 		0xc8, 0x21,
 488:TP2824/TP2802.c **** 		0xe0, 0x21,
 489:TP2824/TP2802.c **** 		0x7e, 0x0f,
 490:TP2824/TP2802.c **** 		0xb9, 0x0f,
ARM GAS  /tmp/ccZU1AeU.s 			page 10


 491:TP2824/TP2802.c **** 
 492:TP2824/TP2802.c **** 	0xff, 0xff
 493:TP2824/TP2802.c **** };
 494:TP2824/TP2802.c **** */
 495:TP2824/TP2802.c **** 
 496:TP2824/TP2802.c **** #if 1
 497:TP2824/TP2802.c **** tcByte TP2824C_TVI_FHD_PTZ_DataSet[] = {//1080P30/25 TVI
 498:TP2824/TP2802.c **** 
 499:TP2824/TP2802.c **** 		//PTZ COC
 500:TP2824/TP2802.c **** //TX		
 501:TP2824/TP2802.c **** 	 0xc0, 0x00,
 502:TP2824/TP2802.c **** 	 0xc2, 0x0B,
 503:TP2824/TP2802.c **** 	 0xc3, 0x0C,
 504:TP2824/TP2802.c **** 	 0xc1, 0x00,
 505:TP2824/TP2802.c **** 	 0xc4, 0x00,
 506:TP2824/TP2802.c **** 	 0xc5, 0x00,
 507:TP2824/TP2802.c **** 	 0xc6, 0x33,
 508:TP2824/TP2802.c **** 	 0xc7, 0x78,
 509:TP2824/TP2802.c **** 	 0xc8, 0x21,
 510:TP2824/TP2802.c **** 	 0x6f, 0x40,
 511:TP2824/TP2802.c ****         0x70, 0x00,
 512:TP2824/TP2802.c ****         
 513:TP2824/TP2802.c **** 	 0x55, 0x00,
 514:TP2824/TP2802.c **** 	 0x56, 0x02,
 515:TP2824/TP2802.c **** 	 0x57, 0xB5,
 516:TP2824/TP2802.c **** 	 0x58, 0x01,
 517:TP2824/TP2802.c **** 	 0x59, 0x17,
 518:TP2824/TP2802.c **** 	 0x5a, 0x01,
 519:TP2824/TP2802.c **** 	 0x5b, 0x00,
 520:TP2824/TP2802.c **** 	 0x5c, 0x02,
 521:TP2824/TP2802.c **** 	 0x5d, 0x00,
 522:TP2824/TP2802.c **** 	 0x5e, 0x00,
 523:TP2824/TP2802.c **** 	 0x5f, 0x00,
 524:TP2824/TP2802.c **** 	 0x60, 0xCE,
 525:TP2824/TP2802.c **** 	
 526:TP2824/TP2802.c ****  //RX
 527:TP2824/TP2802.c **** 	0xcb, 0x07,
 528:TP2824/TP2802.c **** 	0xcc, 0x08,
 529:TP2824/TP2802.c **** 	0xcd, 0x00,
 530:TP2824/TP2802.c **** 	0xce, 0x00,
 531:TP2824/TP2802.c **** 	0xcf, 0x04,
 532:TP2824/TP2802.c **** 	0xd0, 0x00,
 533:TP2824/TP2802.c **** 	0xd1, 0x00,
 534:TP2824/TP2802.c **** 	0xd2, 0x60,
 535:TP2824/TP2802.c **** 	0xd3, 0x10,
 536:TP2824/TP2802.c **** 	0xd4, 0x06,
 537:TP2824/TP2802.c **** 	0xd5, 0xbe,
 538:TP2824/TP2802.c **** 	0xd6, 0x39,
 539:TP2824/TP2802.c **** 	0xd7, 0x21,
 540:TP2824/TP2802.c **** 	0xa7, 0x00,
 541:TP2824/TP2802.c **** 	0xff, 0xff
 542:TP2824/TP2802.c **** };
 543:TP2824/TP2802.c **** 
 544:TP2824/TP2802.c **** tcByte TP2824C_AHD_FHD_PTZ_DataSet[] = {//1080P30/25 AHD
 545:TP2824/TP2802.c **** 
 546:TP2824/TP2802.c **** 		//PTZ COC
 547:TP2824/TP2802.c **** //TX		
ARM GAS  /tmp/ccZU1AeU.s 			page 11


 548:TP2824/TP2802.c **** 	 0xc0, 0x00,
 549:TP2824/TP2802.c **** 	 0xc2, 0x0E,	
 550:TP2824/TP2802.c **** 	 0xc3, 0x0F,
 551:TP2824/TP2802.c **** 	 0xc1, 0x00, 
 552:TP2824/TP2802.c **** 	 0xc4, 0x10,
 553:TP2824/TP2802.c **** 	 0xc5, 0x11,
 554:TP2824/TP2802.c **** 	 0xc6, 0x2c,////pulse of cap  500->600ns 0x24, 
 555:TP2824/TP2802.c **** 	 0xc7, 0x15,
 556:TP2824/TP2802.c **** 	 0xc8, 0x97,		
 557:TP2824/TP2802.c **** 	0x6f, 0x44,
 558:TP2824/TP2802.c ****         0x70, 0x00,
 559:TP2824/TP2802.c **** 	 0x55, 0x00,
 560:TP2824/TP2802.c **** 	 0x56, 0x00,
 561:TP2824/TP2802.c **** 	 0x57, 0x00,
 562:TP2824/TP2802.c **** 	 0x58, 0x00,
 563:TP2824/TP2802.c **** 	 0x59, 0x00,
 564:TP2824/TP2802.c **** 	 0x5a, 0x00,
 565:TP2824/TP2802.c **** 	 0x5b, 0x00,
 566:TP2824/TP2802.c **** 	 0x5c, 0x00,
 567:TP2824/TP2802.c **** 	 0x5d, 0x00,
 568:TP2824/TP2802.c **** 	 0x5e, 0x00,
 569:TP2824/TP2802.c **** 	 0x5f, 0x00,
 570:TP2824/TP2802.c **** 	 0x60, 0x00,
 571:TP2824/TP2802.c **** 	 0x62, 0x00,
 572:TP2824/TP2802.c **** 	 0x63, 0x00,
 573:TP2824/TP2802.c **** 	 0x64, 0x00,
 574:TP2824/TP2802.c **** 	 0x65, 0x00,
 575:TP2824/TP2802.c **** 	 0x66, 0x00,
 576:TP2824/TP2802.c **** 	 0x68, 0x00,
 577:TP2824/TP2802.c **** 	 0x69, 0x00,
 578:TP2824/TP2802.c **** 	 0x6a, 0x00,
 579:TP2824/TP2802.c **** 	 0x6b, 0x00,
 580:TP2824/TP2802.c **** 	 0x6c, 0x00,
 581:TP2824/TP2802.c ****  	
 582:TP2824/TP2802.c ****  //RX
 583:TP2824/TP2802.c **** 	0xcb, 0x07,
 584:TP2824/TP2802.c **** 	0xcc, 0x08,
 585:TP2824/TP2802.c **** 	0xcd, 0x00,
 586:TP2824/TP2802.c **** 	0xce, 0x00,
 587:TP2824/TP2802.c **** 	0xcf, 0x04,
 588:TP2824/TP2802.c **** 	0xd0, 0x00,	
 589:TP2824/TP2802.c **** 	0xd1, 0x00,		
 590:TP2824/TP2802.c **** 	0xd2, 0x60,		
 591:TP2824/TP2802.c **** 	0xd3, 0x10,		
 592:TP2824/TP2802.c **** 	0xd4, 0x06,		
 593:TP2824/TP2802.c **** 	0xd5, 0xbe,		
 594:TP2824/TP2802.c **** 	0xd6, 0x39,		
 595:TP2824/TP2802.c **** 	0xd7, 0x27,	
 596:TP2824/TP2802.c **** 	
 597:TP2824/TP2802.c **** 	0xa7, 0x24,
 598:TP2824/TP2802.c **** 	
 599:TP2824/TP2802.c **** 	0xff, 0xff
 600:TP2824/TP2802.c **** };
 601:TP2824/TP2802.c **** 
 602:TP2824/TP2802.c **** tcByte TP2824C_CVBS_PTZ_DataSet[] = {//CVBS NTSC/PAL
 603:TP2824/TP2802.c **** 
 604:TP2824/TP2802.c **** 		//PTZ COC
ARM GAS  /tmp/ccZU1AeU.s 			page 12


 605:TP2824/TP2802.c **** //TX		
 606:TP2824/TP2802.c **** 	 0xc0, 0x00,
 607:TP2824/TP2802.c **** 	 0xc2, 0x0F,	
 608:TP2824/TP2802.c **** 	 0xc3, 0x10,	
 609:TP2824/TP2802.c **** 	 0xc1, 0x00,	
 610:TP2824/TP2802.c **** 	 0xc4, 0x00,	
 611:TP2824/TP2802.c **** 	 0xc5, 0x00,	
 612:TP2824/TP2802.c **** 	 0xc6, 0x49,	
 613:TP2824/TP2802.c **** 	 0xc7, 0x14,	
 614:TP2824/TP2802.c **** 	 0xc8, 0xAF,	
 615:TP2824/TP2802.c **** 	 0x6f, 0x60,	
 616:TP2824/TP2802.c ****         0x70, 0x00,   
 617:TP2824/TP2802.c ****         
 618:TP2824/TP2802.c **** 	 0x55, 0x00,
 619:TP2824/TP2802.c **** 	 0x56, 0x00,
 620:TP2824/TP2802.c **** 	 0x57, 0x00,
 621:TP2824/TP2802.c **** 	 0x58, 0x00,
 622:TP2824/TP2802.c **** 	 0x59, 0x00,
 623:TP2824/TP2802.c **** 	 0x5a, 0x00,
 624:TP2824/TP2802.c **** 	 0x5b, 0x00,
 625:TP2824/TP2802.c **** 	 0x5c, 0x00,
 626:TP2824/TP2802.c **** 	 0x5d, 0x00,
 627:TP2824/TP2802.c **** 	 0x5e, 0x00,
 628:TP2824/TP2802.c **** 	 0x5f, 0x00,
 629:TP2824/TP2802.c **** 	 0x60, 0x00,
 630:TP2824/TP2802.c **** 	 0x62, 0x00,
 631:TP2824/TP2802.c **** 	 0x63, 0x00,
 632:TP2824/TP2802.c **** 	 0x64, 0x00,
 633:TP2824/TP2802.c **** 	 0x65, 0x00,
 634:TP2824/TP2802.c **** 	 0x66, 0x00,
 635:TP2824/TP2802.c **** 	 0x68, 0x00,
 636:TP2824/TP2802.c **** 	 0x69, 0x00,
 637:TP2824/TP2802.c **** 	 0x6a, 0x00,
 638:TP2824/TP2802.c **** 	 0x6b, 0x00,
 639:TP2824/TP2802.c **** 	 0x6c, 0x00,
 640:TP2824/TP2802.c **** 
 641:TP2824/TP2802.c **** 	0xff, 0xff
 642:TP2824/TP2802.c **** };
 643:TP2824/TP2802.c **** 
 644:TP2824/TP2802.c **** tcByte TP2824C_CVIHD_PTZ_DataSet[] = {//CVI CHD
 645:TP2824/TP2802.c **** 
 646:TP2824/TP2802.c **** 		//PTZ COC
 647:TP2824/TP2802.c **** //TX	
 648:TP2824/TP2802.c **** 	 0x70, 0x1D,
 649:TP2824/TP2802.c **** 	 0xc0, 0x00,	
 650:TP2824/TP2802.c **** 	 0xc2, 0x10,	
 651:TP2824/TP2802.c **** 	 0xc3, 0x00,	
 652:TP2824/TP2802.c **** 	 0xc1, 0x00,	
 653:TP2824/TP2802.c **** 	 0xc4, 0x00,	
 654:TP2824/TP2802.c **** 	 0xc5, 0x00,	
 655:TP2824/TP2802.c **** 	 0xc6, 0x15,	
 656:TP2824/TP2802.c **** 	 0xc7, 0x5B,	
 657:TP2824/TP2802.c **** 	 0xc8, 0xa4,
 658:TP2824/TP2802.c **** 	 0x6f, 0x48,
 659:TP2824/TP2802.c **** 
 660:TP2824/TP2802.c **** 	 0x55, 0x00,
 661:TP2824/TP2802.c **** 	 0x56, 0x00,
ARM GAS  /tmp/ccZU1AeU.s 			page 13


 662:TP2824/TP2802.c **** 	 0x57, 0x00,
 663:TP2824/TP2802.c **** 	 0x58, 0x00,
 664:TP2824/TP2802.c **** 	 0x59, 0x00,
 665:TP2824/TP2802.c **** 	 0x5a, 0x00,
 666:TP2824/TP2802.c **** 	 0x5b, 0x00,
 667:TP2824/TP2802.c **** 	 0x5c, 0x00,
 668:TP2824/TP2802.c **** 	 0x5d, 0x00,
 669:TP2824/TP2802.c **** 	 0x5e, 0x00,
 670:TP2824/TP2802.c **** 	 0x5f, 0x00,
 671:TP2824/TP2802.c **** 	 0x60, 0x00,
 672:TP2824/TP2802.c **** 	 0x62, 0x00,
 673:TP2824/TP2802.c **** 	 0x63, 0x00,
 674:TP2824/TP2802.c **** 	 0x64, 0x00,
 675:TP2824/TP2802.c **** 	 0x65, 0x00,
 676:TP2824/TP2802.c **** 	 0x66, 0x00,
 677:TP2824/TP2802.c **** 	 0x68, 0x00,
 678:TP2824/TP2802.c **** 	 0x69, 0x00,
 679:TP2824/TP2802.c **** 	 0x6a, 0x00,
 680:TP2824/TP2802.c **** 	 0x6b, 0x00,
 681:TP2824/TP2802.c **** 	 0x6c, 0x00,
 682:TP2824/TP2802.c **** 	
 683:TP2824/TP2802.c **** 	0xff, 0xff
 684:TP2824/TP2802.c **** };
 685:TP2824/TP2802.c **** 
 686:TP2824/TP2802.c **** #else
 687:TP2824/TP2802.c **** tcByte TP2824C_TVI_FHD_PTZ_DataSet[] = {//1080P30/25 TVI
 688:TP2824/TP2802.c **** 
 689:TP2824/TP2802.c **** 		//PTZ COC
 690:TP2824/TP2802.c **** //TX		
 691:TP2824/TP2802.c **** 	 0xc0, 0x00,	//TXLINE2  / TXLINE1
 692:TP2824/TP2802.c **** 	 0xc2, 0x0B,	//TXLINE1
 693:TP2824/TP2802.c **** 	 0xc3, 0x0C,	//TXLINE2
 694:TP2824/TP2802.c **** 	 0xc1, 0x00,	//TXLINE4  / TXLINE3
 695:TP2824/TP2802.c **** 	 0xc4, 0x00,	//TXLINE3
 696:TP2824/TP2802.c **** 	 0xc5, 0x00,	//TXLINE4
 697:TP2824/TP2802.c **** 	 0xc6, 0x33,	//TXBITCKNUM  0x19  0x1F  //0x19 for 1080P  ;  0x33 for 720P   // TVI 720P ptz 202005
 698:TP2824/TP2802.c **** 	 0xc7, 0x78,	//TXHST
 699:TP2824/TP2802.c **** 	 0xc8, 0x21,	//TXBITNUM  //0x21  0x27
 700:TP2824/TP2802.c **** 	 0x6f, 0x40,	//TXn pin enable
 701:TP2824/TP2802.c ****         0x70, 0x00,   //TXLMD[3]=0 / TXLNUM[2:0]=0
 702:TP2824/TP2802.c ****         
 703:TP2824/TP2802.c **** //PRESET 1
 704:TP2824/TP2802.c **** 	 //TXLINE1DATA
 705:TP2824/TP2802.c **** 	 0x55, 0x00,
 706:TP2824/TP2802.c **** 	 0x56, 0x02,
 707:TP2824/TP2802.c **** 	 0x57, 0xB5,
 708:TP2824/TP2802.c **** 	 0x58, 0x01,
 709:TP2824/TP2802.c **** 	 0x59, 0x17,
 710:TP2824/TP2802.c **** 	 0x5a, 0x01,
 711:TP2824/TP2802.c **** 	 //TXLINE2DATA
 712:TP2824/TP2802.c **** 	 0x5b, 0x00,
 713:TP2824/TP2802.c **** 	 0x5c, 0x02,
 714:TP2824/TP2802.c **** 	 0x5d, 0x00,
 715:TP2824/TP2802.c **** 	 0x5e, 0x00,
 716:TP2824/TP2802.c **** 	 0x5f, 0x00,
 717:TP2824/TP2802.c **** 	 0x60, 0xCE,
 718:TP2824/TP2802.c **** 	
ARM GAS  /tmp/ccZU1AeU.s 			page 14


 719:TP2824/TP2802.c ****  //RX
 720:TP2824/TP2802.c **** 	0xcb, 0x07,		//RXLINE1
 721:TP2824/TP2802.c **** 	0xcc, 0x08,		//RXLINE2
 722:TP2824/TP2802.c **** 	0xcd, 0x00,//0x09,		//RXLINE3
 723:TP2824/TP2802.c **** 	0xce, 0x00,//0x0a,		//RXLINE4
 724:TP2824/TP2802.c **** 	0xcf, 0x04,		//RXFREQ
 725:TP2824/TP2802.c **** 	0xd0, 0x00,		//RXFREQ
 726:TP2824/TP2802.c **** 	0xd1, 0x00,		//RXFREQ
 727:TP2824/TP2802.c **** 	0xd2, 0x60,		//RXTHLEVEL
 728:TP2824/TP2802.c **** 	0xd3, 0x10,		//RXHINUM
 729:TP2824/TP2802.c **** 	0xd4, 0x06,		//RXHST / RXHEND
 730:TP2824/TP2802.c **** 	0xd5, 0xbe,		//RXHST
 731:TP2824/TP2802.c **** 	0xd6, 0x39,		//RXHEND
 732:TP2824/TP2802.c **** 	0xd7, 0x21,//0x27,		//RXBITNUM
 733:TP2824/TP2802.c **** 	0xa7, 0x00,//
 734:TP2824/TP2802.c **** 	0xff, 0xff
 735:TP2824/TP2802.c **** };
 736:TP2824/TP2802.c **** 
 737:TP2824/TP2802.c **** tcByte TP2824C_AHD_FHD_PTZ_DataSet[] = {//1080P30/25 AHD
 738:TP2824/TP2802.c **** 
 739:TP2824/TP2802.c **** 		//PTZ COC
 740:TP2824/TP2802.c **** //TX		
 741:TP2824/TP2802.c **** 	 0xc0, 0x00,	//TXLINE2  / TXLINE1
 742:TP2824/TP2802.c **** 	 0xc2, 0x0E,	//TXLINE1
 743:TP2824/TP2802.c **** 	 0xc3, 0x0F,	//TXLINE2
 744:TP2824/TP2802.c **** 	 0xc1, 0x00,	//TXLINE4  / TXLINE3
 745:TP2824/TP2802.c **** 	 0xc4, 0x10,	//TXLINE3
 746:TP2824/TP2802.c **** 	 0xc5, 0x11,	//TXLINE4
 747:TP2824/TP2802.c **** 	 0xc6, 0x24,	//TXBITCKNUM
 748:TP2824/TP2802.c **** 	 0xc7, 0x15,	//TXHST[7:0]		//TXHST=0x215
 749:TP2824/TP2802.c **** 	 0xc8, 0x97,	//TXHST[9:8] / TXBITNUM:0x17
 750:TP2824/TP2802.c **** 	 0x6f, 0x44,	//TXn pin enable / TXACP
 751:TP2824/TP2802.c ****         0x70, 0x00,   //TXLMD[3]=0 / TXLNUM[2:0]=0
 752:TP2824/TP2802.c ****         
 753:TP2824/TP2802.c **** 	 //TXLINE1DATA
 754:TP2824/TP2802.c **** 	 0x55, 0x00,
 755:TP2824/TP2802.c **** 	 0x56, 0x00,
 756:TP2824/TP2802.c **** 	 0x57, 0x00,
 757:TP2824/TP2802.c **** 	 0x58, 0x00,
 758:TP2824/TP2802.c **** 	 0x59, 0x00,
 759:TP2824/TP2802.c **** 	 0x5a, 0x00,
 760:TP2824/TP2802.c **** 	 //TXLINE2DATA
 761:TP2824/TP2802.c **** 	 0x5b, 0x00,
 762:TP2824/TP2802.c **** 	 0x5c, 0x00,
 763:TP2824/TP2802.c **** 	 0x5d, 0x00,
 764:TP2824/TP2802.c **** 	 0x5e, 0x00,
 765:TP2824/TP2802.c **** 	 0x5f, 0x00,
 766:TP2824/TP2802.c **** 	 0x60, 0x00,
 767:TP2824/TP2802.c **** 	 //TXLINE3DATA
 768:TP2824/TP2802.c **** 	 0x62, 0x00,
 769:TP2824/TP2802.c **** 	 0x63, 0x00,
 770:TP2824/TP2802.c **** 	 0x64, 0x00,
 771:TP2824/TP2802.c **** 	 0x65, 0x00,
 772:TP2824/TP2802.c **** 	 0x66, 0x00,
 773:TP2824/TP2802.c ****  	 //TXLINE4DATA
 774:TP2824/TP2802.c **** 	 0x68, 0x00,
 775:TP2824/TP2802.c **** 	 0x69, 0x00,
ARM GAS  /tmp/ccZU1AeU.s 			page 15


 776:TP2824/TP2802.c **** 	 0x6a, 0x00,
 777:TP2824/TP2802.c **** 	 0x6b, 0x00,
 778:TP2824/TP2802.c **** 	 0x6c, 0x00,
 779:TP2824/TP2802.c ****  	
 780:TP2824/TP2802.c ****  //RX
 781:TP2824/TP2802.c **** 	0xcb, 0x07,		//RXLINE1
 782:TP2824/TP2802.c **** 	0xcc, 0x08,		//RXLINE2
 783:TP2824/TP2802.c **** 	0xcd, 0x00,//0x09,		//RXLINE3
 784:TP2824/TP2802.c **** 	0xce, 0x00,//0x0a,		//RXLINE4
 785:TP2824/TP2802.c **** 	0xcf, 0x04,		//RXFREQ
 786:TP2824/TP2802.c **** 	0xd0, 0x00,		//RXFREQ
 787:TP2824/TP2802.c **** 	0xd1, 0x00,		//RXFREQ
 788:TP2824/TP2802.c **** 	0xd2, 0x60,		//RXTHLEVEL
 789:TP2824/TP2802.c **** 	0xd3, 0x10,		//RXHINUM
 790:TP2824/TP2802.c **** 	0xd4, 0x06,		//RXHST / RXHEND
 791:TP2824/TP2802.c **** 	0xd5, 0xbe,		//RXHST
 792:TP2824/TP2802.c **** 	0xd6, 0x39,		//RXHEND
 793:TP2824/TP2802.c **** 	0xd7, 0x27,		//RXBITNUM
 794:TP2824/TP2802.c **** 	
 795:TP2824/TP2802.c **** 	0xa7, 0x24,//RXPWM / RXACP
 796:TP2824/TP2802.c **** 	
 797:TP2824/TP2802.c **** 	0xff, 0xff
 798:TP2824/TP2802.c **** };
 799:TP2824/TP2802.c **** 
 800:TP2824/TP2802.c **** tcByte TP2824C_CVBS_PTZ_DataSet[] = {//CVBS NTSC/PAL
 801:TP2824/TP2802.c **** 
 802:TP2824/TP2802.c **** 		//PTZ COC
 803:TP2824/TP2802.c **** //TX		
 804:TP2824/TP2802.c **** 	 0xc0, 0x00,	//TXLINE2  / TXLINE1
 805:TP2824/TP2802.c **** 	 0xc2, 0x0F,	//TXLINE1		//line18
 806:TP2824/TP2802.c **** 	 0xc3, 0x10,	//TXLINE2		//line19
 807:TP2824/TP2802.c **** 	 0xc1, 0x00,	//TXLINE4  / TXLINE3
 808:TP2824/TP2802.c **** 	 0xc4, 0x00,	//TXLINE3
 809:TP2824/TP2802.c **** 	 0xc5, 0x00,	//TXLINE4
 810:TP2824/TP2802.c **** 	 0xc6, 0x49,	//TXBITCKNUM
 811:TP2824/TP2802.c **** 	 0xc7, 0x14,	//TXHST[7:0]		//TXHST=0x214
 812:TP2824/TP2802.c **** 	 0xc8, 0xAF,	//TXHST[9:8] / TXBITNUM:0x2F
 813:TP2824/TP2802.c **** 	 0x6f, 0x60,	//TXn pin enable / TXPELCO2
 814:TP2824/TP2802.c ****         0x70, 0x00,   //TXLMD[3]=0 / TXLNUM[2:0]=0
 815:TP2824/TP2802.c ****         
 816:TP2824/TP2802.c **** 	 //TXLINE1DATA
 817:TP2824/TP2802.c **** 	 0x55, 0x00,
 818:TP2824/TP2802.c **** 	 0x56, 0x00,
 819:TP2824/TP2802.c **** 	 0x57, 0x00,
 820:TP2824/TP2802.c **** 	 0x58, 0x00,
 821:TP2824/TP2802.c **** 	 0x59, 0x00,//cmd2 [LSB first]
 822:TP2824/TP2802.c **** 	 0x5a, 0x00,//cmd1 [LSB first]
 823:TP2824/TP2802.c **** 	 //TXLINE2DATA
 824:TP2824/TP2802.c **** 	 0x5b, 0x00,
 825:TP2824/TP2802.c **** 	 0x5c, 0x00,
 826:TP2824/TP2802.c **** 	 0x5d, 0x00,
 827:TP2824/TP2802.c **** 	 0x5e, 0x00,
 828:TP2824/TP2802.c **** 	 0x5f, 0x00,//data2 [LSB first]
 829:TP2824/TP2802.c **** 	 0x60, 0x00,//data1 [LSB first]
 830:TP2824/TP2802.c **** 	 //TXLINE3DATA
 831:TP2824/TP2802.c **** 	 0x62, 0x00,
 832:TP2824/TP2802.c **** 	 0x63, 0x00,
ARM GAS  /tmp/ccZU1AeU.s 			page 16


 833:TP2824/TP2802.c **** 	 0x64, 0x00,
 834:TP2824/TP2802.c **** 	 0x65, 0x00,
 835:TP2824/TP2802.c **** 	 0x66, 0x00,
 836:TP2824/TP2802.c ****  	 //TXLINE4DATA
 837:TP2824/TP2802.c **** 	 0x68, 0x00,
 838:TP2824/TP2802.c **** 	 0x69, 0x00,
 839:TP2824/TP2802.c **** 	 0x6a, 0x00,
 840:TP2824/TP2802.c **** 	 0x6b, 0x00,
 841:TP2824/TP2802.c **** 	 0x6c, 0x00,
 842:TP2824/TP2802.c **** /* 	
 843:TP2824/TP2802.c ****  //RX
 844:TP2824/TP2802.c **** 	0xcb, 0x07,		//RXLINE1
 845:TP2824/TP2802.c **** 	0xcc, 0x08,		//RXLINE2
 846:TP2824/TP2802.c **** 	0xcd, 0x00,//0x09,		//RXLINE3
 847:TP2824/TP2802.c **** 	0xce, 0x00,//0x0a,		//RXLINE4
 848:TP2824/TP2802.c **** 	0xcf, 0x04,		//RXFREQ
 849:TP2824/TP2802.c **** 	0xd0, 0x00,		//RXFREQ
 850:TP2824/TP2802.c **** 	0xd1, 0x00,		//RXFREQ
 851:TP2824/TP2802.c **** 	0xd2, 0x60,		//RXTHLEVEL
 852:TP2824/TP2802.c **** 	0xd3, 0x10,		//RXHINUM
 853:TP2824/TP2802.c **** 	0xd4, 0x06,		//RXHST / RXHEND
 854:TP2824/TP2802.c **** 	0xd5, 0xbe,		//RXHST
 855:TP2824/TP2802.c **** 	0xd6, 0x39,		//RXHEND
 856:TP2824/TP2802.c **** 	0xd7, 0x27,		//RXBITNUM
 857:TP2824/TP2802.c **** 	
 858:TP2824/TP2802.c **** 	0xa7, 0x24,//RXPWM / RXACP
 859:TP2824/TP2802.c **** */	
 860:TP2824/TP2802.c **** 	0xff, 0xff
 861:TP2824/TP2802.c **** };
 862:TP2824/TP2802.c **** 
 863:TP2824/TP2802.c **** tcByte TP2824C_CVIHD_PTZ_DataSet[] = {//CVI CHD
 864:TP2824/TP2802.c **** 
 865:TP2824/TP2802.c **** 		//PTZ COC
 866:TP2824/TP2802.c **** //TX	
 867:TP2824/TP2802.c **** 	 0x70, 0x1D,   //TCMFR[4]=1 / TXLMD[3]=1 / TXLNUM[2:0]=5
 868:TP2824/TP2802.c **** 	 0xc0, 0x00,	//TXLINE2  / TXLINE1
 869:TP2824/TP2802.c **** 	 0xc2, 0x10,	//TXLINE1		//line18
 870:TP2824/TP2802.c **** 	 0xc3, 0x00,	//TXLINE2		//line19
 871:TP2824/TP2802.c **** 	 0xc1, 0x00,	//TXLINE4  / TXLINE3
 872:TP2824/TP2802.c **** 	 0xc4, 0x00,	//TXLINE3
 873:TP2824/TP2802.c **** 	 0xc5, 0x00,	//TXLINE4
 874:TP2824/TP2802.c **** 	 0xc6, 0x15,	//TXBITCKNUM
 875:TP2824/TP2802.c **** 	 0xc7, 0x5B,	//TXHST[7:0]		//TXHST=0x25B
 876:TP2824/TP2802.c **** 	 0xc8, 0xa4,//0x97,	//TXHST[9:8]0b10xx xxxx / TXBITNUM:0x17=>0x24
 877:TP2824/TP2802.c **** 	 0x6f, 0x48,	//TXn pin enable / TXDAH
 878:TP2824/TP2802.c **** 
 879:TP2824/TP2802.c **** 	 //TXLINE1DATA
 880:TP2824/TP2802.c **** 	 0x55, 0x00,
 881:TP2824/TP2802.c **** 	 0x56, 0x00,
 882:TP2824/TP2802.c **** 	 0x57, 0x00,
 883:TP2824/TP2802.c **** 	 0x58, 0x00,
 884:TP2824/TP2802.c **** 	 0x59, 0x00,//cmd2 [LSB first]
 885:TP2824/TP2802.c **** 	 0x5a, 0x00,//cmd1 [LSB first]
 886:TP2824/TP2802.c **** 	 //TXLINE2DATA
 887:TP2824/TP2802.c **** 	 0x5b, 0x00,
 888:TP2824/TP2802.c **** 	 0x5c, 0x00,
 889:TP2824/TP2802.c **** 	 0x5d, 0x00,
ARM GAS  /tmp/ccZU1AeU.s 			page 17


 890:TP2824/TP2802.c **** 	 0x5e, 0x00,
 891:TP2824/TP2802.c **** 	 0x5f, 0x00,//data2 [LSB first]
 892:TP2824/TP2802.c **** 	 0x60, 0x00,//data1 [LSB first]
 893:TP2824/TP2802.c **** 	 //TXLINE3DATA
 894:TP2824/TP2802.c **** 	 0x62, 0x00,
 895:TP2824/TP2802.c **** 	 0x63, 0x00,
 896:TP2824/TP2802.c **** 	 0x64, 0x00,
 897:TP2824/TP2802.c **** 	 0x65, 0x00,
 898:TP2824/TP2802.c **** 	 0x66, 0x00,
 899:TP2824/TP2802.c ****  	 //TXLINE4DATA
 900:TP2824/TP2802.c **** 	 0x68, 0x00,
 901:TP2824/TP2802.c **** 	 0x69, 0x00,
 902:TP2824/TP2802.c **** 	 0x6a, 0x00,
 903:TP2824/TP2802.c **** 	 0x6b, 0x00,
 904:TP2824/TP2802.c **** 	 0x6c, 0x00,
 905:TP2824/TP2802.c **** /* 	
 906:TP2824/TP2802.c ****  //RX
 907:TP2824/TP2802.c **** 	0xcb, 0x07,		//RXLINE1
 908:TP2824/TP2802.c **** 	0xcc, 0x08,		//RXLINE2
 909:TP2824/TP2802.c **** 	0xcd, 0x00,//0x09,		//RXLINE3
 910:TP2824/TP2802.c **** 	0xce, 0x00,//0x0a,		//RXLINE4
 911:TP2824/TP2802.c **** 	0xcf, 0x04,		//RXFREQ
 912:TP2824/TP2802.c **** 	0xd0, 0x00,		//RXFREQ
 913:TP2824/TP2802.c **** 	0xd1, 0x00,		//RXFREQ
 914:TP2824/TP2802.c **** 	0xd2, 0x60,		//RXTHLEVEL
 915:TP2824/TP2802.c **** 	0xd3, 0x10,		//RXHINUM
 916:TP2824/TP2802.c **** 	0xd4, 0x06,		//RXHST / RXHEND
 917:TP2824/TP2802.c **** 	0xd5, 0xbe,		//RXHST
 918:TP2824/TP2802.c **** 	0xd6, 0x39,		//RXHEND
 919:TP2824/TP2802.c **** 	0xd7, 0x27,		//RXBITNUM
 920:TP2824/TP2802.c **** 	
 921:TP2824/TP2802.c **** 	0xa7, 0x24,//RXPWM / RXACP
 922:TP2824/TP2802.c **** */	
 923:TP2824/TP2802.c **** 	0xff, 0xff
 924:TP2824/TP2802.c **** };
 925:TP2824/TP2802.c **** #endif
 926:TP2824/TP2802.c **** 	 
 927:TP2824/TP2802.c **** //chunyu
 928:TP2824/TP2802.c **** void I2CDeviceSet1( tcByte *RegSet)
 929:TP2824/TP2802.c **** {
 930:TP2824/TP2802.c **** 	int	cnt=0;
 931:TP2824/TP2802.c **** 	tByte index, val;
 932:TP2824/TP2802.c **** 
 933:TP2824/TP2802.c **** 	// Output discription
 934:TP2824/TP2802.c **** 	#ifdef TASKING
 935:TP2824/TP2802.c **** 	while( *RegSet ) 
 936:TP2824/TP2802.c **** 		RS_tx( *RegSet++ );
 937:TP2824/TP2802.c **** 	RegSet++;
 938:TP2824/TP2802.c **** 	#endif
 939:TP2824/TP2802.c **** 
 940:TP2824/TP2802.c **** 	while ( *RegSet != 0xFF ) {
 941:TP2824/TP2802.c **** 
 942:TP2824/TP2802.c **** 		index = *RegSet;
 943:TP2824/TP2802.c **** 		val = *(RegSet+1);
 944:TP2824/TP2802.c **** //		MonWriteI2C(addr, index, val);
 945:TP2824/TP2802.c **** 		tp28xx_byte_write(index, val);
 946:TP2824/TP2802.c **** 
ARM GAS  /tmp/ccZU1AeU.s 			page 18


 947:TP2824/TP2802.c **** //		Puts("\r\n");
 948:TP2824/TP2802.c **** 
 949:TP2824/TP2802.c **** 		RegSet+=2;
 950:TP2824/TP2802.c **** 
 951:TP2824/TP2802.c **** 		cnt--;
 952:TP2824/TP2802.c **** 	}	
 953:TP2824/TP2802.c ****     delay(50); //50*5 =250ms
 954:TP2824/TP2802.c **** }
 955:TP2824/TP2802.c **** 
 956:TP2824/TP2802.c **** 
 957:TP2824/TP2802.c **** void I2CDeviceSet2( tcByte *RegSet, tcByte *DatSet)
 958:TP2824/TP2802.c **** {
 959:TP2824/TP2802.c **** 	int	cnt=0;
 960:TP2824/TP2802.c **** 	tByte index, val;
 961:TP2824/TP2802.c **** 
 962:TP2824/TP2802.c **** 	while ( *RegSet != 0xFF ) {
 963:TP2824/TP2802.c **** 
 964:TP2824/TP2802.c **** 		index = *RegSet;
 965:TP2824/TP2802.c **** 		val = *DatSet;
 966:TP2824/TP2802.c **** //		MonWriteI2C(addr, index, val);
 967:TP2824/TP2802.c **** 		tp28xx_byte_write(index, val);
 968:TP2824/TP2802.c **** 
 969:TP2824/TP2802.c **** //		Puts("\r\n");
 970:TP2824/TP2802.c **** 
 971:TP2824/TP2802.c **** 		RegSet++;
 972:TP2824/TP2802.c **** 		DatSet++;
 973:TP2824/TP2802.c **** 
 974:TP2824/TP2802.c **** 		cnt--;
 975:TP2824/TP2802.c **** 	}
 976:TP2824/TP2802.c ****     delay(50); //50*5 =250ms
 977:TP2824/TP2802.c **** }
 978:TP2824/TP2802.c **** 
 979:TP2824/TP2802.c **** void SetRegPage(tByte channel)
 980:TP2824/TP2802.c **** {
 981:TP2824/TP2802.c ****     //tByte tmp;
 982:TP2824/TP2802.c ****     //tmp = tp28xx_byte_read(tByte index);
 983:TP2824/TP2802.c ****     tp28xx_byte_write(0x40,channel);
 984:TP2824/TP2802.c ****     //tp28xx_byte_write(0x40,0x04); //chunyu
 985:TP2824/TP2802.c ****  //  printf("\r\nChannel-%02x ",(tWord)channel);
 986:TP2824/TP2802.c **** }
 987:TP2824/TP2802.c **** 
 988:TP2824/TP2802.c **** /*
 989:TP2824/TP2802.c **** void Write_AllRegPage(tByte addr, tByte bitpos, tByte bitval){
 990:TP2824/TP2802.c **** 	tByte ch;
 991:TP2824/TP2802.c **** 	tByte val;
 992:TP2824/TP2802.c **** 	tByte mask=0x00;
 993:TP2824/TP2802.c **** 	tByte maskb;
 994:TP2824/TP2802.c **** 	tByte Reg40;
 995:TP2824/TP2802.c **** 
 996:TP2824/TP2802.c **** 	Reg40 = tp28xx_byte_read(TVII2CAddress,0x40);
 997:TP2824/TP2802.c **** 
 998:TP2824/TP2802.c **** 	mask = 0x01 << bitpos;
 999:TP2824/TP2802.c **** 	maskb = ~mask;
1000:TP2824/TP2802.c **** 
1001:TP2824/TP2802.c **** 	for(ch=CH1;ch<=CH4;ch++){
1002:TP2824/TP2802.c **** 		tp28xx_byte_write(TVII2CAddress,0x40,ch);
1003:TP2824/TP2802.c **** 		val = tp28xx_byte_read(TVII2CAddress,addr);
ARM GAS  /tmp/ccZU1AeU.s 			page 19


1004:TP2824/TP2802.c **** 		if(bitval)
1005:TP2824/TP2802.c **** 			tp28xx_byte_write(TVII2CAddress,addr,(val|mask));
1006:TP2824/TP2802.c **** 		else
1007:TP2824/TP2802.c **** 			tp28xx_byte_write(TVII2CAddress,addr,(val&maskb));
1008:TP2824/TP2802.c **** 	}
1009:TP2824/TP2802.c **** 
1010:TP2824/TP2802.c **** 	tp28xx_byte_write(TVII2CAddress,0x40,Reg40);
1011:TP2824/TP2802.c **** }
1012:TP2824/TP2802.c **** */
1013:TP2824/TP2802.c **** 
1014:TP2824/TP2802.c **** /*
1015:TP2824/TP2802.c **** void Set_16Bits_VDCLK_Out(){
1016:TP2824/TP2802.c **** 
1017:TP2824/TP2802.c **** 	Write_AllRegPage(0x02,7,0);
1018:TP2824/TP2802.c **** 	tp28xx_byte_write(TVII2CAddress,0x4b,0x40);
1019:TP2824/TP2802.c **** }
1020:TP2824/TP2802.c **** 
1021:TP2824/TP2802.c **** void Set_16Bits_VD_Out(tByte channel){
1022:TP2824/TP2802.c **** 	tByte Reg02,Reg4b;
1023:TP2824/TP2802.c **** 	tByte VD2SEL;
1024:TP2824/TP2802.c **** 	tByte VD1SEL;
1025:TP2824/TP2802.c **** 	tByte dat;
1026:TP2824/TP2802.c **** 
1027:TP2824/TP2802.c **** 	Reg02 = tp28xx_byte_read(TVII2CAddress,0x02);
1028:TP2824/TP2802.c **** 	Reg4b = tp28xx_byte_read(TVII2CAddress,0x4b);
1029:TP2824/TP2802.c **** 
1030:TP2824/TP2802.c **** 
1031:TP2824/TP2802.c **** 	tp28xx_byte_write(TVII2CAddress,0x02,(Reg02&0x7f));
1032:TP2824/TP2802.c **** 
1033:TP2824/TP2802.c **** 	switch (channel){
1034:TP2824/TP2802.c **** 		case CH1:
1035:TP2824/TP2802.c **** 			VD2SEL = VIN1_C;
1036:TP2824/TP2802.c **** 			VD1SEL = VIN1_Y;
1037:TP2824/TP2802.c **** 			break;
1038:TP2824/TP2802.c **** 		case CH2:
1039:TP2824/TP2802.c **** 			VD2SEL = VIN2_C;
1040:TP2824/TP2802.c **** 			VD1SEL = VIN2_Y;
1041:TP2824/TP2802.c **** 			break;
1042:TP2824/TP2802.c **** 		case CH3:
1043:TP2824/TP2802.c **** 			VD2SEL = VIN3_C;
1044:TP2824/TP2802.c **** 			VD1SEL = VIN3_Y;
1045:TP2824/TP2802.c **** 			break;
1046:TP2824/TP2802.c **** 		case CH4:
1047:TP2824/TP2802.c **** 			VD2SEL = VIN4_C;
1048:TP2824/TP2802.c **** 			VD1SEL = VIN4_Y;
1049:TP2824/TP2802.c **** 			break;
1050:TP2824/TP2802.c **** 		}
1051:TP2824/TP2802.c **** 	dat = (VD2SEL<<4)|VD1SEL;
1052:TP2824/TP2802.c **** 	tp28xx_byte_write(TVII2CAddress,0x4b,dat);
1053:TP2824/TP2802.c **** 
1054:TP2824/TP2802.c **** }
1055:TP2824/TP2802.c **** */
1056:TP2824/TP2802.c **** 
1057:TP2824/TP2802.c **** tcByte TP2802_FORMAT_DataSet[][12+1] =
1058:TP2824/TP2802.c **** {
1059:TP2824/TP2802.c ****     {0x02,0x15,0x16,0x17,0x18,0x19,0x1a,0x1c,0x1d,0x35,0x36,0x14,0xff}, //reg
1060:TP2824/TP2802.c ****     {0x48,0x03,0xd3,0x80,0x29,0x38,0x47,0x08,0x98,0x05,0xdc,0x0A,0xff}, //1080p30
ARM GAS  /tmp/ccZU1AeU.s 			page 20


1061:TP2824/TP2802.c ****     {0x48,0x03,0xd3,0x80,0x29,0x38,0x47,0x0a,0x50,0x05,0xdc,0x0A,0xff}, //1080p25
1062:TP2824/TP2802.c ****     {0x4a,0x13,0x16,0x00,0x19,0xd0,0x25,0x06,0x72,0x05,0xdc,0x0A,0xff}, //720p60 720p30V2
1063:TP2824/TP2802.c ****     {0x4a,0x13,0x16,0x00,0x19,0xd0,0x25,0x07,0xbc,0x05,0xdc,0x0A,0xff}, //720p50 720p25V2
1064:TP2824/TP2802.c ****     {0x4a,0x13,0x16,0x00,0x19,0xd0,0x25,0x0c,0xe4,0x05,0xdc,0x0A,0xff}, //720p30    //5
1065:TP2824/TP2802.c ****     {0x4a,0x13,0x16,0x00,0x19,0xd0,0x25,0x0f,0x78,0x05,0xdc,0x0A,0xff}, //720p25
1066:TP2824/TP2802.c ****     {0x4f,0x13,0x4e,0xbc,0x15,0xf0,0x07,0x09,0x38,0x25,0xdc,0x0A,0xff}, //NTSC
1067:TP2824/TP2802.c ****     {0x4f,0x13,0x5f,0xbc,0x17,0x20,0x17,0x09,0x48,0x25,0xdc,0x0A,0xff}, //PAL
1068:TP2824/TP2802.c ****     {0x48,0x13,0x6c,0x00,0x2c,0x00,0x68,0x09,0xc4,0x16,0x30,0x0A,0xff}, //3M18
1069:TP2824/TP2802.c ****     {0x48,0x13,0x1f,0x20,0x34,0x98,0x7a,0x0b,0x9a,0x17,0xd0,0x0A,0xff}, //5M12      //10
1070:TP2824/TP2802.c ****     {0x4a,0x13,0x16,0x00,0x19,0xd0,0x25,0x06,0x72,0x25,0xdc,0x0A,0xff}, //720p30V2
1071:TP2824/TP2802.c ****     {0x4a,0x13,0x16,0x00,0x19,0xd0,0x25,0x07,0xbc,0x25,0xdc,0x0A,0xff}, //720p25V2
1072:TP2824/TP2802.c ****     {0x48,0x13,0x1f,0x80,0x7d,0xf0,0x5a,0x0b,0xb8,0x16,0x72,0x0A,0xff}, //4M15
1073:TP2824/TP2802.c ****     {0x48,0x13,0x6c,0x00,0x2c,0x00,0x68,0x09,0xc4,0x16,0x72,0x0A,0xff}, //3M20
1074:TP2824/TP2802.c ****     {0x48,0x23,0x34,0x78,0x8c,0xf0,0x5a,0x0c,0xe4,0x17,0x08,0x0A,0xff}, //4M12
1075:TP2824/TP2802.c ****     {0x48,0x13,0xec,0x80,0xb0,0x08,0x7c,0x0e,0xa6,0x17,0xbc,0x0A,0xff}, //6M10
1076:TP2824/TP2802.c ****     {0x48,0x13,0x0f,0x00,0x32,0xa0,0x55,0x06,0x72,0x15,0xdc,0x0A,0xff}, //4M30
1077:TP2824/TP2802.c ****     {0x48,0x13,0x20,0x00,0x20,0xa0,0x55,0x07,0xbc,0x15,0xdc,0x0A,0xff}  //4M25
1078:TP2824/TP2802.c **** 
1079:TP2824/TP2802.c ****     //{0xc8,0x13,0x6c,0x20,0x2c,0xf0,0x5a,0x0b,0xb8,0x16,0x72,0xff}, //2592x1520p15
1080:TP2824/TP2802.c **** };
1081:TP2824/TP2802.c **** 
1082:TP2824/TP2802.c **** static void tp28xx_SYSCLK_V2(unsigned char ch)
1083:TP2824/TP2802.c **** {
1084:TP2824/TP2802.c ****     unsigned char tmp;
1085:TP2824/TP2802.c ****     tmp = tp28xx_byte_read(0xf5);
1086:TP2824/TP2802.c ****     tmp |= SYS_MODE[ch];
1087:TP2824/TP2802.c ****     tp28xx_byte_write(0xf5, tmp);
1088:TP2824/TP2802.c ****     tmp = tp28xx_byte_read(0x35);
1089:TP2824/TP2802.c ****     tmp |= 0x20;
1090:TP2824/TP2802.c ****     tp28xx_byte_write(0x35, tmp);
1091:TP2824/TP2802.c **** }
1092:TP2824/TP2802.c **** static void tp28xx_SYSCLK_V1(unsigned char ch)
1093:TP2824/TP2802.c **** {
1094:TP2824/TP2802.c ****     unsigned char tmp;
1095:TP2824/TP2802.c ****     tmp = tp28xx_byte_read(0xf5);
1096:TP2824/TP2802.c ****     tmp &= SYS_AND[ch];
1097:TP2824/TP2802.c ****     tp28xx_byte_write(0xf5, tmp);
1098:TP2824/TP2802.c ****     tmp = tp28xx_byte_read(0x35);
1099:TP2824/TP2802.c ****     tmp &= 0xdf;
1100:TP2824/TP2802.c ****     tp28xx_byte_write(0x35, tmp);
1101:TP2824/TP2802.c **** }
1102:TP2824/TP2802.c **** 
1103:TP2824/TP2802.c **** void Set_VidRes(tByte ch)
1104:TP2824/TP2802.c **** {
1105:TP2824/TP2802.c ****     tByte index, sys, tmp;
1106:TP2824/TP2802.c **** 	sys = 1;  //V1
1107:TP2824/TP2802.c ****     //printf("Set_VidRes");
1108:TP2824/TP2802.c ****     switch(mode[ch])
1109:TP2824/TP2802.c ****     {
1110:TP2824/TP2802.c ****     case R1080P30:
1111:TP2824/TP2802.c ****         index=1;//1080p30
1112:TP2824/TP2802.c ****         sys=1;//V1
1113:TP2824/TP2802.c ****         ManVidResRx=RES1920X1080;
1114:TP2824/TP2802.c ****         printf("1080p30");
1115:TP2824/TP2802.c ****         break;
1116:TP2824/TP2802.c **** 
1117:TP2824/TP2802.c ****     case R1080P25:
ARM GAS  /tmp/ccZU1AeU.s 			page 21


1118:TP2824/TP2802.c ****         index=2;//1080p25
1119:TP2824/TP2802.c ****         sys=1;//V1
1120:TP2824/TP2802.c ****         ManVidResRx=RES1920X1080;
1121:TP2824/TP2802.c ****         printf("1080p25");
1122:TP2824/TP2802.c ****         break;
1123:TP2824/TP2802.c **** 
1124:TP2824/TP2802.c ****     case R720P60:
1125:TP2824/TP2802.c ****         index=3;//720p60 720p30V2
1126:TP2824/TP2802.c ****         sys=1;//V1
1127:TP2824/TP2802.c ****         ManVidResRx=RES1280X720;
1128:TP2824/TP2802.c ****         printf("720p60");
1129:TP2824/TP2802.c ****         break;
1130:TP2824/TP2802.c **** 
1131:TP2824/TP2802.c ****     case R720P30V2:
1132:TP2824/TP2802.c ****         index=11;//720p30V2 
1133:TP2824/TP2802.c ****         sys=2;//V2
1134:TP2824/TP2802.c ****         ManVidResRx=RES1280X720;
1135:TP2824/TP2802.c ****         printf("720p30V2");
1136:TP2824/TP2802.c ****         break;
1137:TP2824/TP2802.c **** 
1138:TP2824/TP2802.c ****     case R720P50:
1139:TP2824/TP2802.c ****         index=4;//720p50 720p25V2
1140:TP2824/TP2802.c ****         sys=1;//V1
1141:TP2824/TP2802.c ****         ManVidResRx=RES1280X720;
1142:TP2824/TP2802.c ****         printf("720p50");
1143:TP2824/TP2802.c ****         break;
1144:TP2824/TP2802.c **** 
1145:TP2824/TP2802.c ****     case R720P25V2:
1146:TP2824/TP2802.c ****         index=12;//720p25V2 
1147:TP2824/TP2802.c ****         sys=2;//V2
1148:TP2824/TP2802.c ****         ManVidResRx=RES1280X720;
1149:TP2824/TP2802.c ****         printf("720p25V2");
1150:TP2824/TP2802.c ****         break;
1151:TP2824/TP2802.c **** 
1152:TP2824/TP2802.c ****     case R720P30:
1153:TP2824/TP2802.c ****         index=5;//720p30
1154:TP2824/TP2802.c ****         sys=1;//V1
1155:TP2824/TP2802.c ****         ManVidResRx=RES1280X720;
1156:TP2824/TP2802.c ****         printf("720p30");
1157:TP2824/TP2802.c ****         break;
1158:TP2824/TP2802.c **** 
1159:TP2824/TP2802.c ****     case R720P25:
1160:TP2824/TP2802.c ****         index=6;//720p25
1161:TP2824/TP2802.c ****         sys=1;//V1
1162:TP2824/TP2802.c ****         ManVidResRx=RES1280X720;
1163:TP2824/TP2802.c ****         printf("720p25");
1164:TP2824/TP2802.c ****         break;
1165:TP2824/TP2802.c **** 
1166:TP2824/TP2802.c ****     case PAL:
1167:TP2824/TP2802.c ****         index=8;
1168:TP2824/TP2802.c ****         sys=4;
1169:TP2824/TP2802.c ****         ManVidResRx=RES1920X576;
1170:TP2824/TP2802.c ****         printf("PAL");
1171:TP2824/TP2802.c ****         break;
1172:TP2824/TP2802.c **** 
1173:TP2824/TP2802.c ****     case NTSC:
1174:TP2824/TP2802.c ****         index=7;
ARM GAS  /tmp/ccZU1AeU.s 			page 22


1175:TP2824/TP2802.c ****         sys=3;
1176:TP2824/TP2802.c ****         ManVidResRx=RES1920X480;
1177:TP2824/TP2802.c ****         printf("NTSC");
1178:TP2824/TP2802.c ****         break;
1179:TP2824/TP2802.c **** 
1180:TP2824/TP2802.c ****     case R3M18:
1181:TP2824/TP2802.c ****         index=9;//3M18           
1182:TP2824/TP2802.c ****         sys=1;//V1
1183:TP2824/TP2802.c ****         ManVidResRx=RES1920X1080;
1184:TP2824/TP2802.c ****         printf("3M18");
1185:TP2824/TP2802.c ****         break;
1186:TP2824/TP2802.c **** 
1187:TP2824/TP2802.c ****     case R5M12:
1188:TP2824/TP2802.c ****         index=10;//5M12 
1189:TP2824/TP2802.c ****         sys=1;//V1
1190:TP2824/TP2802.c ****         ManVidResRx=RES1920X1080;
1191:TP2824/TP2802.c ****         printf("5M12");
1192:TP2824/TP2802.c ****         break;
1193:TP2824/TP2802.c **** 
1194:TP2824/TP2802.c ****     case R4M15:
1195:TP2824/TP2802.c ****         index=13;//4M15
1196:TP2824/TP2802.c ****         sys=1;//V1
1197:TP2824/TP2802.c ****         ManVidResRx=RES1920X1080;
1198:TP2824/TP2802.c ****         printf("4M15");
1199:TP2824/TP2802.c ****         break;
1200:TP2824/TP2802.c **** 
1201:TP2824/TP2802.c ****     case R3M20:
1202:TP2824/TP2802.c ****         index=14;//3M20
1203:TP2824/TP2802.c ****         sys=1;//V1
1204:TP2824/TP2802.c ****         ManVidResRx=RES1920X1080;
1205:TP2824/TP2802.c ****         printf("3M20");
1206:TP2824/TP2802.c ****         break;
1207:TP2824/TP2802.c **** 
1208:TP2824/TP2802.c ****     case R4M12:
1209:TP2824/TP2802.c ****         index=15;//4M12
1210:TP2824/TP2802.c ****         sys=1;//V1
1211:TP2824/TP2802.c ****         ManVidResRx=RES1920X1080;
1212:TP2824/TP2802.c ****         printf("4M12");
1213:TP2824/TP2802.c ****         break;
1214:TP2824/TP2802.c **** 
1215:TP2824/TP2802.c ****     case R6M10:
1216:TP2824/TP2802.c ****         index=16;//6M10
1217:TP2824/TP2802.c ****         sys=1;//V1
1218:TP2824/TP2802.c ****         ManVidResRx=RES1920X1080;
1219:TP2824/TP2802.c ****         printf("6M10");
1220:TP2824/TP2802.c ****         break;
1221:TP2824/TP2802.c **** 
1222:TP2824/TP2802.c ****     case R4M30:
1223:TP2824/TP2802.c ****         index=17;//4M30
1224:TP2824/TP2802.c ****         sys=1;//V1
1225:TP2824/TP2802.c ****         ManVidResRx=RES1280X720;
1226:TP2824/TP2802.c ****         printf("4M30");
1227:TP2824/TP2802.c ****         break;
1228:TP2824/TP2802.c **** 
1229:TP2824/TP2802.c ****     default:
1230:TP2824/TP2802.c ****         index=1;//1080p30
1231:TP2824/TP2802.c ****         break;
ARM GAS  /tmp/ccZU1AeU.s 			page 23


1232:TP2824/TP2802.c ****     }
1233:TP2824/TP2802.c ****     printf("...\r\n");
1234:TP2824/TP2802.c **** 
1235:TP2824/TP2802.c ****     //I2CDeviceSet(TVII2CAddress, ptr_TP2802_Res );
1236:TP2824/TP2802.c ****     I2CDeviceSet2( TP2802_FORMAT_DataSet[0],TP2802_FORMAT_DataSet[index] );
1237:TP2824/TP2802.c ****     //	printf("chip= 0x%4x\r\n",chip);
1238:TP2824/TP2802.c **** if( mode[ch]==R1080P30)
1239:TP2824/TP2802.c **** {
1240:TP2824/TP2802.c ****     tp28xx_byte_write(0x16, 0xCE);
1241:TP2824/TP2802.c **** }
1242:TP2824/TP2802.c **** 
1243:TP2824/TP2802.c ****     if(TP2853C == chip)
1244:TP2824/TP2802.c ****     {
1245:TP2824/TP2802.c ****         I2CDeviceSet2( TP2853C_MODE_DataSet[0],TP2853C_MODE_DataSet[sys] );
1246:TP2824/TP2802.c ****     }
1247:TP2824/TP2802.c ****     else if(TP2833 == chip)
1248:TP2824/TP2802.c ****     {
1249:TP2824/TP2802.c ****         I2CDeviceSet2( TP2833_MODE_DataSet[0],TP2833_MODE_DataSet[sys] );
1250:TP2824/TP2802.c ****     }
1251:TP2824/TP2802.c ****     else if(TP2834 == chip)
1252:TP2824/TP2802.c ****     {
1253:TP2824/TP2802.c ****         I2CDeviceSet2( TP2834_MODE_DataSet[0],TP2834_MODE_DataSet[sys] );
1254:TP2824/TP2802.c ****     }
1255:TP2824/TP2802.c ****     if(TP2826 == chip)
1256:TP2824/TP2802.c ****     {
1257:TP2824/TP2802.c ****         printf("tp2826MODEDATASET\r\n");
1258:TP2824/TP2802.c ****         I2CDeviceSet2( TP2826_MODE_DataSet[0],TP2826_MODE_DataSet[sys] );
1259:TP2824/TP2802.c ****     }
1260:TP2824/TP2802.c ****     if(TP2824C == chip)
1261:TP2824/TP2802.c ****     {
1262:TP2824/TP2802.c ****         printf("tp2824C MODEDATASET\r\n");
1263:TP2824/TP2802.c ****         I2CDeviceSet2( TP2824C_MODE_DataSet[0],TP2824C_MODE_DataSet[sys] );
1264:TP2824/TP2802.c ****     }
1265:TP2824/TP2802.c **** 
1266:TP2824/TP2802.c ****     if(1 == sys)
1267:TP2824/TP2802.c ****         tp28xx_SYSCLK_V1(ch);
1268:TP2824/TP2802.c ****     else
1269:TP2824/TP2802.c ****         tp28xx_SYSCLK_V2(ch);
1270:TP2824/TP2802.c **** 
1271:TP2824/TP2802.c ****     tp28xx_byte_write(0x13, 0x00);
1272:TP2824/TP2802.c ****     tmp=tp28xx_byte_read(0x14);
1273:TP2824/TP2802.c ****     tmp &= 0x9f;
1274:TP2824/TP2802.c ****     tp28xx_byte_write(0x14, tmp);
1275:TP2824/TP2802.c **** 
1276:TP2824/TP2802.c **** #if(OUTPUT == Bits16out)
1277:TP2824/TP2802.c ****     tmp=tp28xx_byte_read(0x02);
1278:TP2824/TP2802.c ****     tmp &= 0x7f;
1279:TP2824/TP2802.c ****     tp28xx_byte_write(0x02, tmp);
1280:TP2824/TP2802.c **** #else
1281:TP2824/TP2802.c ****     tmp=tp28xx_byte_read(0x02);
1282:TP2824/TP2802.c ****     tmp |= 0x80;
1283:TP2824/TP2802.c ****     tp28xx_byte_write(0x02, tmp);
1284:TP2824/TP2802.c **** #endif
1285:TP2824/TP2802.c **** }
1286:TP2824/TP2802.c **** 
1287:TP2824/TP2802.c **** tByte Set_HDA(tByte ch)
1288:TP2824/TP2802.c **** {
ARM GAS  /tmp/ccZU1AeU.s 			page 24


1289:TP2824/TP2802.c **** 
1290:TP2824/TP2802.c ****     tByte index,tmp;
1291:TP2824/TP2802.c ****     index=0;
1292:TP2824/TP2802.c **** 
1293:TP2824/TP2802.c ****     switch(mode[ch])
1294:TP2824/TP2802.c ****     {
1295:TP2824/TP2802.c ****     case R1080P30:
1296:TP2824/TP2802.c ****         index=3;
1297:TP2824/TP2802.c ****         break;
1298:TP2824/TP2802.c **** 
1299:TP2824/TP2802.c ****     case R1080P25:
1300:TP2824/TP2802.c ****         index=4;
1301:TP2824/TP2802.c ****         break;
1302:TP2824/TP2802.c **** 		
1303:TP2824/TP2802.c ****     case R720P60://20200507    
1304:TP2824/TP2802.c ****     case R720P30V2:
1305:TP2824/TP2802.c ****         index=1;
1306:TP2824/TP2802.c ****         break;
1307:TP2824/TP2802.c **** 		
1308:TP2824/TP2802.c ****     case R720P50://20200507    
1309:TP2824/TP2802.c ****     case R720P25V2:
1310:TP2824/TP2802.c ****         index=2;
1311:TP2824/TP2802.c ****         break;
1312:TP2824/TP2802.c ****     }
1313:TP2824/TP2802.c ****     if(index)
1314:TP2824/TP2802.c ****     {
1315:TP2824/TP2802.c ****         Set_VidRes(ch);
1316:TP2824/TP2802.c **** 
1317:TP2824/TP2802.c ****         if(TP2853C == chip)
1318:TP2824/TP2802.c ****         {
1319:TP2824/TP2802.c ****             I2CDeviceSet2(TP2853C_HDA_DataSet[0],TP2853C_HDA_DataSet[index] );
1320:TP2824/TP2802.c ****         }
1321:TP2824/TP2802.c ****         else if(TP2833 == chip || TP2834 == chip )
1322:TP2824/TP2802.c ****         {
1323:TP2824/TP2802.c ****             I2CDeviceSet2(TP2833_HDA_DataSet[0],TP2833_HDA_DataSet[index] );
1324:TP2824/TP2802.c ****         }
1325:TP2824/TP2802.c ****         else if(TP2826 == chip)
1326:TP2824/TP2802.c ****         {
1327:TP2824/TP2802.c ****             I2CDeviceSet2(TP2826_HDA_DataSet[0],TP2826_HDA_DataSet[index] );
1328:TP2824/TP2802.c ****         }
1329:TP2824/TP2802.c ****         else if(TP2824C == chip)
1330:TP2824/TP2802.c ****         {
1331:TP2824/TP2802.c ****             I2CDeviceSet2(TP2824C_HDA_DataSet[0],TP2824C_HDA_DataSet[index] );
1332:TP2824/TP2802.c ****         }
1333:TP2824/TP2802.c ****         tmp=tp28xx_byte_read(0x14);
1334:TP2824/TP2802.c ****         tmp |= 0x40;
1335:TP2824/TP2802.c **** 
1336:TP2824/TP2802.c **** 		
1337:TP2824/TP2802.c ****    	tmp|=0x0a;//0x14 sharpness   =0x0a ryan@20210317
1338:TP2824/TP2802.c ****    
1339:TP2824/TP2802.c ****         tp28xx_byte_write(0x14, tmp);
1340:TP2824/TP2802.c **** 
1341:TP2824/TP2802.c ****     }
1342:TP2824/TP2802.c ****     return index;
1343:TP2824/TP2802.c **** }
1344:TP2824/TP2802.c **** 
1345:TP2824/TP2802.c **** tByte Set_HDC(tByte ch)
ARM GAS  /tmp/ccZU1AeU.s 			page 25


1346:TP2824/TP2802.c **** {
1347:TP2824/TP2802.c **** 
1348:TP2824/TP2802.c ****     tByte index;
1349:TP2824/TP2802.c **** 
1350:TP2824/TP2802.c ****     index=0;
1351:TP2824/TP2802.c **** 
1352:TP2824/TP2802.c ****     switch(mode[ch])
1353:TP2824/TP2802.c ****     {
1354:TP2824/TP2802.c **** 
1355:TP2824/TP2802.c ****     case R1080P30:
1356:TP2824/TP2802.c ****         index=3;
1357:TP2824/TP2802.c ****         break;
1358:TP2824/TP2802.c **** 
1359:TP2824/TP2802.c ****     case R1080P25:
1360:TP2824/TP2802.c ****         index=4;
1361:TP2824/TP2802.c ****         break;
1362:TP2824/TP2802.c **** 
1363:TP2824/TP2802.c ****     case R720P60://20200507    
1364:TP2824/TP2802.c ****     case R720P30V2:
1365:TP2824/TP2802.c ****         index=1;
1366:TP2824/TP2802.c ****         break;
1367:TP2824/TP2802.c **** 
1368:TP2824/TP2802.c ****     case R720P50://20200507    
1369:TP2824/TP2802.c ****     case R720P25V2:
1370:TP2824/TP2802.c ****         index=2;
1371:TP2824/TP2802.c ****         break;
1372:TP2824/TP2802.c ****     }
1373:TP2824/TP2802.c ****     if(index)
1374:TP2824/TP2802.c ****     {
1375:TP2824/TP2802.c ****         Set_VidRes(ch);
1376:TP2824/TP2802.c **** 
1377:TP2824/TP2802.c ****         if(TP2853C == chip)
1378:TP2824/TP2802.c ****         {
1379:TP2824/TP2802.c ****             I2CDeviceSet2( TP2853C_HDC_DataSet[0],TP2853C_HDC_DataSet[index] );
1380:TP2824/TP2802.c ****         }
1381:TP2824/TP2802.c ****         else if(TP2833 == chip || TP2834 == chip )
1382:TP2824/TP2802.c ****         {
1383:TP2824/TP2802.c ****             I2CDeviceSet2( TP2853C_HDC_DataSet[0],TP2853C_HDC_DataSet[index] );
1384:TP2824/TP2802.c ****         }
1385:TP2824/TP2802.c ****         else if(TP2826 == chip)
1386:TP2824/TP2802.c ****         {
1387:TP2824/TP2802.c ****             I2CDeviceSet2( TP2826_HDC_DataSet[0],TP2826_HDC_DataSet[index] );
1388:TP2824/TP2802.c ****         }
1389:TP2824/TP2802.c ****         else if(TP2824C == chip)
1390:TP2824/TP2802.c ****         {
1391:TP2824/TP2802.c ****             I2CDeviceSet2( TP2824C_HDC_DataSet[0],TP2824C_HDC_DataSet[index] );
1392:TP2824/TP2802.c ****         }
1393:TP2824/TP2802.c ****         tp28xx_byte_write(0x13, 0x40);
1394:TP2824/TP2802.c ****     }
1395:TP2824/TP2802.c ****     return index;
1396:TP2824/TP2802.c **** }
1397:TP2824/TP2802.c **** 
1398:TP2824/TP2802.c **** tByte Det_VidRes()
1399:TP2824/TP2802.c **** {
1400:TP2824/TP2802.c ****     tByte CVSTD;
1401:TP2824/TP2802.c ****     tByte RES;
1402:TP2824/TP2802.c **** 
ARM GAS  /tmp/ccZU1AeU.s 			page 26


1403:TP2824/TP2802.c ****     CVSTD = tp28xx_byte_read(0x03) & 0x07;
1404:TP2824/TP2802.c **** 
1405:TP2824/TP2802.c ****     switch (CVSTD)
1406:TP2824/TP2802.c ****     {
1407:TP2824/TP2802.c **** 
1408:TP2824/TP2802.c ****     case 0x00:
1409:TP2824/TP2802.c ****         RES = R720P60;
1410:TP2824/TP2802.c ****         break;
1411:TP2824/TP2802.c ****     case 0x01:
1412:TP2824/TP2802.c ****         RES = R720P50;
1413:TP2824/TP2802.c ****         break;
1414:TP2824/TP2802.c ****     case 0x02:
1415:TP2824/TP2802.c ****         RES = R1080P30;
1416:TP2824/TP2802.c ****         break;
1417:TP2824/TP2802.c ****     case 0x03:
1418:TP2824/TP2802.c ****         RES = R1080P25;
1419:TP2824/TP2802.c ****         break;
1420:TP2824/TP2802.c ****     case 0x04:
1421:TP2824/TP2802.c ****         RES = R720P30;
1422:TP2824/TP2802.c ****         break;
1423:TP2824/TP2802.c ****     case 0x05:
1424:TP2824/TP2802.c ****         RES = R720P25;
1425:TP2824/TP2802.c ****         break;
1426:TP2824/TP2802.c ****     case 0x06:
1427:TP2824/TP2802.c ****         printf("\r\nN/P detected");
1428:TP2824/TP2802.c ****         RES = NTPAL;
1429:TP2824/TP2802.c ****         break;
1430:TP2824/TP2802.c ****     default:
1431:TP2824/TP2802.c ****         printf("\r\nNo res detect...");
1432:TP2824/TP2802.c ****         RES = NoDet;
1433:TP2824/TP2802.c ****         break;
1434:TP2824/TP2802.c ****     }
1435:TP2824/TP2802.c **** 
1436:TP2824/TP2802.c ****     return RES;
1437:TP2824/TP2802.c **** 
1438:TP2824/TP2802.c **** }
1439:TP2824/TP2802.c **** tByte Det_VideoLoss(tByte ch)
1440:TP2824/TP2802.c **** {
1441:TP2824/TP2802.c **** 
1442:TP2824/TP2802.c ****     tByte VDLOSS;
1443:TP2824/TP2802.c **** 
1444:TP2824/TP2802.c ****     tp28xx_byte_write(0x40,ch&0x03);
1445:TP2824/TP2802.c ****     VDLOSS = tp28xx_byte_read(0x01);
1446:TP2824/TP2802.c **** //	printf("video status 0x%02x on ch%01x\r\n",(tWord)VDLOSS,(tWord)ch);
1447:TP2824/TP2802.c **** 
1448:TP2824/TP2802.c ****     if(VDLOSS)	printf("No ");
1449:TP2824/TP2802.c **** 
1450:TP2824/TP2802.c ****     printf("video detected");
1451:TP2824/TP2802.c **** 
1452:TP2824/TP2802.c **** 
1453:TP2824/TP2802.c ****     VDLOSS = VDLOSS>>7;
1454:TP2824/TP2802.c ****     return VDLOSS;
1455:TP2824/TP2802.c **** }
1456:TP2824/TP2802.c **** 
1457:TP2824/TP2802.c **** void ManualAGC(unsigned char ch)
1458:TP2824/TP2802.c **** {
1459:TP2824/TP2802.c ****     unsigned int agc;
ARM GAS  /tmp/ccZU1AeU.s 			page 27


1460:TP2824/TP2802.c ****     unsigned char tmp;
1461:TP2824/TP2802.c ****     //unsigned int i;
1462:TP2824/TP2802.c **** 
1463:TP2824/TP2802.c ****     tp28xx_byte_write(0x2F, 0x02);
1464:TP2824/TP2802.c ****     agc = tp28xx_byte_read(0x04);
1465:TP2824/TP2802.c ****     agc += tp28xx_byte_read(0x04);
1466:TP2824/TP2802.c ****     agc += tp28xx_byte_read(0x04);
1467:TP2824/TP2802.c ****     agc += tp28xx_byte_read(0x04);
1468:TP2824/TP2802.c ****     agc &= 0x3f0;
1469:TP2824/TP2802.c ****     agc >>=1;
1470:TP2824/TP2802.c ****     if(agc > 0x1ff) agc = 0x1ff;
1471:TP2824/TP2802.c **** 
1472:TP2824/TP2802.c ****     printf("result AGC=0X%04x ch%02X\r\n", (tWord)agc, (tWord)ch);
1473:TP2824/TP2802.c ****     tp28xx_byte_write(0x08, agc&0xff);
1474:TP2824/TP2802.c ****     tmp = tp28xx_byte_read(0x06);
1475:TP2824/TP2802.c ****     tmp &=0xf9;
1476:TP2824/TP2802.c ****     tmp |=(agc>>7)&0x02;
1477:TP2824/TP2802.c ****     tmp |=0x04;
1478:TP2824/TP2802.c ****     tp28xx_byte_write(0x06,tmp);
1479:TP2824/TP2802.c ****     
1480:TP2824/TP2802.c **** //test Dump Reg 
1481:TP2824/TP2802.c **** /*
1482:TP2824/TP2802.c ****     printf("DumpReg@strat\r\n") ;  
1483:TP2824/TP2802.c ****     tp28xx_byte_write(0x40,01); //
1484:TP2824/TP2802.c ****     for (i = 2 ; i< 255 ;i++)
1485:TP2824/TP2802.c ****     {
1486:TP2824/TP2802.c ****         tmp = tp28xx_byte_read((tByte)i);
1487:TP2824/TP2802.c ****         printf("88,%02X,%02X\r\n", i , (int)tmp ) ; 
1488:TP2824/TP2802.c ****     }
1489:TP2824/TP2802.c ****     printf("DumpReg@end\r\n") ; 
1490:TP2824/TP2802.c **** */
1491:TP2824/TP2802.c ****     
1492:TP2824/TP2802.c **** }
1493:TP2824/TP2802.c **** 
1494:TP2824/TP2802.c **** 
1495:TP2824/TP2802.c **** /*
1496:TP2824/TP2802.c **** static void tp2802D_reset_default(unsigned char ch)
1497:TP2824/TP2802.c **** {
1498:TP2824/TP2802.c ****     unsigned char tmp;
1499:TP2824/TP2802.c ****     tp28xx_byte_write(0x3A, 0x01);
1500:TP2824/TP2802.c ****     tp28xx_byte_write(0x0B, 0xC0);
1501:TP2824/TP2802.c ****     tp28xx_byte_write(0x07, 0xC0);
1502:TP2824/TP2802.c ****     tp28xx_byte_write(0x2e, 0x70);
1503:TP2824/TP2802.c ****     tp28xx_byte_write(0x39, 0x42);
1504:TP2824/TP2802.c ****     tp28xx_byte_write(0x09, 0x24);
1505:TP2824/TP2802.c ****     tmp = tp28xx_byte_read(0x06);   // soft reset and auto agc when cable is unplug
1506:TP2824/TP2802.c ****     tmp &= 0x7b;
1507:TP2824/TP2802.c ****     tp28xx_byte_write(0x06, tmp);
1508:TP2824/TP2802.c **** 
1509:TP2824/TP2802.c ****     tmp = tp28xx_byte_read(0xf5);
1510:TP2824/TP2802.c ****     if( tmp & SYS_MODE[ch])
1511:TP2824/TP2802.c ****     {
1512:TP2824/TP2802.c ****         tmp &= SYS_AND[ch];
1513:TP2824/TP2802.c ****         tp28xx_byte_write(0xf5, tmp);
1514:TP2824/TP2802.c ****     }
1515:TP2824/TP2802.c **** }
1516:TP2824/TP2802.c **** */
ARM GAS  /tmp/ccZU1AeU.s 			page 28


1517:TP2824/TP2802.c **** /*  //chunyu
1518:TP2824/TP2802.c **** static void tp282x_reset_AGC_CLK(unsigned char ch)
1519:TP2824/TP2802.c **** {
1520:TP2824/TP2802.c ****     unsigned char tmp;
1521:TP2824/TP2802.c **** 
1522:TP2824/TP2802.c ****     tmp = tp28xx_byte_read(0x06);
1523:TP2824/TP2802.c ****     tmp &= 0xfb;
1524:TP2824/TP2802.c ****     tp28xx_byte_write(0x06, tmp);
1525:TP2824/TP2802.c **** 
1526:TP2824/TP2802.c ****     tmp = tp28xx_byte_read(0xf5);
1527:TP2824/TP2802.c ****     tmp &= SYS_AND[ch];
1528:TP2824/TP2802.c ****     tp28xx_byte_write(0xf5, tmp);
1529:TP2824/TP2802.c **** 
1530:TP2824/TP2802.c ****     tp28xx_byte_write(0x35, 0x05);
1531:TP2824/TP2802.c ****     tp28xx_byte_write(0x26, 0x01);
1532:TP2824/TP2802.c **** }
1533:TP2824/TP2802.c **** */
1534:TP2824/TP2802.c **** static void tp2824_reset_default(void)
1535:TP2824/TP2802.c **** {
  25              		.loc 1 1535 0
  26              		.cfi_startproc
  27              		@ args = 0, pretend = 0, frame = 0
  28              		@ frame_needed = 0, uses_anonymous_args = 0
  29 0000 08B5     		push	{r3, lr}
  30              	.LCFI0:
  31              		.cfi_def_cfa_offset 8
  32              		.cfi_offset 3, -8
  33              		.cfi_offset 14, -4
1536:TP2824/TP2802.c ****     //unsigned char tmp;
1537:TP2824/TP2802.c ****     //tp28xx_byte_write(addr, 0x07, 0x40);
1538:TP2824/TP2802.c ****     //tp28xx_byte_write(addr, 0x0b, 0x40);
1539:TP2824/TP2802.c ****     //tp28xx_byte_write(addr, 0x3A, 0x88);
1540:TP2824/TP2802.c ****     tp28xx_byte_write(0x26, 0x01);
  34              		.loc 1 1540 0
  35 0002 0121     		movs	r1, #1
  36 0004 2620     		movs	r0, #38
  37 0006 FFF7FEFF 		bl	tp28xx_byte_write
  38              	.LVL0:
1541:TP2824/TP2802.c **** }
  39              		.loc 1 1541 0
  40 000a 08BD     		pop	{r3, pc}
  41              		.cfi_endproc
  42              	.LFE79:
  44              		.section	.text.tp28xx_SYSCLK_V1,"ax",%progbits
  45              		.align	1
  46              		.syntax unified
  47              		.thumb
  48              		.thumb_func
  49              		.fpu softvfp
  51              	tp28xx_SYSCLK_V1:
  52              	.LFB72:
1093:TP2824/TP2802.c ****     unsigned char tmp;
  53              		.loc 1 1093 0
  54              		.cfi_startproc
  55              		@ args = 0, pretend = 0, frame = 0
  56              		@ frame_needed = 0, uses_anonymous_args = 0
  57              	.LVL1:
ARM GAS  /tmp/ccZU1AeU.s 			page 29


  58 0000 10B5     		push	{r4, lr}
  59              	.LCFI1:
  60              		.cfi_def_cfa_offset 8
  61              		.cfi_offset 4, -8
  62              		.cfi_offset 14, -4
  63 0002 0446     		mov	r4, r0
1095:TP2824/TP2802.c ****     tmp &= SYS_AND[ch];
  64              		.loc 1 1095 0
  65 0004 F520     		movs	r0, #245
  66              	.LVL2:
  67 0006 FFF7FEFF 		bl	tp28xx_byte_read
  68              	.LVL3:
1096:TP2824/TP2802.c ****     tp28xx_byte_write(0xf5, tmp);
  69              		.loc 1 1096 0
  70 000a 074B     		ldr	r3, .L5
  71 000c 195D     		ldrb	r1, [r3, r4]	@ zero_extendqisi2
  72              	.LVL4:
1097:TP2824/TP2802.c ****     tmp = tp28xx_byte_read(0x35);
  73              		.loc 1 1097 0
  74 000e 0140     		ands	r1, r1, r0
  75              	.LVL5:
  76 0010 F520     		movs	r0, #245
  77 0012 FFF7FEFF 		bl	tp28xx_byte_write
  78              	.LVL6:
1098:TP2824/TP2802.c ****     tmp &= 0xdf;
  79              		.loc 1 1098 0
  80 0016 3520     		movs	r0, #53
  81 0018 FFF7FEFF 		bl	tp28xx_byte_read
  82              	.LVL7:
1100:TP2824/TP2802.c **** }
  83              		.loc 1 1100 0
  84 001c 00F0DF01 		and	r1, r0, #223
  85 0020 3520     		movs	r0, #53
  86              	.LVL8:
  87 0022 FFF7FEFF 		bl	tp28xx_byte_write
  88              	.LVL9:
1101:TP2824/TP2802.c **** 
  89              		.loc 1 1101 0
  90 0026 10BD     		pop	{r4, pc}
  91              	.L6:
  92              		.align	2
  93              	.L5:
  94 0028 00000000 		.word	.LANCHOR0
  95              		.cfi_endproc
  96              	.LFE72:
  98              		.section	.text.tp28xx_SYSCLK_V2,"ax",%progbits
  99              		.align	1
 100              		.syntax unified
 101              		.thumb
 102              		.thumb_func
 103              		.fpu softvfp
 105              	tp28xx_SYSCLK_V2:
 106              	.LFB71:
1083:TP2824/TP2802.c ****     unsigned char tmp;
 107              		.loc 1 1083 0
 108              		.cfi_startproc
 109              		@ args = 0, pretend = 0, frame = 0
ARM GAS  /tmp/ccZU1AeU.s 			page 30


 110              		@ frame_needed = 0, uses_anonymous_args = 0
 111              	.LVL10:
 112 0000 10B5     		push	{r4, lr}
 113              	.LCFI2:
 114              		.cfi_def_cfa_offset 8
 115              		.cfi_offset 4, -8
 116              		.cfi_offset 14, -4
 117 0002 0446     		mov	r4, r0
1085:TP2824/TP2802.c ****     tmp |= SYS_MODE[ch];
 118              		.loc 1 1085 0
 119 0004 F520     		movs	r0, #245
 120              	.LVL11:
 121 0006 FFF7FEFF 		bl	tp28xx_byte_read
 122              	.LVL12:
1086:TP2824/TP2802.c ****     tp28xx_byte_write(0xf5, tmp);
 123              		.loc 1 1086 0
 124 000a 084B     		ldr	r3, .L9
 125 000c 195D     		ldrb	r1, [r3, r4]	@ zero_extendqisi2
 126 000e 0143     		orrs	r1, r1, r0
 127              	.LVL13:
1087:TP2824/TP2802.c ****     tmp = tp28xx_byte_read(0x35);
 128              		.loc 1 1087 0
 129 0010 C9B2     		uxtb	r1, r1
 130 0012 F520     		movs	r0, #245
 131 0014 FFF7FEFF 		bl	tp28xx_byte_write
 132              	.LVL14:
1088:TP2824/TP2802.c ****     tmp |= 0x20;
 133              		.loc 1 1088 0
 134 0018 3520     		movs	r0, #53
 135 001a FFF7FEFF 		bl	tp28xx_byte_read
 136              	.LVL15:
1089:TP2824/TP2802.c ****     tp28xx_byte_write(0x35, tmp);
 137              		.loc 1 1089 0
 138 001e 40F02001 		orr	r1, r0, #32
 139              	.LVL16:
1090:TP2824/TP2802.c **** }
 140              		.loc 1 1090 0
 141 0022 C9B2     		uxtb	r1, r1
 142 0024 3520     		movs	r0, #53
 143 0026 FFF7FEFF 		bl	tp28xx_byte_write
 144              	.LVL17:
1091:TP2824/TP2802.c **** static void tp28xx_SYSCLK_V1(unsigned char ch)
 145              		.loc 1 1091 0
 146 002a 10BD     		pop	{r4, pc}
 147              	.L10:
 148              		.align	2
 149              	.L9:
 150 002c 00000000 		.word	.LANCHOR1
 151              		.cfi_endproc
 152              	.LFE71:
 154              		.section	.text.tp2853C_reset_default,"ax",%progbits
 155              		.align	1
 156              		.syntax unified
 157              		.thumb
 158              		.thumb_func
 159              		.fpu softvfp
 161              	tp2853C_reset_default:
ARM GAS  /tmp/ccZU1AeU.s 			page 31


 162              	.LFB80:
1542:TP2824/TP2802.c **** static void tp2853C_reset_default(void)
1543:TP2824/TP2802.c **** {
 163              		.loc 1 1543 0
 164              		.cfi_startproc
 165              		@ args = 0, pretend = 0, frame = 0
 166              		@ frame_needed = 0, uses_anonymous_args = 0
 167 0000 08B5     		push	{r3, lr}
 168              	.LCFI3:
 169              		.cfi_def_cfa_offset 8
 170              		.cfi_offset 3, -8
 171              		.cfi_offset 14, -4
1544:TP2824/TP2802.c ****     unsigned char tmp;
1545:TP2824/TP2802.c ****     tp28xx_byte_write(0x07, 0xC0);
 172              		.loc 1 1545 0
 173 0002 C021     		movs	r1, #192
 174 0004 0720     		movs	r0, #7
 175 0006 FFF7FEFF 		bl	tp28xx_byte_write
 176              	.LVL18:
1546:TP2824/TP2802.c ****     tmp = tp28xx_byte_read(0x14);
 177              		.loc 1 1546 0
 178 000a 1420     		movs	r0, #20
 179 000c FFF7FEFF 		bl	tp28xx_byte_read
 180              	.LVL19:
1547:TP2824/TP2802.c ****     tmp &= 0x9f;
1548:TP2824/TP2802.c ****     tp28xx_byte_write(0x14, tmp);
 181              		.loc 1 1548 0
 182 0010 00F09F01 		and	r1, r0, #159
 183 0014 1420     		movs	r0, #20
 184              	.LVL20:
 185 0016 FFF7FEFF 		bl	tp28xx_byte_write
 186              	.LVL21:
1549:TP2824/TP2802.c ****     tp28xx_byte_write(0x13, 0x00);
 187              		.loc 1 1549 0
 188 001a 0021     		movs	r1, #0
 189 001c 1320     		movs	r0, #19
 190 001e FFF7FEFF 		bl	tp28xx_byte_write
 191              	.LVL22:
1550:TP2824/TP2802.c ****     tp28xx_byte_write(0x26, 0x04);
 192              		.loc 1 1550 0
 193 0022 0421     		movs	r1, #4
 194 0024 2620     		movs	r0, #38
 195 0026 FFF7FEFF 		bl	tp28xx_byte_write
 196              	.LVL23:
1551:TP2824/TP2802.c ****     tp28xx_byte_write(0x06, 0xb2);
 197              		.loc 1 1551 0
 198 002a B221     		movs	r1, #178
 199 002c 0620     		movs	r0, #6
 200 002e FFF7FEFF 		bl	tp28xx_byte_write
 201              	.LVL24:
1552:TP2824/TP2802.c **** }
 202              		.loc 1 1552 0
 203 0032 08BD     		pop	{r3, pc}
 204              		.cfi_endproc
 205              	.LFE80:
 207              		.section	.text.TP28xx_reset_default,"ax",%progbits
 208              		.align	1
ARM GAS  /tmp/ccZU1AeU.s 			page 32


 209              		.syntax unified
 210              		.thumb
 211              		.thumb_func
 212              		.fpu softvfp
 214              	TP28xx_reset_default:
 215              	.LFB81:
1553:TP2824/TP2802.c **** static void TP28xx_reset_default(int chip, unsigned char ch)
1554:TP2824/TP2802.c **** {
 216              		.loc 1 1554 0
 217              		.cfi_startproc
 218              		@ args = 0, pretend = 0, frame = 0
 219              		@ frame_needed = 0, uses_anonymous_args = 0
 220              	.LVL25:
 221 0000 08B5     		push	{r3, lr}
 222              	.LCFI4:
 223              		.cfi_def_cfa_offset 8
 224              		.cfi_offset 3, -8
 225              		.cfi_offset 14, -4
1555:TP2824/TP2802.c ****     /*    if(TP2823 == chip )
1556:TP2824/TP2802.c ****     	{
1557:TP2824/TP2802.c ****                tp282x_reset_AGC_CLK(ch);
1558:TP2824/TP2802.c ****     	}
1559:TP2824/TP2802.c ****         else if(TP2822 == chip )
1560:TP2824/TP2802.c ****     	{
1561:TP2824/TP2802.c ****                tp282x_reset_AGC_CLK(ch);
1562:TP2824/TP2802.c ****     		   tp28xx_byte_write(0x07, 0x40);
1563:TP2824/TP2802.c ****     	}
1564:TP2824/TP2802.c ****         else if(TP2802D == chip )
1565:TP2824/TP2802.c ****         {
1566:TP2824/TP2802.c ****                tp2802D_reset_default( ch);
1567:TP2824/TP2802.c ****         }
1568:TP2824/TP2802.c ****     */
1569:TP2824/TP2802.c ****     if(TP2834 == chip )
 226              		.loc 1 1569 0
 227 0002 2428     		cmp	r0, #36
 228 0004 06D0     		beq	.L19
1570:TP2824/TP2802.c ****     {
1571:TP2824/TP2802.c ****         tp2824_reset_default();
1572:TP2824/TP2802.c ****     }
1573:TP2824/TP2802.c ****     else if(TP2833 == chip )
 229              		.loc 1 1573 0
 230 0006 2528     		cmp	r0, #37
 231 0008 07D0     		beq	.L20
1574:TP2824/TP2802.c ****     {
1575:TP2824/TP2802.c ****         tp2853C_reset_default();
1576:TP2824/TP2802.c ****     }
1577:TP2824/TP2802.c ****     else if(TP2853C == chip )
 232              		.loc 1 1577 0
 233 000a 2628     		cmp	r0, #38
 234 000c 08D0     		beq	.L21
1578:TP2824/TP2802.c ****     {
1579:TP2824/TP2802.c ****         tp2853C_reset_default();
1580:TP2824/TP2802.c ****     }
1581:TP2824/TP2802.c **** 	else  //chunyu
1582:TP2824/TP2802.c **** 	{	
1583:TP2824/TP2802.c ****         tp2824_reset_default() ;   //chunyu
 235              		.loc 1 1583 0
ARM GAS  /tmp/ccZU1AeU.s 			page 33


 236 000e FFF7FEFF 		bl	tp2824_reset_default
 237              	.LVL26:
 238              	.L13:
1584:TP2824/TP2802.c **** 	}
1585:TP2824/TP2802.c **** }
 239              		.loc 1 1585 0
 240 0012 08BD     		pop	{r3, pc}
 241              	.LVL27:
 242              	.L19:
1571:TP2824/TP2802.c ****     }
 243              		.loc 1 1571 0
 244 0014 FFF7FEFF 		bl	tp2824_reset_default
 245              	.LVL28:
 246 0018 FBE7     		b	.L13
 247              	.LVL29:
 248              	.L20:
1575:TP2824/TP2802.c ****     }
 249              		.loc 1 1575 0
 250 001a FFF7FEFF 		bl	tp2853C_reset_default
 251              	.LVL30:
 252 001e F8E7     		b	.L13
 253              	.LVL31:
 254              	.L21:
1579:TP2824/TP2802.c ****     }
 255              		.loc 1 1579 0
 256 0020 FFF7FEFF 		bl	tp2853C_reset_default
 257              	.LVL32:
 258 0024 F5E7     		b	.L13
 259              		.cfi_endproc
 260              	.LFE81:
 262              		.section	.text.I2CDeviceSet1,"ax",%progbits
 263              		.align	1
 264              		.global	I2CDeviceSet1
 265              		.syntax unified
 266              		.thumb
 267              		.thumb_func
 268              		.fpu softvfp
 270              	I2CDeviceSet1:
 271              	.LFB68:
 929:TP2824/TP2802.c **** 	int	cnt=0;
 272              		.loc 1 929 0
 273              		.cfi_startproc
 274              		@ args = 0, pretend = 0, frame = 0
 275              		@ frame_needed = 0, uses_anonymous_args = 0
 276              	.LVL33:
 277 0000 10B5     		push	{r4, lr}
 278              	.LCFI5:
 279              		.cfi_def_cfa_offset 8
 280              		.cfi_offset 4, -8
 281              		.cfi_offset 14, -4
 282 0002 0446     		mov	r4, r0
 283              	.LVL34:
 940:TP2824/TP2802.c **** 
 284              		.loc 1 940 0
 285 0004 03E0     		b	.L23
 286              	.LVL35:
 287              	.L24:
ARM GAS  /tmp/ccZU1AeU.s 			page 34


 945:TP2824/TP2802.c **** 
 288              		.loc 1 945 0
 289 0006 6178     		ldrb	r1, [r4, #1]	@ zero_extendqisi2
 290 0008 FFF7FEFF 		bl	tp28xx_byte_write
 291              	.LVL36:
 949:TP2824/TP2802.c **** 
 292              		.loc 1 949 0
 293 000c 0234     		adds	r4, r4, #2
 294              	.LVL37:
 295              	.L23:
 940:TP2824/TP2802.c **** 
 296              		.loc 1 940 0
 297 000e 2078     		ldrb	r0, [r4]	@ zero_extendqisi2
 298 0010 FF28     		cmp	r0, #255
 299 0012 F8D1     		bne	.L24
 953:TP2824/TP2802.c **** }
 300              		.loc 1 953 0
 301 0014 3220     		movs	r0, #50
 302 0016 FFF7FEFF 		bl	delay
 303              	.LVL38:
 954:TP2824/TP2802.c **** 
 304              		.loc 1 954 0
 305 001a 10BD     		pop	{r4, pc}
 306              		.cfi_endproc
 307              	.LFE68:
 309              		.section	.text.I2CDeviceSet2,"ax",%progbits
 310              		.align	1
 311              		.global	I2CDeviceSet2
 312              		.syntax unified
 313              		.thumb
 314              		.thumb_func
 315              		.fpu softvfp
 317              	I2CDeviceSet2:
 318              	.LFB69:
 958:TP2824/TP2802.c **** 	int	cnt=0;
 319              		.loc 1 958 0
 320              		.cfi_startproc
 321              		@ args = 0, pretend = 0, frame = 0
 322              		@ frame_needed = 0, uses_anonymous_args = 0
 323              	.LVL39:
 324 0000 38B5     		push	{r3, r4, r5, lr}
 325              	.LCFI6:
 326              		.cfi_def_cfa_offset 16
 327              		.cfi_offset 3, -16
 328              		.cfi_offset 4, -12
 329              		.cfi_offset 5, -8
 330              		.cfi_offset 14, -4
 331 0002 0446     		mov	r4, r0
 332 0004 0D46     		mov	r5, r1
 333              	.LVL40:
 962:TP2824/TP2802.c **** 
 334              		.loc 1 962 0
 335 0006 04E0     		b	.L27
 336              	.LVL41:
 337              	.L28:
 967:TP2824/TP2802.c **** 
 338              		.loc 1 967 0
ARM GAS  /tmp/ccZU1AeU.s 			page 35


 339 0008 15F8011B 		ldrb	r1, [r5], #1	@ zero_extendqisi2
 340              	.LVL42:
 341 000c FFF7FEFF 		bl	tp28xx_byte_write
 342              	.LVL43:
 971:TP2824/TP2802.c **** 		DatSet++;
 343              		.loc 1 971 0
 344 0010 0134     		adds	r4, r4, #1
 345              	.LVL44:
 346              	.L27:
 962:TP2824/TP2802.c **** 
 347              		.loc 1 962 0
 348 0012 2078     		ldrb	r0, [r4]	@ zero_extendqisi2
 349 0014 FF28     		cmp	r0, #255
 350 0016 F7D1     		bne	.L28
 976:TP2824/TP2802.c **** }
 351              		.loc 1 976 0
 352 0018 3220     		movs	r0, #50
 353 001a FFF7FEFF 		bl	delay
 354              	.LVL45:
 977:TP2824/TP2802.c **** 
 355              		.loc 1 977 0
 356 001e 38BD     		pop	{r3, r4, r5, pc}
 357              		.cfi_endproc
 358              	.LFE69:
 360              		.section	.text.SetRegPage,"ax",%progbits
 361              		.align	1
 362              		.global	SetRegPage
 363              		.syntax unified
 364              		.thumb
 365              		.thumb_func
 366              		.fpu softvfp
 368              	SetRegPage:
 369              	.LFB70:
 980:TP2824/TP2802.c ****     //tByte tmp;
 370              		.loc 1 980 0
 371              		.cfi_startproc
 372              		@ args = 0, pretend = 0, frame = 0
 373              		@ frame_needed = 0, uses_anonymous_args = 0
 374              	.LVL46:
 375 0000 08B5     		push	{r3, lr}
 376              	.LCFI7:
 377              		.cfi_def_cfa_offset 8
 378              		.cfi_offset 3, -8
 379              		.cfi_offset 14, -4
 983:TP2824/TP2802.c ****     //tp28xx_byte_write(0x40,0x04); //chunyu
 380              		.loc 1 983 0
 381 0002 0146     		mov	r1, r0
 382 0004 4020     		movs	r0, #64
 383              	.LVL47:
 384 0006 FFF7FEFF 		bl	tp28xx_byte_write
 385              	.LVL48:
 986:TP2824/TP2802.c **** 
 386              		.loc 1 986 0
 387 000a 08BD     		pop	{r3, pc}
 388              		.cfi_endproc
 389              	.LFE70:
 391              		.section	.text.Set_VidRes,"ax",%progbits
ARM GAS  /tmp/ccZU1AeU.s 			page 36


 392              		.align	1
 393              		.global	Set_VidRes
 394              		.syntax unified
 395              		.thumb
 396              		.thumb_func
 397              		.fpu softvfp
 399              	Set_VidRes:
 400              	.LFB73:
1104:TP2824/TP2802.c ****     tByte index, sys, tmp;
 401              		.loc 1 1104 0
 402              		.cfi_startproc
 403              		@ args = 0, pretend = 0, frame = 0
 404              		@ frame_needed = 0, uses_anonymous_args = 0
 405              	.LVL49:
 406 0000 70B5     		push	{r4, r5, r6, lr}
 407              	.LCFI8:
 408              		.cfi_def_cfa_offset 16
 409              		.cfi_offset 4, -16
 410              		.cfi_offset 5, -12
 411              		.cfi_offset 6, -8
 412              		.cfi_offset 14, -4
 413 0002 0646     		mov	r6, r0
 414              	.LVL50:
1108:TP2824/TP2802.c ****     {
 415              		.loc 1 1108 0
 416 0004 9C4B     		ldr	r3, .L69
 417 0006 1B5C     		ldrb	r3, [r3, r0]	@ zero_extendqisi2
 418 0008 262B     		cmp	r3, #38
 419 000a 00F2F980 		bhi	.L60
 420 000e DFE813F0 		tbh	[pc, r3, lsl #1]
 421              	.L35:
 422 0012 7600     		.2byte	(.L34-.L35)/2
 423 0014 8800     		.2byte	(.L36-.L35)/2
 424 0016 2700     		.2byte	(.L37-.L35)/2
 425 0018 6E00     		.2byte	(.L38-.L35)/2
 426 001a 9A00     		.2byte	(.L39-.L35)/2
 427 001c A300     		.2byte	(.L40-.L35)/2
 428 001e F700     		.2byte	(.L60-.L35)/2
 429 0020 F700     		.2byte	(.L60-.L35)/2
 430 0022 B500     		.2byte	(.L41-.L35)/2
 431 0024 AC00     		.2byte	(.L42-.L35)/2
 432 0026 F700     		.2byte	(.L60-.L35)/2
 433 0028 F700     		.2byte	(.L60-.L35)/2
 434 002a 7F00     		.2byte	(.L43-.L35)/2
 435 002c 9100     		.2byte	(.L44-.L35)/2
 436 002e F700     		.2byte	(.L60-.L35)/2
 437 0030 F700     		.2byte	(.L60-.L35)/2
 438 0032 F700     		.2byte	(.L60-.L35)/2
 439 0034 F700     		.2byte	(.L60-.L35)/2
 440 0036 F700     		.2byte	(.L60-.L35)/2
 441 0038 F700     		.2byte	(.L60-.L35)/2
 442 003a F700     		.2byte	(.L60-.L35)/2
 443 003c F700     		.2byte	(.L60-.L35)/2
 444 003e F700     		.2byte	(.L60-.L35)/2
 445 0040 F700     		.2byte	(.L60-.L35)/2
 446 0042 F700     		.2byte	(.L60-.L35)/2
 447 0044 F700     		.2byte	(.L60-.L35)/2
ARM GAS  /tmp/ccZU1AeU.s 			page 37


 448 0046 F700     		.2byte	(.L60-.L35)/2
 449 0048 F700     		.2byte	(.L60-.L35)/2
 450 004a F700     		.2byte	(.L60-.L35)/2
 451 004c F700     		.2byte	(.L60-.L35)/2
 452 004e F700     		.2byte	(.L60-.L35)/2
 453 0050 F700     		.2byte	(.L60-.L35)/2
 454 0052 BE00     		.2byte	(.L45-.L35)/2
 455 0054 C600     		.2byte	(.L46-.L35)/2
 456 0056 CE00     		.2byte	(.L47-.L35)/2
 457 0058 D600     		.2byte	(.L48-.L35)/2
 458 005a DE00     		.2byte	(.L49-.L35)/2
 459 005c E600     		.2byte	(.L50-.L35)/2
 460 005e EE00     		.2byte	(.L51-.L35)/2
 461              		.p2align 1
 462              	.L37:
 463              	.LVL51:
1113:TP2824/TP2802.c ****         printf("1080p30");
 464              		.loc 1 1113 0
 465 0060 0124     		movs	r4, #1
 466 0062 864B     		ldr	r3, .L69+4
 467 0064 1C70     		strb	r4, [r3]
1114:TP2824/TP2802.c ****         break;
 468              		.loc 1 1114 0
 469 0066 8648     		ldr	r0, .L69+8
 470              	.LVL52:
 471 0068 FFF7FEFF 		bl	printf
 472              	.LVL53:
1112:TP2824/TP2802.c ****         ManVidResRx=RES1920X1080;
 473              		.loc 1 1112 0
 474 006c 2546     		mov	r5, r4
 475              	.LVL54:
 476              	.L33:
1233:TP2824/TP2802.c **** 
 477              		.loc 1 1233 0
 478 006e 8548     		ldr	r0, .L69+12
 479 0070 FFF7FEFF 		bl	puts
 480              	.LVL55:
1236:TP2824/TP2802.c ****     //	printf("chip= 0x%4x\r\n",chip);
 481              		.loc 1 1236 0
 482 0074 8448     		ldr	r0, .L69+16
 483 0076 04EB4401 		add	r1, r4, r4, lsl #1
 484 007a 04EB8101 		add	r1, r4, r1, lsl #2
 485 007e 0144     		add	r1, r1, r0
 486 0080 FFF7FEFF 		bl	I2CDeviceSet2
 487              	.LVL56:
1238:TP2824/TP2802.c **** {
 488              		.loc 1 1238 0
 489 0084 7C4B     		ldr	r3, .L69
 490 0086 9B5D     		ldrb	r3, [r3, r6]	@ zero_extendqisi2
 491 0088 022B     		cmp	r3, #2
 492 008a 00F0BC80 		beq	.L62
 493              	.L52:
1243:TP2824/TP2802.c ****     {
 494              		.loc 1 1243 0
 495 008e 7F4B     		ldr	r3, .L69+20
 496 0090 1B78     		ldrb	r3, [r3]	@ zero_extendqisi2
 497 0092 262B     		cmp	r3, #38
ARM GAS  /tmp/ccZU1AeU.s 			page 38


 498 0094 00F0BC80 		beq	.L63
1247:TP2824/TP2802.c ****     {
 499              		.loc 1 1247 0
 500 0098 252B     		cmp	r3, #37
 501 009a 00F0C180 		beq	.L64
1251:TP2824/TP2802.c ****     {
 502              		.loc 1 1251 0
 503 009e 242B     		cmp	r3, #36
 504 00a0 00F0C680 		beq	.L65
 505              	.L54:
1255:TP2824/TP2802.c ****     {
 506              		.loc 1 1255 0
 507 00a4 794B     		ldr	r3, .L69+20
 508 00a6 1B78     		ldrb	r3, [r3]	@ zero_extendqisi2
 509 00a8 2F2B     		cmp	r3, #47
 510 00aa 00F0CA80 		beq	.L66
 511              	.L56:
1260:TP2824/TP2802.c ****     {
 512              		.loc 1 1260 0
 513 00ae 774B     		ldr	r3, .L69+20
 514 00b0 1B78     		ldrb	r3, [r3]	@ zero_extendqisi2
 515 00b2 272B     		cmp	r3, #39
 516 00b4 00F0D080 		beq	.L67
 517              	.L57:
1266:TP2824/TP2802.c ****         tp28xx_SYSCLK_V1(ch);
 518              		.loc 1 1266 0
 519 00b8 012D     		cmp	r5, #1
 520 00ba 00F0D880 		beq	.L68
1269:TP2824/TP2802.c **** 
 521              		.loc 1 1269 0
 522 00be 3046     		mov	r0, r6
 523 00c0 FFF7FEFF 		bl	tp28xx_SYSCLK_V2
 524              	.LVL57:
 525              	.L59:
1271:TP2824/TP2802.c ****     tmp=tp28xx_byte_read(0x14);
 526              		.loc 1 1271 0
 527 00c4 0021     		movs	r1, #0
 528 00c6 1320     		movs	r0, #19
 529 00c8 FFF7FEFF 		bl	tp28xx_byte_write
 530              	.LVL58:
1272:TP2824/TP2802.c ****     tmp &= 0x9f;
 531              		.loc 1 1272 0
 532 00cc 1420     		movs	r0, #20
 533 00ce FFF7FEFF 		bl	tp28xx_byte_read
 534              	.LVL59:
1274:TP2824/TP2802.c **** 
 535              		.loc 1 1274 0
 536 00d2 00F09F01 		and	r1, r0, #159
 537 00d6 1420     		movs	r0, #20
 538              	.LVL60:
 539 00d8 FFF7FEFF 		bl	tp28xx_byte_write
 540              	.LVL61:
1277:TP2824/TP2802.c ****     tmp &= 0x7f;
 541              		.loc 1 1277 0
 542 00dc 0220     		movs	r0, #2
 543 00de FFF7FEFF 		bl	tp28xx_byte_read
 544              	.LVL62:
ARM GAS  /tmp/ccZU1AeU.s 			page 39


1279:TP2824/TP2802.c **** #else
 545              		.loc 1 1279 0
 546 00e2 00F07F01 		and	r1, r0, #127
 547 00e6 0220     		movs	r0, #2
 548              	.LVL63:
 549 00e8 FFF7FEFF 		bl	tp28xx_byte_write
 550              	.LVL64:
1285:TP2824/TP2802.c **** 
 551              		.loc 1 1285 0
 552 00ec 70BD     		pop	{r4, r5, r6, pc}
 553              	.LVL65:
 554              	.L38:
1120:TP2824/TP2802.c ****         printf("1080p25");
 555              		.loc 1 1120 0
 556 00ee 0125     		movs	r5, #1
 557 00f0 624B     		ldr	r3, .L69+4
 558 00f2 1D70     		strb	r5, [r3]
1121:TP2824/TP2802.c ****         break;
 559              		.loc 1 1121 0
 560 00f4 6648     		ldr	r0, .L69+24
 561              	.LVL66:
 562 00f6 FFF7FEFF 		bl	printf
 563              	.LVL67:
1118:TP2824/TP2802.c ****         sys=1;//V1
 564              		.loc 1 1118 0
 565 00fa 0224     		movs	r4, #2
1122:TP2824/TP2802.c **** 
 566              		.loc 1 1122 0
 567 00fc B7E7     		b	.L33
 568              	.LVL68:
 569              	.L34:
1127:TP2824/TP2802.c ****         printf("720p60");
 570              		.loc 1 1127 0
 571 00fe 5F4B     		ldr	r3, .L69+4
 572 0100 0022     		movs	r2, #0
 573 0102 1A70     		strb	r2, [r3]
1128:TP2824/TP2802.c ****         break;
 574              		.loc 1 1128 0
 575 0104 6348     		ldr	r0, .L69+28
 576              	.LVL69:
 577 0106 FFF7FEFF 		bl	printf
 578              	.LVL70:
1126:TP2824/TP2802.c ****         ManVidResRx=RES1280X720;
 579              		.loc 1 1126 0
 580 010a 0125     		movs	r5, #1
1125:TP2824/TP2802.c ****         sys=1;//V1
 581              		.loc 1 1125 0
 582 010c 0324     		movs	r4, #3
1129:TP2824/TP2802.c **** 
 583              		.loc 1 1129 0
 584 010e AEE7     		b	.L33
 585              	.LVL71:
 586              	.L43:
1134:TP2824/TP2802.c ****         printf("720p30V2");
 587              		.loc 1 1134 0
 588 0110 5A4B     		ldr	r3, .L69+4
 589 0112 0022     		movs	r2, #0
ARM GAS  /tmp/ccZU1AeU.s 			page 40


 590 0114 1A70     		strb	r2, [r3]
1135:TP2824/TP2802.c ****         break;
 591              		.loc 1 1135 0
 592 0116 6048     		ldr	r0, .L69+32
 593              	.LVL72:
 594 0118 FFF7FEFF 		bl	printf
 595              	.LVL73:
1133:TP2824/TP2802.c ****         ManVidResRx=RES1280X720;
 596              		.loc 1 1133 0
 597 011c 0225     		movs	r5, #2
1132:TP2824/TP2802.c ****         sys=2;//V2
 598              		.loc 1 1132 0
 599 011e 0B24     		movs	r4, #11
1136:TP2824/TP2802.c **** 
 600              		.loc 1 1136 0
 601 0120 A5E7     		b	.L33
 602              	.LVL74:
 603              	.L36:
1141:TP2824/TP2802.c ****         printf("720p50");
 604              		.loc 1 1141 0
 605 0122 564B     		ldr	r3, .L69+4
 606 0124 0022     		movs	r2, #0
 607 0126 1A70     		strb	r2, [r3]
1142:TP2824/TP2802.c ****         break;
 608              		.loc 1 1142 0
 609 0128 5C48     		ldr	r0, .L69+36
 610              	.LVL75:
 611 012a FFF7FEFF 		bl	printf
 612              	.LVL76:
1140:TP2824/TP2802.c ****         ManVidResRx=RES1280X720;
 613              		.loc 1 1140 0
 614 012e 0125     		movs	r5, #1
1139:TP2824/TP2802.c ****         sys=1;//V1
 615              		.loc 1 1139 0
 616 0130 0424     		movs	r4, #4
1143:TP2824/TP2802.c **** 
 617              		.loc 1 1143 0
 618 0132 9CE7     		b	.L33
 619              	.LVL77:
 620              	.L44:
1148:TP2824/TP2802.c ****         printf("720p25V2");
 621              		.loc 1 1148 0
 622 0134 514B     		ldr	r3, .L69+4
 623 0136 0022     		movs	r2, #0
 624 0138 1A70     		strb	r2, [r3]
1149:TP2824/TP2802.c ****         break;
 625              		.loc 1 1149 0
 626 013a 5948     		ldr	r0, .L69+40
 627              	.LVL78:
 628 013c FFF7FEFF 		bl	printf
 629              	.LVL79:
1147:TP2824/TP2802.c ****         ManVidResRx=RES1280X720;
 630              		.loc 1 1147 0
 631 0140 0225     		movs	r5, #2
1146:TP2824/TP2802.c ****         sys=2;//V2
 632              		.loc 1 1146 0
 633 0142 0C24     		movs	r4, #12
ARM GAS  /tmp/ccZU1AeU.s 			page 41


1150:TP2824/TP2802.c **** 
 634              		.loc 1 1150 0
 635 0144 93E7     		b	.L33
 636              	.LVL80:
 637              	.L39:
1155:TP2824/TP2802.c ****         printf("720p30");
 638              		.loc 1 1155 0
 639 0146 4D4B     		ldr	r3, .L69+4
 640 0148 0022     		movs	r2, #0
 641 014a 1A70     		strb	r2, [r3]
1156:TP2824/TP2802.c ****         break;
 642              		.loc 1 1156 0
 643 014c 5548     		ldr	r0, .L69+44
 644              	.LVL81:
 645 014e FFF7FEFF 		bl	printf
 646              	.LVL82:
1154:TP2824/TP2802.c ****         ManVidResRx=RES1280X720;
 647              		.loc 1 1154 0
 648 0152 0125     		movs	r5, #1
1153:TP2824/TP2802.c ****         sys=1;//V1
 649              		.loc 1 1153 0
 650 0154 0524     		movs	r4, #5
1157:TP2824/TP2802.c **** 
 651              		.loc 1 1157 0
 652 0156 8AE7     		b	.L33
 653              	.LVL83:
 654              	.L40:
1162:TP2824/TP2802.c ****         printf("720p25");
 655              		.loc 1 1162 0
 656 0158 484B     		ldr	r3, .L69+4
 657 015a 0022     		movs	r2, #0
 658 015c 1A70     		strb	r2, [r3]
1163:TP2824/TP2802.c ****         break;
 659              		.loc 1 1163 0
 660 015e 5248     		ldr	r0, .L69+48
 661              	.LVL84:
 662 0160 FFF7FEFF 		bl	printf
 663              	.LVL85:
1161:TP2824/TP2802.c ****         ManVidResRx=RES1280X720;
 664              		.loc 1 1161 0
 665 0164 0125     		movs	r5, #1
1160:TP2824/TP2802.c ****         sys=1;//V1
 666              		.loc 1 1160 0
 667 0166 0624     		movs	r4, #6
1164:TP2824/TP2802.c **** 
 668              		.loc 1 1164 0
 669 0168 81E7     		b	.L33
 670              	.LVL86:
 671              	.L42:
1169:TP2824/TP2802.c ****         printf("PAL");
 672              		.loc 1 1169 0
 673 016a 444B     		ldr	r3, .L69+4
 674 016c 0322     		movs	r2, #3
 675 016e 1A70     		strb	r2, [r3]
1170:TP2824/TP2802.c ****         break;
 676              		.loc 1 1170 0
 677 0170 4E48     		ldr	r0, .L69+52
ARM GAS  /tmp/ccZU1AeU.s 			page 42


 678              	.LVL87:
 679 0172 FFF7FEFF 		bl	printf
 680              	.LVL88:
1168:TP2824/TP2802.c ****         ManVidResRx=RES1920X576;
 681              		.loc 1 1168 0
 682 0176 0425     		movs	r5, #4
1167:TP2824/TP2802.c ****         sys=4;
 683              		.loc 1 1167 0
 684 0178 0824     		movs	r4, #8
1171:TP2824/TP2802.c **** 
 685              		.loc 1 1171 0
 686 017a 78E7     		b	.L33
 687              	.LVL89:
 688              	.L41:
1176:TP2824/TP2802.c ****         printf("NTSC");
 689              		.loc 1 1176 0
 690 017c 3F4B     		ldr	r3, .L69+4
 691 017e 0222     		movs	r2, #2
 692 0180 1A70     		strb	r2, [r3]
1177:TP2824/TP2802.c ****         break;
 693              		.loc 1 1177 0
 694 0182 4B48     		ldr	r0, .L69+56
 695              	.LVL90:
 696 0184 FFF7FEFF 		bl	printf
 697              	.LVL91:
1175:TP2824/TP2802.c ****         ManVidResRx=RES1920X480;
 698              		.loc 1 1175 0
 699 0188 0325     		movs	r5, #3
1174:TP2824/TP2802.c ****         sys=3;
 700              		.loc 1 1174 0
 701 018a 0724     		movs	r4, #7
1178:TP2824/TP2802.c **** 
 702              		.loc 1 1178 0
 703 018c 6FE7     		b	.L33
 704              	.LVL92:
 705              	.L45:
1183:TP2824/TP2802.c ****         printf("3M18");
 706              		.loc 1 1183 0
 707 018e 0125     		movs	r5, #1
 708 0190 3A4B     		ldr	r3, .L69+4
 709 0192 1D70     		strb	r5, [r3]
1184:TP2824/TP2802.c ****         break;
 710              		.loc 1 1184 0
 711 0194 4748     		ldr	r0, .L69+60
 712              	.LVL93:
 713 0196 FFF7FEFF 		bl	printf
 714              	.LVL94:
1181:TP2824/TP2802.c ****         sys=1;//V1
 715              		.loc 1 1181 0
 716 019a 0924     		movs	r4, #9
1185:TP2824/TP2802.c **** 
 717              		.loc 1 1185 0
 718 019c 67E7     		b	.L33
 719              	.LVL95:
 720              	.L46:
1190:TP2824/TP2802.c ****         printf("5M12");
 721              		.loc 1 1190 0
ARM GAS  /tmp/ccZU1AeU.s 			page 43


 722 019e 0125     		movs	r5, #1
 723 01a0 364B     		ldr	r3, .L69+4
 724 01a2 1D70     		strb	r5, [r3]
1191:TP2824/TP2802.c ****         break;
 725              		.loc 1 1191 0
 726 01a4 4448     		ldr	r0, .L69+64
 727              	.LVL96:
 728 01a6 FFF7FEFF 		bl	printf
 729              	.LVL97:
1188:TP2824/TP2802.c ****         sys=1;//V1
 730              		.loc 1 1188 0
 731 01aa 0A24     		movs	r4, #10
1192:TP2824/TP2802.c **** 
 732              		.loc 1 1192 0
 733 01ac 5FE7     		b	.L33
 734              	.LVL98:
 735              	.L47:
1197:TP2824/TP2802.c ****         printf("4M15");
 736              		.loc 1 1197 0
 737 01ae 0125     		movs	r5, #1
 738 01b0 324B     		ldr	r3, .L69+4
 739 01b2 1D70     		strb	r5, [r3]
1198:TP2824/TP2802.c ****         break;
 740              		.loc 1 1198 0
 741 01b4 4148     		ldr	r0, .L69+68
 742              	.LVL99:
 743 01b6 FFF7FEFF 		bl	printf
 744              	.LVL100:
1195:TP2824/TP2802.c ****         sys=1;//V1
 745              		.loc 1 1195 0
 746 01ba 0D24     		movs	r4, #13
1199:TP2824/TP2802.c **** 
 747              		.loc 1 1199 0
 748 01bc 57E7     		b	.L33
 749              	.LVL101:
 750              	.L48:
1204:TP2824/TP2802.c ****         printf("3M20");
 751              		.loc 1 1204 0
 752 01be 0125     		movs	r5, #1
 753 01c0 2E4B     		ldr	r3, .L69+4
 754 01c2 1D70     		strb	r5, [r3]
1205:TP2824/TP2802.c ****         break;
 755              		.loc 1 1205 0
 756 01c4 3E48     		ldr	r0, .L69+72
 757              	.LVL102:
 758 01c6 FFF7FEFF 		bl	printf
 759              	.LVL103:
1202:TP2824/TP2802.c ****         sys=1;//V1
 760              		.loc 1 1202 0
 761 01ca 0E24     		movs	r4, #14
1206:TP2824/TP2802.c **** 
 762              		.loc 1 1206 0
 763 01cc 4FE7     		b	.L33
 764              	.LVL104:
 765              	.L49:
1211:TP2824/TP2802.c ****         printf("4M12");
 766              		.loc 1 1211 0
ARM GAS  /tmp/ccZU1AeU.s 			page 44


 767 01ce 0125     		movs	r5, #1
 768 01d0 2A4B     		ldr	r3, .L69+4
 769 01d2 1D70     		strb	r5, [r3]
1212:TP2824/TP2802.c ****         break;
 770              		.loc 1 1212 0
 771 01d4 3B48     		ldr	r0, .L69+76
 772              	.LVL105:
 773 01d6 FFF7FEFF 		bl	printf
 774              	.LVL106:
1209:TP2824/TP2802.c ****         sys=1;//V1
 775              		.loc 1 1209 0
 776 01da 0F24     		movs	r4, #15
1213:TP2824/TP2802.c **** 
 777              		.loc 1 1213 0
 778 01dc 47E7     		b	.L33
 779              	.LVL107:
 780              	.L50:
1218:TP2824/TP2802.c ****         printf("6M10");
 781              		.loc 1 1218 0
 782 01de 0125     		movs	r5, #1
 783 01e0 264B     		ldr	r3, .L69+4
 784 01e2 1D70     		strb	r5, [r3]
1219:TP2824/TP2802.c ****         break;
 785              		.loc 1 1219 0
 786 01e4 3848     		ldr	r0, .L69+80
 787              	.LVL108:
 788 01e6 FFF7FEFF 		bl	printf
 789              	.LVL109:
1216:TP2824/TP2802.c ****         sys=1;//V1
 790              		.loc 1 1216 0
 791 01ea 1024     		movs	r4, #16
1220:TP2824/TP2802.c **** 
 792              		.loc 1 1220 0
 793 01ec 3FE7     		b	.L33
 794              	.LVL110:
 795              	.L51:
1225:TP2824/TP2802.c ****         printf("4M30");
 796              		.loc 1 1225 0
 797 01ee 234B     		ldr	r3, .L69+4
 798 01f0 0022     		movs	r2, #0
 799 01f2 1A70     		strb	r2, [r3]
1226:TP2824/TP2802.c ****         break;
 800              		.loc 1 1226 0
 801 01f4 3548     		ldr	r0, .L69+84
 802              	.LVL111:
 803 01f6 FFF7FEFF 		bl	printf
 804              	.LVL112:
1224:TP2824/TP2802.c ****         ManVidResRx=RES1280X720;
 805              		.loc 1 1224 0
 806 01fa 0125     		movs	r5, #1
1223:TP2824/TP2802.c ****         sys=1;//V1
 807              		.loc 1 1223 0
 808 01fc 1124     		movs	r4, #17
1227:TP2824/TP2802.c **** 
 809              		.loc 1 1227 0
 810 01fe 36E7     		b	.L33
 811              	.LVL113:
ARM GAS  /tmp/ccZU1AeU.s 			page 45


 812              	.L60:
1106:TP2824/TP2802.c ****     //printf("Set_VidRes");
 813              		.loc 1 1106 0
 814 0200 0125     		movs	r5, #1
1230:TP2824/TP2802.c ****         break;
 815              		.loc 1 1230 0
 816 0202 2C46     		mov	r4, r5
 817 0204 33E7     		b	.L33
 818              	.LVL114:
 819              	.L62:
1240:TP2824/TP2802.c **** }
 820              		.loc 1 1240 0
 821 0206 CE21     		movs	r1, #206
 822 0208 1620     		movs	r0, #22
 823 020a FFF7FEFF 		bl	tp28xx_byte_write
 824              	.LVL115:
 825 020e 3EE7     		b	.L52
 826              	.L63:
1245:TP2824/TP2802.c ****     }
 827              		.loc 1 1245 0
 828 0210 2F48     		ldr	r0, .L69+88
 829 0212 05EBC503 		add	r3, r5, r5, lsl #3
 830 0216 5900     		lsls	r1, r3, #1
 831 0218 0144     		add	r1, r1, r0
 832 021a FFF7FEFF 		bl	I2CDeviceSet2
 833              	.LVL116:
 834 021e 41E7     		b	.L54
 835              	.L64:
1249:TP2824/TP2802.c ****     }
 836              		.loc 1 1249 0
 837 0220 2C48     		ldr	r0, .L69+92
 838 0222 C5EBC503 		rsb	r3, r5, r5, lsl #3
 839 0226 5900     		lsls	r1, r3, #1
 840 0228 0144     		add	r1, r1, r0
 841 022a FFF7FEFF 		bl	I2CDeviceSet2
 842              	.LVL117:
 843 022e 39E7     		b	.L54
 844              	.L65:
1253:TP2824/TP2802.c ****     }
 845              		.loc 1 1253 0
 846 0230 2948     		ldr	r0, .L69+96
 847 0232 05EB4501 		add	r1, r5, r5, lsl #1
 848 0236 05EB8101 		add	r1, r5, r1, lsl #2
 849 023a 0144     		add	r1, r1, r0
 850 023c FFF7FEFF 		bl	I2CDeviceSet2
 851              	.LVL118:
 852 0240 30E7     		b	.L54
 853              	.L66:
1257:TP2824/TP2802.c ****         I2CDeviceSet2( TP2826_MODE_DataSet[0],TP2826_MODE_DataSet[sys] );
 854              		.loc 1 1257 0
 855 0242 2648     		ldr	r0, .L69+100
 856 0244 FFF7FEFF 		bl	puts
 857              	.LVL119:
1258:TP2824/TP2802.c ****     }
 858              		.loc 1 1258 0
 859 0248 2548     		ldr	r0, .L69+104
 860 024a 05EB8503 		add	r3, r5, r5, lsl #2
ARM GAS  /tmp/ccZU1AeU.s 			page 46


 861 024e 9900     		lsls	r1, r3, #2
 862 0250 0144     		add	r1, r1, r0
 863 0252 FFF7FEFF 		bl	I2CDeviceSet2
 864              	.LVL120:
 865 0256 2AE7     		b	.L56
 866              	.L67:
1262:TP2824/TP2802.c ****         I2CDeviceSet2( TP2824C_MODE_DataSet[0],TP2824C_MODE_DataSet[sys] );
 867              		.loc 1 1262 0
 868 0258 2248     		ldr	r0, .L69+108
 869 025a FFF7FEFF 		bl	puts
 870              	.LVL121:
1263:TP2824/TP2802.c ****     }
 871              		.loc 1 1263 0
 872 025e 2248     		ldr	r0, .L69+112
 873 0260 05EB8503 		add	r3, r5, r5, lsl #2
 874 0264 9900     		lsls	r1, r3, #2
 875 0266 0144     		add	r1, r1, r0
 876 0268 FFF7FEFF 		bl	I2CDeviceSet2
 877              	.LVL122:
 878 026c 24E7     		b	.L57
 879              	.L68:
1267:TP2824/TP2802.c ****     else
 880              		.loc 1 1267 0
 881 026e 3046     		mov	r0, r6
 882 0270 FFF7FEFF 		bl	tp28xx_SYSCLK_V1
 883              	.LVL123:
 884 0274 26E7     		b	.L59
 885              	.L70:
 886 0276 00BF     		.align	2
 887              	.L69:
 888 0278 00000000 		.word	mode
 889 027c 00000000 		.word	ManVidResRx
 890 0280 00000000 		.word	.LC0
 891 0284 8C000000 		.word	.LC17
 892 0288 00000000 		.word	.LANCHOR2
 893 028c 00000000 		.word	chip
 894 0290 08000000 		.word	.LC1
 895 0294 10000000 		.word	.LC2
 896 0298 18000000 		.word	.LC3
 897 029c 24000000 		.word	.LC4
 898 02a0 2C000000 		.word	.LC5
 899 02a4 38000000 		.word	.LC6
 900 02a8 40000000 		.word	.LC7
 901 02ac 48000000 		.word	.LC8
 902 02b0 4C000000 		.word	.LC9
 903 02b4 54000000 		.word	.LC10
 904 02b8 5C000000 		.word	.LC11
 905 02bc 64000000 		.word	.LC12
 906 02c0 6C000000 		.word	.LC13
 907 02c4 74000000 		.word	.LC14
 908 02c8 7C000000 		.word	.LC15
 909 02cc 84000000 		.word	.LC16
 910 02d0 00000000 		.word	.LANCHOR3
 911 02d4 00000000 		.word	.LANCHOR4
 912 02d8 00000000 		.word	.LANCHOR5
 913 02dc 94000000 		.word	.LC18
 914 02e0 00000000 		.word	.LANCHOR6
ARM GAS  /tmp/ccZU1AeU.s 			page 47


 915 02e4 A8000000 		.word	.LC19
 916 02e8 00000000 		.word	.LANCHOR7
 917              		.cfi_endproc
 918              	.LFE73:
 920              		.section	.text.Set_HDA,"ax",%progbits
 921              		.align	1
 922              		.global	Set_HDA
 923              		.syntax unified
 924              		.thumb
 925              		.thumb_func
 926              		.fpu softvfp
 928              	Set_HDA:
 929              	.LFB74:
1288:TP2824/TP2802.c **** 
 930              		.loc 1 1288 0
 931              		.cfi_startproc
 932              		@ args = 0, pretend = 0, frame = 0
 933              		@ frame_needed = 0, uses_anonymous_args = 0
 934              	.LVL124:
 935 0000 10B5     		push	{r4, lr}
 936              	.LCFI9:
 937              		.cfi_def_cfa_offset 8
 938              		.cfi_offset 4, -8
 939              		.cfi_offset 14, -4
 940              	.LVL125:
1293:TP2824/TP2802.c ****     {
 941              		.loc 1 1293 0
 942 0002 274B     		ldr	r3, .L89
 943 0004 1B5C     		ldrb	r3, [r3, r0]	@ zero_extendqisi2
 944 0006 0D2B     		cmp	r3, #13
 945 0008 47D8     		bhi	.L82
 946 000a DFE803F0 		tbb	[pc, r3]
 947              	.L74:
 948 000e 0D       		.byte	(.L83-.L74)/2
 949 000f 07       		.byte	(.L75-.L74)/2
 950 0010 0B       		.byte	(.L76-.L74)/2
 951 0011 09       		.byte	(.L77-.L74)/2
 952 0012 46       		.byte	(.L82-.L74)/2
 953 0013 46       		.byte	(.L82-.L74)/2
 954 0014 46       		.byte	(.L82-.L74)/2
 955 0015 46       		.byte	(.L82-.L74)/2
 956 0016 46       		.byte	(.L82-.L74)/2
 957 0017 46       		.byte	(.L82-.L74)/2
 958 0018 46       		.byte	(.L82-.L74)/2
 959 0019 46       		.byte	(.L82-.L74)/2
 960 001a 0D       		.byte	(.L83-.L74)/2
 961 001b 07       		.byte	(.L75-.L74)/2
 962              		.p2align 1
 963              	.L75:
1310:TP2824/TP2802.c ****         break;
 964              		.loc 1 1310 0
 965 001c 0224     		movs	r4, #2
 966 001e 04E0     		b	.L73
 967              	.L77:
 968              	.LVL126:
1300:TP2824/TP2802.c ****         break;
 969              		.loc 1 1300 0
ARM GAS  /tmp/ccZU1AeU.s 			page 48


 970 0020 0424     		movs	r4, #4
 971 0022 02E0     		b	.L73
 972              	.LVL127:
 973              	.L76:
1296:TP2824/TP2802.c ****         break;
 974              		.loc 1 1296 0
 975 0024 0324     		movs	r4, #3
 976 0026 00E0     		b	.L73
 977              	.LVL128:
 978              	.L83:
1305:TP2824/TP2802.c ****         break;
 979              		.loc 1 1305 0
 980 0028 0124     		movs	r4, #1
 981              	.LVL129:
 982              	.L73:
1315:TP2824/TP2802.c **** 
 983              		.loc 1 1315 0
 984 002a FFF7FEFF 		bl	Set_VidRes
 985              	.LVL130:
1317:TP2824/TP2802.c ****         {
 986              		.loc 1 1317 0
 987 002e 1D4B     		ldr	r3, .L89+4
 988 0030 1B78     		ldrb	r3, [r3]	@ zero_extendqisi2
 989 0032 262B     		cmp	r3, #38
 990 0034 13D0     		beq	.L85
1321:TP2824/TP2802.c ****         {
 991              		.loc 1 1321 0
 992 0036 A3F12402 		sub	r2, r3, #36
 993 003a D2B2     		uxtb	r2, r2
 994 003c 012A     		cmp	r2, #1
 995 003e 16D9     		bls	.L86
1325:TP2824/TP2802.c ****         {
 996              		.loc 1 1325 0
 997 0040 2F2B     		cmp	r3, #47
 998 0042 1AD0     		beq	.L87
1329:TP2824/TP2802.c ****         {
 999              		.loc 1 1329 0
 1000 0044 272B     		cmp	r3, #39
 1001 0046 20D0     		beq	.L88
 1002              	.L79:
1333:TP2824/TP2802.c ****         tmp |= 0x40;
 1003              		.loc 1 1333 0
 1004 0048 1420     		movs	r0, #20
 1005 004a FFF7FEFF 		bl	tp28xx_byte_read
 1006              	.LVL131:
1337:TP2824/TP2802.c ****    
 1007              		.loc 1 1337 0
 1008 004e 40F04A01 		orr	r1, r0, #74
 1009              	.LVL132:
1339:TP2824/TP2802.c **** 
 1010              		.loc 1 1339 0
 1011 0052 C9B2     		uxtb	r1, r1
 1012 0054 1420     		movs	r0, #20
 1013 0056 FFF7FEFF 		bl	tp28xx_byte_write
 1014              	.LVL133:
 1015              	.L72:
1343:TP2824/TP2802.c **** 
ARM GAS  /tmp/ccZU1AeU.s 			page 49


 1016              		.loc 1 1343 0
 1017 005a 2046     		mov	r0, r4
 1018 005c 10BD     		pop	{r4, pc}
 1019              	.L85:
1319:TP2824/TP2802.c ****         }
 1020              		.loc 1 1319 0
 1021 005e 1248     		ldr	r0, .L89+8
 1022 0060 04EB8403 		add	r3, r4, r4, lsl #2
 1023 0064 5900     		lsls	r1, r3, #1
 1024 0066 0144     		add	r1, r1, r0
 1025 0068 FFF7FEFF 		bl	I2CDeviceSet2
 1026              	.LVL134:
 1027 006c ECE7     		b	.L79
 1028              	.L86:
1323:TP2824/TP2802.c ****         }
 1029              		.loc 1 1323 0
 1030 006e 0F48     		ldr	r0, .L89+12
 1031 0070 00EBC401 		add	r1, r0, r4, lsl #3
 1032 0074 FFF7FEFF 		bl	I2CDeviceSet2
 1033              	.LVL135:
 1034 0078 E6E7     		b	.L79
 1035              	.L87:
1327:TP2824/TP2802.c ****         }
 1036              		.loc 1 1327 0
 1037 007a 0D48     		ldr	r0, .L89+16
 1038 007c 04EB4403 		add	r3, r4, r4, lsl #1
 1039 0080 9900     		lsls	r1, r3, #2
 1040 0082 0144     		add	r1, r1, r0
 1041 0084 FFF7FEFF 		bl	I2CDeviceSet2
 1042              	.LVL136:
 1043 0088 DEE7     		b	.L79
 1044              	.L88:
1331:TP2824/TP2802.c ****         }
 1045              		.loc 1 1331 0
 1046 008a 0A48     		ldr	r0, .L89+20
 1047 008c 04EB4403 		add	r3, r4, r4, lsl #1
 1048 0090 9900     		lsls	r1, r3, #2
 1049 0092 0144     		add	r1, r1, r0
 1050 0094 FFF7FEFF 		bl	I2CDeviceSet2
 1051              	.LVL137:
 1052 0098 D6E7     		b	.L79
 1053              	.LVL138:
 1054              	.L82:
1291:TP2824/TP2802.c **** 
 1055              		.loc 1 1291 0
 1056 009a 0024     		movs	r4, #0
 1057 009c DDE7     		b	.L72
 1058              	.L90:
 1059 009e 00BF     		.align	2
 1060              	.L89:
 1061 00a0 00000000 		.word	mode
 1062 00a4 00000000 		.word	chip
 1063 00a8 00000000 		.word	.LANCHOR8
 1064 00ac 00000000 		.word	.LANCHOR9
 1065 00b0 00000000 		.word	.LANCHOR10
 1066 00b4 00000000 		.word	.LANCHOR11
 1067              		.cfi_endproc
ARM GAS  /tmp/ccZU1AeU.s 			page 50


 1068              	.LFE74:
 1070              		.section	.text.Set_HDC,"ax",%progbits
 1071              		.align	1
 1072              		.global	Set_HDC
 1073              		.syntax unified
 1074              		.thumb
 1075              		.thumb_func
 1076              		.fpu softvfp
 1078              	Set_HDC:
 1079              	.LFB75:
1346:TP2824/TP2802.c **** 
 1080              		.loc 1 1346 0
 1081              		.cfi_startproc
 1082              		@ args = 0, pretend = 0, frame = 0
 1083              		@ frame_needed = 0, uses_anonymous_args = 0
 1084              	.LVL139:
 1085 0000 10B5     		push	{r4, lr}
 1086              	.LCFI10:
 1087              		.cfi_def_cfa_offset 8
 1088              		.cfi_offset 4, -8
 1089              		.cfi_offset 14, -4
 1090              	.LVL140:
1352:TP2824/TP2802.c ****     {
 1091              		.loc 1 1352 0
 1092 0002 264B     		ldr	r3, .L109
 1093 0004 1B5C     		ldrb	r3, [r3, r0]	@ zero_extendqisi2
 1094 0006 0D2B     		cmp	r3, #13
 1095 0008 46D8     		bhi	.L102
 1096 000a DFE803F0 		tbb	[pc, r3]
 1097              	.L94:
 1098 000e 0D       		.byte	(.L103-.L94)/2
 1099 000f 07       		.byte	(.L95-.L94)/2
 1100 0010 0B       		.byte	(.L96-.L94)/2
 1101 0011 09       		.byte	(.L97-.L94)/2
 1102 0012 45       		.byte	(.L102-.L94)/2
 1103 0013 45       		.byte	(.L102-.L94)/2
 1104 0014 45       		.byte	(.L102-.L94)/2
 1105 0015 45       		.byte	(.L102-.L94)/2
 1106 0016 45       		.byte	(.L102-.L94)/2
 1107 0017 45       		.byte	(.L102-.L94)/2
 1108 0018 45       		.byte	(.L102-.L94)/2
 1109 0019 45       		.byte	(.L102-.L94)/2
 1110 001a 0D       		.byte	(.L103-.L94)/2
 1111 001b 07       		.byte	(.L95-.L94)/2
 1112              		.p2align 1
 1113              	.L95:
1370:TP2824/TP2802.c ****         break;
 1114              		.loc 1 1370 0
 1115 001c 0224     		movs	r4, #2
 1116 001e 04E0     		b	.L93
 1117              	.L97:
 1118              	.LVL141:
1360:TP2824/TP2802.c ****         break;
 1119              		.loc 1 1360 0
 1120 0020 0424     		movs	r4, #4
 1121 0022 02E0     		b	.L93
 1122              	.LVL142:
ARM GAS  /tmp/ccZU1AeU.s 			page 51


 1123              	.L96:
1356:TP2824/TP2802.c ****         break;
 1124              		.loc 1 1356 0
 1125 0024 0324     		movs	r4, #3
 1126 0026 00E0     		b	.L93
 1127              	.LVL143:
 1128              	.L103:
1365:TP2824/TP2802.c ****         break;
 1129              		.loc 1 1365 0
 1130 0028 0124     		movs	r4, #1
 1131              	.LVL144:
 1132              	.L93:
1375:TP2824/TP2802.c **** 
 1133              		.loc 1 1375 0
 1134 002a FFF7FEFF 		bl	Set_VidRes
 1135              	.LVL145:
1377:TP2824/TP2802.c ****         {
 1136              		.loc 1 1377 0
 1137 002e 1C4B     		ldr	r3, .L109+4
 1138 0030 1B78     		ldrb	r3, [r3]	@ zero_extendqisi2
 1139 0032 262B     		cmp	r3, #38
 1140 0034 0ED0     		beq	.L105
1381:TP2824/TP2802.c ****         {
 1141              		.loc 1 1381 0
 1142 0036 A3F12402 		sub	r2, r3, #36
 1143 003a D2B2     		uxtb	r2, r2
 1144 003c 012A     		cmp	r2, #1
 1145 003e 12D9     		bls	.L106
1385:TP2824/TP2802.c ****         {
 1146              		.loc 1 1385 0
 1147 0040 2F2B     		cmp	r3, #47
 1148 0042 19D0     		beq	.L107
1389:TP2824/TP2802.c ****         {
 1149              		.loc 1 1389 0
 1150 0044 272B     		cmp	r3, #39
 1151 0046 1FD0     		beq	.L108
 1152              	.L99:
1393:TP2824/TP2802.c ****     }
 1153              		.loc 1 1393 0
 1154 0048 4021     		movs	r1, #64
 1155 004a 1320     		movs	r0, #19
 1156 004c FFF7FEFF 		bl	tp28xx_byte_write
 1157              	.LVL146:
 1158              	.L92:
1396:TP2824/TP2802.c **** 
 1159              		.loc 1 1396 0
 1160 0050 2046     		mov	r0, r4
 1161 0052 10BD     		pop	{r4, pc}
 1162              	.L105:
1379:TP2824/TP2802.c ****         }
 1163              		.loc 1 1379 0
 1164 0054 1348     		ldr	r0, .L109+8
 1165 0056 04EB4401 		add	r1, r4, r4, lsl #1
 1166 005a 04EB8101 		add	r1, r4, r1, lsl #2
 1167 005e 0144     		add	r1, r1, r0
 1168 0060 FFF7FEFF 		bl	I2CDeviceSet2
 1169              	.LVL147:
ARM GAS  /tmp/ccZU1AeU.s 			page 52


 1170 0064 F0E7     		b	.L99
 1171              	.L106:
1383:TP2824/TP2802.c ****         }
 1172              		.loc 1 1383 0
 1173 0066 0F48     		ldr	r0, .L109+8
 1174 0068 04EB4401 		add	r1, r4, r4, lsl #1
 1175 006c 04EB8101 		add	r1, r4, r1, lsl #2
 1176 0070 0144     		add	r1, r1, r0
 1177 0072 FFF7FEFF 		bl	I2CDeviceSet2
 1178              	.LVL148:
 1179 0076 E7E7     		b	.L99
 1180              	.L107:
1387:TP2824/TP2802.c ****         }
 1181              		.loc 1 1387 0
 1182 0078 0B48     		ldr	r0, .L109+12
 1183 007a 04EB8403 		add	r3, r4, r4, lsl #2
 1184 007e 9900     		lsls	r1, r3, #2
 1185 0080 0144     		add	r1, r1, r0
 1186 0082 FFF7FEFF 		bl	I2CDeviceSet2
 1187              	.LVL149:
 1188 0086 DFE7     		b	.L99
 1189              	.L108:
1391:TP2824/TP2802.c ****         }
 1190              		.loc 1 1391 0
 1191 0088 0848     		ldr	r0, .L109+16
 1192 008a 04EB8403 		add	r3, r4, r4, lsl #2
 1193 008e 9900     		lsls	r1, r3, #2
 1194 0090 0144     		add	r1, r1, r0
 1195 0092 FFF7FEFF 		bl	I2CDeviceSet2
 1196              	.LVL150:
 1197 0096 D7E7     		b	.L99
 1198              	.LVL151:
 1199              	.L102:
1350:TP2824/TP2802.c **** 
 1200              		.loc 1 1350 0
 1201 0098 0024     		movs	r4, #0
 1202 009a D9E7     		b	.L92
 1203              	.L110:
 1204              		.align	2
 1205              	.L109:
 1206 009c 00000000 		.word	mode
 1207 00a0 00000000 		.word	chip
 1208 00a4 00000000 		.word	.LANCHOR12
 1209 00a8 00000000 		.word	.LANCHOR13
 1210 00ac 00000000 		.word	.LANCHOR14
 1211              		.cfi_endproc
 1212              	.LFE75:
 1214              		.section	.text.Det_VidRes,"ax",%progbits
 1215              		.align	1
 1216              		.global	Det_VidRes
 1217              		.syntax unified
 1218              		.thumb
 1219              		.thumb_func
 1220              		.fpu softvfp
 1222              	Det_VidRes:
 1223              	.LFB76:
1399:TP2824/TP2802.c ****     tByte CVSTD;
ARM GAS  /tmp/ccZU1AeU.s 			page 53


 1224              		.loc 1 1399 0
 1225              		.cfi_startproc
 1226              		@ args = 0, pretend = 0, frame = 0
 1227              		@ frame_needed = 0, uses_anonymous_args = 0
 1228 0000 10B5     		push	{r4, lr}
 1229              	.LCFI11:
 1230              		.cfi_def_cfa_offset 8
 1231              		.cfi_offset 4, -8
 1232              		.cfi_offset 14, -4
1403:TP2824/TP2802.c **** 
 1233              		.loc 1 1403 0
 1234 0002 0320     		movs	r0, #3
 1235 0004 FFF7FEFF 		bl	tp28xx_byte_read
 1236              	.LVL152:
 1237 0008 00F00704 		and	r4, r0, #7
 1238              	.LVL153:
1405:TP2824/TP2802.c ****     {
 1239              		.loc 1 1405 0
 1240 000c 052C     		cmp	r4, #5
 1241 000e 01D8     		bhi	.L117
 1242              	.LVL154:
 1243              	.L113:
1438:TP2824/TP2802.c **** tByte Det_VideoLoss(tByte ch)
 1244              		.loc 1 1438 0
 1245 0010 2046     		mov	r0, r4
 1246 0012 10BD     		pop	{r4, pc}
 1247              	.LVL155:
 1248              	.L117:
1405:TP2824/TP2802.c ****     {
 1249              		.loc 1 1405 0
 1250 0014 062C     		cmp	r4, #6
 1251 0016 03D1     		bne	.L115
1427:TP2824/TP2802.c ****         RES = NTPAL;
 1252              		.loc 1 1427 0
 1253 0018 0448     		ldr	r0, .L118
 1254 001a FFF7FEFF 		bl	printf
 1255              	.LVL156:
1429:TP2824/TP2802.c ****     default:
 1256              		.loc 1 1429 0
 1257 001e F7E7     		b	.L113
 1258              	.LVL157:
 1259              	.L115:
1431:TP2824/TP2802.c ****         RES = NoDet;
 1260              		.loc 1 1431 0
 1261 0020 0348     		ldr	r0, .L118+4
 1262 0022 FFF7FEFF 		bl	printf
 1263              	.LVL158:
1432:TP2824/TP2802.c ****         break;
 1264              		.loc 1 1432 0
 1265 0026 0724     		movs	r4, #7
 1266              	.LVL159:
1433:TP2824/TP2802.c ****     }
 1267              		.loc 1 1433 0
 1268 0028 F2E7     		b	.L113
 1269              	.L119:
 1270 002a 00BF     		.align	2
 1271              	.L118:
ARM GAS  /tmp/ccZU1AeU.s 			page 54


 1272 002c 00000000 		.word	.LC20
 1273 0030 10000000 		.word	.LC21
 1274              		.cfi_endproc
 1275              	.LFE76:
 1277              		.section	.text.Det_VideoLoss,"ax",%progbits
 1278              		.align	1
 1279              		.global	Det_VideoLoss
 1280              		.syntax unified
 1281              		.thumb
 1282              		.thumb_func
 1283              		.fpu softvfp
 1285              	Det_VideoLoss:
 1286              	.LFB77:
1440:TP2824/TP2802.c **** 
 1287              		.loc 1 1440 0
 1288              		.cfi_startproc
 1289              		@ args = 0, pretend = 0, frame = 0
 1290              		@ frame_needed = 0, uses_anonymous_args = 0
 1291              	.LVL160:
 1292 0000 10B5     		push	{r4, lr}
 1293              	.LCFI12:
 1294              		.cfi_def_cfa_offset 8
 1295              		.cfi_offset 4, -8
 1296              		.cfi_offset 14, -4
1444:TP2824/TP2802.c ****     VDLOSS = tp28xx_byte_read(0x01);
 1297              		.loc 1 1444 0
 1298 0002 00F00301 		and	r1, r0, #3
 1299 0006 4020     		movs	r0, #64
 1300              	.LVL161:
 1301 0008 FFF7FEFF 		bl	tp28xx_byte_write
 1302              	.LVL162:
1445:TP2824/TP2802.c **** //	printf("video status 0x%02x on ch%01x\r\n",(tWord)VDLOSS,(tWord)ch);
 1303              		.loc 1 1445 0
 1304 000c 0120     		movs	r0, #1
 1305 000e FFF7FEFF 		bl	tp28xx_byte_read
 1306              	.LVL163:
1448:TP2824/TP2802.c **** 
 1307              		.loc 1 1448 0
 1308 0012 0446     		mov	r4, r0
 1309 0014 28B9     		cbnz	r0, .L123
 1310              	.LVL164:
 1311              	.L121:
1450:TP2824/TP2802.c **** 
 1312              		.loc 1 1450 0
 1313 0016 0548     		ldr	r0, .L124
 1314 0018 FFF7FEFF 		bl	printf
 1315              	.LVL165:
1455:TP2824/TP2802.c **** 
 1316              		.loc 1 1455 0
 1317 001c C4F3C710 		ubfx	r0, r4, #7, #8
 1318 0020 10BD     		pop	{r4, pc}
 1319              	.LVL166:
 1320              	.L123:
1448:TP2824/TP2802.c **** 
 1321              		.loc 1 1448 0 discriminator 1
 1322 0022 0348     		ldr	r0, .L124+4
 1323              	.LVL167:
ARM GAS  /tmp/ccZU1AeU.s 			page 55


 1324 0024 FFF7FEFF 		bl	printf
 1325              	.LVL168:
 1326 0028 F5E7     		b	.L121
 1327              	.L125:
 1328 002a 00BF     		.align	2
 1329              	.L124:
 1330 002c 04000000 		.word	.LC23
 1331 0030 00000000 		.word	.LC22
 1332              		.cfi_endproc
 1333              	.LFE77:
 1335              		.section	.text.ManualAGC,"ax",%progbits
 1336              		.align	1
 1337              		.global	ManualAGC
 1338              		.syntax unified
 1339              		.thumb
 1340              		.thumb_func
 1341              		.fpu softvfp
 1343              	ManualAGC:
 1344              	.LFB78:
1458:TP2824/TP2802.c ****     unsigned int agc;
 1345              		.loc 1 1458 0
 1346              		.cfi_startproc
 1347              		@ args = 0, pretend = 0, frame = 0
 1348              		@ frame_needed = 0, uses_anonymous_args = 0
 1349              	.LVL169:
 1350 0000 38B5     		push	{r3, r4, r5, lr}
 1351              	.LCFI13:
 1352              		.cfi_def_cfa_offset 16
 1353              		.cfi_offset 3, -16
 1354              		.cfi_offset 4, -12
 1355              		.cfi_offset 5, -8
 1356              		.cfi_offset 14, -4
 1357 0002 0546     		mov	r5, r0
1463:TP2824/TP2802.c ****     agc = tp28xx_byte_read(0x04);
 1358              		.loc 1 1463 0
 1359 0004 0221     		movs	r1, #2
 1360 0006 2F20     		movs	r0, #47
 1361              	.LVL170:
 1362 0008 FFF7FEFF 		bl	tp28xx_byte_write
 1363              	.LVL171:
1464:TP2824/TP2802.c ****     agc += tp28xx_byte_read(0x04);
 1364              		.loc 1 1464 0
 1365 000c 0420     		movs	r0, #4
 1366 000e FFF7FEFF 		bl	tp28xx_byte_read
 1367              	.LVL172:
 1368 0012 0446     		mov	r4, r0
 1369              	.LVL173:
1465:TP2824/TP2802.c ****     agc += tp28xx_byte_read(0x04);
 1370              		.loc 1 1465 0
 1371 0014 0420     		movs	r0, #4
 1372              	.LVL174:
 1373 0016 FFF7FEFF 		bl	tp28xx_byte_read
 1374              	.LVL175:
 1375 001a 0444     		add	r4, r4, r0
 1376              	.LVL176:
1466:TP2824/TP2802.c ****     agc += tp28xx_byte_read(0x04);
 1377              		.loc 1 1466 0
ARM GAS  /tmp/ccZU1AeU.s 			page 56


 1378 001c 0420     		movs	r0, #4
 1379 001e FFF7FEFF 		bl	tp28xx_byte_read
 1380              	.LVL177:
 1381 0022 0444     		add	r4, r4, r0
 1382              	.LVL178:
1467:TP2824/TP2802.c ****     agc &= 0x3f0;
 1383              		.loc 1 1467 0
 1384 0024 0420     		movs	r0, #4
 1385 0026 FFF7FEFF 		bl	tp28xx_byte_read
 1386              	.LVL179:
 1387 002a 0444     		add	r4, r4, r0
 1388              	.LVL180:
 1389 002c 6408     		lsrs	r4, r4, #1
 1390              	.LVL181:
1469:TP2824/TP2802.c ****     if(agc > 0x1ff) agc = 0x1ff;
 1391              		.loc 1 1469 0
 1392 002e 04F4FC74 		and	r4, r4, #504
 1393              	.LVL182:
1472:TP2824/TP2802.c ****     tp28xx_byte_write(0x08, agc&0xff);
 1394              		.loc 1 1472 0
 1395 0032 2A46     		mov	r2, r5
 1396 0034 2146     		mov	r1, r4
 1397 0036 0B48     		ldr	r0, .L130
 1398 0038 FFF7FEFF 		bl	printf
 1399              	.LVL183:
1473:TP2824/TP2802.c ****     tmp = tp28xx_byte_read(0x06);
 1400              		.loc 1 1473 0
 1401 003c 04F0F801 		and	r1, r4, #248
 1402 0040 0820     		movs	r0, #8
 1403 0042 FFF7FEFF 		bl	tp28xx_byte_write
 1404              	.LVL184:
1474:TP2824/TP2802.c ****     tmp &=0xf9;
 1405              		.loc 1 1474 0
 1406 0046 0620     		movs	r0, #6
 1407 0048 FFF7FEFF 		bl	tp28xx_byte_read
 1408              	.LVL185:
1475:TP2824/TP2802.c ****     tmp |=(agc>>7)&0x02;
 1409              		.loc 1 1475 0
 1410 004c 00F0F900 		and	r0, r0, #249
 1411              	.LVL186:
1476:TP2824/TP2802.c ****     tmp |=0x04;
 1412              		.loc 1 1476 0
 1413 0050 E109     		lsrs	r1, r4, #7
 1414 0052 01F00201 		and	r1, r1, #2
 1415 0056 0143     		orrs	r1, r1, r0
 1416              	.LVL187:
1478:TP2824/TP2802.c ****     
 1417              		.loc 1 1478 0
 1418 0058 41F00401 		orr	r1, r1, #4
 1419              	.LVL188:
 1420 005c 0620     		movs	r0, #6
 1421              	.LVL189:
 1422 005e FFF7FEFF 		bl	tp28xx_byte_write
 1423              	.LVL190:
1492:TP2824/TP2802.c **** 
 1424              		.loc 1 1492 0
 1425 0062 38BD     		pop	{r3, r4, r5, pc}
ARM GAS  /tmp/ccZU1AeU.s 			page 57


 1426              	.LVL191:
 1427              	.L131:
 1428              		.align	2
 1429              	.L130:
 1430 0064 00000000 		.word	.LC24
 1431              		.cfi_endproc
 1432              	.LFE78:
 1434              		.section	.text.ReadGain,"ax",%progbits
 1435              		.align	1
 1436              		.global	ReadGain
 1437              		.syntax unified
 1438              		.thumb
 1439              		.thumb_func
 1440              		.fpu softvfp
 1442              	ReadGain:
 1443              	.LFB82:
1586:TP2824/TP2802.c **** ////////////////////////////////////////
1587:TP2824/TP2802.c **** tByte ReadGain(void)
1588:TP2824/TP2802.c **** {
 1444              		.loc 1 1588 0
 1445              		.cfi_startproc
 1446              		@ args = 0, pretend = 0, frame = 0
 1447              		@ frame_needed = 0, uses_anonymous_args = 0
 1448 0000 08B5     		push	{r3, lr}
 1449              	.LCFI14:
 1450              		.cfi_def_cfa_offset 8
 1451              		.cfi_offset 3, -8
 1452              		.cfi_offset 14, -4
1589:TP2824/TP2802.c ****     tp28xx_byte_write(0x2f, 0x00);
 1453              		.loc 1 1589 0
 1454 0002 0021     		movs	r1, #0
 1455 0004 2F20     		movs	r0, #47
 1456 0006 FFF7FEFF 		bl	tp28xx_byte_write
 1457              	.LVL192:
1590:TP2824/TP2802.c ****     return tp28xx_byte_read(0x04);
 1458              		.loc 1 1590 0
 1459 000a 0420     		movs	r0, #4
 1460 000c FFF7FEFF 		bl	tp28xx_byte_read
 1461              	.LVL193:
1591:TP2824/TP2802.c **** }
 1462              		.loc 1 1591 0
 1463 0010 08BD     		pop	{r3, pc}
 1464              		.cfi_endproc
 1465              	.LFE82:
 1467              		.section	.text.SetCGain,"ax",%progbits
 1468              		.align	1
 1469              		.global	SetCGain
 1470              		.syntax unified
 1471              		.thumb
 1472              		.thumb_func
 1473              		.fpu softvfp
 1475              	SetCGain:
 1476              	.LFB83:
1592:TP2824/TP2802.c **** ////////////////////////////////////////
1593:TP2824/TP2802.c **** void SetCGain(unsigned char CGAIN_STD)
1594:TP2824/TP2802.c **** {
 1477              		.loc 1 1594 0
ARM GAS  /tmp/ccZU1AeU.s 			page 58


 1478              		.cfi_startproc
 1479              		@ args = 0, pretend = 0, frame = 0
 1480              		@ frame_needed = 0, uses_anonymous_args = 0
 1481              	.LVL194:
 1482 0000 F8B5     		push	{r3, r4, r5, r6, r7, lr}
 1483              	.LCFI15:
 1484              		.cfi_def_cfa_offset 24
 1485              		.cfi_offset 3, -24
 1486              		.cfi_offset 4, -20
 1487              		.cfi_offset 5, -16
 1488              		.cfi_offset 6, -12
 1489              		.cfi_offset 7, -8
 1490              		.cfi_offset 14, -4
 1491 0002 0646     		mov	r6, r0
 1492              	.LVL195:
1595:TP2824/TP2802.c ****     unsigned char tmp, cgain;
1596:TP2824/TP2802.c ****     unsigned char retry = 30;
1597:TP2824/TP2802.c **** 
1598:TP2824/TP2802.c ****     tp28xx_byte_write(0x2f, 0x06);
 1493              		.loc 1 1598 0
 1494 0004 0621     		movs	r1, #6
 1495 0006 2F20     		movs	r0, #47
 1496              	.LVL196:
 1497 0008 FFF7FEFF 		bl	tp28xx_byte_write
 1498              	.LVL197:
1599:TP2824/TP2802.c ****     cgain = tp28xx_byte_read(0x04);
 1499              		.loc 1 1599 0
 1500 000c 0420     		movs	r0, #4
 1501 000e FFF7FEFF 		bl	tp28xx_byte_read
 1502              	.LVL198:
1600:TP2824/TP2802.c **** 
1601:TP2824/TP2802.c ****     if(cgain < CGAIN_STD )
 1503              		.loc 1 1601 0
 1504 0012 B042     		cmp	r0, r6
 1505 0014 43D2     		bcs	.L134
 1506 0016 0446     		mov	r4, r0
1596:TP2824/TP2802.c **** 
 1507              		.loc 1 1596 0
 1508 0018 1E27     		movs	r7, #30
 1509 001a 17E0     		b	.L135
 1510              	.LVL199:
 1511              	.L138:
1602:TP2824/TP2802.c ****     {
1603:TP2824/TP2802.c ****         while(retry)
1604:TP2824/TP2802.c ****         {
1605:TP2824/TP2802.c ****             retry--;
1606:TP2824/TP2802.c **** 
1607:TP2824/TP2802.c ****             tmp = tp28xx_byte_read(0x07);
1608:TP2824/TP2802.c ****             tmp &=0x3f;
1609:TP2824/TP2802.c ****             while(abs(CGAIN_STD-cgain))
1610:TP2824/TP2802.c ****             {
1611:TP2824/TP2802.c ****                 if(tmp) tmp--;
1612:TP2824/TP2802.c ****                 else break;
1613:TP2824/TP2802.c ****                 cgain++;
1614:TP2824/TP2802.c ****             }
1615:TP2824/TP2802.c **** 
1616:TP2824/TP2802.c ****             tp28xx_byte_write(0x07, 0x80|tmp);
ARM GAS  /tmp/ccZU1AeU.s 			page 59


 1512              		.loc 1 1616 0
 1513 001c 45F08001 		orr	r1, r5, #128
 1514 0020 0720     		movs	r0, #7
 1515 0022 FFF7FEFF 		bl	tp28xx_byte_write
 1516              	.LVL200:
1617:TP2824/TP2802.c ****             if(0 == tmp) break;
 1517              		.loc 1 1617 0
 1518 0026 D5B3     		cbz	r5, .L134
1618:TP2824/TP2802.c ****             delay(8); //delay 40ms
 1519              		.loc 1 1618 0
 1520 0028 0820     		movs	r0, #8
 1521 002a FFF7FEFF 		bl	delay
 1522              	.LVL201:
1619:TP2824/TP2802.c ****             tp28xx_byte_write(0x2f, 0x06);
 1523              		.loc 1 1619 0
 1524 002e 0621     		movs	r1, #6
 1525 0030 2F20     		movs	r0, #47
 1526 0032 FFF7FEFF 		bl	tp28xx_byte_write
 1527              	.LVL202:
1620:TP2824/TP2802.c ****             cgain = tp28xx_byte_read(0x04);
 1528              		.loc 1 1620 0
 1529 0036 0420     		movs	r0, #4
 1530 0038 FFF7FEFF 		bl	tp28xx_byte_read
 1531              	.LVL203:
 1532 003c 0446     		mov	r4, r0
 1533              	.LVL204:
1621:TP2824/TP2802.c **** 
1622:TP2824/TP2802.c ****             if(cgain > (CGAIN_STD+1))
 1534              		.loc 1 1622 0
 1535 003e 731C     		adds	r3, r6, #1
 1536 0040 9842     		cmp	r0, r3
 1537 0042 14DC     		bgt	.L146
 1538              	.LVL205:
 1539              	.L140:
1623:TP2824/TP2802.c ****             {
1624:TP2824/TP2802.c ****                 tmp = tp28xx_byte_read(0x07);
1625:TP2824/TP2802.c ****                 tmp &=0x3f;
1626:TP2824/TP2802.c ****                 //tmp +=0x02;
1627:TP2824/TP2802.c ****                 tmp++;
1628:TP2824/TP2802.c ****                 tmp++;
1629:TP2824/TP2802.c ****                 if(tmp > 0x3f) tmp = 0x3f;
1630:TP2824/TP2802.c ****                 tp28xx_byte_write(0x07, 0x80|tmp);
1631:TP2824/TP2802.c ****                 if(0x3f == tmp) break;
1632:TP2824/TP2802.c ****                 delay(8); //delay 40ms
1633:TP2824/TP2802.c ****                 cgain = tp28xx_byte_read(0x04);
1634:TP2824/TP2802.c **** 
1635:TP2824/TP2802.c ****             }
1636:TP2824/TP2802.c ****             if(abs(cgain-CGAIN_STD) < 2)  break;
 1540              		.loc 1 1636 0
 1541 0044 A31B     		subs	r3, r4, r6
 1542 0046 0133     		adds	r3, r3, #1
 1543 0048 022B     		cmp	r3, #2
 1544 004a 28D9     		bls	.L134
 1545              	.LVL206:
 1546              	.L135:
1603:TP2824/TP2802.c ****         {
 1547              		.loc 1 1603 0
ARM GAS  /tmp/ccZU1AeU.s 			page 60


 1548 004c 3FB3     		cbz	r7, .L134
1605:TP2824/TP2802.c **** 
 1549              		.loc 1 1605 0
 1550 004e 013F     		subs	r7, r7, #1
 1551              	.LVL207:
 1552 0050 FFB2     		uxtb	r7, r7
 1553              	.LVL208:
1607:TP2824/TP2802.c ****             tmp &=0x3f;
 1554              		.loc 1 1607 0
 1555 0052 0720     		movs	r0, #7
 1556 0054 FFF7FEFF 		bl	tp28xx_byte_read
 1557              	.LVL209:
1608:TP2824/TP2802.c ****             while(abs(CGAIN_STD-cgain))
 1558              		.loc 1 1608 0
 1559 0058 00F03F05 		and	r5, r0, #63
 1560              	.LVL210:
 1561              	.L137:
1609:TP2824/TP2802.c ****             {
 1562              		.loc 1 1609 0
 1563 005c B442     		cmp	r4, r6
 1564 005e DDD0     		beq	.L138
1611:TP2824/TP2802.c ****                 else break;
 1565              		.loc 1 1611 0
 1566 0060 002D     		cmp	r5, #0
 1567 0062 DBD0     		beq	.L138
1611:TP2824/TP2802.c ****                 else break;
 1568              		.loc 1 1611 0 is_stmt 0 discriminator 1
 1569 0064 013D     		subs	r5, r5, #1
 1570              	.LVL211:
 1571 0066 EDB2     		uxtb	r5, r5
 1572              	.LVL212:
1613:TP2824/TP2802.c ****             }
 1573              		.loc 1 1613 0 is_stmt 1 discriminator 1
 1574 0068 0134     		adds	r4, r4, #1
 1575              	.LVL213:
 1576 006a E4B2     		uxtb	r4, r4
 1577              	.LVL214:
 1578 006c F6E7     		b	.L137
 1579              	.LVL215:
 1580              	.L146:
1624:TP2824/TP2802.c ****                 tmp &=0x3f;
 1581              		.loc 1 1624 0
 1582 006e 0720     		movs	r0, #7
 1583              	.LVL216:
 1584 0070 FFF7FEFF 		bl	tp28xx_byte_read
 1585              	.LVL217:
1625:TP2824/TP2802.c ****                 //tmp +=0x02;
 1586              		.loc 1 1625 0
 1587 0074 00F03F00 		and	r0, r0, #63
 1588              	.LVL218:
1628:TP2824/TP2802.c ****                 if(tmp > 0x3f) tmp = 0x3f;
 1589              		.loc 1 1628 0
 1590 0078 841C     		adds	r4, r0, #2
 1591              	.LVL219:
1629:TP2824/TP2802.c ****                 tp28xx_byte_write(0x07, 0x80|tmp);
 1592              		.loc 1 1629 0
 1593 007a 3F2C     		cmp	r4, #63
ARM GAS  /tmp/ccZU1AeU.s 			page 61


 1594 007c 00D9     		bls	.L141
 1595 007e 3F24     		movs	r4, #63
 1596              	.LVL220:
 1597              	.L141:
1630:TP2824/TP2802.c ****                 if(0x3f == tmp) break;
 1598              		.loc 1 1630 0
 1599 0080 44F08001 		orr	r1, r4, #128
 1600 0084 0720     		movs	r0, #7
 1601 0086 FFF7FEFF 		bl	tp28xx_byte_write
 1602              	.LVL221:
1631:TP2824/TP2802.c ****                 delay(8); //delay 40ms
 1603              		.loc 1 1631 0
 1604 008a 3F2C     		cmp	r4, #63
 1605 008c 07D0     		beq	.L134
1632:TP2824/TP2802.c ****                 cgain = tp28xx_byte_read(0x04);
 1606              		.loc 1 1632 0
 1607 008e 0820     		movs	r0, #8
 1608 0090 FFF7FEFF 		bl	delay
 1609              	.LVL222:
1633:TP2824/TP2802.c **** 
 1610              		.loc 1 1633 0
 1611 0094 0420     		movs	r0, #4
 1612 0096 FFF7FEFF 		bl	tp28xx_byte_read
 1613              	.LVL223:
 1614 009a 0446     		mov	r4, r0
 1615              	.LVL224:
 1616 009c D2E7     		b	.L140
 1617              	.LVL225:
 1618              	.L134:
1637:TP2824/TP2802.c ****         }
1638:TP2824/TP2802.c **** 
1639:TP2824/TP2802.c ****     }
1640:TP2824/TP2802.c **** }
 1619              		.loc 1 1640 0
 1620 009e F8BD     		pop	{r3, r4, r5, r6, r7, pc}
 1621              		.cfi_endproc
 1622              	.LFE83:
 1624              		.section	.text.INPUT_VIDEO_CHECK,"ax",%progbits
 1625              		.align	1
 1626              		.global	INPUT_VIDEO_CHECK
 1627              		.syntax unified
 1628              		.thumb
 1629              		.thumb_func
 1630              		.fpu softvfp
 1632              	INPUT_VIDEO_CHECK:
 1633              	.LFB84:
1641:TP2824/TP2802.c **** ////////////////////////////////////////
1642:TP2824/TP2802.c **** 
1643:TP2824/TP2802.c **** BYTE INPUT_VIDEO_CHECK(BYTE ch)
1644:TP2824/TP2802.c **** {
 1634              		.loc 1 1644 0
 1635              		.cfi_startproc
 1636              		@ args = 0, pretend = 0, frame = 0
 1637              		@ frame_needed = 0, uses_anonymous_args = 0
 1638              		@ link register save eliminated.
 1639              	.LVL226:
1645:TP2824/TP2802.c **** 
ARM GAS  /tmp/ccZU1AeU.s 			page 62


1646:TP2824/TP2802.c **** 	  BYTE ret=0;
1647:TP2824/TP2802.c **** 	
1648:TP2824/TP2802.c **** 	 switch(CURRENT_CH)
 1640              		.loc 1 1648 0
 1641 0000 444B     		ldr	r3, .L186
 1642 0002 1B78     		ldrb	r3, [r3]	@ zero_extendqisi2
 1643 0004 222B     		cmp	r3, #34
 1644 0006 5ED8     		bhi	.L164
 1645 0008 DFE803F0 		tbb	[pc, r3]
 1646              	.L150:
 1647 000c 12       		.byte	(.L149-.L150)/2
 1648 000d 18       		.byte	(.L151-.L150)/2
 1649 000e 20       		.byte	(.L152-.L150)/2
 1650 000f 26       		.byte	(.L153-.L150)/2
 1651 0010 5D       		.byte	(.L164-.L150)/2
 1652 0011 5D       		.byte	(.L164-.L150)/2
 1653 0012 36       		.byte	(.L154-.L150)/2
 1654 0013 36       		.byte	(.L154-.L150)/2
 1655 0014 36       		.byte	(.L154-.L150)/2
 1656 0015 2A       		.byte	(.L155-.L150)/2
 1657 0016 40       		.byte	(.L156-.L150)/2
 1658 0017 30       		.byte	(.L157-.L150)/2
 1659 0018 4A       		.byte	(.L158-.L150)/2
 1660 0019 40       		.byte	(.L156-.L150)/2
 1661 001a 2A       		.byte	(.L155-.L150)/2
 1662 001b 3A       		.byte	(.L159-.L150)/2
 1663 001c 4A       		.byte	(.L158-.L150)/2
 1664 001d 44       		.byte	(.L160-.L150)/2
 1665 001e 44       		.byte	(.L160-.L150)/2
 1666 001f 3A       		.byte	(.L159-.L150)/2
 1667 0020 50       		.byte	(.L161-.L150)/2
 1668 0021 36       		.byte	(.L154-.L150)/2
 1669 0022 50       		.byte	(.L161-.L150)/2
 1670 0023 54       		.byte	(.L162-.L150)/2
 1671 0024 36       		.byte	(.L154-.L150)/2
 1672 0025 50       		.byte	(.L161-.L150)/2
 1673 0026 58       		.byte	(.L163-.L150)/2
 1674 0027 36       		.byte	(.L154-.L150)/2
 1675 0028 54       		.byte	(.L162-.L150)/2
 1676 0029 58       		.byte	(.L163-.L150)/2
 1677 002a 50       		.byte	(.L161-.L150)/2
 1678 002b 54       		.byte	(.L162-.L150)/2
 1679 002c 58       		.byte	(.L163-.L150)/2
 1680 002d 54       		.byte	(.L162-.L150)/2
 1681 002e 58       		.byte	(.L163-.L150)/2
 1682 002f 00       		.p2align 1
 1683              	.L149:
1649:TP2824/TP2802.c ****  	{
1650:TP2824/TP2802.c **** 		case VS4210_LOOP_MODE0_w0: 
1651:TP2824/TP2802.c **** 			if((ch==CH2)||(ch==CH3)||(ch==CH4))
 1684              		.loc 1 1651 0
 1685 0030 0138     		subs	r0, r0, #1
 1686              	.LVL227:
 1687 0032 C0B2     		uxtb	r0, r0
 1688 0034 0228     		cmp	r0, #2
 1689 0036 48D9     		bls	.L165
1646:TP2824/TP2802.c **** 	
ARM GAS  /tmp/ccZU1AeU.s 			page 63


 1690              		.loc 1 1646 0
 1691 0038 0020     		movs	r0, #0
 1692 003a 7047     		bx	lr
 1693              	.LVL228:
 1694              	.L151:
1652:TP2824/TP2802.c **** 		           ret=_TRUE;		
1653:TP2824/TP2802.c **** 		break;
1654:TP2824/TP2802.c **** 		case VS4210_LOOP_MODE0_w1: 
1655:TP2824/TP2802.c **** 			if((ch==CH1)||(ch==CH3)||(ch==CH4))
 1695              		.loc 1 1655 0
 1696 003c 0028     		cmp	r0, #0
 1697 003e 46D0     		beq	.L166
 1698              		.loc 1 1655 0 is_stmt 0 discriminator 1
 1699 0040 0228     		cmp	r0, #2
 1700 0042 46D0     		beq	.L167
 1701              		.loc 1 1655 0 discriminator 2
 1702 0044 0328     		cmp	r0, #3
 1703 0046 46D0     		beq	.L168
1646:TP2824/TP2802.c **** 	
 1704              		.loc 1 1646 0 is_stmt 1
 1705 0048 0020     		movs	r0, #0
 1706              	.LVL229:
 1707 004a 7047     		bx	lr
 1708              	.LVL230:
 1709              	.L152:
1656:TP2824/TP2802.c **** 							   ret=_TRUE;	
1657:TP2824/TP2802.c **** 		break;
1658:TP2824/TP2802.c **** 		case VS4210_LOOP_MODE0_w2: 
1659:TP2824/TP2802.c **** 			if((ch==CH1)||(ch==CH2)||(ch==CH4))
 1710              		.loc 1 1659 0
 1711 004c 0128     		cmp	r0, #1
 1712 004e 44D9     		bls	.L169
 1713              		.loc 1 1659 0 is_stmt 0 discriminator 1
 1714 0050 0328     		cmp	r0, #3
 1715 0052 44D0     		beq	.L170
1646:TP2824/TP2802.c **** 	
 1716              		.loc 1 1646 0 is_stmt 1
 1717 0054 0020     		movs	r0, #0
 1718              	.LVL231:
 1719 0056 7047     		bx	lr
 1720              	.LVL232:
 1721              	.L153:
1660:TP2824/TP2802.c **** 							   ret=_TRUE;	
1661:TP2824/TP2802.c **** 					break;
1662:TP2824/TP2802.c **** 		case VS4210_LOOP_MODE0_w3: 
1663:TP2824/TP2802.c **** 			if((ch==CH1)||(ch==CH2)||(ch==CH3))
 1722              		.loc 1 1663 0
 1723 0058 0228     		cmp	r0, #2
 1724 005a 42D9     		bls	.L171
1646:TP2824/TP2802.c **** 	
 1725              		.loc 1 1646 0
 1726 005c 0020     		movs	r0, #0
 1727              	.LVL233:
 1728 005e 7047     		bx	lr
 1729              	.LVL234:
 1730              	.L155:
1664:TP2824/TP2802.c **** 		           ret=_TRUE;	
ARM GAS  /tmp/ccZU1AeU.s 			page 64


1665:TP2824/TP2802.c **** 				break;
1666:TP2824/TP2802.c **** 		case VS4210_LOOP_MODE12_12: 
1667:TP2824/TP2802.c **** 		case VS4210_LOOP_MODE12_21:			
1668:TP2824/TP2802.c **** 			if((ch==CH3)||(ch==CH4))
 1731              		.loc 1 1668 0
 1732 0060 0238     		subs	r0, r0, #2
 1733              	.LVL235:
 1734 0062 C0B2     		uxtb	r0, r0
 1735 0064 0128     		cmp	r0, #1
 1736 0066 3ED9     		bls	.L172
1646:TP2824/TP2802.c **** 	
 1737              		.loc 1 1646 0
 1738 0068 0020     		movs	r0, #0
 1739 006a 7047     		bx	lr
 1740              	.LVL236:
 1741              	.L157:
1669:TP2824/TP2802.c **** 		           ret=_TRUE;	
1670:TP2824/TP2802.c **** 		break;
1671:TP2824/TP2802.c **** 		case VS4210_LOOP_MODE12_14:
1672:TP2824/TP2802.c **** 			if((ch==CH2)||(ch==CH3))
 1742              		.loc 1 1672 0
 1743 006c 0138     		subs	r0, r0, #1
 1744              	.LVL237:
 1745 006e C0B2     		uxtb	r0, r0
 1746 0070 0128     		cmp	r0, #1
 1747 0072 3AD9     		bls	.L173
1646:TP2824/TP2802.c **** 	
 1748              		.loc 1 1646 0
 1749 0074 0020     		movs	r0, #0
 1750 0076 7047     		bx	lr
 1751              	.LVL238:
 1752              	.L154:
1673:TP2824/TP2802.c **** 		           ret=_TRUE;	
1674:TP2824/TP2802.c **** 			break;
1675:TP2824/TP2802.c **** 	case VS4210_LOOP_MODE10_123:
1676:TP2824/TP2802.c **** 	case VS4210_LOOP_MODE8:		
1677:TP2824/TP2802.c **** 	case VS4210_LOOP_MODE8_123:
1678:TP2824/TP2802.c **** 	case VS4210_LOOP_MODE8_213:
1679:TP2824/TP2802.c **** 	case VS4210_LOOP_MODE8_312:
1680:TP2824/TP2802.c **** 	case VS4210_LOOP_MODE9:		
1681:TP2824/TP2802.c **** 		if(ch==CH4)
 1753              		.loc 1 1681 0
 1754 0078 0328     		cmp	r0, #3
 1755 007a 38D0     		beq	.L174
1646:TP2824/TP2802.c **** 	
 1756              		.loc 1 1646 0
 1757 007c 0020     		movs	r0, #0
 1758              	.LVL239:
 1759 007e 7047     		bx	lr
 1760              	.LVL240:
 1761              	.L159:
1682:TP2824/TP2802.c **** 		   ret=_TRUE;	
1683:TP2824/TP2802.c **** 		break;
1684:TP2824/TP2802.c **** 
1685:TP2824/TP2802.c **** 	case VS4210_LOOP_MODE12_23:
1686:TP2824/TP2802.c **** 	case VS4210_LOOP_MODE12_32:
1687:TP2824/TP2802.c **** 		if((ch==CH1)||(ch==CH4))
ARM GAS  /tmp/ccZU1AeU.s 			page 65


 1762              		.loc 1 1687 0
 1763 0080 0028     		cmp	r0, #0
 1764 0082 36D0     		beq	.L175
 1765              		.loc 1 1687 0 is_stmt 0 discriminator 1
 1766 0084 0328     		cmp	r0, #3
 1767 0086 36D0     		beq	.L176
1646:TP2824/TP2802.c **** 	
 1768              		.loc 1 1646 0 is_stmt 1
 1769 0088 0020     		movs	r0, #0
 1770              	.LVL241:
 1771 008a 7047     		bx	lr
 1772              	.LVL242:
 1773              	.L156:
1688:TP2824/TP2802.c **** 			   ret=_TRUE;	
1689:TP2824/TP2802.c **** 					break;
1690:TP2824/TP2802.c **** 	case VS4210_LOOP_MODE12_34:
1691:TP2824/TP2802.c **** 	case VS4210_LOOP_MODE12_43:
1692:TP2824/TP2802.c **** 		if((ch==CH1)||(ch==CH2))
 1774              		.loc 1 1692 0
 1775 008c 0128     		cmp	r0, #1
 1776 008e 34D9     		bls	.L177
1646:TP2824/TP2802.c **** 	
 1777              		.loc 1 1646 0
 1778 0090 0020     		movs	r0, #0
 1779              	.LVL243:
 1780 0092 7047     		bx	lr
 1781              	.LVL244:
 1782              	.L160:
1693:TP2824/TP2802.c **** 			   ret=_TRUE;	
1694:TP2824/TP2802.c **** 				break;
1695:TP2824/TP2802.c **** 	case VS4210_LOOP_MODE12_31:
1696:TP2824/TP2802.c **** 	case VS4210_LOOP_MODE12_13:	
1697:TP2824/TP2802.c **** 		if((ch==CH2)||(ch==CH4))
 1783              		.loc 1 1697 0
 1784 0094 0128     		cmp	r0, #1
 1785 0096 32D0     		beq	.L178
 1786              		.loc 1 1697 0 is_stmt 0 discriminator 1
 1787 0098 0328     		cmp	r0, #3
 1788 009a 32D0     		beq	.L179
1646:TP2824/TP2802.c **** 	
 1789              		.loc 1 1646 0 is_stmt 1
 1790 009c 0020     		movs	r0, #0
 1791              	.LVL245:
 1792 009e 7047     		bx	lr
 1793              	.LVL246:
 1794              	.L158:
1698:TP2824/TP2802.c **** 				   ret=_TRUE;			
1699:TP2824/TP2802.c **** 					break;
1700:TP2824/TP2802.c **** 	case VS4210_LOOP_MODE1:
1701:TP2824/TP2802.c **** 	case VS4210_LOOP_MODE2:
1702:TP2824/TP2802.c **** 		ret=_FALSE;
1703:TP2824/TP2802.c **** 		break;
1704:TP2824/TP2802.c **** 	case VS4210_LOOP_MODE12_42:
1705:TP2824/TP2802.c **** 	case VS4210_LOOP_MODE12_24:
1706:TP2824/TP2802.c **** 		if((ch==CH1)||(ch==CH3))
 1795              		.loc 1 1706 0
 1796 00a0 0028     		cmp	r0, #0
ARM GAS  /tmp/ccZU1AeU.s 			page 66


 1797 00a2 30D0     		beq	.L180
 1798              		.loc 1 1706 0 is_stmt 0 discriminator 1
 1799 00a4 0228     		cmp	r0, #2
 1800 00a6 30D0     		beq	.L181
1646:TP2824/TP2802.c **** 	
 1801              		.loc 1 1646 0 is_stmt 1
 1802 00a8 0020     		movs	r0, #0
 1803              	.LVL247:
 1804 00aa 7047     		bx	lr
 1805              	.LVL248:
 1806              	.L161:
1707:TP2824/TP2802.c **** 				   ret=_TRUE;		
1708:TP2824/TP2802.c **** 		break;
1709:TP2824/TP2802.c **** 	case VS4210_LOOP_MODE8_412:	
1710:TP2824/TP2802.c **** 	case VS4210_LOOP_MODE8_124:
1711:TP2824/TP2802.c **** 	case VS4210_LOOP_MODE8_214: 
1712:TP2824/TP2802.c **** 	case VS4210_LOOP_MODE10_412:
1713:TP2824/TP2802.c **** 			if(ch==CH3)
 1807              		.loc 1 1713 0
 1808 00ac 0228     		cmp	r0, #2
 1809 00ae 2ED0     		beq	.L182
1646:TP2824/TP2802.c **** 	
 1810              		.loc 1 1646 0
 1811 00b0 0020     		movs	r0, #0
 1812              	.LVL249:
 1813 00b2 7047     		bx	lr
 1814              	.LVL250:
 1815              	.L162:
1714:TP2824/TP2802.c **** 			   ret=_TRUE;		
1715:TP2824/TP2802.c **** 		break;
1716:TP2824/TP2802.c **** 	case VS4210_LOOP_MODE8_134:
1717:TP2824/TP2802.c **** 	case VS4210_LOOP_MODE8_314:
1718:TP2824/TP2802.c **** 	case VS4210_LOOP_MODE10_413:
1719:TP2824/TP2802.c **** 	case VS4210_LOOP_MODE8_413: 
1720:TP2824/TP2802.c **** 			if(ch==CH2)
 1816              		.loc 1 1720 0
 1817 00b4 0128     		cmp	r0, #1
 1818 00b6 03D0     		beq	.L148
1646:TP2824/TP2802.c **** 	
 1819              		.loc 1 1646 0
 1820 00b8 0020     		movs	r0, #0
 1821              	.LVL251:
 1822 00ba 7047     		bx	lr
 1823              	.LVL252:
 1824              	.L163:
1721:TP2824/TP2802.c **** 			   ret=_TRUE;		
1722:TP2824/TP2802.c **** 		break;
1723:TP2824/TP2802.c **** 	case VS4210_LOOP_MODE8_234:
1724:TP2824/TP2802.c **** 	case VS4210_LOOP_MODE8_324: 
1725:TP2824/TP2802.c **** 	case VS4210_LOOP_MODE10_423:
1726:TP2824/TP2802.c **** 	case VS4210_LOOP_MODE8_423:			
1727:TP2824/TP2802.c **** 		if(ch==CH1)
 1825              		.loc 1 1727 0
 1826 00bc 08B9     		cbnz	r0, .L185
1728:TP2824/TP2802.c **** 		   ret=_TRUE;		
 1827              		.loc 1 1728 0
 1828 00be 0120     		movs	r0, #1
ARM GAS  /tmp/ccZU1AeU.s 			page 67


 1829              	.LVL253:
 1830              	.L148:
1729:TP2824/TP2802.c **** 				break;
1730:TP2824/TP2802.c **** 	default:
1731:TP2824/TP2802.c **** 		ret=0;
1732:TP2824/TP2802.c **** 		break;
1733:TP2824/TP2802.c ****  	}
1734:TP2824/TP2802.c **** 	 
1735:TP2824/TP2802.c **** 	 return ret;
1736:TP2824/TP2802.c **** }
 1831              		.loc 1 1736 0
 1832 00c0 7047     		bx	lr
 1833              	.LVL254:
 1834              	.L185:
1646:TP2824/TP2802.c **** 	
 1835              		.loc 1 1646 0
 1836 00c2 0020     		movs	r0, #0
 1837              	.LVL255:
 1838 00c4 7047     		bx	lr
 1839              	.LVL256:
 1840              	.L164:
1702:TP2824/TP2802.c **** 		break;
 1841              		.loc 1 1702 0
 1842 00c6 0020     		movs	r0, #0
 1843              	.LVL257:
 1844 00c8 7047     		bx	lr
 1845              	.L165:
1652:TP2824/TP2802.c **** 		break;
 1846              		.loc 1 1652 0
 1847 00ca 0120     		movs	r0, #1
 1848 00cc 7047     		bx	lr
 1849              	.LVL258:
 1850              	.L166:
1656:TP2824/TP2802.c **** 		break;
 1851              		.loc 1 1656 0
 1852 00ce 0120     		movs	r0, #1
 1853              	.LVL259:
 1854 00d0 7047     		bx	lr
 1855              	.LVL260:
 1856              	.L167:
 1857 00d2 0120     		movs	r0, #1
 1858              	.LVL261:
 1859 00d4 7047     		bx	lr
 1860              	.LVL262:
 1861              	.L168:
 1862 00d6 0120     		movs	r0, #1
 1863              	.LVL263:
 1864 00d8 7047     		bx	lr
 1865              	.LVL264:
 1866              	.L169:
1660:TP2824/TP2802.c **** 					break;
 1867              		.loc 1 1660 0
 1868 00da 0120     		movs	r0, #1
 1869              	.LVL265:
 1870 00dc 7047     		bx	lr
 1871              	.LVL266:
 1872              	.L170:
ARM GAS  /tmp/ccZU1AeU.s 			page 68


 1873 00de 0120     		movs	r0, #1
 1874              	.LVL267:
 1875 00e0 7047     		bx	lr
 1876              	.LVL268:
 1877              	.L171:
1664:TP2824/TP2802.c **** 				break;
 1878              		.loc 1 1664 0
 1879 00e2 0120     		movs	r0, #1
 1880              	.LVL269:
 1881 00e4 7047     		bx	lr
 1882              	.L172:
1669:TP2824/TP2802.c **** 		break;
 1883              		.loc 1 1669 0
 1884 00e6 0120     		movs	r0, #1
 1885 00e8 7047     		bx	lr
 1886              	.L173:
1673:TP2824/TP2802.c **** 			break;
 1887              		.loc 1 1673 0
 1888 00ea 0120     		movs	r0, #1
 1889 00ec 7047     		bx	lr
 1890              	.LVL270:
 1891              	.L174:
1682:TP2824/TP2802.c **** 		break;
 1892              		.loc 1 1682 0
 1893 00ee 0120     		movs	r0, #1
 1894              	.LVL271:
 1895 00f0 7047     		bx	lr
 1896              	.LVL272:
 1897              	.L175:
1688:TP2824/TP2802.c **** 					break;
 1898              		.loc 1 1688 0
 1899 00f2 0120     		movs	r0, #1
 1900              	.LVL273:
 1901 00f4 7047     		bx	lr
 1902              	.LVL274:
 1903              	.L176:
 1904 00f6 0120     		movs	r0, #1
 1905              	.LVL275:
 1906 00f8 7047     		bx	lr
 1907              	.LVL276:
 1908              	.L177:
1693:TP2824/TP2802.c **** 				break;
 1909              		.loc 1 1693 0
 1910 00fa 0120     		movs	r0, #1
 1911              	.LVL277:
 1912 00fc 7047     		bx	lr
 1913              	.LVL278:
 1914              	.L178:
1698:TP2824/TP2802.c **** 					break;
 1915              		.loc 1 1698 0
 1916 00fe 0120     		movs	r0, #1
 1917              	.LVL279:
 1918 0100 7047     		bx	lr
 1919              	.LVL280:
 1920              	.L179:
 1921 0102 0120     		movs	r0, #1
 1922              	.LVL281:
ARM GAS  /tmp/ccZU1AeU.s 			page 69


 1923 0104 7047     		bx	lr
 1924              	.LVL282:
 1925              	.L180:
1707:TP2824/TP2802.c **** 		break;
 1926              		.loc 1 1707 0
 1927 0106 0120     		movs	r0, #1
 1928              	.LVL283:
 1929 0108 7047     		bx	lr
 1930              	.LVL284:
 1931              	.L181:
 1932 010a 0120     		movs	r0, #1
 1933              	.LVL285:
 1934 010c 7047     		bx	lr
 1935              	.LVL286:
 1936              	.L182:
1714:TP2824/TP2802.c **** 		break;
 1937              		.loc 1 1714 0
 1938 010e 0120     		movs	r0, #1
 1939              	.LVL287:
 1940 0110 7047     		bx	lr
 1941              	.L187:
 1942 0112 00BF     		.align	2
 1943              	.L186:
 1944 0114 00000000 		.word	CURRENT_CH
 1945              		.cfi_endproc
 1946              	.LFE84:
 1948              		.section	.text.Det_HLock,"ax",%progbits
 1949              		.align	1
 1950              		.global	Det_HLock
 1951              		.syntax unified
 1952              		.thumb
 1953              		.thumb_func
 1954              		.fpu softvfp
 1956              	Det_HLock:
 1957              	.LFB86:
1737:TP2824/TP2802.c **** 
1738:TP2824/TP2802.c **** void EQ_Detect()
1739:TP2824/TP2802.c **** {
1740:TP2824/TP2802.c ****     //tByte tmpval;
1741:TP2824/TP2802.c ****     tByte cvstd,status,i;
1742:TP2824/TP2802.c ****     tByte gain, tmp, fmt/*, tmpab*/;
1743:TP2824/TP2802.c **** 	
1744:TP2824/TP2802.c ****     for(i = 0; i < CH_PER_CHIP; i++)//scan four inputs:
1745:TP2824/TP2802.c ****     {
1746:TP2824/TP2802.c **** 	//	if((INPUT_VIDEO_CHECK(i))&&(BOOT_ISSUE==ON))
1747:TP2824/TP2802.c ****           //      continue;
1748:TP2824/TP2802.c **** 
1749:TP2824/TP2802.c **** 		
1750:TP2824/TP2802.c ****         SetRegPage(i);
1751:TP2824/TP2802.c ****         status = tp28xx_byte_read(0x01);
1752:TP2824/TP2802.c **** 
1753:TP2824/TP2802.c ****         //state machine for video checking
1754:TP2824/TP2802.c ****         if(status & FLAG_LOSS)
1755:TP2824/TP2802.c ****         {
1756:TP2824/TP2802.c **** 	
1757:TP2824/TP2802.c **** 		
1758:TP2824/TP2802.c ****             if(VIDEO_UNPLUG == state[i])
ARM GAS  /tmp/ccZU1AeU.s 			page 70


1759:TP2824/TP2802.c ****             {
1760:TP2824/TP2802.c ****                 if(count[i] < MAX_COUNT) count[i]++;
1761:TP2824/TP2802.c ****                 continue;
1762:TP2824/TP2802.c ****             }
1763:TP2824/TP2802.c ****             else
1764:TP2824/TP2802.c ****             {
1765:TP2824/TP2802.c **** 
1766:TP2824/TP2802.c **** 
1767:TP2824/TP2802.c **** 				 if(SelectInputMode==_AHD_Input)
1768:TP2824/TP2802.c **** 				 	{
1769:TP2824/TP2802.c **** 					 Set_Video_Loss_OSD(1,ON);	 
1770:TP2824/TP2802.c **** 					VXISI2CWrite( 0x32, 0x00 );
1771:TP2824/TP2802.c **** 				 	}
1772:TP2824/TP2802.c **** 
1773:TP2824/TP2802.c **** 				
1774:TP2824/TP2802.c **** 				 
1775:TP2824/TP2802.c **** 				 Init_TP280x_RegSet();
1776:TP2824/TP2802.c **** 
1777:TP2824/TP2802.c **** 				 if(SelectInputMode==_AHD_Input)
1778:TP2824/TP2802.c **** 				 	{
1779:TP2824/TP2802.c **** 
1780:TP2824/TP2802.c **** 				  HS_Select_Win(1);
1781:TP2824/TP2802.c **** 				 	}
1782:TP2824/TP2802.c **** 			#if 0
1783:TP2824/TP2802.c ****                  state[i] = VIDEO_UNPLUG;
1784:TP2824/TP2802.c ****                 count[i] = 0;
1785:TP2824/TP2802.c ****                 mode[i] = NoDet;
1786:TP2824/TP2802.c ****                 TP28xx_reset_default(chip, i);
1787:TP2824/TP2802.c ****                 printf("video loss ch%02x \r\n", (tWord)i);                
1788:TP2824/TP2802.c ****               	VS4210_Rx_NoSignal(1/*i*/) ; //chunyu
1789:TP2824/TP2802.c **** 		TP_InputMode=7;
1790:TP2824/TP2802.c **** 		    newInRes[0] = _OSD_No_Signal; 
1791:TP2824/TP2802.c **** 				
1792:TP2824/TP2802.c **** 		if(SelectInputMode==_AHD_Input)
1793:TP2824/TP2802.c **** 		Set_Video_Loss_OSD(1,ON);	
1794:TP2824/TP2802.c **** 		//MCUTimerActiveTimerEvent(SEC(2), _SYSTEM_TIMER_EVENT_SET_VIDEO_LOSS);
1795:TP2824/TP2802.c **** 		//MCUTimerActiveTimerEvent(SEC(3), _SYSTEM_TIMER_EVENT_VIDEO_RESET);
1796:TP2824/TP2802.c **** 
1797:TP2824/TP2802.c **** 		OSDSecCount = 0 ;
1798:TP2824/TP2802.c **** 		 OSDStateFlg = 1 ;	
1799:TP2824/TP2802.c **** 			#endif
1800:TP2824/TP2802.c ****             }
1801:TP2824/TP2802.c **** 			
1802:TP2824/TP2802.c ****         }
1803:TP2824/TP2802.c ****         else
1804:TP2824/TP2802.c ****         {
1805:TP2824/TP2802.c ****             if(PAL == mode[i] || NTSC == mode[i])
1806:TP2824/TP2802.c ****                 flag_LOCKED = CVBS_FLAG_LOCKED;
1807:TP2824/TP2802.c ****             else
1808:TP2824/TP2802.c ****                 flag_LOCKED = TVI_FLAG_LOCKED;
1809:TP2824/TP2802.c **** 
1810:TP2824/TP2802.c ****             if( flag_LOCKED == (status & flag_LOCKED) ) //video locked
1811:TP2824/TP2802.c ****             {
1812:TP2824/TP2802.c ****                 if(VIDEO_LOCKED == state[i])
1813:TP2824/TP2802.c ****                 {
1814:TP2824/TP2802.c ****                     if(count[i] < MAX_COUNT) count[i]++;
1815:TP2824/TP2802.c **** 				#if 0
ARM GAS  /tmp/ccZU1AeU.s 			page 71


1816:TP2824/TP2802.c **** 				if(VideoSave[i]==_TRUE)
1817:TP2824/TP2802.c **** 				{
1818:TP2824/TP2802.c **** 			 		if((count[i]==1)&&((mode[i] == NTSC) ||( mode[i] == PAL)))
1819:TP2824/TP2802.c **** 			 		count[i]=20;//ryan@20200903
1820:TP2824/TP2802.c **** 			 		else if((count[i]==1)/*&&(ReadEEP(EEP_TP2824_STD0+(i*3))==HDA)*/)
1821:TP2824/TP2802.c **** 			 			{
1822:TP2824/TP2802.c **** 			 			std[i]=ReadEEP(EEP_TP2824_STD0+(i*3));
1823:TP2824/TP2802.c **** 						
1824:TP2824/TP2802.c **** 		 			 		if(std[i]==HDC)
1825:TP2824/TP2802.c **** 							{
1826:TP2824/TP2802.c **** 							Set_HDC(i);
1827:TP2824/TP2802.c **** 							printf("(Set_HDC)");
1828:TP2824/TP2802.c **** 							}
1829:TP2824/TP2802.c **** 							 if(std[i]==HDA)
1830:TP2824/TP2802.c **** 						 	{
1831:TP2824/TP2802.c **** 						 	Set_HDA(i);
1832:TP2824/TP2802.c **** 							printf("(Set_HDA)");
1833:TP2824/TP2802.c **** 						 	}
1834:TP2824/TP2802.c **** 							 
1835:TP2824/TP2802.c **** 						count[i]=20;
1836:TP2824/TP2802.c **** 			 			}
1837:TP2824/TP2802.c **** 					
1838:TP2824/TP2802.c **** 				}	
1839:TP2824/TP2802.c **** 				#endif
1840:TP2824/TP2802.c ****                 }
1841:TP2824/TP2802.c ****                 else if(VIDEO_UNPLUG == state[i])
1842:TP2824/TP2802.c ****                 {
1843:TP2824/TP2802.c ****                     state[i] = VIDEO_IN;
1844:TP2824/TP2802.c ****                     count[i] = 0;
1845:TP2824/TP2802.c ****                     printf("1video in ch%02x \r\n", (tWord)i);
1846:TP2824/TP2802.c ****                 }
1847:TP2824/TP2802.c ****                 else
1848:TP2824/TP2802.c ****                 {
1849:TP2824/TP2802.c ****                     state[i] = VIDEO_LOCKED;
1850:TP2824/TP2802.c ****                     count[i] = 0;
1851:TP2824/TP2802.c ****                     printf("video locked ch%02x \r\n", (tWord)i);
1852:TP2824/TP2802.c ****                 }
1853:TP2824/TP2802.c ****             }
1854:TP2824/TP2802.c ****             else  //video in but unlocked
1855:TP2824/TP2802.c ****             {
1856:TP2824/TP2802.c ****          
1857:TP2824/TP2802.c ****                 if(VIDEO_UNPLUG == state[i])
1858:TP2824/TP2802.c ****                 {
1859:TP2824/TP2802.c ****                     state[i] = VIDEO_IN;
1860:TP2824/TP2802.c ****                     count[i] = 0;
1861:TP2824/TP2802.c ****                     printf("video in ch%02x \r\n", (tWord)i);
1862:TP2824/TP2802.c ****                 }
1863:TP2824/TP2802.c ****                 else if(VIDEO_LOCKED == state[i])
1864:TP2824/TP2802.c ****                 {
1865:TP2824/TP2802.c **** /*
1866:TP2824/TP2802.c **** 			if(Flisheye_VLOSS_Count[i]<100)
1867:TP2824/TP2802.c **** 			{
1868:TP2824/TP2802.c **** 			Flisheye_VLOSS_Count[i]++;
1869:TP2824/TP2802.c **** 			}
1870:TP2824/TP2802.c **** 		else
1871:TP2824/TP2802.c **** 			*/
1872:TP2824/TP2802.c **** 			{
ARM GAS  /tmp/ccZU1AeU.s 			page 72


1873:TP2824/TP2802.c ****                     state[i] = VIDEO_UNLOCK;
1874:TP2824/TP2802.c ****                     count[i] = 0;
1875:TP2824/TP2802.c ****                     printf("video unstable ch%02x \r\n", (tWord)i);
1876:TP2824/TP2802.c **** 			}		
1877:TP2824/TP2802.c ****                 }
1878:TP2824/TP2802.c ****                 else
1879:TP2824/TP2802.c ****                 {
1880:TP2824/TP2802.c ****                     if(count[i] < MAX_COUNT) count[i]++;
1881:TP2824/TP2802.c ****                     if(VIDEO_UNLOCK == state[i] && count[i] > 2)
1882:TP2824/TP2802.c ****                     {
1883:TP2824/TP2802.c ****                         state[i] = VIDEO_IN;
1884:TP2824/TP2802.c ****                         count[i] = 0;
1885:TP2824/TP2802.c ****                         TP28xx_reset_default(chip, i);
1886:TP2824/TP2802.c ****                         printf("video unlocked ch%02x \r\n", (tWord)i);                        
1887:TP2824/TP2802.c ****                         VS4210_Rx_NoSignal(i) ;//chunyu
1888:TP2824/TP2802.c ****                     }
1889:TP2824/TP2802.c ****                 }
1890:TP2824/TP2802.c **** 				
1891:TP2824/TP2802.c ****             }
1892:TP2824/TP2802.c **** 			
1893:TP2824/TP2802.c ****         }
1894:TP2824/TP2802.c **** 
1895:TP2824/TP2802.c ****         if( VIDEO_IN == state[i])
1896:TP2824/TP2802.c ****         {
1897:TP2824/TP2802.c ****             cvstd = tp28xx_byte_read(0x03);
1898:TP2824/TP2802.c ****             sywd = cvstd & 0x08;
1899:TP2824/TP2802.c ****             cvstd &= 0x07;
1900:TP2824/TP2802.c ****             fmt = mode[i];
1901:TP2824/TP2802.c ****             if(NTPAL == cvstd && flag_CVBS)
1902:TP2824/TP2802.c ****             {
1903:TP2824/TP2802.c ****                 //if(count[i] & 0x01)
1904:TP2824/TP2802.c ****                 if(status & 0x04)
1905:TP2824/TP2802.c ****                     fmt = PAL;
1906:TP2824/TP2802.c ****                 else
1907:TP2824/TP2802.c ****                     fmt = NTSC;
1908:TP2824/TP2802.c ****             }
1909:TP2824/TP2802.c ****             else if(cvstd == R720P30 )
1910:TP2824/TP2802.c ****             {
1911:TP2824/TP2802.c ****                 if( flag_MEGA && (count[i]&0x02) )// 3M auto detect test
1912:TP2824/TP2802.c ****                     fmt = R4M12;
1913:TP2824/TP2802.c ****                 else
1914:TP2824/TP2802.c ****                     fmt = R720P30V2;
1915:TP2824/TP2802.c ****             }
1916:TP2824/TP2802.c ****             else if(cvstd == R720P25 )
1917:TP2824/TP2802.c ****             {
1918:TP2824/TP2802.c ****                 fmt = R720P25V2;
1919:TP2824/TP2802.c ****             }
1920:TP2824/TP2802.c ****             else if(cvstd == R1080P30 )
1921:TP2824/TP2802.c ****             {
1922:TP2824/TP2802.c ****                 if( flag_MEGA && (count[i]&0x02) )//TP2853C 3M auto detect test
1923:TP2824/TP2802.c ****                     fmt = R3M20;
1924:TP2824/TP2802.c ****                 else
1925:TP2824/TP2802.c ****                     fmt = R1080P30;
1926:TP2824/TP2802.c ****             }
1927:TP2824/TP2802.c ****             else if(cvstd == R720P60 )
1928:TP2824/TP2802.c ****             {
1929:TP2824/TP2802.c ****                 if( flag_MEGA && (count[i]&0x02) )//TP2853C 3M auto detect test
ARM GAS  /tmp/ccZU1AeU.s 			page 73


1930:TP2824/TP2802.c ****                     fmt = R4M30;
1931:TP2824/TP2802.c ****                 else
1932:TP2824/TP2802.c ****                     fmt = R720P60;
1933:TP2824/TP2802.c ****             }
1934:TP2824/TP2802.c ****             else if(cvstd < 4 )
1935:TP2824/TP2802.c ****             {
1936:TP2824/TP2802.c ****                 fmt = cvstd;
1937:TP2824/TP2802.c ****             }
1938:TP2824/TP2802.c ****             else
1939:TP2824/TP2802.c ****             {
1940:TP2824/TP2802.c ****                 if( flag_MEGA )//TP2853C 3M auto detect test
1941:TP2824/TP2802.c ****                 {
1942:TP2824/TP2802.c ****                     tp28xx_byte_write(0x2f, 0x09);
1943:TP2824/TP2802.c ****                     tmp = tp28xx_byte_read(0x04);
1944:TP2824/TP2802.c ****                     if((tmp > 0x48) && (tmp < 0x55))
1945:TP2824/TP2802.c ****                     {
1946:TP2824/TP2802.c ****                         fmt = R3M18;
1947:TP2824/TP2802.c ****                     }
1948:TP2824/TP2802.c ****                     else if((tmp > 0x55) && (tmp < 0x62))
1949:TP2824/TP2802.c ****                     {
1950:TP2824/TP2802.c ****                         fmt = R4M15;
1951:TP2824/TP2802.c ****                     }
1952:TP2824/TP2802.c ****                     else if((tmp > 0x70) && (tmp < 0x80))
1953:TP2824/TP2802.c ****                     {
1954:TP2824/TP2802.c ****                         fmt = R6M10;
1955:TP2824/TP2802.c ****                     }
1956:TP2824/TP2802.c ****                 }
1957:TP2824/TP2802.c ****             }
1958:TP2824/TP2802.c **** /*
1959:TP2824/TP2802.c **** 		if(VideoSave[i]==_TRUE)
1960:TP2824/TP2802.c **** 		{
1961:TP2824/TP2802.c **** 		printf("(B)");
1962:TP2824/TP2802.c **** 		Set_VidRes(i);      
1963:TP2824/TP2802.c **** 		}
1964:TP2824/TP2802.c **** 		else
1965:TP2824/TP2802.c **** 			*/
1966:TP2824/TP2802.c **** 		{
1967:TP2824/TP2802.c **** 		   	if( mode[i] != fmt )
1968:TP2824/TP2802.c **** 		            {
1969:TP2824/TP2802.c **** 		                mode[i] = fmt;
1970:TP2824/TP2802.c **** 		                printf("Set_VidResmode[%d] =%d\r\n",(int)i, (int)fmt);
1971:TP2824/TP2802.c **** 		                Set_VidRes(i);
1972:TP2824/TP2802.c **** 		            }
1973:TP2824/TP2802.c **** 		}
1974:TP2824/TP2802.c ****         }
1975:TP2824/TP2802.c **** 
1976:TP2824/TP2802.c ****         if( VIDEO_LOCKED == state[i]) //check signal lock
1977:TP2824/TP2802.c ****         {
1978:TP2824/TP2802.c ****             if(0 == count[i])
1979:TP2824/TP2802.c ****             {
1980:TP2824/TP2802.c ****                 std[i] = TVI;
1981:TP2824/TP2802.c ****                 CurCH = i;
1982:TP2824/TP2802.c ****                 if( (R720P30V2 == mode[i]) || (R720P25V2 == mode[i]) )
1983:TP2824/TP2802.c ****                 {
1984:TP2824/TP2802.c ****                     if( 0x00 == (0x08 & tp28xx_byte_read(0x03)))
1985:TP2824/TP2802.c ****                     {
1986:TP2824/TP2802.c ****                         mode[i] &= 0xf7;
ARM GAS  /tmp/ccZU1AeU.s 			page 74


1987:TP2824/TP2802.c ****                         Set_VidRes(i);
1988:TP2824/TP2802.c ****                         //printf("TVI_Set_VidRes\r\n");
1989:TP2824/TP2802.c ****                     }
1990:TP2824/TP2802.c ****                 }
1991:TP2824/TP2802.c **** 
1992:TP2824/TP2802.c ****                 //tp28xx_byte_write(0xf6  , REG_F6[i]);
1993:TP2824/TP2802.c ****                 tp28xx_byte_write(0xf6 +i  , REG_F6[i]);  //chunyu
1994:TP2824/TP2802.c **** 
1995:TP2824/TP2802.c **** #if(OUTPUT == Bits16out)
1996:TP2824/TP2802.c ****                 if( TP2826 == chip )
1997:TP2824/TP2802.c ****                 {
1998:TP2824/TP2802.c ****                     tp28xx_byte_write(0xf8, REG_F7[i]);
1999:TP2824/TP2802.c ****                     tp28xx_byte_write(0xfa, REG_FA[i]);
2000:TP2824/TP2802.c ****                     tp28xx_byte_write(0xfb, REG_FA[i]);
2001:TP2824/TP2802.c ****                 }
2002:TP2824/TP2802.c ****                 else
2003:TP2824/TP2802.c ****                 {                    
2004:TP2824/TP2802.c ****                     tp28xx_byte_write(0xf7, REG_F7[i]);
2005:TP2824/TP2802.c ****                     tp28xx_byte_write(0xfa, REG_FA[i]);
2006:TP2824/TP2802.c ****                     //printf("set output ch%02x \r\n", (tWord)CH[i]);
2007:TP2824/TP2802.c ****                 }
2008:TP2824/TP2802.c **** #else //BT656																				
2009:TP2824/TP2802.c **** 
2010:TP2824/TP2802.c ****                 tmp=tp28xx_byte_read(0xf5);
2011:TP2824/TP2802.c ****                 if( tmp &= SYS_MODE[i])
2012:TP2824/TP2802.c ****                 {
2013:TP2824/TP2802.c ****                     printf("//75.25M output\r\n") ;
2014:TP2824/TP2802.c **** 
2015:TP2824/TP2802.c ****                     if (i == 0)
2016:TP2824/TP2802.c ****                     {
2017:TP2824/TP2802.c ****                         tmpab = tp28xx_byte_read(0xfa) ;
2018:TP2824/TP2802.c ****                         tmpab = (tmpab & 0xF0) | 0x0A ;
2019:TP2824/TP2802.c ****                         tp28xx_byte_write(0xfa, tmpab);
2020:TP2824/TP2802.c ****                     }
2021:TP2824/TP2802.c ****                     else if (i == 1)
2022:TP2824/TP2802.c ****                     {
2023:TP2824/TP2802.c ****                         tmpab = tp28xx_byte_read(0xfa) ;
2024:TP2824/TP2802.c ****                         tmpab = (tmpab & 0x0F) | 0xA0 ;
2025:TP2824/TP2802.c ****                         tp28xx_byte_write(0xfa, tmpab);
2026:TP2824/TP2802.c ****                     }
2027:TP2824/TP2802.c **** 
2028:TP2824/TP2802.c ****                     if (i == 2)
2029:TP2824/TP2802.c ****                     {
2030:TP2824/TP2802.c ****                         tmpab = tp28xx_byte_read(0xfb) ;
2031:TP2824/TP2802.c ****                         tmpab = (tmpab & 0xF0) | 0x0A ;
2032:TP2824/TP2802.c ****                         tp28xx_byte_write(0xfb, tmpab);
2033:TP2824/TP2802.c ****                     }
2034:TP2824/TP2802.c ****                     else if (i == 3)
2035:TP2824/TP2802.c ****                     {
2036:TP2824/TP2802.c ****                         tmpab = tp28xx_byte_read(0xfb) ;
2037:TP2824/TP2802.c ****                         tmpab = (tmpab & 0x0F) | 0xA0 ;
2038:TP2824/TP2802.c ****                         tp28xx_byte_write(0xfb, tmpab);
2039:TP2824/TP2802.c ****                     }
2040:TP2824/TP2802.c ****                 }
2041:TP2824/TP2802.c ****                 else
2042:TP2824/TP2802.c ****                 {
2043:TP2824/TP2802.c ****                     extern tByte half_scaler;
ARM GAS  /tmp/ccZU1AeU.s 			page 75


2044:TP2824/TP2802.c ****                     if(half_scaler) //down scaler output
2045:TP2824/TP2802.c ****                     {
2046:TP2824/TP2802.c ****                         tmp=tp28xx_byte_read(0x35);
2047:TP2824/TP2802.c ****                         tmp |= 0x40;
2048:TP2824/TP2802.c ****                         tp28xx_byte_write(0x35, tmp);                        
2049:TP2824/TP2802.c **** 
2050:TP2824/TP2802.c ****                         if (i == 0)
2051:TP2824/TP2802.c ****                         {
2052:TP2824/TP2802.c ****                             tmpab = tp28xx_byte_read(0xfa) ;
2053:TP2824/TP2802.c ****                             tmpab = (tmpab & 0xF0) | 0x0A ;
2054:TP2824/TP2802.c ****                             tp28xx_byte_write(0xfa, tmpab);
2055:TP2824/TP2802.c ****                         }
2056:TP2824/TP2802.c ****                         else if (i == 1)
2057:TP2824/TP2802.c ****                         {
2058:TP2824/TP2802.c ****                             tmpab = tp28xx_byte_read(0xfa) ;
2059:TP2824/TP2802.c ****                             tmpab = (tmpab & 0x0F) | 0xA0 ;
2060:TP2824/TP2802.c ****                             tp28xx_byte_write(0xfa, tmpab);
2061:TP2824/TP2802.c ****                         }
2062:TP2824/TP2802.c **** 
2063:TP2824/TP2802.c **** 
2064:TP2824/TP2802.c ****                         if (i == 2)
2065:TP2824/TP2802.c ****                         {
2066:TP2824/TP2802.c ****                             tmpab = tp28xx_byte_read(0xfb) ;
2067:TP2824/TP2802.c ****                             tmpab = (tmpab & 0xF0) | 0x0A ;
2068:TP2824/TP2802.c ****                             tp28xx_byte_write(0xfb, tmpab);
2069:TP2824/TP2802.c ****                         }
2070:TP2824/TP2802.c ****                         else if (i == 3)
2071:TP2824/TP2802.c ****                         {
2072:TP2824/TP2802.c ****                             tmpab = tp28xx_byte_read(0xfb) ;
2073:TP2824/TP2802.c ****                             tmpab = (tmpab & 0x0F) | 0xA0 ;
2074:TP2824/TP2802.c ****                             tp28xx_byte_write(0xfb, tmpab);
2075:TP2824/TP2802.c ****                         }
2076:TP2824/TP2802.c **** 
2077:TP2824/TP2802.c ****                     }
2078:TP2824/TP2802.c ****                     else
2079:TP2824/TP2802.c ****                     {
2080:TP2824/TP2802.c ****                         tmp=tp28xx_byte_read(0x35);
2081:TP2824/TP2802.c ****                         tmp &= 0xbf;
2082:TP2824/TP2802.c ****                         tp28xx_byte_write(0x35, tmp);
2083:TP2824/TP2802.c **** 
2084:TP2824/TP2802.c **** 
2085:TP2824/TP2802.c ****                         if (i == 0)
2086:TP2824/TP2802.c ****                         {
2087:TP2824/TP2802.c ****                             tmpab = tp28xx_byte_read(0xfa) ;
2088:TP2824/TP2802.c ****                             tmpab = (tmpab & 0xF0) | 0x08 ;
2089:TP2824/TP2802.c ****                             tp28xx_byte_write(0xfa, tmpab);
2090:TP2824/TP2802.c ****                         }
2091:TP2824/TP2802.c ****                         else if (i == 1)
2092:TP2824/TP2802.c ****                         {
2093:TP2824/TP2802.c ****                             tmpab = tp28xx_byte_read(0xfa) ;
2094:TP2824/TP2802.c ****                             tmpab = (tmpab & 0x0F) | 0x80 ;
2095:TP2824/TP2802.c ****                             tp28xx_byte_write(0xfa, tmpab);
2096:TP2824/TP2802.c ****                         }
2097:TP2824/TP2802.c **** 
2098:TP2824/TP2802.c **** 
2099:TP2824/TP2802.c ****                         if (i == 2)
2100:TP2824/TP2802.c ****                         {
ARM GAS  /tmp/ccZU1AeU.s 			page 76


2101:TP2824/TP2802.c ****                             tmpab = tp28xx_byte_read(0xfb) ;
2102:TP2824/TP2802.c ****                             tmpab = (tmpab & 0xF0) | 0x08 ;
2103:TP2824/TP2802.c ****                             tp28xx_byte_write(0xfb, tmpab);
2104:TP2824/TP2802.c ****                         }
2105:TP2824/TP2802.c ****                         else if (i == 3)
2106:TP2824/TP2802.c ****                         {
2107:TP2824/TP2802.c ****                             tmpab = tp28xx_byte_read(0xfb) ;
2108:TP2824/TP2802.c ****                             tmpab = (tmpab & 0x0F) | 0x80 ;
2109:TP2824/TP2802.c ****                             tp28xx_byte_write(0xfb, tmpab);
2110:TP2824/TP2802.c ****                         }
2111:TP2824/TP2802.c ****                     }
2112:TP2824/TP2802.c ****                 }
2113:TP2824/TP2802.c **** #endif
2114:TP2824/TP2802.c ****                 if( CurRes != ManVidResRx)
2115:TP2824/TP2802.c ****                 {
2116:TP2824/TP2802.c ****                     CurRes = ManVidResRx;
2117:TP2824/TP2802.c ****                     //CreateMDIN340VideoInstance();  //chunyu
2118:TP2824/TP2802.c ****                     printf("ManVidResRx=0x%02x\r\n",ManVidResRx ) ;
2119:TP2824/TP2802.c **** 
2120:TP2824/TP2802.c ****                 }
2121:TP2824/TP2802.c ****             }
2122:TP2824/TP2802.c ****             else if(1 == count[i])
2123:TP2824/TP2802.c ****             {
2124:TP2824/TP2802.c ****                 if( chip > TP2823 )
2125:TP2824/TP2802.c ****                 {
2126:TP2824/TP2802.c ****                     tmp = tp28xx_byte_read(0x01);
2127:TP2824/TP2802.c ****                     printf("Reg01 %02x\r\n", (tWord)tmp);
2128:TP2824/TP2802.c ****                     if(mode[i] == NTSC || mode[i] == PAL)
2129:TP2824/TP2802.c ****                              printf("CVBS  mode:%d\r\n", (tWord)mode[i]);
2130:TP2824/TP2802.c **** //                 if( 0x60 == (0x64 & tmp))
2131:TP2824/TP2802.c ****                     else if((0x60 == (0x64 & tmp)) &&
2132:TP2824/TP2802.c ****             			   (mode[i] != R720P30 && mode[i] != R720P25 && mode[i] != R720P30V2 && mode[i] != R
2133:TP2824/TP2802.c ****                     {
2134:TP2824/TP2802.c ****                         //if(Set_HDA(mode[i])) printf("turn to A ch%02x\r\n", (tWord)i);
2135:TP2824/TP2802.c ****                         if(Set_HDC(i))
2136:TP2824/TP2802.c ****                         {
2137:TP2824/TP2802.c ****                             std[i] = HDC;
2138:TP2824/TP2802.c ****                             printf("turn to C ch%02x\r\n", (tWord)i);
2139:TP2824/TP2802.c ****                         }
2140:TP2824/TP2802.c ****                     }
2141:TP2824/TP2802.c ****                 }
2142:TP2824/TP2802.c ****             }
2143:TP2824/TP2802.c ****             else if(2 == count[i])
2144:TP2824/TP2802.c ****             {
2145:TP2824/TP2802.c ****                 if( chip > TP2823 )
2146:TP2824/TP2802.c ****                 {
2147:TP2824/TP2802.c ****                     tmp = tp28xx_byte_read(0x01);
2148:TP2824/TP2802.c ****                     printf("Reg01 %02x\r\n", (tWord)tmp);
2149:TP2824/TP2802.c **** 			if(mode[i] == NTSC || mode[i] == PAL)
2150:TP2824/TP2802.c ****                              printf("CVBS  mode:%d\r\n", (tWord)mode[i]);
2151:TP2824/TP2802.c **** //                 if( 0x10 != (0x11 & tmp) && HDC == std[i])
2152:TP2824/TP2802.c **** 		      else if((0x10 != (0x11 & tmp) && HDC == std[i]) ||
2153:TP2824/TP2802.c **** 		                 (0x00 == (0x04 & tmp) && 
2154:TP2824/TP2802.c **** 		                 (mode[i] == R720P30 || mode[i] == R720P25 || mode[i] == R720P30V2 || mode[i] == 
2155:TP2824/TP2802.c ****                     {
2156:TP2824/TP2802.c ****                         if(Set_HDA(i))
2157:TP2824/TP2802.c ****                         {
ARM GAS  /tmp/ccZU1AeU.s 			page 77


2158:TP2824/TP2802.c ****                             std[i] = HDA;
2159:TP2824/TP2802.c ****                             printf("turn to A ch%02x\r\n", (tWord)i);
2160:TP2824/TP2802.c ****                         }
2161:TP2824/TP2802.c ****                     }
2162:TP2824/TP2802.c **** 
2163:TP2824/TP2802.c ****                 }
2164:TP2824/TP2802.c **** 
2165:TP2824/TP2802.c ****             }
2166:TP2824/TP2802.c ****             else if(3 == count[i])
2167:TP2824/TP2802.c ****             {
2168:TP2824/TP2802.c ****                 if( chip > TP2823 )
2169:TP2824/TP2802.c ****                 {
2170:TP2824/TP2802.c ****                     tmp = tp28xx_byte_read(0x01);
2171:TP2824/TP2802.c ****                     printf("Reg01 %02x\r\n", (tWord)tmp);
2172:TP2824/TP2802.c **** 
2173:TP2824/TP2802.c ****                     if((mode[i] == R1080P30 || mode[i] == R1080P25)&& 0x00 == (0x04 & tmp))
2174:TP2824/TP2802.c ****                         printf("AHD 1080P30/P25  mode:%d\r\n", (tWord)mode[i]);
2175:TP2824/TP2802.c **** 		      else if((mode[i] == R1080P30 || mode[i] == R1080P25) && 0x04 == (0x04 & tmp) && std[i] == T
2176:TP2824/TP2802.c ****                         printf("TVI 1080P30/P25   mode:%d\r\n", (tWord)mode[i]);
2177:TP2824/TP2802.c **** 		      else if((mode[i] == R720P30 || mode[i] == R720P25 || mode[i] == R720P30V2 || mode[i] == R72
2178:TP2824/TP2802.c **** 			  	0x00 == (0x04 & tmp) && std[i] == HDA)
2179:TP2824/TP2802.c ****                         printf("AHD 720P30/P25/P60/P50   mode:%d\r\n", (tWord)mode[i]);
2180:TP2824/TP2802.c **** 		      else if(mode[i] == NTSC || mode[i] == PAL)
2181:TP2824/TP2802.c ****                              printf("CVBS    mode:%d\r\n", (tWord)mode[i]);
2182:TP2824/TP2802.c **** //		      if( 0x00 != (0x01 & tmp))
2183:TP2824/TP2802.c **** 		      else if( 0x00 != (0x01 & tmp)) 
2184:TP2824/TP2802.c ****                     {
2185:TP2824/TP2802.c ****                       //  Set_VidRes(mode[i]); //chunyu
2186:TP2824/TP2802.c ****                         Set_VidRes(i); //is it right? ryan@20200904
2187:TP2824/TP2802.c ****                         printf("back to T ch%02x\r\n", (tWord)i); //chunyu
2188:TP2824/TP2802.c ****                     }
2189:TP2824/TP2802.c ****                 }
2190:TP2824/TP2802.c ****             }
2191:TP2824/TP2802.c ****             else if(count[i] < 7) //skip first 3 second
2192:TP2824/TP2802.c ****             {
2193:TP2824/TP2802.c ****                 egain[i][3] = egain[i][2];
2194:TP2824/TP2802.c ****                 egain[i][2] = egain[i][1];
2195:TP2824/TP2802.c ****                 egain[i][1] = egain[i][0];
2196:TP2824/TP2802.c **** 
2197:TP2824/TP2802.c ****                 gain = ReadGain();
2198:TP2824/TP2802.c ****                 egain[i][0] = gain;
2199:TP2824/TP2802.c ****             }
2200:TP2824/TP2802.c ****             else if( count[i] < EQ_COUNT)
2201:TP2824/TP2802.c ****             {
2202:TP2824/TP2802.c ****                 egain[i][3] = egain[i][2];
2203:TP2824/TP2802.c ****                 egain[i][2] = egain[i][1];
2204:TP2824/TP2802.c ****                 egain[i][1] = egain[i][0];
2205:TP2824/TP2802.c **** 
2206:TP2824/TP2802.c ****                 gain = ReadGain();
2207:TP2824/TP2802.c ****                 egain[i][0] = gain;
2208:TP2824/TP2802.c **** 
2209:TP2824/TP2802.c ****                 if(abs(egain[i][3] - egain[i][0])< EQ_DIFF && abs(egain[i][2] - egain[i][0])< EQ_DI
2210:TP2824/TP2802.c ****                 {
2211:TP2824/TP2802.c ****                     count[i] = EQ_COUNT-1;
2212:TP2824/TP2802.c ****                 }
2213:TP2824/TP2802.c ****             }
2214:TP2824/TP2802.c ****             else if(EQ_COUNT == count[i])
ARM GAS  /tmp/ccZU1AeU.s 			page 78


2215:TP2824/TP2802.c ****             {
2216:TP2824/TP2802.c ****                 gain = ReadGain();
2217:TP2824/TP2802.c ****                 printf("Egain=0x%02x ch%02x,std=%d,mode=0x%02X\r\n", (tWord)gain, (tWord)i, (tWord)
2218:TP2824/TP2802.c **** 
2219:TP2824/TP2802.c ****                 if ((mode[i] == R1080P30 ) || (mode[i] == R1080P25 ))
2220:TP2824/TP2802.c ****                 {
2221:TP2824/TP2802.c ****                     newInRes[i] = _OSD_1920X1080P ;
2222:TP2824/TP2802.c ****                 }
2223:TP2824/TP2802.c ****                 else if ((mode[i] == R720P50 ) || (mode[i] == R720P60 ))
2224:TP2824/TP2802.c ****                 {
2225:TP2824/TP2802.c ****                     newInRes[i] = _OSD_1280X720P ;
2226:TP2824/TP2802.c ****                 }
2227:TP2824/TP2802.c ****                 else if ((mode[i] == R720P25 ) || (mode[i] == R720P30 ))
2228:TP2824/TP2802.c ****                 {
2229:TP2824/TP2802.c ****                     newInRes[i] = _OSD_1280X720P ;
2230:TP2824/TP2802.c ****                 }
2231:TP2824/TP2802.c ****                 else if ((mode[i] == R720P30V2 ) || (mode[i] == R720P25V2 ))
2232:TP2824/TP2802.c ****                 {
2233:TP2824/TP2802.c ****                     newInRes[i] = _OSD_1280X720P ;
2234:TP2824/TP2802.c ****                 }
2235:TP2824/TP2802.c ****                 else if (mode[i] == NTSC )
2236:TP2824/TP2802.c ****                 {
2237:TP2824/TP2802.c ****                     newInRes[i] = _OSD_720X480I60 ;
2238:TP2824/TP2802.c ****                 }
2239:TP2824/TP2802.c ****                 else if (mode[i] == PAL )
2240:TP2824/TP2802.c ****                 {
2241:TP2824/TP2802.c ****                     newInRes[i] = _OSD_720X576I50 ;
2242:TP2824/TP2802.c ****                 }
2243:TP2824/TP2802.c ****                 else
2244:TP2824/TP2802.c ****                 {
2245:TP2824/TP2802.c ****                     newInRes[i] = _OSD_No_Signal ;
2246:TP2824/TP2802.c ****                 }
2247:TP2824/TP2802.c **** 
2248:TP2824/TP2802.c **** 				TP_InputMode=newInRes[i] ;
2249:TP2824/TP2802.c **** 				   if(SelectInputMode==1)
2250:TP2824/TP2802.c **** 					   {
2251:TP2824/TP2802.c **** 					   MCUTimerActiveTimerEvent(SEC(1), _SYSTEM_TIMER_EVENT_VIDEO_RESET);
2252:TP2824/TP2802.c **** 				   //MCUTimerActiveTimerEvent(SEC(2), _SYSTEM_TIMER_EVENT_SET_VIDEO_LOSS);
2253:TP2824/TP2802.c **** 					   }
2254:TP2824/TP2802.c **** 
2255:TP2824/TP2802.c ****                 if (newInRes[i] != gbVXIS_InputMode[i] )
2256:TP2824/TP2802.c ****                 {
2257:TP2824/TP2802.c ****                  //   VS4210_SetInModeOutMode(i,newInRes[i] ,gbVXIS_OuputModeflg )  ;
2258:TP2824/TP2802.c **** 
2259:TP2824/TP2802.c **** /*
2260:TP2824/TP2802.c **** 		//save tp2824 data
2261:TP2824/TP2802.c **** 			if( ReadEEP(EEP_TP2824_STD0+(i*3)+2)==0)
2262:TP2824/TP2802.c **** 			{
2263:TP2824/TP2802.c **** 			 WriteEEP(EEP_TP2824_STD0+(i*3),std[i]);
2264:TP2824/TP2802.c **** 			 WriteEEP(EEP_TP2824_STD0+(i*3)+1,mode[i]);		
2265:TP2824/TP2802.c **** 		    	  WriteEEP(EEP_TP2824_STD0+(i*3)+2,1);
2266:TP2824/TP2802.c **** 			  VideoSave[i]=1;
2267:TP2824/TP2802.c **** 
2268:TP2824/TP2802.c **** 			 printf("\r\n(WriteModeDataToEEPROM ch=%02x)",(WORD)i) ;
2269:TP2824/TP2802.c **** 			}
2270:TP2824/TP2802.c **** */
2271:TP2824/TP2802.c **** 			
ARM GAS  /tmp/ccZU1AeU.s 			page 79


2272:TP2824/TP2802.c ****         printf("VS4210_SetInModeOutMode(),i=%d,newInRes=%d,OuputModeflg=%d\r\n",(int)i ,(int)newInR
2273:TP2824/TP2802.c **** 
2274:TP2824/TP2802.c **** //                    tp28xx_byte_write(0xF6,0x00);
2275:TP2824/TP2802.c **** //
2276:TP2824/TP2802.c **** //                    tmpval = tp28xx_byte_read(0x40);
2277:TP2824/TP2802.c **** //                    printf("0x40=0x%02x\r\n",tmpval ) ;
2278:TP2824/TP2802.c **** //                    tmpval = tp28xx_byte_read(0x4d);
2279:TP2824/TP2802.c **** //                    printf("0x4D=0x%02x\r\n",tmpval ) ;
2280:TP2824/TP2802.c **** //                    tmpval = tp28xx_byte_read(0x4E);
2281:TP2824/TP2802.c **** //                    printf("0x4E=0x%02x\r\n",tmpval ) ;
2282:TP2824/TP2802.c **** //
2283:TP2824/TP2802.c **** //                    tmpval = tp28xx_byte_read(0x50);
2284:TP2824/TP2802.c **** //                    printf("0x50=0x%02x\r\n",tmpval ) ;
2285:TP2824/TP2802.c **** //                    tmpval = tp28xx_byte_read(0x51);
2286:TP2824/TP2802.c **** //                    printf("0x51=0x%02x\r\n",tmpval ) ;
2287:TP2824/TP2802.c **** //                    tmpval = tp28xx_byte_read(0x52);
2288:TP2824/TP2802.c **** //                    printf("0x52=0x%02x\r\n",tmpval ) ;
2289:TP2824/TP2802.c **** //                    tmpval = tp28xx_byte_read(0x53);
2290:TP2824/TP2802.c **** //                    printf("0x53=0x%02x\r\n",tmpval ) ;
2291:TP2824/TP2802.c **** //
2292:TP2824/TP2802.c **** //
2293:TP2824/TP2802.c **** //                    tmpval = tp28xx_byte_read(0xF6);
2294:TP2824/TP2802.c **** //                    printf("0xF6=0x%02x\r\n",tmpval ) ;
2295:TP2824/TP2802.c **** //                    tmpval = tp28xx_byte_read(0xF7);
2296:TP2824/TP2802.c **** //                    printf("0xF7=0x%02x\r\n",tmpval ) ;
2297:TP2824/TP2802.c **** //                    tmpval = tp28xx_byte_read(0xF8);
2298:TP2824/TP2802.c **** //                    printf("0xF8=0x%02x\r\n",tmpval ) ;
2299:TP2824/TP2802.c **** //                    tmpval = tp28xx_byte_read(0xF9);
2300:TP2824/TP2802.c **** //                    printf("0xF9=0x%02x\r\n",tmpval ) ;
2301:TP2824/TP2802.c **** //
2302:TP2824/TP2802.c **** //                    tmpval = tp28xx_byte_read(0xFA);
2303:TP2824/TP2802.c **** //                    printf("0xFA=0x%02x\r\n",tmpval ) ;
2304:TP2824/TP2802.c **** //
2305:TP2824/TP2802.c **** //                    tmpval = tp28xx_byte_read(0xFB);
2306:TP2824/TP2802.c **** //                    printf("0xFB=0x%02x\r\n",tmpval ) ;
2307:TP2824/TP2802.c **** 
2308:TP2824/TP2802.c ****                 }
2309:TP2824/TP2802.c **** 
2310:TP2824/TP2802.c ****                 if( TVI != std[i] )
2311:TP2824/TP2802.c ****                 {
2312:TP2824/TP2802.c ****                     tp28xx_byte_write(0x07, 0x80|(gain>>2));  // manual mode
2313:TP2824/TP2802.c ****                     if (std[i]== HDA )
2314:TP2824/TP2802.c ****                     {
2315:TP2824/TP2802.c ****                         printf("AHD Mode\r\n");
2316:TP2824/TP2802.c ****                     }
2317:TP2824/TP2802.c ****                     else
2318:TP2824/TP2802.c ****                     {
2319:TP2824/TP2802.c ****                         printf("CVI Mode\r\n");
2320:TP2824/TP2802.c ****                     }
2321:TP2824/TP2802.c ****                 }
2322:TP2824/TP2802.c ****                 else //TVI
2323:TP2824/TP2802.c ****                 {
2324:TP2824/TP2802.c ****                     if( TP2833 == chip || TP2834 == chip)
2325:TP2824/TP2802.c ****                     {
2326:TP2824/TP2802.c ****                         if( mode[i] & FLAG_MEGA_MODE )
2327:TP2824/TP2802.c ****                         {
2328:TP2824/TP2802.c ****                             tp28xx_byte_write(0x07, 0x80|(gain/3));  // manual mode
ARM GAS  /tmp/ccZU1AeU.s 			page 80


2329:TP2824/TP2802.c ****                         }
2330:TP2824/TP2802.c ****                     }
2331:TP2824/TP2802.c **** 		      if(mode[i] == NTSC) //20200408 cvbs night no burst
2332:TP2824/TP2802.c **** 			  	printf("CVBS NTSC   mode\r\n");
2333:TP2824/TP2802.c **** 		      else if(mode[i] == PAL) //20200408 cvbs night no burst
2334:TP2824/TP2802.c **** 			  	printf("CVBS PAL   mode\r\n");
2335:TP2824/TP2802.c **** 		      else
2336:TP2824/TP2802.c ****                     printf("LINE=%d,TVI Mode\r\n",__LINE__ );
2337:TP2824/TP2802.c ****                     //gRxLoopFlg = 0 ;
2338:TP2824/TP2802.c ****                 }
2339:TP2824/TP2802.c ****             }
2340:TP2824/TP2802.c ****             else if(EQ_COUNT+1 == count[i])
2341:TP2824/TP2802.c ****             {
2342:TP2824/TP2802.c ****                 if( TVI != std[i] )
2343:TP2824/TP2802.c ****                 {
2344:TP2824/TP2802.c ****                     ManualAGC(i);
2345:TP2824/TP2802.c ****                     SetCGain(0x0c);
2346:TP2824/TP2802.c ****                 }
2347:TP2824/TP2802.c ****                 else //TVI
2348:TP2824/TP2802.c ****                 {
2349:TP2824/TP2802.c ****                     if( TP2833 == chip || TP2834 == chip)
2350:TP2824/TP2802.c ****                     {
2351:TP2824/TP2802.c ****                         if( mode[i] & FLAG_MEGA_MODE )
2352:TP2824/TP2802.c ****                         {
2353:TP2824/TP2802.c ****                             SetCGain(0x16);
2354:TP2824/TP2802.c ****                         }
2355:TP2824/TP2802.c ****                     }
2356:TP2824/TP2802.c ****                 }
2357:TP2824/TP2802.c ****             }
2358:TP2824/TP2802.c **** 	     else if(EQ_COUNT+2 == count[i])//cocrx
2359:TP2824/TP2802.c ****             {	
2360:TP2824/TP2802.c ****             		if(state[i] == VIDEO_LOCKED)
2361:TP2824/TP2802.c ****             		{
2362:TP2824/TP2802.c **** 	            		tcByte *ptr_TP2824C;
2363:TP2824/TP2802.c **** 				if( TVI == std[i] )
2364:TP2824/TP2802.c **** 				{
2365:TP2824/TP2802.c **** 					if(mode[i]==NTSC || mode[i]==PAL)
2366:TP2824/TP2802.c **** 					{
2367:TP2824/TP2802.c **** 						ptr_TP2824C=TP2824C_CVBS_PTZ_DataSet;
2368:TP2824/TP2802.c **** 					}
2369:TP2824/TP2802.c **** 					else
2370:TP2824/TP2802.c **** 					{
2371:TP2824/TP2802.c **** 						ptr_TP2824C=TP2824C_TVI_FHD_PTZ_DataSet;
2372:TP2824/TP2802.c **** 					}
2373:TP2824/TP2802.c **** 					
2374:TP2824/TP2802.c **** 					I2CDeviceSet1( ptr_TP2824C );
2375:TP2824/TP2802.c **** 					
2376:TP2824/TP2802.c **** 					if(mode[i] == R1080P30 || mode[i] == R1080P25)
2377:TP2824/TP2802.c **** 					{
2378:TP2824/TP2802.c **** 						tp28xx_byte_write(0xc6, 0x19);
2379:TP2824/TP2802.c **** 					}
2380:TP2824/TP2802.c **** 					
2381:TP2824/TP2802.c **** 					tp28xx_byte_write(0x40, i);
2382:TP2824/TP2802.c **** 					
2383:TP2824/TP2802.c **** 					tp28xx_byte_write(0xbe, 0x80);
2384:TP2824/TP2802.c **** 					tp28xx_byte_read(0xB6);
2385:TP2824/TP2802.c **** 					tp28xx_byte_read(0xB5);
ARM GAS  /tmp/ccZU1AeU.s 			page 81


2386:TP2824/TP2802.c **** 					tp28xx_byte_read(0xB4);
2387:TP2824/TP2802.c **** 
2388:TP2824/TP2802.c **** 				
2389:TP2824/TP2802.c **** 					tp28xx_byte_write(0xa7, 0x00);
2390:TP2824/TP2802.c **** 					delay(1);//5ms
2391:TP2824/TP2802.c **** 					tp28xx_byte_write(0xa7, 0x83);
2392:TP2824/TP2802.c **** 					
2393:TP2824/TP2802.c **** 					if(mode[i]==R1080P30 || mode[i]==R1080P25)
2394:TP2824/TP2802.c **** 					{
2395:TP2824/TP2802.c **** 						PtzTxChNum=i;
2396:TP2824/TP2802.c **** 						printf("EQdet %d\r\n",  PtzTxChNum);
2397:TP2824/TP2802.c **** 					}
2398:TP2824/TP2802.c **** 					
2399:TP2824/TP2802.c **** 				}
2400:TP2824/TP2802.c **** 
2401:TP2824/TP2802.c **** 				if( HDA == std[i] )
2402:TP2824/TP2802.c **** 				{
2403:TP2824/TP2802.c **** 					#if 1
2404:TP2824/TP2802.c **** 						#if 1
2405:TP2824/TP2802.c **** 						Init_COC_PTZOUT1();
2406:TP2824/TP2802.c **** 						//#else
2407:TP2824/TP2802.c **** 						ptr_TP2824C=TP2824C_AHD_FHD_PTZ_DataSet;
2408:TP2824/TP2802.c **** 						I2CDeviceSet1( ptr_TP2824C );
2409:TP2824/TP2802.c **** 					
2410:TP2824/TP2802.c **** 						tp28xx_byte_write(0x40, i);
2411:TP2824/TP2802.c **** 							tp28xx_byte_write(0x40,0x04);
2412:TP2824/TP2802.c **** 						tp28xx_byte_write(0xbe, 0x80);
2413:TP2824/TP2802.c **** 						tp28xx_byte_read(0xB6);
2414:TP2824/TP2802.c **** 						tp28xx_byte_read(0xB5);
2415:TP2824/TP2802.c **** 						tp28xx_byte_read(0xB4);
2416:TP2824/TP2802.c **** 
2417:TP2824/TP2802.c **** 					
2418:TP2824/TP2802.c **** 						tp28xx_byte_write(0xa7, 0x24);
2419:TP2824/TP2802.c **** 						delay(1);//5ms
2420:TP2824/TP2802.c **** 						tp28xx_byte_write(0xa7, 0xA7);
2421:TP2824/TP2802.c **** 						#endif
2422:TP2824/TP2802.c **** 				
2423:TP2824/TP2802.c **** 					#else
2424:TP2824/TP2802.c **** 
2425:TP2824/TP2802.c **** 					TP2824_PTZ_init();
2426:TP2824/TP2802.c **** 					 TP2824C_RX_init(0, 0);
2427:TP2824/TP2802.c **** 					//TP2824_PTZ_mode(0,0);
2428:TP2824/TP2802.c **** 					TP2824C_PTZ_mode(0,0,0);
2429:TP2824/TP2802.c **** 					
2430:TP2824/TP2802.c **** 					
2431:TP2824/TP2802.c **** 					#endif
2432:TP2824/TP2802.c **** 					
2433:TP2824/TP2802.c **** 					printf("\r\nAHD COC Ready CH=%d\r\n",  PtzTxChNum);
2434:TP2824/TP2802.c **** 				}
2435:TP2824/TP2802.c **** 
2436:TP2824/TP2802.c **** 				if( HDC == std[i] )
2437:TP2824/TP2802.c **** 				{
2438:TP2824/TP2802.c **** 					ptr_TP2824C=TP2824C_CVIHD_PTZ_DataSet;
2439:TP2824/TP2802.c **** 					I2CDeviceSet1( ptr_TP2824C );
2440:TP2824/TP2802.c **** 				
2441:TP2824/TP2802.c **** 					tp28xx_byte_write(0x40, i);
2442:TP2824/TP2802.c **** 					tp28xx_byte_write(0xbe, 0x80);
ARM GAS  /tmp/ccZU1AeU.s 			page 82


2443:TP2824/TP2802.c **** 					tp28xx_byte_read(0xB6);
2444:TP2824/TP2802.c **** 					tp28xx_byte_read(0xB5);
2445:TP2824/TP2802.c **** 					tp28xx_byte_read(0xB4);
2446:TP2824/TP2802.c **** 
2447:TP2824/TP2802.c **** 				
2448:TP2824/TP2802.c **** 					tp28xx_byte_read(0xA4);
2449:TP2824/TP2802.c **** 					tp28xx_byte_read(0xA2);
2450:TP2824/TP2802.c **** 					tp28xx_byte_read(0xA3);
2451:TP2824/TP2802.c **** 					
2452:TP2824/TP2802.c **** 					tp28xx_byte_write(0xa7, 0x00);
2453:TP2824/TP2802.c **** 					delay(1);//5ms
2454:TP2824/TP2802.c **** 					tp28xx_byte_write(0xa7, 0x83);
2455:TP2824/TP2802.c **** 
2456:TP2824/TP2802.c **** 
2457:TP2824/TP2802.c **** 					
2458:TP2824/TP2802.c **** 				}
2459:TP2824/TP2802.c **** 
2460:TP2824/TP2802.c **** 			#if 0
2461:TP2824/TP2802.c **** 		if((std[i]==TVI)&&(mode[i]!=NTSC) &&( mode[i]!=PAL)&& (state[i]==VIDEO_LOCKED))
2462:TP2824/TP2802.c **** 			   {
2463:TP2824/TP2802.c **** 
2464:TP2824/TP2802.c **** 			/*
2465:TP2824/TP2802.c **** 				   
2466:TP2824/TP2802.c **** 		 	SetCOCCom(_COCOSD_BOX_Sel,i);  
2467:TP2824/TP2802.c **** 	 	 	SetCOCCom(_COCOSD_BOXONLINE,0); 
2468:TP2824/TP2802.c **** 			 Get_2824cIrq();
2469:TP2824/TP2802.c **** 
2470:TP2824/TP2802.c **** 			 msleep(50);
2471:TP2824/TP2802.c **** 			 
2472:TP2824/TP2802.c **** 			 SetCOCCom(_COCOSD_BOX_Channel_Sel,5); 
2473:TP2824/TP2802.c **** 			// COCSelectModeType=5;
2474:TP2824/TP2802.c **** 			 Get_2824cIrq();
2475:TP2824/TP2802.c **** 			msleep(50);
2476:TP2824/TP2802.c **** */		
2477:TP2824/TP2802.c **** 
2478:TP2824/TP2802.c **** 			 BOX_ISSUE=0;
2479:TP2824/TP2802.c **** 
2480:TP2824/TP2802.c **** 			 MCUTimerCancelTimerEvent( _SYSTEM_TIMER_EVENT_TVI_BOX_Set);		 
2481:TP2824/TP2802.c **** 			MCUTimerActiveTimerEvent(SEC(0.5), _SYSTEM_TIMER_EVENT_TVI_BOX_Set);
2482:TP2824/TP2802.c **** 			
2483:TP2824/TP2802.c **** 		
2484:TP2824/TP2802.c **** 			   }
2485:TP2824/TP2802.c **** 			#endif
2486:TP2824/TP2802.c ****      			}
2487:TP2824/TP2802.c ****             }	
2488:TP2824/TP2802.c ****         }
2489:TP2824/TP2802.c ****     }
2490:TP2824/TP2802.c **** }
2491:TP2824/TP2802.c **** #if 0
2492:TP2824/TP2802.c **** void TVI_BOX_Set(void)
2493:TP2824/TP2802.c **** {
2494:TP2824/TP2802.c **** BYTE i;
2495:TP2824/TP2802.c **** 
2496:TP2824/TP2802.c **** 	//TriggerHandler(CheckTrigger());
2497:TP2824/TP2802.c **** 
2498:TP2824/TP2802.c **** 	for(i=0;i<4;i++)
2499:TP2824/TP2802.c **** 	{
ARM GAS  /tmp/ccZU1AeU.s 			page 83


2500:TP2824/TP2802.c **** 			
2501:TP2824/TP2802.c **** 					if((std[i]==TVI)&&(mode[i]!=NTSC) &&( mode[i]!=PAL)&& (state[i] == VIDEO_LOCKED))
2502:TP2824/TP2802.c **** 					   {
2503:TP2824/TP2802.c **** 					  
2504:TP2824/TP2802.c **** 				 	SetCOCCom(_COCOSD_BOX_Sel,i);  
2505:TP2824/TP2802.c **** 			 	 	SetCOCCom(_COCOSD_BOXONLINE,0); 
2506:TP2824/TP2802.c **** 					 Get_2824cIrq();
2507:TP2824/TP2802.c **** 								 
2508:TP2824/TP2802.c **** 					 SetCOCCom(_COCOSD_BOX_Channel_Sel,5); 
2509:TP2824/TP2802.c **** 					 COCSelectModeType[SelectModeType]=5;
2510:TP2824/TP2802.c **** 					 Get_2824cIrq();		 
2511:TP2824/TP2802.c **** 					
2512:TP2824/TP2802.c **** 						}
2513:TP2824/TP2802.c **** 		
2514:TP2824/TP2802.c **** 	}
2515:TP2824/TP2802.c **** }
2516:TP2824/TP2802.c **** #endif
2517:TP2824/TP2802.c **** tByte Det_HLock()
2518:TP2824/TP2802.c **** {
 1958              		.loc 1 2518 0
 1959              		.cfi_startproc
 1960              		@ args = 0, pretend = 0, frame = 0
 1961              		@ frame_needed = 0, uses_anonymous_args = 0
 1962 0000 08B5     		push	{r3, lr}
 1963              	.LCFI16:
 1964              		.cfi_def_cfa_offset 8
 1965              		.cfi_offset 3, -8
 1966              		.cfi_offset 14, -4
2519:TP2824/TP2802.c ****     tByte Reg01;
2520:TP2824/TP2802.c ****     tByte HLOCK;
2521:TP2824/TP2802.c **** 
2522:TP2824/TP2802.c ****     Reg01 = tp28xx_byte_read(0x01);
 1967              		.loc 1 2522 0
 1968 0002 0120     		movs	r0, #1
 1969 0004 FFF7FEFF 		bl	tp28xx_byte_read
 1970              	.LVL288:
2523:TP2824/TP2802.c ****     HLOCK = (Reg01>>5)&0x01;
2524:TP2824/TP2802.c **** 
2525:TP2824/TP2802.c ****     if(HLOCK==1)
 1971              		.loc 1 2525 0
 1972 0008 10F0200F 		tst	r0, #32
 1973 000c 01D1     		bne	.L192
2526:TP2824/TP2802.c ****         return TRUE;
2527:TP2824/TP2802.c ****     else
2528:TP2824/TP2802.c ****         return FALSE;
 1974              		.loc 1 2528 0
 1975 000e 0020     		movs	r0, #0
 1976              	.LVL289:
 1977              	.L189:
2529:TP2824/TP2802.c **** }
 1978              		.loc 1 2529 0
 1979 0010 08BD     		pop	{r3, pc}
 1980              	.LVL290:
 1981              	.L192:
2526:TP2824/TP2802.c ****         return TRUE;
 1982              		.loc 1 2526 0
 1983 0012 0120     		movs	r0, #1
ARM GAS  /tmp/ccZU1AeU.s 			page 84


 1984              	.LVL291:
 1985 0014 FCE7     		b	.L189
 1986              		.cfi_endproc
 1987              	.LFE86:
 1989              		.section	.text.Set_ResWithAutoDet,"ax",%progbits
 1990              		.align	1
 1991              		.global	Set_ResWithAutoDet
 1992              		.syntax unified
 1993              		.thumb
 1994              		.thumb_func
 1995              		.fpu softvfp
 1997              	Set_ResWithAutoDet:
 1998              	.LFB87:
2530:TP2824/TP2802.c **** 
2531:TP2824/TP2802.c **** tByte Set_ResWithAutoDet(tByte ch)
2532:TP2824/TP2802.c **** {
 1999              		.loc 1 2532 0
 2000              		.cfi_startproc
 2001              		@ args = 0, pretend = 0, frame = 0
 2002              		@ frame_needed = 0, uses_anonymous_args = 0
 2003              	.LVL292:
 2004 0000 38B5     		push	{r3, r4, r5, lr}
 2005              	.LCFI17:
 2006              		.cfi_def_cfa_offset 16
 2007              		.cfi_offset 3, -16
 2008              		.cfi_offset 4, -12
 2009              		.cfi_offset 5, -8
 2010              		.cfi_offset 14, -4
 2011 0002 0546     		mov	r5, r0
 2012              	.LVL293:
2533:TP2824/TP2802.c ****     tByte VidRes = R1080P30 ;
2534:TP2824/TP2802.c ****     tByte cnt=5;
2535:TP2824/TP2802.c ****     SetRegPage(ch);
 2013              		.loc 1 2535 0
 2014 0004 FFF7FEFF 		bl	SetRegPage
 2015              	.LVL294:
2534:TP2824/TP2802.c ****     SetRegPage(ch);
 2016              		.loc 1 2534 0
 2017 0008 0522     		movs	r2, #5
2536:TP2824/TP2802.c ****     //	printf("\r\nReg40=%02x, Reg01=%02x",(tWord)tp28xx_byte_read(TVII2CAddress,0x40),(tWord)tp28x
2537:TP2824/TP2802.c ****     while(cnt--)
 2018              		.loc 1 2537 0
 2019 000a 00E0     		b	.L194
 2020              	.LVL295:
 2021              	.L195:
2532:TP2824/TP2802.c ****     tByte VidRes = R1080P30 ;
 2022              		.loc 1 2532 0
 2023 000c 2246     		mov	r2, r4
 2024              	.LVL296:
 2025              	.L194:
 2026              		.loc 1 2537 0
 2027 000e 531E     		subs	r3, r2, #1
 2028 0010 DCB2     		uxtb	r4, r3
 2029              	.LVL297:
 2030 0012 8AB1     		cbz	r2, .L200
2538:TP2824/TP2802.c ****     {
2539:TP2824/TP2802.c ****         if(!Det_VideoLoss(ch))
ARM GAS  /tmp/ccZU1AeU.s 			page 85


 2031              		.loc 1 2539 0
 2032 0014 2846     		mov	r0, r5
 2033 0016 FFF7FEFF 		bl	Det_VideoLoss
 2034              	.LVL298:
 2035 001a 0028     		cmp	r0, #0
 2036 001c F6D1     		bne	.L195
2540:TP2824/TP2802.c ****         {
2541:TP2824/TP2802.c ****             //for(VidRes=R720P60; VidRes<=R720P25; VidRes++)
2542:TP2824/TP2802.c **** 			//{
2543:TP2824/TP2802.c ****                 Set_VidRes(ch);
 2037              		.loc 1 2543 0
 2038 001e 2846     		mov	r0, r5
 2039 0020 FFF7FEFF 		bl	Set_VidRes
 2040              	.LVL299:
2544:TP2824/TP2802.c ****                 //printf("\r\nVidRes=%02x, Reg01=%02x, Reg03=%02x",(tWord)VidRes,(tWord)tp28xx_byte
2545:TP2824/TP2802.c ****                 if((Det_HLock()== TRUE)&&(Det_VidRes()==VidRes))
 2041              		.loc 1 2545 0
 2042 0024 FFF7FEFF 		bl	Det_HLock
 2043              	.LVL300:
 2044 0028 0128     		cmp	r0, #1
 2045 002a EFD1     		bne	.L195
 2046              		.loc 1 2545 0 is_stmt 0 discriminator 1
 2047 002c FFF7FEFF 		bl	Det_VidRes
 2048              	.LVL301:
 2049 0030 0228     		cmp	r0, #2
 2050 0032 EBD1     		bne	.L195
2546:TP2824/TP2802.c ****                     return TRUE;
 2051              		.loc 1 2546 0 is_stmt 1
 2052 0034 0120     		movs	r0, #1
 2053 0036 03E0     		b	.L196
 2054              	.L200:
2547:TP2824/TP2802.c **** 			//}
2548:TP2824/TP2802.c ****         }
2549:TP2824/TP2802.c ****     }
2550:TP2824/TP2802.c ****     printf("H/V is not locked\r\n");
 2055              		.loc 1 2550 0
 2056 0038 0248     		ldr	r0, .L201
 2057 003a FFF7FEFF 		bl	puts
 2058              	.LVL302:
2551:TP2824/TP2802.c ****     return FALSE;
 2059              		.loc 1 2551 0
 2060 003e 0020     		movs	r0, #0
 2061              	.L196:
2552:TP2824/TP2802.c **** }
 2062              		.loc 1 2552 0
 2063 0040 38BD     		pop	{r3, r4, r5, pc}
 2064              	.LVL303:
 2065              	.L202:
 2066 0042 00BF     		.align	2
 2067              	.L201:
 2068 0044 00000000 		.word	.LC25
 2069              		.cfi_endproc
 2070              	.LFE87:
 2072              		.section	.text.Scan_Channels,"ax",%progbits
 2073              		.align	1
 2074              		.global	Scan_Channels
 2075              		.syntax unified
ARM GAS  /tmp/ccZU1AeU.s 			page 86


 2076              		.thumb
 2077              		.thumb_func
 2078              		.fpu softvfp
 2080              	Scan_Channels:
 2081              	.LFB88:
2553:TP2824/TP2802.c **** 
2554:TP2824/TP2802.c **** 
2555:TP2824/TP2802.c **** tByte Scan_Channels()
2556:TP2824/TP2802.c **** {
 2082              		.loc 1 2556 0
 2083              		.cfi_startproc
 2084              		@ args = 0, pretend = 0, frame = 0
 2085              		@ frame_needed = 0, uses_anonymous_args = 0
 2086 0000 70B5     		push	{r4, r5, r6, lr}
 2087              	.LCFI18:
 2088              		.cfi_def_cfa_offset 16
 2089              		.cfi_offset 4, -16
 2090              		.cfi_offset 5, -12
 2091              		.cfi_offset 6, -8
 2092              		.cfi_offset 14, -4
 2093              	.LVL304:
2557:TP2824/TP2802.c ****     tByte ch;
2558:TP2824/TP2802.c ****     tByte Det_ch=0;
2559:TP2824/TP2802.c ****     tByte Sel_ch=0xff;
 2094              		.loc 1 2559 0
 2095 0002 FF26     		movs	r6, #255
2558:TP2824/TP2802.c ****     tByte Sel_ch=0xff;
 2096              		.loc 1 2558 0
 2097 0004 0025     		movs	r5, #0
2560:TP2824/TP2802.c **** 
2561:TP2824/TP2802.c ****     for(ch = CH1; ch<=CH4; ch++)
 2098              		.loc 1 2561 0
 2099 0006 2C46     		mov	r4, r5
 2100 0008 01E0     		b	.L204
 2101              	.LVL305:
 2102              	.L205:
 2103              		.loc 1 2561 0 is_stmt 0 discriminator 2
 2104 000a 0134     		adds	r4, r4, #1
 2105              	.LVL306:
 2106 000c E4B2     		uxtb	r4, r4
 2107              	.LVL307:
 2108              	.L204:
 2109              		.loc 1 2561 0 discriminator 1
 2110 000e 032C     		cmp	r4, #3
 2111 0010 09D8     		bhi	.L209
2562:TP2824/TP2802.c ****     {
2563:TP2824/TP2802.c ****         if(Set_ResWithAutoDet(ch)&&!Det_ch)
 2112              		.loc 1 2563 0 is_stmt 1
 2113 0012 2046     		mov	r0, r4
 2114 0014 FFF7FEFF 		bl	Set_ResWithAutoDet
 2115              	.LVL308:
 2116 0018 0028     		cmp	r0, #0
 2117 001a F6D0     		beq	.L205
 2118              		.loc 1 2563 0 is_stmt 0 discriminator 1
 2119 001c 002D     		cmp	r5, #0
 2120 001e F4D1     		bne	.L205
2564:TP2824/TP2802.c ****         {
ARM GAS  /tmp/ccZU1AeU.s 			page 87


2565:TP2824/TP2802.c ****             //Sel_VD_Out(ch);
2566:TP2824/TP2802.c ****             Sel_ch = ch;
 2121              		.loc 1 2566 0 is_stmt 1
 2122 0020 2646     		mov	r6, r4
 2123              	.LVL309:
2567:TP2824/TP2802.c ****             Det_ch = 1;
 2124              		.loc 1 2567 0
 2125 0022 0125     		movs	r5, #1
 2126              	.LVL310:
 2127 0024 F1E7     		b	.L205
 2128              	.LVL311:
 2129              	.L209:
2568:TP2824/TP2802.c ****         }
2569:TP2824/TP2802.c ****     }
2570:TP2824/TP2802.c **** 
2571:TP2824/TP2802.c ****     return Sel_ch;
2572:TP2824/TP2802.c **** }
 2130              		.loc 1 2572 0
 2131 0026 3046     		mov	r0, r6
 2132 0028 70BD     		pop	{r4, r5, r6, pc}
 2133              		.cfi_endproc
 2134              	.LFE88:
 2136              		.section	.text.Set_PLL_StartUp,"ax",%progbits
 2137              		.align	1
 2138              		.global	Set_PLL_StartUp
 2139              		.syntax unified
 2140              		.thumb
 2141              		.thumb_func
 2142              		.fpu softvfp
 2144              	Set_PLL_StartUp:
 2145              	.LFB89:
2573:TP2824/TP2802.c **** 
2574:TP2824/TP2802.c **** void Set_PLL_StartUp()
2575:TP2824/TP2802.c **** {
 2146              		.loc 1 2575 0
 2147              		.cfi_startproc
 2148              		@ args = 0, pretend = 0, frame = 0
 2149              		@ frame_needed = 0, uses_anonymous_args = 0
 2150 0000 10B5     		push	{r4, lr}
 2151              	.LCFI19:
 2152              		.cfi_def_cfa_offset 8
 2153              		.cfi_offset 4, -8
 2154              		.cfi_offset 14, -4
2576:TP2824/TP2802.c ****     tByte PLL_con;
2577:TP2824/TP2802.c ****     PLL_con = tp28xx_byte_read(0x44);
 2155              		.loc 1 2577 0
 2156 0002 4420     		movs	r0, #68
 2157 0004 FFF7FEFF 		bl	tp28xx_byte_read
 2158              	.LVL312:
 2159 0008 0446     		mov	r4, r0
 2160              	.LVL313:
2578:TP2824/TP2802.c ****     tp28xx_byte_write(0x44,(PLL_con|0x40));
 2161              		.loc 1 2578 0
 2162 000a 40F04001 		orr	r1, r0, #64
 2163 000e C9B2     		uxtb	r1, r1
 2164 0010 4420     		movs	r0, #68
 2165              	.LVL314:
ARM GAS  /tmp/ccZU1AeU.s 			page 88


 2166 0012 FFF7FEFF 		bl	tp28xx_byte_write
 2167              	.LVL315:
2579:TP2824/TP2802.c ****     tp28xx_byte_write(0x44,(PLL_con&0xbf));
 2168              		.loc 1 2579 0
 2169 0016 04F0BF01 		and	r1, r4, #191
 2170 001a 4420     		movs	r0, #68
 2171 001c FFF7FEFF 		bl	tp28xx_byte_write
 2172              	.LVL316:
2580:TP2824/TP2802.c **** 
2581:TP2824/TP2802.c **** }
 2173              		.loc 1 2581 0
 2174 0020 10BD     		pop	{r4, pc}
 2175              		.cfi_endproc
 2176              	.LFE89:
 2178              		.section	.text.Init_TP280x_RegSet,"ax",%progbits
 2179              		.align	1
 2180              		.global	Init_TP280x_RegSet
 2181              		.syntax unified
 2182              		.thumb
 2183              		.thumb_func
 2184              		.fpu softvfp
 2186              	Init_TP280x_RegSet:
 2187              	.LFB90:
2582:TP2824/TP2802.c **** #if 0
2583:TP2824/TP2802.c **** void Boot_Trigger_Function(BYTE ch)
2584:TP2824/TP2802.c **** {
2585:TP2824/TP2802.c **** 	
2586:TP2824/TP2802.c **** 		Init_TP280x_CHx_RegSet(Tp2802_Boot_Set_std,ch);
2587:TP2824/TP2802.c **** 		 Init_TP280x_CHx_RegSet(Tp2802_Boot_Set_output,ch);
2588:TP2824/TP2802.c **** 		 Init_TP280x_CHx_RegSet(Tp2802_Boot_Set_COC,ch); 
2589:TP2824/TP2802.c **** 		// delay(100);//5ms
2590:TP2824/TP2802.c **** 
2591:TP2824/TP2802.c **** 			count[ch]=23;
2592:TP2824/TP2802.c **** 
2593:TP2824/TP2802.c **** 		 //	SetCOCCom(_COCOSD_BOX_Sel,ch);  
2594:TP2824/TP2802.c **** 	 	 //	SetCOCCom(_COCOSD_BOXONLINE,0); 
2595:TP2824/TP2802.c **** 		//	 Get_2824cIrq();
2596:TP2824/TP2802.c **** }
2597:TP2824/TP2802.c **** #endif
2598:TP2824/TP2802.c **** void Init_TP280x_RegSet()
2599:TP2824/TP2802.c **** {
 2188              		.loc 1 2599 0
 2189              		.cfi_startproc
 2190              		@ args = 0, pretend = 0, frame = 0
 2191              		@ frame_needed = 0, uses_anonymous_args = 0
 2192 0000 38B5     		push	{r3, r4, r5, lr}
 2193              	.LCFI20:
 2194              		.cfi_def_cfa_offset 16
 2195              		.cfi_offset 3, -16
 2196              		.cfi_offset 4, -12
 2197              		.cfi_offset 5, -8
 2198              		.cfi_offset 14, -4
2600:TP2824/TP2802.c **** 
2601:TP2824/TP2802.c ****     tcByte *ptr_TP2802;
2602:TP2824/TP2802.c ****     tByte i/*,val*/;
2603:TP2824/TP2802.c **** 
2604:TP2824/TP2802.c ****     TVII2CAddress = 0x88;
ARM GAS  /tmp/ccZU1AeU.s 			page 89


 2199              		.loc 1 2604 0
 2200 0002 644B     		ldr	r3, .L238
 2201 0004 8822     		movs	r2, #136
 2202 0006 1A70     		strb	r2, [r3]
 2203              	.LVL317:
2605:TP2824/TP2802.c ****     //TVII2CAddress = 0x8A;
2606:TP2824/TP2802.c ****     //TVII2CAddress = 0x8C;
2607:TP2824/TP2802.c ****     //TVII2CAddress = 0x8E;
2608:TP2824/TP2802.c **** 
2609:TP2824/TP2802.c ****     for(i=0; i<4; i++)
 2204              		.loc 1 2609 0
 2205 0008 0024     		movs	r4, #0
 2206              	.LVL318:
 2207              	.L213:
 2208              		.loc 1 2609 0 is_stmt 0 discriminator 1
 2209 000a 032C     		cmp	r4, #3
 2210 000c 0DD8     		bhi	.L214
2610:TP2824/TP2802.c ****     {
2611:TP2824/TP2802.c ****         if(0x28 == tp28xx_byte_read(0xfe)) break;
 2211              		.loc 1 2611 0 is_stmt 1
 2212 000e FE20     		movs	r0, #254
 2213 0010 FFF7FEFF 		bl	tp28xx_byte_read
 2214              	.LVL319:
 2215 0014 2828     		cmp	r0, #40
 2216 0016 08D0     		beq	.L214
2612:TP2824/TP2802.c ****         TVII2CAddress++;
 2217              		.loc 1 2612 0 discriminator 2
 2218 0018 5E4A     		ldr	r2, .L238
 2219 001a 1378     		ldrb	r3, [r2]	@ zero_extendqisi2
 2220 001c 0133     		adds	r3, r3, #1
 2221 001e DBB2     		uxtb	r3, r3
2613:TP2824/TP2802.c ****         TVII2CAddress++;
 2222              		.loc 1 2613 0 discriminator 2
 2223 0020 0133     		adds	r3, r3, #1
 2224 0022 1370     		strb	r3, [r2]
2609:TP2824/TP2802.c ****     {
 2225              		.loc 1 2609 0 discriminator 2
 2226 0024 0134     		adds	r4, r4, #1
 2227              	.LVL320:
 2228 0026 E4B2     		uxtb	r4, r4
 2229              	.LVL321:
 2230 0028 EFE7     		b	.L213
 2231              	.L214:
2614:TP2824/TP2802.c ****     }
2615:TP2824/TP2802.c **** 
2616:TP2824/TP2802.c ****     chip = tp28xx_byte_read(0xff);
 2232              		.loc 1 2616 0
 2233 002a FF20     		movs	r0, #255
 2234 002c FFF7FEFF 		bl	tp28xx_byte_read
 2235              	.LVL322:
 2236 0030 594C     		ldr	r4, .L238+4
 2237              	.LVL323:
 2238 0032 2070     		strb	r0, [r4]
2617:TP2824/TP2802.c **** 
2618:TP2824/TP2802.c ****     revision = tp28xx_byte_read(0xfd);
 2239              		.loc 1 2618 0
 2240 0034 FD20     		movs	r0, #253
ARM GAS  /tmp/ccZU1AeU.s 			page 90


 2241 0036 FFF7FEFF 		bl	tp28xx_byte_read
 2242              	.LVL324:
2619:TP2824/TP2802.c ****     revision &= 0x07;
 2243              		.loc 1 2619 0
 2244 003a 00F00702 		and	r2, r0, #7
 2245 003e 574B     		ldr	r3, .L238+8
 2246 0040 1A70     		strb	r2, [r3]
2620:TP2824/TP2802.c **** 
2621:TP2824/TP2802.c ****     printf("\r\nchip %02x revision %02x\r\n", (tWord)chip,(tWord)revision);
 2247              		.loc 1 2621 0
 2248 0042 2178     		ldrb	r1, [r4]	@ zero_extendqisi2
 2249 0044 5648     		ldr	r0, .L238+12
 2250 0046 FFF7FEFF 		bl	printf
 2251              	.LVL325:
2622:TP2824/TP2802.c ****     flag_CVBS = 0;
 2252              		.loc 1 2622 0
 2253 004a 0023     		movs	r3, #0
 2254 004c 554A     		ldr	r2, .L238+16
 2255 004e 1360     		str	r3, [r2]
2623:TP2824/TP2802.c ****     flag_AUDIO = 0;
 2256              		.loc 1 2623 0
 2257 0050 554A     		ldr	r2, .L238+20
 2258 0052 1360     		str	r3, [r2]
2624:TP2824/TP2802.c ****     flag_MEGA = 0;
 2259              		.loc 1 2624 0
 2260 0054 554A     		ldr	r2, .L238+24
 2261 0056 1360     		str	r3, [r2]
 2262              	.LVL326:
2625:TP2824/TP2802.c **** 	ptr_TP2802 = TP2824C_DataSet; //def  chunyu
2626:TP2824/TP2802.c ****     switch(chip)
 2263              		.loc 1 2626 0
 2264 0058 2378     		ldrb	r3, [r4]	@ zero_extendqisi2
 2265 005a 023B     		subs	r3, r3, #2
 2266 005c 252B     		cmp	r3, #37
 2267 005e 70D8     		bhi	.L216
 2268 0060 DFE803F0 		tbb	[pc, r3]
 2269              	.L218:
 2270 0064 13       		.byte	(.L217-.L218)/2
 2271 0065 6F       		.byte	(.L216-.L218)/2
 2272 0066 13       		.byte	(.L217-.L218)/2
 2273 0067 6F       		.byte	(.L216-.L218)/2
 2274 0068 6F       		.byte	(.L216-.L218)/2
 2275 0069 6F       		.byte	(.L216-.L218)/2
 2276 006a 6F       		.byte	(.L216-.L218)/2
 2277 006b 6F       		.byte	(.L216-.L218)/2
 2278 006c 6F       		.byte	(.L216-.L218)/2
 2279 006d 6F       		.byte	(.L216-.L218)/2
 2280 006e 6F       		.byte	(.L216-.L218)/2
 2281 006f 6F       		.byte	(.L216-.L218)/2
 2282 0070 6F       		.byte	(.L216-.L218)/2
 2283 0071 6F       		.byte	(.L216-.L218)/2
 2284 0072 6F       		.byte	(.L216-.L218)/2
 2285 0073 6F       		.byte	(.L216-.L218)/2
 2286 0074 6F       		.byte	(.L216-.L218)/2
 2287 0075 6F       		.byte	(.L216-.L218)/2
 2288 0076 6F       		.byte	(.L216-.L218)/2
 2289 0077 6F       		.byte	(.L216-.L218)/2
ARM GAS  /tmp/ccZU1AeU.s 			page 91


 2290 0078 6F       		.byte	(.L216-.L218)/2
 2291 0079 6F       		.byte	(.L216-.L218)/2
 2292 007a 6F       		.byte	(.L216-.L218)/2
 2293 007b 6F       		.byte	(.L216-.L218)/2
 2294 007c 6F       		.byte	(.L216-.L218)/2
 2295 007d 6F       		.byte	(.L216-.L218)/2
 2296 007e 6F       		.byte	(.L216-.L218)/2
 2297 007f 6F       		.byte	(.L216-.L218)/2
 2298 0080 6F       		.byte	(.L216-.L218)/2
 2299 0081 6F       		.byte	(.L216-.L218)/2
 2300 0082 6F       		.byte	(.L216-.L218)/2
 2301 0083 6F       		.byte	(.L216-.L218)/2
 2302 0084 13       		.byte	(.L217-.L218)/2
 2303 0085 34       		.byte	(.L219-.L218)/2
 2304 0086 44       		.byte	(.L220-.L218)/2
 2305 0087 6F       		.byte	(.L216-.L218)/2
 2306 0088 4B       		.byte	(.L221-.L218)/2
 2307 0089 5F       		.byte	(.L222-.L218)/2
 2308              		.p2align 1
 2309              	.L217:
2627:TP2824/TP2802.c ****     {
2628:TP2824/TP2802.c **** 
2629:TP2824/TP2802.c ****     case TP2802C:
2630:TP2824/TP2802.c ****     case TP2804:
2631:TP2824/TP2802.c ****     case TP2822:
2632:TP2824/TP2802.c ****         printf("EOL ID\r\n");
 2310              		.loc 1 2632 0
 2311 008a 4948     		ldr	r0, .L238+28
 2312 008c FFF7FEFF 		bl	puts
 2313              	.LVL327:
2625:TP2824/TP2802.c **** 	ptr_TP2802 = TP2824C_DataSet; //def  chunyu
 2314              		.loc 1 2625 0
 2315 0090 484C     		ldr	r4, .L238+32
 2316              	.LVL328:
 2317              	.L223:
2633:TP2824/TP2802.c ****         break;
2634:TP2824/TP2802.c **** 
2635:TP2824/TP2802.c ****     case TP2823:
2636:TP2824/TP2802.c ****         flag_CVBS = 1;
2637:TP2824/TP2802.c ****         flag_AUDIO = 1;
2638:TP2824/TP2802.c ****         if(0x01 == revision)
2639:TP2824/TP2802.c ****         {
2640:TP2824/TP2802.c ****             chip=TP2833;
2641:TP2824/TP2802.c ****             ptr_TP2802 = TP2833_DataSet;
2642:TP2824/TP2802.c ****         }
2643:TP2824/TP2802.c ****         else
2644:TP2824/TP2802.c ****         {
2645:TP2824/TP2802.c ****             ptr_TP2802 = TP2823_DataSet;
2646:TP2824/TP2802.c ****         }
2647:TP2824/TP2802.c ****         break;
2648:TP2824/TP2802.c **** 
2649:TP2824/TP2802.c ****     case TP2834:
2650:TP2824/TP2802.c ****         flag_CVBS = 1;
2651:TP2824/TP2802.c ****         flag_AUDIO = 1;
2652:TP2824/TP2802.c ****         ptr_TP2802 = TP2834_DataSet;
2653:TP2824/TP2802.c ****         break;
2654:TP2824/TP2802.c **** 
ARM GAS  /tmp/ccZU1AeU.s 			page 92


2655:TP2824/TP2802.c ****     case TP2853C:
2656:TP2824/TP2802.c ****         flag_CVBS = 1;
2657:TP2824/TP2802.c ****         flag_AUDIO = 1;
2658:TP2824/TP2802.c **** 
2659:TP2824/TP2802.c ****         if(0x01 == revision)
2660:TP2824/TP2802.c ****         {
2661:TP2824/TP2802.c ****             chip=TP2826;
2662:TP2824/TP2802.c ****             //flag_MEGA = 1;
2663:TP2824/TP2802.c **** 			flag_MEGA = 0;  //chunyu 
2664:TP2824/TP2802.c ****             ptr_TP2802 = TP2826_DataSet;
2665:TP2824/TP2802.c ****         }
2666:TP2824/TP2802.c ****         else if(0x00 == revision)
2667:TP2824/TP2802.c ****         {
2668:TP2824/TP2802.c ****             flag_MEGA = 1;
2669:TP2824/TP2802.c ****             ptr_TP2802 = TP2853C_DataSet;
2670:TP2824/TP2802.c ****         }
2671:TP2824/TP2802.c ****         else
2672:TP2824/TP2802.c ****         {
2673:TP2824/TP2802.c ****             ptr_TP2802 = TP2853C_DataSet;
2674:TP2824/TP2802.c ****         }
2675:TP2824/TP2802.c ****         break;
2676:TP2824/TP2802.c **** 
2677:TP2824/TP2802.c ****     case TP2824C:
2678:TP2824/TP2802.c ****         flag_CVBS = 1;
2679:TP2824/TP2802.c ****         flag_AUDIO = 1;
2680:TP2824/TP2802.c **** 
2681:TP2824/TP2802.c ****         if(0x04 == revision)
2682:TP2824/TP2802.c ****         {
2683:TP2824/TP2802.c ****             //flag_MEGA = 1;
2684:TP2824/TP2802.c **** 			flag_MEGA = 0 ; //chunyu
2685:TP2824/TP2802.c ****             ptr_TP2802 = TP2824C_DataSet;
2686:TP2824/TP2802.c ****             printf("TP2824C test\r\n");
2687:TP2824/TP2802.c ****         }
2688:TP2824/TP2802.c ****         break;
2689:TP2824/TP2802.c **** 
2690:TP2824/TP2802.c ****     default:		
2691:TP2824/TP2802.c ****         printf("unknown ID\r\n");
2692:TP2824/TP2802.c ****         break;
2693:TP2824/TP2802.c ****     }
2694:TP2824/TP2802.c **** 
2695:TP2824/TP2802.c ****     Set_PLL_StartUp();
 2318              		.loc 1 2695 0
 2319 0092 FFF7FEFF 		bl	Set_PLL_StartUp
 2320              	.LVL329:
2696:TP2824/TP2802.c **** 
2697:TP2824/TP2802.c ****     I2CDeviceSet1( ptr_TP2802 );
 2321              		.loc 1 2697 0
 2322 0096 2046     		mov	r0, r4
 2323 0098 FFF7FEFF 		bl	I2CDeviceSet1
 2324              	.LVL330:
2698:TP2824/TP2802.c **** 
2699:TP2824/TP2802.c ****     if(flag_AUDIO)	I2CDeviceSet1( TP2834_Audio_DataSet );
 2325              		.loc 1 2699 0
 2326 009c 424B     		ldr	r3, .L238+20
 2327 009e 1B68     		ldr	r3, [r3]
 2328 00a0 002B     		cmp	r3, #0
 2329 00a2 55D1     		bne	.L233
ARM GAS  /tmp/ccZU1AeU.s 			page 93


 2330              	.L225:
2700:TP2824/TP2802.c **** /*
2701:TP2824/TP2802.c ****     mode[CH1]= R1080P25;	//chunyu
2702:TP2824/TP2802.c ****     mode[CH2]= R1080P25;
2703:TP2824/TP2802.c ****     mode[CH3]= R1080P25;
2704:TP2824/TP2802.c ****     mode[CH4]= R1080P25;
2705:TP2824/TP2802.c **** 	
2706:TP2824/TP2802.c **** 
2707:TP2824/TP2802.c **** 	//mode[CH1]= R720P25;	
2708:TP2824/TP2802.c **** 	//mode[CH1]= R1080P25;	
2709:TP2824/TP2802.c ****    Set_VidRes(CH1);
2710:TP2824/TP2802.c **** */
2711:TP2824/TP2802.c **** //    Set_VidRes(CH2);
2712:TP2824/TP2802.c **** //    Set_VidRes(CH3);
2713:TP2824/TP2802.c **** //    Set_VidRes(CH4);
2714:TP2824/TP2802.c **** //	mode[CH3]= NoDet;	//chunyu
2715:TP2824/TP2802.c **** //	Set_VidRes(CH3);	
2716:TP2824/TP2802.c **** //msleep(2000);//ryan@20200622
2717:TP2824/TP2802.c **** 	
2718:TP2824/TP2802.c ****     //CurRes=RES1920X1080;
2719:TP2824/TP2802.c **** 	//CurRes=RES1280X720;
2720:TP2824/TP2802.c **** #if  0
2721:TP2824/TP2802.c **** 
2722:TP2824/TP2802.c **** 	CurRes=RES1920X1080;
2723:TP2824/TP2802.c **** 
2724:TP2824/TP2802.c **** 		val=CheckTrigger();
2725:TP2824/TP2802.c **** 
2726:TP2824/TP2802.c **** 		if(val)
2727:TP2824/TP2802.c **** 		{
2728:TP2824/TP2802.c **** 			TriggerHandler(CheckTrigger());
2729:TP2824/TP2802.c **** 
2730:TP2824/TP2802.c **** 			if((VideoSave[(TriggerStatus-1)] ==_TRUE))
2731:TP2824/TP2802.c **** 			{
2732:TP2824/TP2802.c **** 			Boot_Trigger_Function((TriggerStatus-1));
2733:TP2824/TP2802.c **** 
2734:TP2824/TP2802.c **** 				if(Flisheye_CAM[(TriggerStatus-1)]==TRUE)
2735:TP2824/TP2802.c **** 				{
2736:TP2824/TP2802.c **** 				TriggerMode=0;
2737:TP2824/TP2802.c **** 				TriggerHandler(CheckTrigger());
2738:TP2824/TP2802.c **** 				}
2739:TP2824/TP2802.c **** 			}
2740:TP2824/TP2802.c **** 			// if(PowerFlag==ON)///power on
2741:TP2824/TP2802.c **** 			BackLightON(); 
2742:TP2824/TP2802.c **** 		}
2743:TP2824/TP2802.c **** 
2744:TP2824/TP2802.c **** 
2745:TP2824/TP2802.c ****   	for( i = 0; i < CH_PER_CHIP; i++)
2746:TP2824/TP2802.c ****   {
2747:TP2824/TP2802.c **** 
2748:TP2824/TP2802.c ****   		if(INPUT_VIDEO_CHECK(i)||(TriggerStatus==(i+1)))
2749:TP2824/TP2802.c **** 		{
2750:TP2824/TP2802.c ****         	continue;
2751:TP2824/TP2802.c **** 		}
2752:TP2824/TP2802.c **** 
2753:TP2824/TP2802.c **** 	  
2754:TP2824/TP2802.c **** 	if( VideoSave[i] ==_TRUE)
2755:TP2824/TP2802.c **** 	{
ARM GAS  /tmp/ccZU1AeU.s 			page 94


2756:TP2824/TP2802.c **** 	/*
2757:TP2824/TP2802.c **** 	  count[i] =0;
2758:TP2824/TP2802.c **** 	  state[i] =VIDEO_IN;//VIDEO_IN;//VIDEO_IN;//VIDEO_LOCKED;
2759:TP2824/TP2802.c **** //	  std[i] = 0x02;///ReadEEP(EEP_TP2824_STD0+(i*2));
2760:TP2824/TP2802.c **** //	  mode[i] = NTSC;///ReadEEP(EEP_TP2824_STD0+(i*2)+1);
2761:TP2824/TP2802.c **** 	  std[i] = ReadEEP(EEP_TP2824_STD0+(i*3));
2762:TP2824/TP2802.c **** 	  mode[i] = ReadEEP(EEP_TP2824_STD0+(i*3)+1);
2763:TP2824/TP2802.c **** 	  */
2764:TP2824/TP2802.c **** 	  Init_TP280x_CHx_RegSet(Tp2802_Boot_Set_std,i);
2765:TP2824/TP2802.c **** 	 Init_TP280x_CHx_RegSet(Tp2802_Boot_Set_output,i);
2766:TP2824/TP2802.c **** 
2767:TP2824/TP2802.c **** /*
2768:TP2824/TP2802.c **** 	if(std[i]==HDC)
2769:TP2824/TP2802.c **** 		{
2770:TP2824/TP2802.c **** 		Set_HDC(i);
2771:TP2824/TP2802.c **** 		printf("(Set_HDC)");
2772:TP2824/TP2802.c **** 		}
2773:TP2824/TP2802.c **** 	 if(std[i]==HDA)
2774:TP2824/TP2802.c **** 	 	{
2775:TP2824/TP2802.c **** 	 	Set_HDA(i);
2776:TP2824/TP2802.c **** 		printf("(Set_HDA)");
2777:TP2824/TP2802.c **** 	 	}
2778:TP2824/TP2802.c **** */
2779:TP2824/TP2802.c **** 	 // SetRegPage(i);
2780:TP2824/TP2802.c **** 	//  Set_VidRes(i);
2781:TP2824/TP2802.c **** 
2782:TP2824/TP2802.c ****   		}
2783:TP2824/TP2802.c **** 	else
2784:TP2824/TP2802.c **** 		{		
2785:TP2824/TP2802.c **** 		count[i] = 0;
2786:TP2824/TP2802.c **** 		state[i] = VIDEO_UNPLUG;
2787:TP2824/TP2802.c **** 		std[i] = TVI;
2788:TP2824/TP2802.c **** 		mode[i] = NoDet;///R1080P30/*NoDet*/;
2789:TP2824/TP2802.c **** 		//Set_VidRes(i);
2790:TP2824/TP2802.c **** 		// TP28xx_reset_default(chip, i);
2791:TP2824/TP2802.c **** 		}
2792:TP2824/TP2802.c **** 	 // newInRes[i] = _OSD_720X480P60 ;
2793:TP2824/TP2802.c **** 					
2794:TP2824/TP2802.c ****   }
2795:TP2824/TP2802.c **** 
2796:TP2824/TP2802.c ****  for( i = 0; i <CH_PER_CHIP; i++)
2797:TP2824/TP2802.c ****   {
2798:TP2824/TP2802.c **** 
2799:TP2824/TP2802.c ****   		if((INPUT_VIDEO_CHECK(i)==0))
2800:TP2824/TP2802.c **** 		{
2801:TP2824/TP2802.c ****         	continue;
2802:TP2824/TP2802.c **** 		}
2803:TP2824/TP2802.c ****   
2804:TP2824/TP2802.c **** 	if( VideoSave[i] ==_TRUE)
2805:TP2824/TP2802.c **** 	{
2806:TP2824/TP2802.c **** 	/*
2807:TP2824/TP2802.c **** 	  count[i] =0;
2808:TP2824/TP2802.c **** 	  state[i] =VIDEO_IN;//VIDEO_IN;//VIDEO_IN;//VIDEO_LOCKED;
2809:TP2824/TP2802.c **** //	  std[i] = 0x02;///ReadEEP(EEP_TP2824_STD0+(i*2));
2810:TP2824/TP2802.c **** //	  mode[i] = NTSC;///ReadEEP(EEP_TP2824_STD0+(i*2)+1);
2811:TP2824/TP2802.c **** 	  std[i] = ReadEEP(EEP_TP2824_STD0+(i*3));
2812:TP2824/TP2802.c **** 	  mode[i] = ReadEEP(EEP_TP2824_STD0+(i*3)+1);
ARM GAS  /tmp/ccZU1AeU.s 			page 95


2813:TP2824/TP2802.c **** 	  */
2814:TP2824/TP2802.c **** 	  Init_TP280x_CHx_RegSet(Tp2802_Boot_Set_std,i);
2815:TP2824/TP2802.c **** 	 Init_TP280x_CHx_RegSet(Tp2802_Boot_Set_output,i);
2816:TP2824/TP2802.c **** /*
2817:TP2824/TP2802.c **** 	if(std[i]==HDC)
2818:TP2824/TP2802.c **** 		{
2819:TP2824/TP2802.c **** 		Set_HDC(i);
2820:TP2824/TP2802.c **** 		printf("(Set_HDC)");
2821:TP2824/TP2802.c **** 		}
2822:TP2824/TP2802.c **** 	 if(std[i]==HDA)
2823:TP2824/TP2802.c **** 	 	{
2824:TP2824/TP2802.c **** 	 	Set_HDA(i);
2825:TP2824/TP2802.c **** 		printf("(Set_HDA)");
2826:TP2824/TP2802.c **** 	 	}
2827:TP2824/TP2802.c **** */
2828:TP2824/TP2802.c **** 	 // SetRegPage(i);
2829:TP2824/TP2802.c **** 	//  Set_VidRes(i);
2830:TP2824/TP2802.c **** 
2831:TP2824/TP2802.c ****   		}
2832:TP2824/TP2802.c **** 	else
2833:TP2824/TP2802.c **** 		{		
2834:TP2824/TP2802.c **** 		count[i] = 0;
2835:TP2824/TP2802.c **** 		state[i] = VIDEO_UNPLUG;
2836:TP2824/TP2802.c **** 		std[i] = TVI;
2837:TP2824/TP2802.c **** 		mode[i] = NoDet;///R1080P30/*NoDet*/;
2838:TP2824/TP2802.c **** 		//Set_VidRes(i);
2839:TP2824/TP2802.c **** 		// TP28xx_reset_default(chip, i);
2840:TP2824/TP2802.c **** 		}
2841:TP2824/TP2802.c **** 	 // newInRes[i] = _OSD_720X480P60 ;
2842:TP2824/TP2802.c ****   }
2843:TP2824/TP2802.c **** /*
2844:TP2824/TP2802.c ****    for( i = 0; i <CH_PER_CHIP; i++)
2845:TP2824/TP2802.c ****   {
2846:TP2824/TP2802.c **** 	if( VideoSave[i] ==_TRUE)
2847:TP2824/TP2802.c **** 	{
2848:TP2824/TP2802.c **** 	Init_TP280x_CHx_RegSet(Tp2802_Boot_Set_output,i);
2849:TP2824/TP2802.c **** 	}
2850:TP2824/TP2802.c **** 
2851:TP2824/TP2802.c ****    }
2852:TP2824/TP2802.c ****    */
2853:TP2824/TP2802.c ****  
2854:TP2824/TP2802.c **** 
2855:TP2824/TP2802.c **** #else
2856:TP2824/TP2802.c **** 
2857:TP2824/TP2802.c **** 		mode[CH1]= R1080P25;	//chunyu
 2331              		.loc 1 2857 0
 2332 00a4 444B     		ldr	r3, .L238+36
 2333 00a6 0322     		movs	r2, #3
 2334 00a8 1A70     		strb	r2, [r3]
2858:TP2824/TP2802.c **** 		mode[CH2]= R1080P25;
 2335              		.loc 1 2858 0
 2336 00aa 5A70     		strb	r2, [r3, #1]
2859:TP2824/TP2802.c **** 		mode[CH3]= R1080P25;
 2337              		.loc 1 2859 0
 2338 00ac 9A70     		strb	r2, [r3, #2]
2860:TP2824/TP2802.c **** 		mode[CH4]= R1080P25;
 2339              		.loc 1 2860 0
ARM GAS  /tmp/ccZU1AeU.s 			page 96


 2340 00ae DA70     		strb	r2, [r3, #3]
2861:TP2824/TP2802.c **** 		
2862:TP2824/TP2802.c **** 	
2863:TP2824/TP2802.c **** 		//mode[CH1]= R720P25;	
2864:TP2824/TP2802.c **** 		//mode[CH1]= R1080P25;	
2865:TP2824/TP2802.c **** 	  tp28xx_byte_write(0x40,0x04);
 2341              		.loc 1 2865 0
 2342 00b0 0421     		movs	r1, #4
 2343 00b2 4020     		movs	r0, #64
 2344 00b4 FFF7FEFF 		bl	tp28xx_byte_write
 2345              	.LVL331:
2866:TP2824/TP2802.c **** 	   Set_VidRes(CH1);
 2346              		.loc 1 2866 0
 2347 00b8 0020     		movs	r0, #0
 2348 00ba FFF7FEFF 		bl	Set_VidRes
 2349              	.LVL332:
2867:TP2824/TP2802.c **** //		  Set_VidRes(CH2);
2868:TP2824/TP2802.c **** //		  Set_VidRes(CH3);
2869:TP2824/TP2802.c **** //		  Set_VidRes(CH4);
2870:TP2824/TP2802.c **** 		
2871:TP2824/TP2802.c **** 		//msleep(2000);//ryan@20200622
2872:TP2824/TP2802.c **** 		
2873:TP2824/TP2802.c **** 		CurRes=RES1920X1080;
 2350              		.loc 1 2873 0
 2351 00be 3F4B     		ldr	r3, .L238+40
 2352 00c0 0122     		movs	r2, #1
 2353 00c2 1A70     		strb	r2, [r3]
 2354              	.LVL333:
2874:TP2824/TP2802.c **** 		//CurRes=RES1280X720;
2875:TP2824/TP2802.c **** 
2876:TP2824/TP2802.c **** 
2877:TP2824/TP2802.c ****     for( i = 0; i < CH_PER_CHIP; i++)
 2355              		.loc 1 2877 0
 2356 00c4 0024     		movs	r4, #0
 2357              	.LVL334:
 2358              	.L226:
 2359              		.loc 1 2877 0 is_stmt 0 discriminator 1
 2360 00c6 002C     		cmp	r4, #0
 2361 00c8 46D0     		beq	.L228
2878:TP2824/TP2802.c ****     {
2879:TP2824/TP2802.c ****         count[i] = 0;
2880:TP2824/TP2802.c ****         state[i] = VIDEO_UNPLUG;
2881:TP2824/TP2802.c ****         std[i] = TVI;
2882:TP2824/TP2802.c ****         mode[i] = NoDet;
2883:TP2824/TP2802.c **** 
2884:TP2824/TP2802.c **** 
2885:TP2824/TP2802.c **** 	VS4210_Rx_NoSignal(1/*i*/) ; //chunyu
2886:TP2824/TP2802.c **** 	TP_InputMode=7;
2887:TP2824/TP2802.c **** 	newInRes[0] = _OSD_No_Signal; 
2888:TP2824/TP2802.c **** 			
2889:TP2824/TP2802.c **** 	if(SelectInputMode==_AHD_Input)
2890:TP2824/TP2802.c **** 	Set_Video_Loss_OSD(1,ON);	
2891:TP2824/TP2802.c ****     }
2892:TP2824/TP2802.c **** 
2893:TP2824/TP2802.c **** 
2894:TP2824/TP2802.c **** 	#endif
2895:TP2824/TP2802.c **** }
ARM GAS  /tmp/ccZU1AeU.s 			page 97


 2362              		.loc 1 2895 0 is_stmt 1
 2363 00ca 38BD     		pop	{r3, r4, r5, pc}
 2364              	.LVL335:
 2365              	.L219:
2636:TP2824/TP2802.c ****         flag_AUDIO = 1;
 2366              		.loc 1 2636 0
 2367 00cc 0123     		movs	r3, #1
 2368 00ce 354A     		ldr	r2, .L238+16
 2369 00d0 1360     		str	r3, [r2]
2637:TP2824/TP2802.c ****         if(0x01 == revision)
 2370              		.loc 1 2637 0
 2371 00d2 354A     		ldr	r2, .L238+20
 2372 00d4 1360     		str	r3, [r2]
2638:TP2824/TP2802.c ****         {
 2373              		.loc 1 2638 0
 2374 00d6 314B     		ldr	r3, .L238+8
 2375 00d8 1B78     		ldrb	r3, [r3]	@ zero_extendqisi2
 2376 00da 012B     		cmp	r3, #1
 2377 00dc 01D0     		beq	.L234
2645:TP2824/TP2802.c ****         }
 2378              		.loc 1 2645 0
 2379 00de 384C     		ldr	r4, .L238+44
 2380 00e0 D7E7     		b	.L223
 2381              	.L234:
2640:TP2824/TP2802.c ****             ptr_TP2802 = TP2833_DataSet;
 2382              		.loc 1 2640 0
 2383 00e2 2D4B     		ldr	r3, .L238+4
 2384 00e4 2522     		movs	r2, #37
 2385 00e6 1A70     		strb	r2, [r3]
 2386              	.LVL336:
2641:TP2824/TP2802.c ****         }
 2387              		.loc 1 2641 0
 2388 00e8 364C     		ldr	r4, .L238+48
 2389 00ea D2E7     		b	.L223
 2390              	.LVL337:
 2391              	.L220:
2650:TP2824/TP2802.c ****         flag_AUDIO = 1;
 2392              		.loc 1 2650 0
 2393 00ec 0123     		movs	r3, #1
 2394 00ee 2D4A     		ldr	r2, .L238+16
 2395 00f0 1360     		str	r3, [r2]
2651:TP2824/TP2802.c ****         ptr_TP2802 = TP2834_DataSet;
 2396              		.loc 1 2651 0
 2397 00f2 2D4A     		ldr	r2, .L238+20
 2398 00f4 1360     		str	r3, [r2]
 2399              	.LVL338:
2652:TP2824/TP2802.c ****         break;
 2400              		.loc 1 2652 0
 2401 00f6 344C     		ldr	r4, .L238+52
2653:TP2824/TP2802.c **** 
 2402              		.loc 1 2653 0
 2403 00f8 CBE7     		b	.L223
 2404              	.LVL339:
 2405              	.L221:
2656:TP2824/TP2802.c ****         flag_AUDIO = 1;
 2406              		.loc 1 2656 0
 2407 00fa 0123     		movs	r3, #1
ARM GAS  /tmp/ccZU1AeU.s 			page 98


 2408 00fc 294A     		ldr	r2, .L238+16
 2409 00fe 1360     		str	r3, [r2]
2657:TP2824/TP2802.c **** 
 2410              		.loc 1 2657 0
 2411 0100 294A     		ldr	r2, .L238+20
 2412 0102 1360     		str	r3, [r2]
2659:TP2824/TP2802.c ****         {
 2413              		.loc 1 2659 0
 2414 0104 254B     		ldr	r3, .L238+8
 2415 0106 1B78     		ldrb	r3, [r3]	@ zero_extendqisi2
 2416 0108 012B     		cmp	r3, #1
 2417 010a 05D0     		beq	.L235
2666:TP2824/TP2802.c ****         {
 2418              		.loc 1 2666 0
 2419 010c F3B9     		cbnz	r3, .L230
2668:TP2824/TP2802.c ****             ptr_TP2802 = TP2853C_DataSet;
 2420              		.loc 1 2668 0
 2421 010e 274B     		ldr	r3, .L238+24
 2422 0110 0122     		movs	r2, #1
 2423 0112 1A60     		str	r2, [r3]
 2424              	.LVL340:
2669:TP2824/TP2802.c ****         }
 2425              		.loc 1 2669 0
 2426 0114 2D4C     		ldr	r4, .L238+56
 2427 0116 BCE7     		b	.L223
 2428              	.LVL341:
 2429              	.L235:
2661:TP2824/TP2802.c ****             //flag_MEGA = 1;
 2430              		.loc 1 2661 0
 2431 0118 1F4B     		ldr	r3, .L238+4
 2432 011a 2F22     		movs	r2, #47
 2433 011c 1A70     		strb	r2, [r3]
 2434              	.LVL342:
2664:TP2824/TP2802.c ****         }
 2435              		.loc 1 2664 0
 2436 011e 2C4C     		ldr	r4, .L238+60
 2437 0120 B7E7     		b	.L223
 2438              	.LVL343:
 2439              	.L222:
2678:TP2824/TP2802.c ****         flag_AUDIO = 1;
 2440              		.loc 1 2678 0
 2441 0122 0123     		movs	r3, #1
 2442 0124 1F4A     		ldr	r2, .L238+16
 2443 0126 1360     		str	r3, [r2]
2679:TP2824/TP2802.c **** 
 2444              		.loc 1 2679 0
 2445 0128 1F4A     		ldr	r2, .L238+20
 2446 012a 1360     		str	r3, [r2]
2681:TP2824/TP2802.c ****         {
 2447              		.loc 1 2681 0
 2448 012c 1B4B     		ldr	r3, .L238+8
 2449 012e 1B78     		ldrb	r3, [r3]	@ zero_extendqisi2
 2450 0130 042B     		cmp	r3, #4
 2451 0132 01D0     		beq	.L236
2625:TP2824/TP2802.c ****     switch(chip)
 2452              		.loc 1 2625 0
 2453 0134 1F4C     		ldr	r4, .L238+32
ARM GAS  /tmp/ccZU1AeU.s 			page 99


 2454 0136 ACE7     		b	.L223
 2455              	.L236:
2686:TP2824/TP2802.c ****         }
 2456              		.loc 1 2686 0
 2457 0138 2648     		ldr	r0, .L238+64
 2458 013a FFF7FEFF 		bl	puts
 2459              	.LVL344:
2685:TP2824/TP2802.c ****             printf("TP2824C test\r\n");
 2460              		.loc 1 2685 0
 2461 013e 1D4C     		ldr	r4, .L238+32
 2462 0140 A7E7     		b	.L223
 2463              	.L216:
2691:TP2824/TP2802.c ****         break;
 2464              		.loc 1 2691 0
 2465 0142 2548     		ldr	r0, .L238+68
 2466 0144 FFF7FEFF 		bl	puts
 2467              	.LVL345:
2625:TP2824/TP2802.c ****     switch(chip)
 2468              		.loc 1 2625 0
 2469 0148 1A4C     		ldr	r4, .L238+32
2692:TP2824/TP2802.c ****     }
 2470              		.loc 1 2692 0
 2471 014a A2E7     		b	.L223
 2472              	.L230:
2673:TP2824/TP2802.c ****         }
 2473              		.loc 1 2673 0
 2474 014c 1F4C     		ldr	r4, .L238+56
 2475 014e A0E7     		b	.L223
 2476              	.LVL346:
 2477              	.L233:
2699:TP2824/TP2802.c **** /*
 2478              		.loc 1 2699 0 discriminator 1
 2479 0150 2248     		ldr	r0, .L238+72
 2480 0152 FFF7FEFF 		bl	I2CDeviceSet1
 2481              	.LVL347:
 2482 0156 A5E7     		b	.L225
 2483              	.LVL348:
 2484              	.L228:
2879:TP2824/TP2802.c ****         state[i] = VIDEO_UNPLUG;
 2485              		.loc 1 2879 0
 2486 0158 0023     		movs	r3, #0
 2487 015a 214A     		ldr	r2, .L238+76
 2488 015c 1355     		strb	r3, [r2, r4]
2880:TP2824/TP2802.c ****         std[i] = TVI;
 2489              		.loc 1 2880 0
 2490 015e 214A     		ldr	r2, .L238+80
 2491 0160 1355     		strb	r3, [r2, r4]
2881:TP2824/TP2802.c ****         mode[i] = NoDet;
 2492              		.loc 1 2881 0
 2493 0162 214A     		ldr	r2, .L238+84
 2494 0164 1355     		strb	r3, [r2, r4]
2882:TP2824/TP2802.c **** 
 2495              		.loc 1 2882 0
 2496 0166 0725     		movs	r5, #7
 2497 0168 134B     		ldr	r3, .L238+36
 2498 016a 1D55     		strb	r5, [r3, r4]
2885:TP2824/TP2802.c **** 	TP_InputMode=7;
ARM GAS  /tmp/ccZU1AeU.s 			page 100


 2499              		.loc 1 2885 0
 2500 016c 0120     		movs	r0, #1
 2501 016e FFF7FEFF 		bl	VS4210_Rx_NoSignal
 2502              	.LVL349:
2886:TP2824/TP2802.c **** 	newInRes[0] = _OSD_No_Signal; 
 2503              		.loc 1 2886 0
 2504 0172 1E4B     		ldr	r3, .L238+88
 2505 0174 1D70     		strb	r5, [r3]
2887:TP2824/TP2802.c **** 			
 2506              		.loc 1 2887 0
 2507 0176 1E4B     		ldr	r3, .L238+92
 2508 0178 1422     		movs	r2, #20
 2509 017a 1A70     		strb	r2, [r3]
2889:TP2824/TP2802.c **** 	Set_Video_Loss_OSD(1,ON);	
 2510              		.loc 1 2889 0
 2511 017c 1D4B     		ldr	r3, .L238+96
 2512 017e 1B78     		ldrb	r3, [r3]	@ zero_extendqisi2
 2513 0180 012B     		cmp	r3, #1
 2514 0182 02D0     		beq	.L237
 2515              	.L227:
2877:TP2824/TP2802.c ****     {
 2516              		.loc 1 2877 0 discriminator 2
 2517 0184 0134     		adds	r4, r4, #1
 2518              	.LVL350:
 2519 0186 E4B2     		uxtb	r4, r4
 2520              	.LVL351:
 2521 0188 9DE7     		b	.L226
 2522              	.L237:
2890:TP2824/TP2802.c ****     }
 2523              		.loc 1 2890 0
 2524 018a 0121     		movs	r1, #1
 2525 018c 0846     		mov	r0, r1
 2526 018e FFF7FEFF 		bl	Set_Video_Loss_OSD
 2527              	.LVL352:
 2528 0192 F7E7     		b	.L227
 2529              	.L239:
 2530              		.align	2
 2531              	.L238:
 2532 0194 00000000 		.word	TVII2CAddress
 2533 0198 00000000 		.word	chip
 2534 019c 00000000 		.word	revision
 2535 01a0 00000000 		.word	.LC26
 2536 01a4 00000000 		.word	flag_CVBS
 2537 01a8 00000000 		.word	flag_AUDIO
 2538 01ac 00000000 		.word	flag_MEGA
 2539 01b0 1C000000 		.word	.LC27
 2540 01b4 00000000 		.word	.LANCHOR15
 2541 01b8 00000000 		.word	mode
 2542 01bc 00000000 		.word	CurRes
 2543 01c0 00000000 		.word	.LANCHOR16
 2544 01c4 00000000 		.word	.LANCHOR19
 2545 01c8 00000000 		.word	.LANCHOR17
 2546 01cc 00000000 		.word	.LANCHOR18
 2547 01d0 00000000 		.word	.LANCHOR20
 2548 01d4 24000000 		.word	.LC28
 2549 01d8 34000000 		.word	.LC29
 2550 01dc 00000000 		.word	.LANCHOR21
ARM GAS  /tmp/ccZU1AeU.s 			page 101


 2551 01e0 00000000 		.word	count
 2552 01e4 00000000 		.word	state
 2553 01e8 00000000 		.word	std
 2554 01ec 00000000 		.word	.LANCHOR22
 2555 01f0 00000000 		.word	.LANCHOR23
 2556 01f4 00000000 		.word	SelectInputMode
 2557              		.cfi_endproc
 2558              	.LFE90:
 2560              		.section	.text.ConvertData,"ax",%progbits
 2561              		.align	1
 2562              		.global	ConvertData
 2563              		.syntax unified
 2564              		.thumb
 2565              		.thumb_func
 2566              		.fpu softvfp
 2568              	ConvertData:
 2569              	.LFB91:
2896:TP2824/TP2802.c **** #if 0
2897:TP2824/TP2802.c **** void Init_TP280x_CHx_RegSet(BYTE Action,BYTE index)
2898:TP2824/TP2802.c **** {
2899:TP2824/TP2802.c **** 	
2900:TP2824/TP2802.c **** 		tByte /*cvstd,status,*/i=index;
2901:TP2824/TP2802.c **** 		 tByte gain, tmp, /*fmt,*/ tmpab;
2902:TP2824/TP2802.c **** 
2903:TP2824/TP2802.c **** 		  count[i] =20;
2904:TP2824/TP2802.c **** 		  state[i] =VIDEO_LOCKED;//VIDEO_IN;//VIDEO_IN;//VIDEO_LOCKED;
2905:TP2824/TP2802.c **** 	//	  std[i] = 0x02;///ReadEEP(EEP_TP2824_STD0+(i*2));
2906:TP2824/TP2802.c **** 	//	  mode[i] = NTSC;///ReadEEP(EEP_TP2824_STD0+(i*2)+1);
2907:TP2824/TP2802.c **** 		  std[i] = ReadEEP(EEP_TP2824_STD0+(i*3));
2908:TP2824/TP2802.c **** 		  mode[i] = ReadEEP(EEP_TP2824_STD0+(i*3)+1);
2909:TP2824/TP2802.c **** 
2910:TP2824/TP2802.c **** 		printf("Init_TP280x_CHx_RegSet in ch%02x \r\n", (tWord)i);
2911:TP2824/TP2802.c **** 		SetRegPage(i);
2912:TP2824/TP2802.c **** 
2913:TP2824/TP2802.c **** 		//Set_VidRes(i);      
2914:TP2824/TP2802.c **** 
2915:TP2824/TP2802.c **** 		//msleep(200) ;
2916:TP2824/TP2802.c **** switch(Action)
2917:TP2824/TP2802.c **** {
2918:TP2824/TP2802.c **** case Tp2802_Boot_Set_std:
2919:TP2824/TP2802.c **** 	if(std[i] ==TVI)
2920:TP2824/TP2802.c **** 	{
2921:TP2824/TP2802.c **** 					Set_VidRes(i); 
2922:TP2824/TP2802.c **** 					//if((mode[i]==NTSC)||(mode[i]==PAL))
2923:TP2824/TP2802.c **** 					//msleep(300) ;
2924:TP2824/TP2802.c **** 					//std[i] = TVI;
2925:TP2824/TP2802.c **** 					CurCH = i;
2926:TP2824/TP2802.c **** 					if( (R720P30V2 == mode[i]) || (R720P25V2 == mode[i]) )
2927:TP2824/TP2802.c **** 					{
2928:TP2824/TP2802.c **** 						if( 0x00 == (0x08 & tp28xx_byte_read(0x03)))
2929:TP2824/TP2802.c **** 						{
2930:TP2824/TP2802.c **** 							mode[i] &= 0xf7;
