ARM GAS  /tmp/cc0CX9nZ.s 			page 1


   1              		.syntax unified
   2              		.cpu cortex-m3
   3              		.fpu softvfp
   4              		.eabi_attribute 20, 1
   5              		.eabi_attribute 21, 1
   6              		.eabi_attribute 23, 3
   7              		.eabi_attribute 24, 1
   8              		.eabi_attribute 25, 1
   9              		.eabi_attribute 26, 1
  10              		.eabi_attribute 30, 1
  11              		.eabi_attribute 34, 1
  12              		.eabi_attribute 18, 4
  13              		.thumb
  14              		.file	"VX_OSD_Simple.c"
  15              		.text
  16              	.Ltext0:
  17              		.cfi_sections	.debug_frame
  18              		.section	.text.GetconvertBarStr,"ax",%progbits
  19              		.align	2
  20              		.thumb
  21              		.thumb_func
  23              	GetconvertBarStr:
  24              	.LFB66:
  25              		.file 1 "VS4210/VX_OSD_Simple.c"
   1:VS4210/VX_OSD_Simple.c **** /** @file VX_OSD_Simple.c
   2:VS4210/VX_OSD_Simple.c ****   * @brief OSD subtitle display program
   3:VS4210/VX_OSD_Simple.c ****   *
   4:VS4210/VX_OSD_Simple.c ****   * Message is displayed on the screen.
   5:VS4210/VX_OSD_Simple.c ****   *
   6:VS4210/VX_OSD_Simple.c ****   * @author Cunu-Yu
   7:VS4210/VX_OSD_Simple.c ****   * @date 2018/06/20
   8:VS4210/VX_OSD_Simple.c ****   */
   9:VS4210/VX_OSD_Simple.c **** 
  10:VS4210/VX_OSD_Simple.c **** #include <string.h>
  11:VS4210/VX_OSD_Simple.c **** #include "VXIS_Extern_Define.h"
  12:VS4210/VX_OSD_Simple.c **** #include "VX_OSD.h"
  13:VS4210/VX_OSD_Simple.c **** #include "VX_swi2c.h"
  14:VS4210/VX_OSD_Simple.c **** 
  15:VS4210/VX_OSD_Simple.c **** #include "main.h"
  16:VS4210/VX_OSD_Simple.c **** #include "Printf.h"
  17:VS4210/VX_OSD_Simple.c **** 
  18:VS4210/VX_OSD_Simple.c **** tByte MenuOSDonFlg ;
  19:VS4210/VX_OSD_Simple.c **** tByte bVloss_Flag=0;
  20:VS4210/VX_OSD_Simple.c **** 
  21:VS4210/VX_OSD_Simple.c **** extern  tByte u8gDrawOSDFlg ;
  22:VS4210/VX_OSD_Simple.c **** extern  tByte gbVXIS_OuputSize  ;
  23:VS4210/VX_OSD_Simple.c **** extern  tByte gbVXIS_OuputModeflg ;
  24:VS4210/VX_OSD_Simple.c **** extern  tByte gbVXIS_InputMode[4]  ;
  25:VS4210/VX_OSD_Simple.c **** extern  tByte gaHDMI_MapWindowIndex[4] ;
  26:VS4210/VX_OSD_Simple.c **** extern  tByte gu8AudioMode  ;
  27:VS4210/VX_OSD_Simple.c **** extern BYTE SelectInputMode;///0=HDMI , 1=AHD
  28:VS4210/VX_OSD_Simple.c **** extern tByte bSignal[4];
  29:VS4210/VX_OSD_Simple.c **** 
  30:VS4210/VX_OSD_Simple.c **** tByte OSDx2Flg ;
  31:VS4210/VX_OSD_Simple.c **** #define _TransParentColor  8
  32:VS4210/VX_OSD_Simple.c **** #define _Color 0x07
  33:VS4210/VX_OSD_Simple.c **** #define _MenuColor 0x17 // _Blue (bg) + _White
ARM GAS  /tmp/cc0CX9nZ.s 			page 2


  34:VS4210/VX_OSD_Simple.c **** #define _MenuSelColor ((_RoyalBlue & 0x07) << 4 ) | _Orange
  35:VS4210/VX_OSD_Simple.c **** 
  36:VS4210/VX_OSD_Simple.c **** tcByte *ptcOSDbar ;    
  37:VS4210/VX_OSD_Simple.c **** tcByte OSD_720x480I60_param[]=  {10 ,_7,_2,_0,_X,_4,_8,_0,_I,_spc,_spc};
  38:VS4210/VX_OSD_Simple.c **** tcByte OSD_720x480P60_param[]=  {10 ,_7,_2,_0,_X,_4,_8,_0,_P,_spc,_spc};
  39:VS4210/VX_OSD_Simple.c **** tcByte OSD_720x576I50_param[]=  {10 ,_7,_2,_0,_X,_5,_7,_6,_I,_spc,_spc};
  40:VS4210/VX_OSD_Simple.c **** tcByte OSD_720x576P50_param[]=  {10 ,_7,_2,_0,_X,_5,_7,_6,_P,_spc,_spc};
  41:VS4210/VX_OSD_Simple.c **** tcByte OSD_1280x720P_param[] =  {10 ,_1,_2,_8,_0,_X,_7,_2,_0,_P  ,_spc};
  42:VS4210/VX_OSD_Simple.c **** tcByte OSD_1920x1080P_param[]=  {10 ,_1,_9,_2,_0,_X,_1,_0,_8,_0  ,_P  };
  43:VS4210/VX_OSD_Simple.c **** tcByte OSD_1920x1080I_param[]=  {10 ,_1,_9,_2,_0,_X,_1,_0,_8,_0  ,_I  };
  44:VS4210/VX_OSD_Simple.c **** //DVI
  45:VS4210/VX_OSD_Simple.c **** tcByte OSD_640X480P_param[]=   {10 ,_6,_4,_0,_X,_4,_8,_0,_P,_spc,_spc};
  46:VS4210/VX_OSD_Simple.c **** tcByte OSD_800X600P_param[]=  {10 ,_8,_0,_0,_X,_6,_0,_0,_P,_spc,_spc};
  47:VS4210/VX_OSD_Simple.c **** tcByte OSD_1024X768P_param[]=  {10 ,_1,_0,_2,_4,_X,_7,_6,_8,_P  ,_spc};
  48:VS4210/VX_OSD_Simple.c **** tcByte OSD_1280X768P_param[]=  {10 ,_1,_2,_8,_0,_X,_7,_6,_8,_P  ,_spc};
  49:VS4210/VX_OSD_Simple.c **** tcByte OSD_1360X768P_param[]=  {10 ,_1,_3,_6,_0,_X,_7,_6,_8,_P  ,_spc};
  50:VS4210/VX_OSD_Simple.c **** tcByte OSD_1366X768P_param[]=  {10 ,_1,_3,_6,_6,_X,_7,_6,_8,_P  ,_spc};
  51:VS4210/VX_OSD_Simple.c **** tcByte OSD_1280X800P_param[]=  {10 ,_1,_2,_8,_0,_X,_8,_0,_0,_P  ,_spc};
  52:VS4210/VX_OSD_Simple.c **** tcByte OSD_1440X900P_param[]=  {10 ,_1,_4,_4,_0,_X,_9,_0,_0,_P  ,_spc};
  53:VS4210/VX_OSD_Simple.c **** tcByte OSD_1280X1024P_param[]= {10 ,_1,_2,_8,_0,_X,_1,_0,_2,_4  ,_P  };
  54:VS4210/VX_OSD_Simple.c **** tcByte OSD_1400X1050P_param[]= {10 ,_1,_4,_0,_0,_X,_1,_0,_5,_0  ,_P  };
  55:VS4210/VX_OSD_Simple.c **** tcByte OSD_1680X1050P_param[]= {10 ,_1,_6,_8,_0,_X,_1,_0,_5,_0  ,_P  };
  56:VS4210/VX_OSD_Simple.c **** tcByte OSD_1600X1200P_param[]= {10 ,_1,_6,_0,_0,_X,_1,_2,_0,_0  ,_P  };
  57:VS4210/VX_OSD_Simple.c **** tcByte OSD_1920X1200P_param[]= {10 ,_1,_9,_2,_0,_X,_1,_2,_0,_0  ,_P  };
  58:VS4210/VX_OSD_Simple.c **** 
  59:VS4210/VX_OSD_Simple.c **** tcByte OSD_No_Signal_param[]=   {10 ,_N,_o,_spc,_S,_i,_g,_n,_a,_l,_spc};
  60:VS4210/VX_OSD_Simple.c **** 
  61:VS4210/VX_OSD_Simple.c **** tcByte OSD_CH0_param[]= {6,_C,_H,_spc,_1,_spc,_spc};
  62:VS4210/VX_OSD_Simple.c **** tcByte OSD_CH1_param[]= {6,_C,_H,_spc,_2,_spc,_spc};
  63:VS4210/VX_OSD_Simple.c **** tcByte OSD_CH2_param[]= {6,_C,_H,_spc,_3,_spc,_spc};
  64:VS4210/VX_OSD_Simple.c **** tcByte OSD_CH3_param[]= {6,_C,_H,_spc,_4,_spc,_spc};
  65:VS4210/VX_OSD_Simple.c **** 
  66:VS4210/VX_OSD_Simple.c **** //tByte  OSD_CHx_param[7] ;
  67:VS4210/VX_OSD_Simple.c **** 
  68:VS4210/VX_OSD_Simple.c **** 
  69:VS4210/VX_OSD_Simple.c **** tcWord Mode0_1080P_param[]   = {180,61} ;
  70:VS4210/VX_OSD_Simple.c **** tcWord Mode1_w0_1080P_param[]= {180,61} ;
  71:VS4210/VX_OSD_Simple.c **** tcWord Mode1_w1_1080P_param[]= {1140,61} ;
  72:VS4210/VX_OSD_Simple.c **** tcWord Mode1_w2_1080P_param[]= {180,603} ;
  73:VS4210/VX_OSD_Simple.c **** tcWord Mode1_w3_1080P_param[]= {1140,603} ;
  74:VS4210/VX_OSD_Simple.c **** tcWord Mode2_w0_1080P_param[]= {180,61} ;
  75:VS4210/VX_OSD_Simple.c **** tcWord Mode2_w1_1080P_param[]= {664,61} ;
  76:VS4210/VX_OSD_Simple.c **** tcWord Mode2_w2_1080P_param[]= {664,603} ;
  77:VS4210/VX_OSD_Simple.c **** tcWord Mode2_w3_1080P_param[]= {1624,61} ;
  78:VS4210/VX_OSD_Simple.c **** tcWord Mode6_w0_1080P_param[]= {180,61} ;
  79:VS4210/VX_OSD_Simple.c **** tcWord Mode6_w1_1080P_param[]= {1460,61} ;
  80:VS4210/VX_OSD_Simple.c **** tcWord Mode6_w2_1080P_param[]= {1460,422} ;
  81:VS4210/VX_OSD_Simple.c **** tcWord Mode6_w3_1080P_param[]= {1460,783} ;
  82:VS4210/VX_OSD_Simple.c **** tcWord Mode12_w0_1080P_param[]= {180,61} ;
  83:VS4210/VX_OSD_Simple.c **** tcWord Mode12_w1_1080P_param[]= {1140,61} ;
  84:VS4210/VX_OSD_Simple.c **** 
  85:VS4210/VX_OSD_Simple.c **** tcWord Mode0_720P_param[]   = {244,37} ;
  86:VS4210/VX_OSD_Simple.c **** tcWord Mode1_w0_720P_param[]= {244,37} ;
  87:VS4210/VX_OSD_Simple.c **** tcWord Mode1_w1_720P_param[]= {886,37} ;
  88:VS4210/VX_OSD_Simple.c **** tcWord Mode1_w2_720P_param[]= {244,401} ;
  89:VS4210/VX_OSD_Simple.c **** tcWord Mode1_w3_720P_param[]= {886,401} ;
  90:VS4210/VX_OSD_Simple.c **** tcWord Mode2_w0_720P_param[]= {244,37} ;
ARM GAS  /tmp/cc0CX9nZ.s 			page 3


  91:VS4210/VX_OSD_Simple.c **** tcWord Mode2_w1_720P_param[]= {566,37} ;
  92:VS4210/VX_OSD_Simple.c **** tcWord Mode2_w2_720P_param[]= {566,401} ;
  93:VS4210/VX_OSD_Simple.c **** tcWord Mode2_w3_720P_param[]= {1206,37} ;
  94:VS4210/VX_OSD_Simple.c **** 
  95:VS4210/VX_OSD_Simple.c **** tcWord Mode6_w0_720P_param[]= {244,37} ;
  96:VS4210/VX_OSD_Simple.c **** tcWord Mode6_w1_720P_param[]= {1098,37} ;
  97:VS4210/VX_OSD_Simple.c **** tcWord Mode6_w2_720P_param[]= {1098,280} ;
  98:VS4210/VX_OSD_Simple.c **** tcWord Mode6_w3_720P_param[]= {1098,520} ;
  99:VS4210/VX_OSD_Simple.c **** 
 100:VS4210/VX_OSD_Simple.c **** tcWord Mode12_w0_720P_param[]= {244,37} ;
 101:VS4210/VX_OSD_Simple.c **** tcWord Mode12_w1_720P_param[]= {886,37} ;
 102:VS4210/VX_OSD_Simple.c **** 
 103:VS4210/VX_OSD_Simple.c **** 
 104:VS4210/VX_OSD_Simple.c **** tcWord Mode13_w0_1080P_param[]= {180,61} ;
 105:VS4210/VX_OSD_Simple.c **** tcWord Mode13_w1_1080P_param[]= {180,603} ;
 106:VS4210/VX_OSD_Simple.c **** tcWord Mode24_w0_1080P_param[]= {180,61} ;
 107:VS4210/VX_OSD_Simple.c **** tcWord Mode24_w1_1080P_param[]= {1460,781} ;
 108:VS4210/VX_OSD_Simple.c **** 
 109:VS4210/VX_OSD_Simple.c **** tcWord Mode13_w0_720P_param[]= {244,37} ;
 110:VS4210/VX_OSD_Simple.c **** tcWord Mode13_w1_720P_param[]= {244,401} ;
 111:VS4210/VX_OSD_Simple.c **** tcWord Mode24_w0_720P_param[]= {244,37} ;
 112:VS4210/VX_OSD_Simple.c **** tcWord Mode24_w1_720P_param[]= {1098,517} ;
 113:VS4210/VX_OSD_Simple.c **** 
 114:VS4210/VX_OSD_Simple.c **** 
 115:VS4210/VX_OSD_Simple.c **** //LINE
 116:VS4210/VX_OSD_Simple.c **** tcByte aLineModeReg[] = {0xB8,0xBA,0xBB,0xBC,0xBD,0xBE ,0xB9} ;
 117:VS4210/VX_OSD_Simple.c **** tcByte aLineMode1080PMode1Lin1[]= {0x01,0x04,0x25,0x5c,0x04,0x51 ,0x83} ;
 118:VS4210/VX_OSD_Simple.c **** tcByte aLineMode1080PMode1Lin2[]= {0x02,0x08,0x94,0x13,0x82,0x41 ,0x83} ;
 119:VS4210/VX_OSD_Simple.c **** tcByte aLineMode1080PMode2Lin1[]= {0x01,0x04,0x25,0x5C,0x02,0x72 ,0x83} ;
 120:VS4210/VX_OSD_Simple.c **** tcByte aLineMode1080PMode2Lin2[]= {0x02,0x04,0x25,0x5C,0x06,0x32 ,0x83} ;
 121:VS4210/VX_OSD_Simple.c **** tcByte aLineMode1080PMode2Lin3[]= {0x03,0x26,0x74,0x33,0x82,0x41 ,0x83} ;
 122:VS4210/VX_OSD_Simple.c **** tcByte aLineMode1080PMode6Lin1[]= {0x01,0x04,0x25,0x5C,0x05,0x90 ,0x83} ;
 123:VS4210/VX_OSD_Simple.c **** tcByte aLineMode1080PMode6Lin2[]= {0x02,0x58,0x92,0x13,0x81,0x8C ,0x83} ;
 124:VS4210/VX_OSD_Simple.c **** tcByte aLineMode1080PMode6Lin3[]= {0x03,0x58,0x92,0x13,0x82,0xF5 ,0x83} ;
 125:VS4210/VX_OSD_Simple.c **** 
 126:VS4210/VX_OSD_Simple.c **** tcByte aLineMode720PMode1Lin1[]= {0x01,0x02,0x15,0xE4,0x03,0x5A ,0x83} ;
 127:VS4210/VX_OSD_Simple.c **** tcByte aLineMode720PMode1Lin2[]= {0x02,0x05,0xDC,0xDB,0x81,0x7D ,0x83} ;
 128:VS4210/VX_OSD_Simple.c **** tcByte aLineMode720PMode2Lin1[]= {0x01,0x02,0x15,0xE4,0x02,0x1A ,0x83} ;
 129:VS4210/VX_OSD_Simple.c **** tcByte aLineMode720PMode2Lin2[]= {0x02,0x02,0x15,0xE4,0x04,0x9A ,0x83} ;
 130:VS4210/VX_OSD_Simple.c **** tcByte aLineMode720PMode2Lin3[]= {0x03,0x24,0x1B,0x9B,0x81,0x7D ,0x83} ;
 131:VS4210/VX_OSD_Simple.c **** tcByte aLineMode720PMode6Lin1[]= {0x01,0x02,0x15,0xE4,0x04,0x2E ,0x83} ;
 132:VS4210/VX_OSD_Simple.c **** tcByte aLineMode720PMode6Lin2[]= {0x02,0x45,0x30,0xDB,0x81,0x04 ,0x83} ;
 133:VS4210/VX_OSD_Simple.c **** tcByte aLineMode720PMode6Lin3[]= {0x03,0x45,0x30,0xDB,0x81,0xF5 ,0x83} ;
 134:VS4210/VX_OSD_Simple.c **** 
 135:VS4210/VX_OSD_Simple.c **** tcByte aLineMode1080PMode12Lin1[]= {0x01,0x04,0x25,0x5C,0x04,0x51 ,0x83} ;
 136:VS4210/VX_OSD_Simple.c **** tcByte aLineMode720PMode12Lin1[]= {0x01,0x02,0x15,0xE4,0x03,0x5A ,0x83} ;
 137:VS4210/VX_OSD_Simple.c **** 
 138:VS4210/VX_OSD_Simple.c **** ///////////////////////////////////////////////////////////////////////////////////////
 139:VS4210/VX_OSD_Simple.c **** static void VX_Write_OSD_In_OutString(tByte ch , tByte *Str1,tByte *Str2, int out_mode)
 140:VS4210/VX_OSD_Simple.c **** {
 141:VS4210/VX_OSD_Simple.c ****     tWord ix,iy ;
 142:VS4210/VX_OSD_Simple.c ****     tByte TitleFlg ;
 143:VS4210/VX_OSD_Simple.c ****     tByte BarFlg ;
 144:VS4210/VX_OSD_Simple.c **** 
 145:VS4210/VX_OSD_Simple.c ****     TitleFlg = (u8gDrawOSDFlg & 0x02 ) >> 1 ;
 146:VS4210/VX_OSD_Simple.c ****     BarFlg   = u8gDrawOSDFlg & 0x01 ;
 147:VS4210/VX_OSD_Simple.c **** 
ARM GAS  /tmp/cc0CX9nZ.s 			page 4


 148:VS4210/VX_OSD_Simple.c ****     if (out_mode == VS4210_1080P_MODE0_w0 )
 149:VS4210/VX_OSD_Simple.c ****     {
 150:VS4210/VX_OSD_Simple.c ****         if(gbVXIS_OuputSize == _OUTPUT_1080P60)
 151:VS4210/VX_OSD_Simple.c ****         {
 152:VS4210/VX_OSD_Simple.c ****             ix = Mode0_1080P_param[0] ;
 153:VS4210/VX_OSD_Simple.c ****             iy = Mode0_1080P_param[1] ;
 154:VS4210/VX_OSD_Simple.c ****         }
 155:VS4210/VX_OSD_Simple.c ****         else
 156:VS4210/VX_OSD_Simple.c ****         {
 157:VS4210/VX_OSD_Simple.c ****             ix = Mode0_720P_param[0] ;
 158:VS4210/VX_OSD_Simple.c ****             iy = Mode0_720P_param[1] ;
 159:VS4210/VX_OSD_Simple.c ****         }
 160:VS4210/VX_OSD_Simple.c ****     }
 161:VS4210/VX_OSD_Simple.c ****     else if (out_mode == VS4210_1080P_MODE0_w1  )
 162:VS4210/VX_OSD_Simple.c ****     {
 163:VS4210/VX_OSD_Simple.c ****         if(gbVXIS_OuputSize == _OUTPUT_1080P60)
 164:VS4210/VX_OSD_Simple.c ****         {
 165:VS4210/VX_OSD_Simple.c ****             ix = Mode0_1080P_param[0] ;
 166:VS4210/VX_OSD_Simple.c ****             iy = Mode0_1080P_param[1] ;
 167:VS4210/VX_OSD_Simple.c ****         }
 168:VS4210/VX_OSD_Simple.c ****         else
 169:VS4210/VX_OSD_Simple.c ****         {
 170:VS4210/VX_OSD_Simple.c ****             ix = Mode0_720P_param[0] ;
 171:VS4210/VX_OSD_Simple.c ****             iy = Mode0_720P_param[1] ;
 172:VS4210/VX_OSD_Simple.c ****         }
 173:VS4210/VX_OSD_Simple.c ****     }
 174:VS4210/VX_OSD_Simple.c ****     else if (out_mode == VS4210_1080P_MODE0_w2  )
 175:VS4210/VX_OSD_Simple.c ****     {
 176:VS4210/VX_OSD_Simple.c ****         if(gbVXIS_OuputSize == _OUTPUT_1080P60)
 177:VS4210/VX_OSD_Simple.c ****         {
 178:VS4210/VX_OSD_Simple.c ****             ix = Mode0_1080P_param[0] ;
 179:VS4210/VX_OSD_Simple.c ****             iy = Mode0_1080P_param[1] ;
 180:VS4210/VX_OSD_Simple.c ****         }
 181:VS4210/VX_OSD_Simple.c ****         else
 182:VS4210/VX_OSD_Simple.c ****         {
 183:VS4210/VX_OSD_Simple.c ****             ix = Mode0_720P_param[0] ;
 184:VS4210/VX_OSD_Simple.c ****             iy = Mode0_720P_param[1] ;
 185:VS4210/VX_OSD_Simple.c ****         }
 186:VS4210/VX_OSD_Simple.c ****     }
 187:VS4210/VX_OSD_Simple.c ****     else if (out_mode == VS4210_1080P_MODE0_w3  )
 188:VS4210/VX_OSD_Simple.c ****     {
 189:VS4210/VX_OSD_Simple.c ****         if(gbVXIS_OuputSize == _OUTPUT_1080P60)
 190:VS4210/VX_OSD_Simple.c ****         {
 191:VS4210/VX_OSD_Simple.c ****             ix = Mode0_1080P_param[0] ;
 192:VS4210/VX_OSD_Simple.c ****             iy = Mode0_1080P_param[1] ;
 193:VS4210/VX_OSD_Simple.c ****         }
 194:VS4210/VX_OSD_Simple.c ****         else
 195:VS4210/VX_OSD_Simple.c ****         {
 196:VS4210/VX_OSD_Simple.c ****             ix = Mode0_720P_param[0] ;
 197:VS4210/VX_OSD_Simple.c ****             iy = Mode0_720P_param[1] ;
 198:VS4210/VX_OSD_Simple.c ****         }
 199:VS4210/VX_OSD_Simple.c ****     }
 200:VS4210/VX_OSD_Simple.c ****     else if (out_mode == VS4210_1080P_MODE1  )
 201:VS4210/VX_OSD_Simple.c ****     {
 202:VS4210/VX_OSD_Simple.c ****         if (ch == 0 )
 203:VS4210/VX_OSD_Simple.c ****         {
 204:VS4210/VX_OSD_Simple.c ****             if(gbVXIS_OuputSize == _OUTPUT_1080P60)
ARM GAS  /tmp/cc0CX9nZ.s 			page 5


 205:VS4210/VX_OSD_Simple.c ****             {
 206:VS4210/VX_OSD_Simple.c ****                 ix = Mode1_w0_1080P_param[0] ;
 207:VS4210/VX_OSD_Simple.c ****                 iy = Mode1_w0_1080P_param[1] ;
 208:VS4210/VX_OSD_Simple.c ****             }
 209:VS4210/VX_OSD_Simple.c ****             else
 210:VS4210/VX_OSD_Simple.c ****             {
 211:VS4210/VX_OSD_Simple.c ****                 ix = Mode1_w0_720P_param[0] ;
 212:VS4210/VX_OSD_Simple.c ****                 iy = Mode1_w0_720P_param[1] ;
 213:VS4210/VX_OSD_Simple.c ****             }
 214:VS4210/VX_OSD_Simple.c ****         }
 215:VS4210/VX_OSD_Simple.c ****         else if (ch == 1 )
 216:VS4210/VX_OSD_Simple.c ****         {
 217:VS4210/VX_OSD_Simple.c ****             if(gbVXIS_OuputSize == _OUTPUT_1080P60)
 218:VS4210/VX_OSD_Simple.c ****             {
 219:VS4210/VX_OSD_Simple.c ****                 ix = Mode1_w1_1080P_param[0] ;
 220:VS4210/VX_OSD_Simple.c ****                 iy = Mode1_w1_1080P_param[1] ;
 221:VS4210/VX_OSD_Simple.c ****             }
 222:VS4210/VX_OSD_Simple.c ****             else
 223:VS4210/VX_OSD_Simple.c ****             {
 224:VS4210/VX_OSD_Simple.c ****                 ix = Mode1_w1_720P_param[0] ;
 225:VS4210/VX_OSD_Simple.c ****                 iy = Mode1_w1_720P_param[1] ;
 226:VS4210/VX_OSD_Simple.c ****             }
 227:VS4210/VX_OSD_Simple.c ****         }
 228:VS4210/VX_OSD_Simple.c ****         else if (ch == 2 )
 229:VS4210/VX_OSD_Simple.c ****         {
 230:VS4210/VX_OSD_Simple.c ****             if(gbVXIS_OuputSize == _OUTPUT_1080P60)
 231:VS4210/VX_OSD_Simple.c ****             {
 232:VS4210/VX_OSD_Simple.c ****                 ix = Mode1_w2_1080P_param[0] ;
 233:VS4210/VX_OSD_Simple.c ****                 iy = Mode1_w2_1080P_param[1] ;
 234:VS4210/VX_OSD_Simple.c ****             }
 235:VS4210/VX_OSD_Simple.c ****             else
 236:VS4210/VX_OSD_Simple.c ****             {
 237:VS4210/VX_OSD_Simple.c ****                 ix = Mode1_w2_720P_param[0] ;
 238:VS4210/VX_OSD_Simple.c ****                 iy = Mode1_w2_720P_param[1] ;
 239:VS4210/VX_OSD_Simple.c ****             }
 240:VS4210/VX_OSD_Simple.c ****         }
 241:VS4210/VX_OSD_Simple.c ****         else //if (ch == 3 )
 242:VS4210/VX_OSD_Simple.c ****         {
 243:VS4210/VX_OSD_Simple.c ****             if(gbVXIS_OuputSize == _OUTPUT_1080P60)
 244:VS4210/VX_OSD_Simple.c ****             {
 245:VS4210/VX_OSD_Simple.c ****                 ix = Mode1_w3_1080P_param[0] ;
 246:VS4210/VX_OSD_Simple.c ****                 iy = Mode1_w3_1080P_param[1] ;
 247:VS4210/VX_OSD_Simple.c ****             }
 248:VS4210/VX_OSD_Simple.c ****             else
 249:VS4210/VX_OSD_Simple.c ****             {
 250:VS4210/VX_OSD_Simple.c ****                 ix = Mode1_w3_720P_param[0] ;
 251:VS4210/VX_OSD_Simple.c ****                 iy = Mode1_w3_720P_param[1] ;
 252:VS4210/VX_OSD_Simple.c ****             }
 253:VS4210/VX_OSD_Simple.c ****         }
 254:VS4210/VX_OSD_Simple.c ****     }
 255:VS4210/VX_OSD_Simple.c ****     else if (out_mode == VS4210_1080P_MODE2 )
 256:VS4210/VX_OSD_Simple.c ****     {
 257:VS4210/VX_OSD_Simple.c ****         if (ch == 0 )
 258:VS4210/VX_OSD_Simple.c ****         {
 259:VS4210/VX_OSD_Simple.c ****             if(gbVXIS_OuputSize == _OUTPUT_1080P60)
 260:VS4210/VX_OSD_Simple.c ****             {
 261:VS4210/VX_OSD_Simple.c ****                 ix = Mode2_w0_1080P_param[0] ;
ARM GAS  /tmp/cc0CX9nZ.s 			page 6


 262:VS4210/VX_OSD_Simple.c ****                 iy = Mode2_w0_1080P_param[1] ;
 263:VS4210/VX_OSD_Simple.c ****             }
 264:VS4210/VX_OSD_Simple.c ****             else
 265:VS4210/VX_OSD_Simple.c ****             {
 266:VS4210/VX_OSD_Simple.c ****                 ix = Mode2_w0_720P_param[0] ;
 267:VS4210/VX_OSD_Simple.c ****                 iy = Mode2_w0_720P_param[1] ;
 268:VS4210/VX_OSD_Simple.c ****             }
 269:VS4210/VX_OSD_Simple.c ****         }
 270:VS4210/VX_OSD_Simple.c ****         else if (ch == 1 )
 271:VS4210/VX_OSD_Simple.c ****         {
 272:VS4210/VX_OSD_Simple.c ****             if(gbVXIS_OuputSize == _OUTPUT_1080P60)
 273:VS4210/VX_OSD_Simple.c ****             {
 274:VS4210/VX_OSD_Simple.c ****                 ix = Mode2_w1_1080P_param[0] ;
 275:VS4210/VX_OSD_Simple.c ****                 iy = Mode2_w1_1080P_param[1] ;
 276:VS4210/VX_OSD_Simple.c ****             }
 277:VS4210/VX_OSD_Simple.c ****             else
 278:VS4210/VX_OSD_Simple.c ****             {
 279:VS4210/VX_OSD_Simple.c ****                 ix = Mode2_w1_720P_param[0] ;
 280:VS4210/VX_OSD_Simple.c ****                 iy = Mode2_w1_720P_param[1] ;
 281:VS4210/VX_OSD_Simple.c ****             }
 282:VS4210/VX_OSD_Simple.c ****         }
 283:VS4210/VX_OSD_Simple.c ****         else if (ch == 2 )
 284:VS4210/VX_OSD_Simple.c ****         {
 285:VS4210/VX_OSD_Simple.c ****             if(gbVXIS_OuputSize == _OUTPUT_1080P60)
 286:VS4210/VX_OSD_Simple.c ****             {
 287:VS4210/VX_OSD_Simple.c ****                 ix = Mode2_w2_1080P_param[0] ;
 288:VS4210/VX_OSD_Simple.c ****                 iy = Mode2_w2_1080P_param[1] ;
 289:VS4210/VX_OSD_Simple.c ****             }
 290:VS4210/VX_OSD_Simple.c ****             else
 291:VS4210/VX_OSD_Simple.c ****             {
 292:VS4210/VX_OSD_Simple.c ****                 ix = Mode2_w2_720P_param[0] ;
 293:VS4210/VX_OSD_Simple.c ****                 iy = Mode2_w2_720P_param[1] ;
 294:VS4210/VX_OSD_Simple.c ****             }
 295:VS4210/VX_OSD_Simple.c ****         }
 296:VS4210/VX_OSD_Simple.c ****         else //if (ch == 3 )
 297:VS4210/VX_OSD_Simple.c ****         {
 298:VS4210/VX_OSD_Simple.c ****             if(gbVXIS_OuputSize == _OUTPUT_1080P60)
 299:VS4210/VX_OSD_Simple.c ****             {
 300:VS4210/VX_OSD_Simple.c ****                 ix = Mode2_w3_1080P_param[0] ;
 301:VS4210/VX_OSD_Simple.c ****                 iy = Mode2_w3_1080P_param[1] ;
 302:VS4210/VX_OSD_Simple.c ****             }
 303:VS4210/VX_OSD_Simple.c ****             else
 304:VS4210/VX_OSD_Simple.c ****             {
 305:VS4210/VX_OSD_Simple.c ****                 ix = Mode2_w3_720P_param[0] ;
 306:VS4210/VX_OSD_Simple.c ****                 iy = Mode2_w3_720P_param[1] ;
 307:VS4210/VX_OSD_Simple.c ****             }
 308:VS4210/VX_OSD_Simple.c ****         }
 309:VS4210/VX_OSD_Simple.c ****     }
 310:VS4210/VX_OSD_Simple.c ****     else if ((out_mode == VS4210_1080P_MODE12 ) )
 311:VS4210/VX_OSD_Simple.c ****     {
 312:VS4210/VX_OSD_Simple.c ****         if (ch == 0 )
 313:VS4210/VX_OSD_Simple.c ****         {
 314:VS4210/VX_OSD_Simple.c ****             if(gbVXIS_OuputSize == _OUTPUT_1080P60)
 315:VS4210/VX_OSD_Simple.c ****             {
 316:VS4210/VX_OSD_Simple.c ****                 ix = Mode12_w0_1080P_param[0] ;
 317:VS4210/VX_OSD_Simple.c ****                 iy = Mode12_w0_1080P_param[1] ;
 318:VS4210/VX_OSD_Simple.c ****             }
ARM GAS  /tmp/cc0CX9nZ.s 			page 7


 319:VS4210/VX_OSD_Simple.c ****             else
 320:VS4210/VX_OSD_Simple.c ****             {
 321:VS4210/VX_OSD_Simple.c ****                 ix = Mode12_w0_720P_param[0] ;
 322:VS4210/VX_OSD_Simple.c ****                 iy = Mode12_w0_720P_param[1] ;
 323:VS4210/VX_OSD_Simple.c ****             }
 324:VS4210/VX_OSD_Simple.c ****         }
 325:VS4210/VX_OSD_Simple.c ****         else
 326:VS4210/VX_OSD_Simple.c ****         {
 327:VS4210/VX_OSD_Simple.c ****             if(gbVXIS_OuputSize == _OUTPUT_1080P60)
 328:VS4210/VX_OSD_Simple.c ****             {
 329:VS4210/VX_OSD_Simple.c ****                 ix = Mode12_w1_1080P_param[0] ;
 330:VS4210/VX_OSD_Simple.c ****                 iy = Mode12_w1_1080P_param[1] ;
 331:VS4210/VX_OSD_Simple.c ****             }
 332:VS4210/VX_OSD_Simple.c ****             else
 333:VS4210/VX_OSD_Simple.c ****             {
 334:VS4210/VX_OSD_Simple.c ****                 ix = Mode12_w1_720P_param[0] ;
 335:VS4210/VX_OSD_Simple.c ****                 iy = Mode12_w1_720P_param[1] ;
 336:VS4210/VX_OSD_Simple.c ****             }
 337:VS4210/VX_OSD_Simple.c ****         }
 338:VS4210/VX_OSD_Simple.c ****     }
 339:VS4210/VX_OSD_Simple.c ****     else if ((out_mode == VS4210_1080P_MODE13 ) )
 340:VS4210/VX_OSD_Simple.c ****     {
 341:VS4210/VX_OSD_Simple.c ****         if (ch == 0 )
 342:VS4210/VX_OSD_Simple.c ****         {
 343:VS4210/VX_OSD_Simple.c ****             if(gbVXIS_OuputSize == _OUTPUT_1080P60)
 344:VS4210/VX_OSD_Simple.c ****             {
 345:VS4210/VX_OSD_Simple.c ****                 ix = Mode13_w0_1080P_param[0] ;
 346:VS4210/VX_OSD_Simple.c ****                 iy = Mode13_w0_1080P_param[1] ;
 347:VS4210/VX_OSD_Simple.c ****             }
 348:VS4210/VX_OSD_Simple.c ****             else
 349:VS4210/VX_OSD_Simple.c ****             {
 350:VS4210/VX_OSD_Simple.c ****                 ix = Mode13_w0_720P_param[0] ;
 351:VS4210/VX_OSD_Simple.c ****                 iy = Mode13_w0_720P_param[1] ;
 352:VS4210/VX_OSD_Simple.c ****             }
 353:VS4210/VX_OSD_Simple.c ****         }
 354:VS4210/VX_OSD_Simple.c ****         else
 355:VS4210/VX_OSD_Simple.c ****         {
 356:VS4210/VX_OSD_Simple.c ****             if(gbVXIS_OuputSize == _OUTPUT_1080P60)
 357:VS4210/VX_OSD_Simple.c ****             {
 358:VS4210/VX_OSD_Simple.c ****                 ix = Mode13_w1_1080P_param[0] ;
 359:VS4210/VX_OSD_Simple.c ****                 iy = Mode13_w1_1080P_param[1] ;
 360:VS4210/VX_OSD_Simple.c ****             }
 361:VS4210/VX_OSD_Simple.c ****             else
 362:VS4210/VX_OSD_Simple.c ****             {
 363:VS4210/VX_OSD_Simple.c ****                 ix = Mode13_w1_720P_param[0] ;
 364:VS4210/VX_OSD_Simple.c ****                 iy = Mode13_w1_720P_param[1] ;
 365:VS4210/VX_OSD_Simple.c ****             }
 366:VS4210/VX_OSD_Simple.c ****         }
 367:VS4210/VX_OSD_Simple.c ****     }
 368:VS4210/VX_OSD_Simple.c ****     else if ((out_mode >= VS4210_1080P_MODE6  ) && (out_mode < VS4210_1080P_MODE12))
 369:VS4210/VX_OSD_Simple.c ****     {
 370:VS4210/VX_OSD_Simple.c ****         if (ch == 0 )
 371:VS4210/VX_OSD_Simple.c ****         {
 372:VS4210/VX_OSD_Simple.c ****             if(gbVXIS_OuputSize == _OUTPUT_1080P60)
 373:VS4210/VX_OSD_Simple.c ****             {
 374:VS4210/VX_OSD_Simple.c ****                 ix = Mode6_w0_1080P_param[0] ;
 375:VS4210/VX_OSD_Simple.c ****                 iy = Mode6_w0_1080P_param[1] ;
ARM GAS  /tmp/cc0CX9nZ.s 			page 8


 376:VS4210/VX_OSD_Simple.c ****             }
 377:VS4210/VX_OSD_Simple.c ****             else
 378:VS4210/VX_OSD_Simple.c ****             {
 379:VS4210/VX_OSD_Simple.c ****                 ix = Mode6_w0_720P_param[0] ;
 380:VS4210/VX_OSD_Simple.c ****                 iy = Mode6_w0_720P_param[1] ;
 381:VS4210/VX_OSD_Simple.c ****             }
 382:VS4210/VX_OSD_Simple.c ****         }
 383:VS4210/VX_OSD_Simple.c ****         else  if (ch == 1 )
 384:VS4210/VX_OSD_Simple.c ****         {
 385:VS4210/VX_OSD_Simple.c ****             if(gbVXIS_OuputSize == _OUTPUT_1080P60)
 386:VS4210/VX_OSD_Simple.c ****             {
 387:VS4210/VX_OSD_Simple.c ****                 ix = Mode6_w1_1080P_param[0] ;
 388:VS4210/VX_OSD_Simple.c ****                 iy = Mode6_w1_1080P_param[1] ;
 389:VS4210/VX_OSD_Simple.c ****             }
 390:VS4210/VX_OSD_Simple.c ****             else
 391:VS4210/VX_OSD_Simple.c ****             {
 392:VS4210/VX_OSD_Simple.c ****                 ix = Mode6_w1_720P_param[0] ;
 393:VS4210/VX_OSD_Simple.c ****                 iy = Mode6_w1_720P_param[1] ;
 394:VS4210/VX_OSD_Simple.c ****             }
 395:VS4210/VX_OSD_Simple.c ****         }
 396:VS4210/VX_OSD_Simple.c ****         else  if (ch == 2 )
 397:VS4210/VX_OSD_Simple.c ****         {
 398:VS4210/VX_OSD_Simple.c ****             if(gbVXIS_OuputSize == _OUTPUT_1080P60)
 399:VS4210/VX_OSD_Simple.c ****             {
 400:VS4210/VX_OSD_Simple.c ****                 ix = Mode6_w2_1080P_param[0] ;
 401:VS4210/VX_OSD_Simple.c ****                 iy = Mode6_w2_1080P_param[1] ;
 402:VS4210/VX_OSD_Simple.c ****             }
 403:VS4210/VX_OSD_Simple.c ****             else
 404:VS4210/VX_OSD_Simple.c ****             {
 405:VS4210/VX_OSD_Simple.c ****                 ix = Mode6_w2_720P_param[0] ;
 406:VS4210/VX_OSD_Simple.c ****                 iy = Mode6_w2_720P_param[1] ;
 407:VS4210/VX_OSD_Simple.c ****             }
 408:VS4210/VX_OSD_Simple.c ****         }
 409:VS4210/VX_OSD_Simple.c ****         else
 410:VS4210/VX_OSD_Simple.c ****         {
 411:VS4210/VX_OSD_Simple.c ****             if(gbVXIS_OuputSize == _OUTPUT_1080P60)
 412:VS4210/VX_OSD_Simple.c ****             {
 413:VS4210/VX_OSD_Simple.c ****                 ix = Mode6_w3_1080P_param[0] ;
 414:VS4210/VX_OSD_Simple.c ****                 iy = Mode6_w3_1080P_param[1] ;
 415:VS4210/VX_OSD_Simple.c ****             }
 416:VS4210/VX_OSD_Simple.c ****             else
 417:VS4210/VX_OSD_Simple.c ****             {
 418:VS4210/VX_OSD_Simple.c ****                 ix = Mode6_w3_720P_param[0] ;
 419:VS4210/VX_OSD_Simple.c ****                 iy = Mode6_w3_720P_param[1] ;
 420:VS4210/VX_OSD_Simple.c ****             }
 421:VS4210/VX_OSD_Simple.c ****         }
 422:VS4210/VX_OSD_Simple.c ****     }
 423:VS4210/VX_OSD_Simple.c ****     else if (out_mode == VS4210_1080P_MODE24  )
 424:VS4210/VX_OSD_Simple.c ****     {
 425:VS4210/VX_OSD_Simple.c ****         if (ch == 0 )
 426:VS4210/VX_OSD_Simple.c ****         {
 427:VS4210/VX_OSD_Simple.c ****             if(gbVXIS_OuputSize == _OUTPUT_1080P60)
 428:VS4210/VX_OSD_Simple.c ****             {
 429:VS4210/VX_OSD_Simple.c ****                 ix = Mode24_w0_1080P_param[0] ;
 430:VS4210/VX_OSD_Simple.c ****                 iy = Mode24_w0_1080P_param[1] ;
 431:VS4210/VX_OSD_Simple.c ****             }
 432:VS4210/VX_OSD_Simple.c ****             else
ARM GAS  /tmp/cc0CX9nZ.s 			page 9


 433:VS4210/VX_OSD_Simple.c ****             {
 434:VS4210/VX_OSD_Simple.c ****                 ix = Mode24_w0_720P_param[0] ;
 435:VS4210/VX_OSD_Simple.c ****                 iy = Mode24_w0_720P_param[1] ;
 436:VS4210/VX_OSD_Simple.c ****             }
 437:VS4210/VX_OSD_Simple.c ****         }
 438:VS4210/VX_OSD_Simple.c ****         else if (ch == 1 )
 439:VS4210/VX_OSD_Simple.c ****         {
 440:VS4210/VX_OSD_Simple.c ****             if(gbVXIS_OuputSize == _OUTPUT_1080P60)
 441:VS4210/VX_OSD_Simple.c ****             {
 442:VS4210/VX_OSD_Simple.c ****                 ix = Mode24_w1_1080P_param[0] ;
 443:VS4210/VX_OSD_Simple.c ****                 iy = Mode24_w1_1080P_param[1] ;
 444:VS4210/VX_OSD_Simple.c ****             }
 445:VS4210/VX_OSD_Simple.c ****             else
 446:VS4210/VX_OSD_Simple.c ****             {
 447:VS4210/VX_OSD_Simple.c ****                 ix = Mode24_w1_720P_param[0] ;
 448:VS4210/VX_OSD_Simple.c ****                 iy = Mode24_w1_720P_param[1] ;
 449:VS4210/VX_OSD_Simple.c ****             }
 450:VS4210/VX_OSD_Simple.c ****         }
 451:VS4210/VX_OSD_Simple.c ****     }
 452:VS4210/VX_OSD_Simple.c ****     else
 453:VS4210/VX_OSD_Simple.c ****     {
 454:VS4210/VX_OSD_Simple.c ****         ix = 224 ;
 455:VS4210/VX_OSD_Simple.c ****         iy = 64 ;
 456:VS4210/VX_OSD_Simple.c ****     }
 457:VS4210/VX_OSD_Simple.c **** 
 458:VS4210/VX_OSD_Simple.c ****     if (ch == 0  )
 459:VS4210/VX_OSD_Simple.c ****     {
 460:VS4210/VX_OSD_Simple.c ****         if (TitleFlg == 1 )
 461:VS4210/VX_OSD_Simple.c ****         {
 462:VS4210/VX_OSD_Simple.c ****             SetOsdSize(_Title0,Str1[0],1);
 463:VS4210/VX_OSD_Simple.c ****             SetOsdStartAddress(_Title0,0x00);
 464:VS4210/VX_OSD_Simple.c ****             OsdDumpString(0x00,Str1);
 465:VS4210/VX_OSD_Simple.c ****             OsdDumpAttribute(0x00,Str1,_Color);
 466:VS4210/VX_OSD_Simple.c ****             SetOsdPosition(_Title0,ix,iy);
 467:VS4210/VX_OSD_Simple.c ****         }
 468:VS4210/VX_OSD_Simple.c **** 
 469:VS4210/VX_OSD_Simple.c ****         if (BarFlg == 1 )
 470:VS4210/VX_OSD_Simple.c ****         {
 471:VS4210/VX_OSD_Simple.c ****             SetOsdSize(_Bar0,Str2[0],1);
 472:VS4210/VX_OSD_Simple.c ****             SetOsdStartAddress(_Bar0,0x40);
 473:VS4210/VX_OSD_Simple.c ****             OsdDumpString(0x40,Str2);
 474:VS4210/VX_OSD_Simple.c ****             OsdDumpAttribute(0x40,Str2,_Color);
 475:VS4210/VX_OSD_Simple.c ****             SetOsdPosition(_Bar0,ix,iy + 20 + OSDx2Flg*20);
 476:VS4210/VX_OSD_Simple.c ****         }
 477:VS4210/VX_OSD_Simple.c ****     }
 478:VS4210/VX_OSD_Simple.c ****     else if (ch == 1 )
 479:VS4210/VX_OSD_Simple.c ****     {
 480:VS4210/VX_OSD_Simple.c ****         if (TitleFlg == 1 )
 481:VS4210/VX_OSD_Simple.c ****         {
 482:VS4210/VX_OSD_Simple.c ****             SetOsdSize(_Title1,Str1[0],1);
 483:VS4210/VX_OSD_Simple.c ****             SetOsdStartAddress(_Title1,0x10);
 484:VS4210/VX_OSD_Simple.c ****             OsdDumpString(0x10,Str1);
 485:VS4210/VX_OSD_Simple.c ****             OsdDumpAttribute(0x10,Str1,_Color);
 486:VS4210/VX_OSD_Simple.c ****             SetOsdPosition(_Title1,ix,iy);
 487:VS4210/VX_OSD_Simple.c ****         }
 488:VS4210/VX_OSD_Simple.c **** 
 489:VS4210/VX_OSD_Simple.c ****         if (BarFlg == 1 )
ARM GAS  /tmp/cc0CX9nZ.s 			page 10


 490:VS4210/VX_OSD_Simple.c ****         {
 491:VS4210/VX_OSD_Simple.c ****             SetOsdSize(_Bar1,Str2[0],1);
 492:VS4210/VX_OSD_Simple.c ****             SetOsdStartAddress(_Bar1,0x50);
 493:VS4210/VX_OSD_Simple.c ****             OsdDumpString(0x50,Str2);
 494:VS4210/VX_OSD_Simple.c ****             OsdDumpAttribute(0x50,Str2,_Color);
 495:VS4210/VX_OSD_Simple.c ****             SetOsdPosition(_Bar1,ix,iy + 20 + OSDx2Flg*20 );
 496:VS4210/VX_OSD_Simple.c ****         }
 497:VS4210/VX_OSD_Simple.c ****     }
 498:VS4210/VX_OSD_Simple.c ****     else if (ch == 2 )
 499:VS4210/VX_OSD_Simple.c ****     {
 500:VS4210/VX_OSD_Simple.c ****         if (TitleFlg == 1 )
 501:VS4210/VX_OSD_Simple.c ****         {
 502:VS4210/VX_OSD_Simple.c ****             SetOsdSize(_Title2,Str1[0],1);
 503:VS4210/VX_OSD_Simple.c ****             SetOsdStartAddress(_Title1,0x20);
 504:VS4210/VX_OSD_Simple.c ****             OsdDumpString(0x20,Str1);
 505:VS4210/VX_OSD_Simple.c ****             OsdDumpAttribute(0x20,Str1,_Color);
 506:VS4210/VX_OSD_Simple.c ****             SetOsdPosition(_Title2,ix,iy);
 507:VS4210/VX_OSD_Simple.c ****         }
 508:VS4210/VX_OSD_Simple.c **** 
 509:VS4210/VX_OSD_Simple.c ****         if (BarFlg == 1 )
 510:VS4210/VX_OSD_Simple.c ****         {
 511:VS4210/VX_OSD_Simple.c ****             SetOsdSize(_Bar2,Str2[0],1);
 512:VS4210/VX_OSD_Simple.c ****             SetOsdStartAddress(_Bar2,0x60);
 513:VS4210/VX_OSD_Simple.c ****             OsdDumpString(0x60,Str2);
 514:VS4210/VX_OSD_Simple.c ****             OsdDumpAttribute(0x60,Str2,_Color);
 515:VS4210/VX_OSD_Simple.c ****             SetOsdPosition(_Bar2,ix,iy + 20 + OSDx2Flg*20);
 516:VS4210/VX_OSD_Simple.c ****         }
 517:VS4210/VX_OSD_Simple.c ****     }
 518:VS4210/VX_OSD_Simple.c ****     else if (ch == 3 )
 519:VS4210/VX_OSD_Simple.c ****     {
 520:VS4210/VX_OSD_Simple.c ****         if (TitleFlg == 1 )
 521:VS4210/VX_OSD_Simple.c ****         {
 522:VS4210/VX_OSD_Simple.c ****             SetOsdSize(_Title3,Str1[0],1);
 523:VS4210/VX_OSD_Simple.c ****             SetOsdStartAddress(_Title3,0x30);
 524:VS4210/VX_OSD_Simple.c ****             OsdDumpString(0x30,Str1);
 525:VS4210/VX_OSD_Simple.c ****             OsdDumpAttribute(0x30,Str1,_Color);
 526:VS4210/VX_OSD_Simple.c ****             SetOsdPosition(_Title3,ix,iy);
 527:VS4210/VX_OSD_Simple.c ****         }
 528:VS4210/VX_OSD_Simple.c **** 
 529:VS4210/VX_OSD_Simple.c ****         if (BarFlg == 1 )
 530:VS4210/VX_OSD_Simple.c ****         {
 531:VS4210/VX_OSD_Simple.c ****             SetOsdSize(_Bar3,Str2[0],1);
 532:VS4210/VX_OSD_Simple.c ****             SetOsdStartAddress(_Bar3,0x70);
 533:VS4210/VX_OSD_Simple.c ****             OsdDumpString(0x70,Str2);
 534:VS4210/VX_OSD_Simple.c ****             OsdDumpAttribute(0x70,Str2,_Color);
 535:VS4210/VX_OSD_Simple.c ****             SetOsdPosition(_Bar3,ix,iy + 20 + OSDx2Flg*20);
 536:VS4210/VX_OSD_Simple.c ****         }
 537:VS4210/VX_OSD_Simple.c ****     }
 538:VS4210/VX_OSD_Simple.c **** 
 539:VS4210/VX_OSD_Simple.c ****     setTransParentIndex(_TransParentColor);
 540:VS4210/VX_OSD_Simple.c **** 
 541:VS4210/VX_OSD_Simple.c ****         if (u8gDrawOSDFlg == 3 )
 542:VS4210/VX_OSD_Simple.c ****         {
 543:VS4210/VX_OSD_Simple.c ****             if ( MenuOSDonFlg == 0 )
 544:VS4210/VX_OSD_Simple.c ****                 VXIS_fSetOsdOnOff(ch , _TitleOn | _BottomOn );
 545:VS4210/VX_OSD_Simple.c ****             else
 546:VS4210/VX_OSD_Simple.c ****                 VXIS_fSetOsdOnOff(ch , _TitleOn | _BottomOn | _ContentOn );
ARM GAS  /tmp/cc0CX9nZ.s 			page 11


 547:VS4210/VX_OSD_Simple.c ****                 //VXIS_fSetOsdOnOff(ch , _ContentOn );
 548:VS4210/VX_OSD_Simple.c ****         }
 549:VS4210/VX_OSD_Simple.c ****         else if (TitleFlg == 1 )
 550:VS4210/VX_OSD_Simple.c ****         {
 551:VS4210/VX_OSD_Simple.c ****             if ( MenuOSDonFlg == 0 )
 552:VS4210/VX_OSD_Simple.c ****             {
 553:VS4210/VX_OSD_Simple.c ****                 VXIS_fSetOsdOnOff(ch , _TitleOn  );
 554:VS4210/VX_OSD_Simple.c ****             }
 555:VS4210/VX_OSD_Simple.c ****             else {
 556:VS4210/VX_OSD_Simple.c ****                 //VXIS_fSetOsdOnOff(ch , _TitleOn | _ContentOn );
 557:VS4210/VX_OSD_Simple.c ****                 VXIS_fSetOsdOnOff(ch , _ContentOn );
 558:VS4210/VX_OSD_Simple.c ****             }
 559:VS4210/VX_OSD_Simple.c ****         }
 560:VS4210/VX_OSD_Simple.c ****         else if (BarFlg == 1 )
 561:VS4210/VX_OSD_Simple.c ****         {
 562:VS4210/VX_OSD_Simple.c ****             if ( MenuOSDonFlg == 0 )
 563:VS4210/VX_OSD_Simple.c ****             {
 564:VS4210/VX_OSD_Simple.c ****                 VXIS_fSetOsdOnOff(ch , _BottomOn  );
 565:VS4210/VX_OSD_Simple.c ****             }
 566:VS4210/VX_OSD_Simple.c ****             else {
 567:VS4210/VX_OSD_Simple.c ****                 //VXIS_fSetOsdOnOff(ch , _BottomOn | _ContentOn );
 568:VS4210/VX_OSD_Simple.c ****                 VXIS_fSetOsdOnOff(ch ,  _ContentOn );
 569:VS4210/VX_OSD_Simple.c ****             }
 570:VS4210/VX_OSD_Simple.c ****         }
 571:VS4210/VX_OSD_Simple.c ****         else
 572:VS4210/VX_OSD_Simple.c ****         {
 573:VS4210/VX_OSD_Simple.c ****             if ( MenuOSDonFlg == 0 )
 574:VS4210/VX_OSD_Simple.c ****             {
 575:VS4210/VX_OSD_Simple.c ****                 VXIS_fSetOsdOnOff(ch , _TurnoffAll   );
 576:VS4210/VX_OSD_Simple.c ****             }
 577:VS4210/VX_OSD_Simple.c ****             else {
 578:VS4210/VX_OSD_Simple.c ****                 VXIS_fSetOsdOnOff(ch ,  _ContentOn );
 579:VS4210/VX_OSD_Simple.c ****             }
 580:VS4210/VX_OSD_Simple.c ****         }
 581:VS4210/VX_OSD_Simple.c **** 
 582:VS4210/VX_OSD_Simple.c **** }
 583:VS4210/VX_OSD_Simple.c **** 
 584:VS4210/VX_OSD_Simple.c **** static void GetconvertBarStr( tByte in_mode)
 585:VS4210/VX_OSD_Simple.c **** {
  26              		.loc 1 585 0
  27              		.cfi_startproc
  28              		@ args = 0, pretend = 0, frame = 0
  29              		@ frame_needed = 0, uses_anonymous_args = 0
  30              		@ link register save eliminated.
  31              	.LVL0:
 586:VS4210/VX_OSD_Simple.c ****     switch(in_mode)
  32              		.loc 1 586 0
  33 0000 1428     		cmp	r0, #20
  34 0002 60D8     		bhi	.L2
  35 0004 DFE800F0 		tbb	[pc, r0]
  36              	.L4:
  37 0008 0B       		.byte	(.L3-.L4)/2
  38 0009 0F       		.byte	(.L5-.L4)/2
  39 000a 13       		.byte	(.L6-.L4)/2
  40 000b 17       		.byte	(.L7-.L4)/2
  41 000c 1B       		.byte	(.L8-.L4)/2
  42 000d 1F       		.byte	(.L9-.L4)/2
ARM GAS  /tmp/cc0CX9nZ.s 			page 12


  43 000e 23       		.byte	(.L10-.L4)/2
  44 000f 27       		.byte	(.L11-.L4)/2
  45 0010 2B       		.byte	(.L12-.L4)/2
  46 0011 2F       		.byte	(.L13-.L4)/2
  47 0012 33       		.byte	(.L14-.L4)/2
  48 0013 37       		.byte	(.L15-.L4)/2
  49 0014 3B       		.byte	(.L16-.L4)/2
  50 0015 3F       		.byte	(.L17-.L4)/2
  51 0016 43       		.byte	(.L18-.L4)/2
  52 0017 47       		.byte	(.L19-.L4)/2
  53 0018 4B       		.byte	(.L20-.L4)/2
  54 0019 4F       		.byte	(.L21-.L4)/2
  55 001a 53       		.byte	(.L22-.L4)/2
  56 001b 57       		.byte	(.L23-.L4)/2
  57 001c 5B       		.byte	(.L24-.L4)/2
  58 001d 00       		.p2align 1
  59              	.L3:
 587:VS4210/VX_OSD_Simple.c ****     {
 588:VS4210/VX_OSD_Simple.c **** //HDMI
 589:VS4210/VX_OSD_Simple.c ****     case _OSD_720X480I60:
 590:VS4210/VX_OSD_Simple.c ****         ptcOSDbar = &OSD_720x480I60_param[0] ; 
  60              		.loc 1 590 0
  61 001e 2C4A     		ldr	r2, .L26
  62 0020 2C4B     		ldr	r3, .L26+4
  63 0022 1A60     		str	r2, [r3]
 591:VS4210/VX_OSD_Simple.c ****         break ;
  64              		.loc 1 591 0
  65 0024 7047     		bx	lr
  66              	.L5:
 592:VS4210/VX_OSD_Simple.c ****     case _OSD_720X576I50:
 593:VS4210/VX_OSD_Simple.c ****         ptcOSDbar = &OSD_720x576I50_param[0] ; 
  67              		.loc 1 593 0
  68 0026 2C4A     		ldr	r2, .L26+8
  69 0028 2A4B     		ldr	r3, .L26+4
  70 002a 1A60     		str	r2, [r3]
 594:VS4210/VX_OSD_Simple.c ****         break ;
  71              		.loc 1 594 0
  72 002c 7047     		bx	lr
  73              	.L6:
 595:VS4210/VX_OSD_Simple.c ****     case _OSD_720X480P60:
 596:VS4210/VX_OSD_Simple.c ****         ptcOSDbar = &OSD_720x480P60_param[0] ; 
  74              		.loc 1 596 0
  75 002e 2B4A     		ldr	r2, .L26+12
  76 0030 284B     		ldr	r3, .L26+4
  77 0032 1A60     		str	r2, [r3]
 597:VS4210/VX_OSD_Simple.c ****         break ;
  78              		.loc 1 597 0
  79 0034 7047     		bx	lr
  80              	.L7:
 598:VS4210/VX_OSD_Simple.c ****     case _OSD_720X576P50:
 599:VS4210/VX_OSD_Simple.c ****         ptcOSDbar = &OSD_720x576P50_param[0] ; 
  81              		.loc 1 599 0
  82 0036 2A4A     		ldr	r2, .L26+16
  83 0038 264B     		ldr	r3, .L26+4
  84 003a 1A60     		str	r2, [r3]
 600:VS4210/VX_OSD_Simple.c ****         break ;
  85              		.loc 1 600 0
ARM GAS  /tmp/cc0CX9nZ.s 			page 13


  86 003c 7047     		bx	lr
  87              	.L8:
 601:VS4210/VX_OSD_Simple.c ****     case _OSD_1920X1080I:
 602:VS4210/VX_OSD_Simple.c ****         ptcOSDbar = &OSD_1920x1080I_param[0] ; 
  88              		.loc 1 602 0
  89 003e 294A     		ldr	r2, .L26+20
  90 0040 244B     		ldr	r3, .L26+4
  91 0042 1A60     		str	r2, [r3]
 603:VS4210/VX_OSD_Simple.c ****         break;
  92              		.loc 1 603 0
  93 0044 7047     		bx	lr
  94              	.L9:
 604:VS4210/VX_OSD_Simple.c ****     case _OSD_1280X720P :
 605:VS4210/VX_OSD_Simple.c ****         ptcOSDbar = &OSD_1280x720P_param[0] ; 
  95              		.loc 1 605 0
  96 0046 284A     		ldr	r2, .L26+24
  97 0048 224B     		ldr	r3, .L26+4
  98 004a 1A60     		str	r2, [r3]
 606:VS4210/VX_OSD_Simple.c ****         break;
  99              		.loc 1 606 0
 100 004c 7047     		bx	lr
 101              	.L10:
 607:VS4210/VX_OSD_Simple.c ****     case _OSD_1920X1080P:
 608:VS4210/VX_OSD_Simple.c ****         ptcOSDbar = &OSD_1920x1080P_param[0] ; 
 102              		.loc 1 608 0
 103 004e 274A     		ldr	r2, .L26+28
 104 0050 204B     		ldr	r3, .L26+4
 105 0052 1A60     		str	r2, [r3]
 609:VS4210/VX_OSD_Simple.c ****         break;
 106              		.loc 1 609 0
 107 0054 7047     		bx	lr
 108              	.L11:
 610:VS4210/VX_OSD_Simple.c **** //DVI
 611:VS4210/VX_OSD_Simple.c ****     case _OSD_640X480P  :
 612:VS4210/VX_OSD_Simple.c ****         ptcOSDbar = &OSD_640X480P_param[0] ; 
 109              		.loc 1 612 0
 110 0056 264A     		ldr	r2, .L26+32
 111 0058 1E4B     		ldr	r3, .L26+4
 112 005a 1A60     		str	r2, [r3]
 613:VS4210/VX_OSD_Simple.c ****         break;
 113              		.loc 1 613 0
 114 005c 7047     		bx	lr
 115              	.L12:
 614:VS4210/VX_OSD_Simple.c ****     case _OSD_800X600P  :
 615:VS4210/VX_OSD_Simple.c ****         ptcOSDbar = &OSD_800X600P_param[0] ; 
 116              		.loc 1 615 0
 117 005e 254A     		ldr	r2, .L26+36
 118 0060 1C4B     		ldr	r3, .L26+4
 119 0062 1A60     		str	r2, [r3]
 616:VS4210/VX_OSD_Simple.c ****         break;
 120              		.loc 1 616 0
 121 0064 7047     		bx	lr
 122              	.L13:
 617:VS4210/VX_OSD_Simple.c ****     case _OSD_1024X768P :
 618:VS4210/VX_OSD_Simple.c ****         ptcOSDbar = &OSD_1024X768P_param[0] ; 
 123              		.loc 1 618 0
 124 0066 244A     		ldr	r2, .L26+40
ARM GAS  /tmp/cc0CX9nZ.s 			page 14


 125 0068 1A4B     		ldr	r3, .L26+4
 126 006a 1A60     		str	r2, [r3]
 619:VS4210/VX_OSD_Simple.c ****         break;
 127              		.loc 1 619 0
 128 006c 7047     		bx	lr
 129              	.L14:
 620:VS4210/VX_OSD_Simple.c ****     case _OSD_1280X768P :
 621:VS4210/VX_OSD_Simple.c ****         ptcOSDbar = &OSD_720x480P60_param[0] ; 
 130              		.loc 1 621 0
 131 006e 1B4A     		ldr	r2, .L26+12
 132 0070 184B     		ldr	r3, .L26+4
 133 0072 1A60     		str	r2, [r3]
 622:VS4210/VX_OSD_Simple.c ****         break;
 134              		.loc 1 622 0
 135 0074 7047     		bx	lr
 136              	.L15:
 623:VS4210/VX_OSD_Simple.c ****     case _OSD_1360X768P :
 624:VS4210/VX_OSD_Simple.c ****         ptcOSDbar = &OSD_1280X768P_param[0] ; 
 137              		.loc 1 624 0
 138 0076 214A     		ldr	r2, .L26+44
 139 0078 164B     		ldr	r3, .L26+4
 140 007a 1A60     		str	r2, [r3]
 625:VS4210/VX_OSD_Simple.c ****         break;
 141              		.loc 1 625 0
 142 007c 7047     		bx	lr
 143              	.L16:
 626:VS4210/VX_OSD_Simple.c ****     case _OSD_1366X768P :
 627:VS4210/VX_OSD_Simple.c ****         ptcOSDbar = &OSD_1366X768P_param[0] ; 
 144              		.loc 1 627 0
 145 007e 204A     		ldr	r2, .L26+48
 146 0080 144B     		ldr	r3, .L26+4
 147 0082 1A60     		str	r2, [r3]
 628:VS4210/VX_OSD_Simple.c ****         break;
 148              		.loc 1 628 0
 149 0084 7047     		bx	lr
 150              	.L17:
 629:VS4210/VX_OSD_Simple.c ****     case _OSD_1280X800P :
 630:VS4210/VX_OSD_Simple.c ****         ptcOSDbar = &OSD_1280X800P_param[0] ; 
 151              		.loc 1 630 0
 152 0086 1F4A     		ldr	r2, .L26+52
 153 0088 124B     		ldr	r3, .L26+4
 154 008a 1A60     		str	r2, [r3]
 631:VS4210/VX_OSD_Simple.c ****         break;
 155              		.loc 1 631 0
 156 008c 7047     		bx	lr
 157              	.L18:
 632:VS4210/VX_OSD_Simple.c ****     case _OSD_1440X900P :
 633:VS4210/VX_OSD_Simple.c ****         ptcOSDbar = &OSD_1440X900P_param[0] ; 
 158              		.loc 1 633 0
 159 008e 1E4A     		ldr	r2, .L26+56
 160 0090 104B     		ldr	r3, .L26+4
 161 0092 1A60     		str	r2, [r3]
 634:VS4210/VX_OSD_Simple.c ****         break;
 162              		.loc 1 634 0
 163 0094 7047     		bx	lr
 164              	.L19:
 635:VS4210/VX_OSD_Simple.c ****     case _OSD_1280X1024P:
ARM GAS  /tmp/cc0CX9nZ.s 			page 15


 636:VS4210/VX_OSD_Simple.c ****         ptcOSDbar = &OSD_1280X1024P_param[0] ; 
 165              		.loc 1 636 0
 166 0096 1D4A     		ldr	r2, .L26+60
 167 0098 0E4B     		ldr	r3, .L26+4
 168 009a 1A60     		str	r2, [r3]
 637:VS4210/VX_OSD_Simple.c ****         break;
 169              		.loc 1 637 0
 170 009c 7047     		bx	lr
 171              	.L20:
 638:VS4210/VX_OSD_Simple.c ****     case _OSD_1400X1050P:
 639:VS4210/VX_OSD_Simple.c ****         ptcOSDbar = &OSD_1400X1050P_param[0] ; 
 172              		.loc 1 639 0
 173 009e 1C4A     		ldr	r2, .L26+64
 174 00a0 0C4B     		ldr	r3, .L26+4
 175 00a2 1A60     		str	r2, [r3]
 640:VS4210/VX_OSD_Simple.c ****         break;
 176              		.loc 1 640 0
 177 00a4 7047     		bx	lr
 178              	.L21:
 641:VS4210/VX_OSD_Simple.c ****     case _OSD_1680X1050P:
 642:VS4210/VX_OSD_Simple.c ****         ptcOSDbar = &OSD_1680X1050P_param[0] ; 
 179              		.loc 1 642 0
 180 00a6 1B4A     		ldr	r2, .L26+68
 181 00a8 0A4B     		ldr	r3, .L26+4
 182 00aa 1A60     		str	r2, [r3]
 643:VS4210/VX_OSD_Simple.c ****         break;
 183              		.loc 1 643 0
 184 00ac 7047     		bx	lr
 185              	.L22:
 644:VS4210/VX_OSD_Simple.c ****     case _OSD_1600X1200P:
 645:VS4210/VX_OSD_Simple.c ****         ptcOSDbar = &OSD_1600X1200P_param[0] ; 
 186              		.loc 1 645 0
 187 00ae 1A4A     		ldr	r2, .L26+72
 188 00b0 084B     		ldr	r3, .L26+4
 189 00b2 1A60     		str	r2, [r3]
 646:VS4210/VX_OSD_Simple.c ****         break;
 190              		.loc 1 646 0
 191 00b4 7047     		bx	lr
 192              	.L23:
 647:VS4210/VX_OSD_Simple.c ****     case _OSD_1920X1200P:
 648:VS4210/VX_OSD_Simple.c ****         ptcOSDbar = &OSD_1920X1200P_param[0] ; 
 193              		.loc 1 648 0
 194 00b6 194A     		ldr	r2, .L26+76
 195 00b8 064B     		ldr	r3, .L26+4
 196 00ba 1A60     		str	r2, [r3]
 649:VS4210/VX_OSD_Simple.c ****         break;
 197              		.loc 1 649 0
 198 00bc 7047     		bx	lr
 199              	.L24:
 650:VS4210/VX_OSD_Simple.c ****     case _OSD_No_Signal :
 651:VS4210/VX_OSD_Simple.c ****         ptcOSDbar = &OSD_No_Signal_param[0] ; 
 200              		.loc 1 651 0
 201 00be 184A     		ldr	r2, .L26+80
 202 00c0 044B     		ldr	r3, .L26+4
 203 00c2 1A60     		str	r2, [r3]
 652:VS4210/VX_OSD_Simple.c ****         break;
 204              		.loc 1 652 0
ARM GAS  /tmp/cc0CX9nZ.s 			page 16


 205 00c4 7047     		bx	lr
 206              	.L2:
 653:VS4210/VX_OSD_Simple.c **** 
 654:VS4210/VX_OSD_Simple.c ****     default :
 655:VS4210/VX_OSD_Simple.c ****         ptcOSDbar = &OSD_No_Signal_param[0] ; 
 207              		.loc 1 655 0
 208 00c6 164A     		ldr	r2, .L26+80
 209 00c8 024B     		ldr	r3, .L26+4
 210 00ca 1A60     		str	r2, [r3]
 211 00cc 7047     		bx	lr
 212              	.L27:
 213 00ce 00BF     		.align	2
 214              	.L26:
 215 00d0 00000000 		.word	.LANCHOR0
 216 00d4 00000000 		.word	ptcOSDbar
 217 00d8 00000000 		.word	.LANCHOR1
 218 00dc 00000000 		.word	.LANCHOR2
 219 00e0 00000000 		.word	.LANCHOR3
 220 00e4 00000000 		.word	.LANCHOR4
 221 00e8 00000000 		.word	.LANCHOR5
 222 00ec 00000000 		.word	.LANCHOR6
 223 00f0 00000000 		.word	.LANCHOR7
 224 00f4 00000000 		.word	.LANCHOR8
 225 00f8 00000000 		.word	.LANCHOR9
 226 00fc 00000000 		.word	.LANCHOR10
 227 0100 00000000 		.word	.LANCHOR11
 228 0104 00000000 		.word	.LANCHOR12
 229 0108 00000000 		.word	.LANCHOR13
 230 010c 00000000 		.word	.LANCHOR14
 231 0110 00000000 		.word	.LANCHOR15
 232 0114 00000000 		.word	.LANCHOR16
 233 0118 00000000 		.word	.LANCHOR17
 234 011c 00000000 		.word	.LANCHOR18
 235 0120 00000000 		.word	.LANCHOR19
 236              		.cfi_endproc
 237              	.LFE66:
 239              		.section	.text.VX_Write_OSD_In_OutString,"ax",%progbits
 240              		.align	2
 241              		.thumb
 242              		.thumb_func
 244              	VX_Write_OSD_In_OutString:
 245              	.LFB65:
 140:VS4210/VX_OSD_Simple.c ****     tWord ix,iy ;
 246              		.loc 1 140 0
 247              		.cfi_startproc
 248              		@ args = 0, pretend = 0, frame = 0
 249              		@ frame_needed = 0, uses_anonymous_args = 0
 250              	.LVL1:
 251 0000 2DE9F047 		push	{r4, r5, r6, r7, r8, r9, r10, lr}
 252              	.LCFI0:
 253              		.cfi_def_cfa_offset 32
 254              		.cfi_offset 4, -32
 255              		.cfi_offset 5, -28
 256              		.cfi_offset 6, -24
 257              		.cfi_offset 7, -20
 258              		.cfi_offset 8, -16
 259              		.cfi_offset 9, -12
ARM GAS  /tmp/cc0CX9nZ.s 			page 17


 260              		.cfi_offset 10, -8
 261              		.cfi_offset 14, -4
 262 0004 0546     		mov	r5, r0
 263 0006 8846     		mov	r8, r1
 264 0008 1746     		mov	r7, r2
 145:VS4210/VX_OSD_Simple.c ****     BarFlg   = u8gDrawOSDFlg & 0x01 ;
 265              		.loc 1 145 0
 266 000a BA4A     		ldr	r2, .L91
 267              	.LVL2:
 268 000c 1278     		ldrb	r2, [r2]	@ zero_extendqisi2
 269 000e C2F34006 		ubfx	r6, r2, #1, #1
 270              	.LVL3:
 146:VS4210/VX_OSD_Simple.c **** 
 271              		.loc 1 146 0
 272 0012 02F00104 		and	r4, r2, #1
 273              	.LVL4:
 148:VS4210/VX_OSD_Simple.c ****     {
 274              		.loc 1 148 0
 275 0016 4BB9     		cbnz	r3, .L29
 150:VS4210/VX_OSD_Simple.c ****         {
 276              		.loc 1 150 0
 277 0018 B74B     		ldr	r3, .L91+4
 278              	.LVL5:
 279 001a 1B78     		ldrb	r3, [r3]	@ zero_extendqisi2
 280 001c 012B     		cmp	r3, #1
 281 001e 40F0FB80 		bne	.L67
 153:VS4210/VX_OSD_Simple.c ****         }
 282              		.loc 1 153 0
 283 0022 4FF03D0A 		mov	r10, #61
 152:VS4210/VX_OSD_Simple.c ****             iy = Mode0_1080P_param[1] ;
 284              		.loc 1 152 0
 285 0026 4FF0B409 		mov	r9, #180
 286 002a 6BE1     		b	.L30
 287              	.LVL6:
 288              	.L29:
 289 002c 1A46     		mov	r2, r3
 161:VS4210/VX_OSD_Simple.c ****     {
 290              		.loc 1 161 0
 291 002e 012B     		cmp	r3, #1
 292 0030 09D1     		bne	.L31
 293              	.LVL7:
 163:VS4210/VX_OSD_Simple.c ****         {
 294              		.loc 1 163 0
 295 0032 B14B     		ldr	r3, .L91+4
 296 0034 1B78     		ldrb	r3, [r3]	@ zero_extendqisi2
 297 0036 012B     		cmp	r3, #1
 298 0038 40F0F380 		bne	.L68
 166:VS4210/VX_OSD_Simple.c ****         }
 299              		.loc 1 166 0
 300 003c 4FF03D0A 		mov	r10, #61
 165:VS4210/VX_OSD_Simple.c ****             iy = Mode0_1080P_param[1] ;
 301              		.loc 1 165 0
 302 0040 4FF0B409 		mov	r9, #180
 303 0044 5EE1     		b	.L30
 304              	.L31:
 174:VS4210/VX_OSD_Simple.c ****     {
 305              		.loc 1 174 0
ARM GAS  /tmp/cc0CX9nZ.s 			page 18


 306 0046 022B     		cmp	r3, #2
 307 0048 09D1     		bne	.L32
 176:VS4210/VX_OSD_Simple.c ****         {
 308              		.loc 1 176 0
 309 004a AB4B     		ldr	r3, .L91+4
 310 004c 1B78     		ldrb	r3, [r3]	@ zero_extendqisi2
 311 004e 012B     		cmp	r3, #1
 312 0050 40F0EC80 		bne	.L69
 179:VS4210/VX_OSD_Simple.c ****         }
 313              		.loc 1 179 0
 314 0054 4FF03D0A 		mov	r10, #61
 178:VS4210/VX_OSD_Simple.c ****             iy = Mode0_1080P_param[1] ;
 315              		.loc 1 178 0
 316 0058 4FF0B409 		mov	r9, #180
 317 005c 52E1     		b	.L30
 318              	.L32:
 187:VS4210/VX_OSD_Simple.c ****     {
 319              		.loc 1 187 0
 320 005e 032B     		cmp	r3, #3
 321 0060 09D1     		bne	.L33
 189:VS4210/VX_OSD_Simple.c ****         {
 322              		.loc 1 189 0
 323 0062 A54B     		ldr	r3, .L91+4
 324 0064 1B78     		ldrb	r3, [r3]	@ zero_extendqisi2
 325 0066 012B     		cmp	r3, #1
 326 0068 40F0E580 		bne	.L70
 192:VS4210/VX_OSD_Simple.c ****         }
 327              		.loc 1 192 0
 328 006c 4FF03D0A 		mov	r10, #61
 191:VS4210/VX_OSD_Simple.c ****             iy = Mode0_1080P_param[1] ;
 329              		.loc 1 191 0
 330 0070 4FF0B409 		mov	r9, #180
 331 0074 46E1     		b	.L30
 332              	.L33:
 200:VS4210/VX_OSD_Simple.c ****     {
 333              		.loc 1 200 0
 334 0076 102B     		cmp	r3, #16
 335 0078 2CD1     		bne	.L34
 202:VS4210/VX_OSD_Simple.c ****         {
 336              		.loc 1 202 0
 337 007a 48B9     		cbnz	r0, .L35
 204:VS4210/VX_OSD_Simple.c ****             {
 338              		.loc 1 204 0
 339 007c 9E4B     		ldr	r3, .L91+4
 340 007e 1B78     		ldrb	r3, [r3]	@ zero_extendqisi2
 341 0080 012B     		cmp	r3, #1
 342 0082 40F0DD80 		bne	.L71
 207:VS4210/VX_OSD_Simple.c ****             }
 343              		.loc 1 207 0
 344 0086 4FF03D0A 		mov	r10, #61
 206:VS4210/VX_OSD_Simple.c ****                 iy = Mode1_w0_1080P_param[1] ;
 345              		.loc 1 206 0
 346 008a 4FF0B409 		mov	r9, #180
 347 008e 39E1     		b	.L30
 348              	.L35:
 215:VS4210/VX_OSD_Simple.c ****         {
 349              		.loc 1 215 0
ARM GAS  /tmp/cc0CX9nZ.s 			page 19


 350 0090 0128     		cmp	r0, #1
 351 0092 09D1     		bne	.L36
 217:VS4210/VX_OSD_Simple.c ****             {
 352              		.loc 1 217 0
 353 0094 984B     		ldr	r3, .L91+4
 354 0096 1B78     		ldrb	r3, [r3]	@ zero_extendqisi2
 355 0098 012B     		cmp	r3, #1
 356 009a 40F0D680 		bne	.L72
 220:VS4210/VX_OSD_Simple.c ****             }
 357              		.loc 1 220 0
 358 009e 4FF03D0A 		mov	r10, #61
 219:VS4210/VX_OSD_Simple.c ****                 iy = Mode1_w1_1080P_param[1] ;
 359              		.loc 1 219 0
 360 00a2 40F27449 		movw	r9, #1140
 361 00a6 2DE1     		b	.L30
 362              	.L36:
 228:VS4210/VX_OSD_Simple.c ****         {
 363              		.loc 1 228 0
 364 00a8 0228     		cmp	r0, #2
 365 00aa 09D1     		bne	.L37
 230:VS4210/VX_OSD_Simple.c ****             {
 366              		.loc 1 230 0
 367 00ac 924B     		ldr	r3, .L91+4
 368 00ae 1B78     		ldrb	r3, [r3]	@ zero_extendqisi2
 369 00b0 012B     		cmp	r3, #1
 370 00b2 40F0CF80 		bne	.L73
 233:VS4210/VX_OSD_Simple.c ****             }
 371              		.loc 1 233 0
 372 00b6 40F25B2A 		movw	r10, #603
 232:VS4210/VX_OSD_Simple.c ****                 iy = Mode1_w2_1080P_param[1] ;
 373              		.loc 1 232 0
 374 00ba 4FF0B409 		mov	r9, #180
 375 00be 21E1     		b	.L30
 376              	.L37:
 243:VS4210/VX_OSD_Simple.c ****             {
 377              		.loc 1 243 0
 378 00c0 8D4B     		ldr	r3, .L91+4
 379 00c2 1B78     		ldrb	r3, [r3]	@ zero_extendqisi2
 380 00c4 012B     		cmp	r3, #1
 381 00c6 40F0CA80 		bne	.L74
 246:VS4210/VX_OSD_Simple.c ****             }
 382              		.loc 1 246 0
 383 00ca 40F25B2A 		movw	r10, #603
 245:VS4210/VX_OSD_Simple.c ****                 iy = Mode1_w3_1080P_param[1] ;
 384              		.loc 1 245 0
 385 00ce 40F27449 		movw	r9, #1140
 386 00d2 17E1     		b	.L30
 387              	.L34:
 255:VS4210/VX_OSD_Simple.c ****     {
 388              		.loc 1 255 0
 389 00d4 202B     		cmp	r3, #32
 390 00d6 2CD1     		bne	.L38
 257:VS4210/VX_OSD_Simple.c ****         {
 391              		.loc 1 257 0
 392 00d8 48B9     		cbnz	r0, .L39
 259:VS4210/VX_OSD_Simple.c ****             {
 393              		.loc 1 259 0
ARM GAS  /tmp/cc0CX9nZ.s 			page 20


 394 00da 874B     		ldr	r3, .L91+4
 395 00dc 1B78     		ldrb	r3, [r3]	@ zero_extendqisi2
 396 00de 012B     		cmp	r3, #1
 397 00e0 40F0C280 		bne	.L75
 262:VS4210/VX_OSD_Simple.c ****             }
 398              		.loc 1 262 0
 399 00e4 4FF03D0A 		mov	r10, #61
 261:VS4210/VX_OSD_Simple.c ****                 iy = Mode2_w0_1080P_param[1] ;
 400              		.loc 1 261 0
 401 00e8 4FF0B409 		mov	r9, #180
 402 00ec 0AE1     		b	.L30
 403              	.L39:
 270:VS4210/VX_OSD_Simple.c ****         {
 404              		.loc 1 270 0
 405 00ee 0128     		cmp	r0, #1
 406 00f0 09D1     		bne	.L40
 272:VS4210/VX_OSD_Simple.c ****             {
 407              		.loc 1 272 0
 408 00f2 814B     		ldr	r3, .L91+4
 409 00f4 1B78     		ldrb	r3, [r3]	@ zero_extendqisi2
 410 00f6 012B     		cmp	r3, #1
 411 00f8 40F0BB80 		bne	.L76
 275:VS4210/VX_OSD_Simple.c ****             }
 412              		.loc 1 275 0
 413 00fc 4FF03D0A 		mov	r10, #61
 274:VS4210/VX_OSD_Simple.c ****                 iy = Mode2_w1_1080P_param[1] ;
 414              		.loc 1 274 0
 415 0100 4FF42679 		mov	r9, #664
 416 0104 FEE0     		b	.L30
 417              	.L40:
 283:VS4210/VX_OSD_Simple.c ****         {
 418              		.loc 1 283 0
 419 0106 0228     		cmp	r0, #2
 420 0108 09D1     		bne	.L41
 285:VS4210/VX_OSD_Simple.c ****             {
 421              		.loc 1 285 0
 422 010a 7B4B     		ldr	r3, .L91+4
 423 010c 1B78     		ldrb	r3, [r3]	@ zero_extendqisi2
 424 010e 012B     		cmp	r3, #1
 425 0110 40F0B480 		bne	.L77
 288:VS4210/VX_OSD_Simple.c ****             }
 426              		.loc 1 288 0
 427 0114 40F25B2A 		movw	r10, #603
 287:VS4210/VX_OSD_Simple.c ****                 iy = Mode2_w2_1080P_param[1] ;
 428              		.loc 1 287 0
 429 0118 4FF42679 		mov	r9, #664
 430 011c F2E0     		b	.L30
 431              	.L41:
 298:VS4210/VX_OSD_Simple.c ****             {
 432              		.loc 1 298 0
 433 011e 764B     		ldr	r3, .L91+4
 434 0120 1B78     		ldrb	r3, [r3]	@ zero_extendqisi2
 435 0122 012B     		cmp	r3, #1
 436 0124 40F0AF80 		bne	.L78
 301:VS4210/VX_OSD_Simple.c ****             }
 437              		.loc 1 301 0
 438 0128 4FF03D0A 		mov	r10, #61
ARM GAS  /tmp/cc0CX9nZ.s 			page 21


 300:VS4210/VX_OSD_Simple.c ****                 iy = Mode2_w3_1080P_param[1] ;
 439              		.loc 1 300 0
 440 012c 4FF4CB69 		mov	r9, #1624
 441 0130 E8E0     		b	.L30
 442              	.L38:
 310:VS4210/VX_OSD_Simple.c ****     {
 443              		.loc 1 310 0
 444 0132 402B     		cmp	r3, #64
 445 0134 14D1     		bne	.L42
 312:VS4210/VX_OSD_Simple.c ****         {
 446              		.loc 1 312 0
 447 0136 48B9     		cbnz	r0, .L43
 314:VS4210/VX_OSD_Simple.c ****             {
 448              		.loc 1 314 0
 449 0138 6F4B     		ldr	r3, .L91+4
 450 013a 1B78     		ldrb	r3, [r3]	@ zero_extendqisi2
 451 013c 012B     		cmp	r3, #1
 452 013e 40F0A780 		bne	.L79
 317:VS4210/VX_OSD_Simple.c ****             }
 453              		.loc 1 317 0
 454 0142 4FF03D0A 		mov	r10, #61
 316:VS4210/VX_OSD_Simple.c ****                 iy = Mode12_w0_1080P_param[1] ;
 455              		.loc 1 316 0
 456 0146 4FF0B409 		mov	r9, #180
 457 014a DBE0     		b	.L30
 458              	.L43:
 327:VS4210/VX_OSD_Simple.c ****             {
 459              		.loc 1 327 0
 460 014c 6A4B     		ldr	r3, .L91+4
 461 014e 1B78     		ldrb	r3, [r3]	@ zero_extendqisi2
 462 0150 012B     		cmp	r3, #1
 463 0152 40F0A280 		bne	.L80
 330:VS4210/VX_OSD_Simple.c ****             }
 464              		.loc 1 330 0
 465 0156 4FF03D0A 		mov	r10, #61
 329:VS4210/VX_OSD_Simple.c ****                 iy = Mode12_w1_1080P_param[1] ;
 466              		.loc 1 329 0
 467 015a 40F27449 		movw	r9, #1140
 468 015e D1E0     		b	.L30
 469              	.L42:
 339:VS4210/VX_OSD_Simple.c ****     {
 470              		.loc 1 339 0
 471 0160 502B     		cmp	r3, #80
 472 0162 14D1     		bne	.L44
 341:VS4210/VX_OSD_Simple.c ****         {
 473              		.loc 1 341 0
 474 0164 48B9     		cbnz	r0, .L45
 343:VS4210/VX_OSD_Simple.c ****             {
 475              		.loc 1 343 0
 476 0166 644B     		ldr	r3, .L91+4
 477 0168 1B78     		ldrb	r3, [r3]	@ zero_extendqisi2
 478 016a 012B     		cmp	r3, #1
 479 016c 40F09A80 		bne	.L81
 346:VS4210/VX_OSD_Simple.c ****             }
 480              		.loc 1 346 0
 481 0170 4FF03D0A 		mov	r10, #61
 345:VS4210/VX_OSD_Simple.c ****                 iy = Mode13_w0_1080P_param[1] ;
ARM GAS  /tmp/cc0CX9nZ.s 			page 22


 482              		.loc 1 345 0
 483 0174 4FF0B409 		mov	r9, #180
 484 0178 C4E0     		b	.L30
 485              	.L45:
 356:VS4210/VX_OSD_Simple.c ****             {
 486              		.loc 1 356 0
 487 017a 5F4B     		ldr	r3, .L91+4
 488 017c 1B78     		ldrb	r3, [r3]	@ zero_extendqisi2
 489 017e 012B     		cmp	r3, #1
 490 0180 40F09580 		bne	.L82
 359:VS4210/VX_OSD_Simple.c ****             }
 491              		.loc 1 359 0
 492 0184 40F25B2A 		movw	r10, #603
 358:VS4210/VX_OSD_Simple.c ****                 iy = Mode13_w1_1080P_param[1] ;
 493              		.loc 1 358 0
 494 0188 4FF0B409 		mov	r9, #180
 495 018c BAE0     		b	.L30
 496              	.L44:
 368:VS4210/VX_OSD_Simple.c ****     {
 497              		.loc 1 368 0
 498 018e 303B     		subs	r3, r3, #48
 499 0190 0F2B     		cmp	r3, #15
 500 0192 2AD8     		bhi	.L46
 370:VS4210/VX_OSD_Simple.c ****         {
 501              		.loc 1 370 0
 502 0194 48B9     		cbnz	r0, .L47
 372:VS4210/VX_OSD_Simple.c ****             {
 503              		.loc 1 372 0
 504 0196 584B     		ldr	r3, .L91+4
 505 0198 1B78     		ldrb	r3, [r3]	@ zero_extendqisi2
 506 019a 012B     		cmp	r3, #1
 507 019c 40F08C80 		bne	.L83
 375:VS4210/VX_OSD_Simple.c ****             }
 508              		.loc 1 375 0
 509 01a0 4FF03D0A 		mov	r10, #61
 374:VS4210/VX_OSD_Simple.c ****                 iy = Mode6_w0_1080P_param[1] ;
 510              		.loc 1 374 0
 511 01a4 4FF0B409 		mov	r9, #180
 512 01a8 ACE0     		b	.L30
 513              	.L47:
 383:VS4210/VX_OSD_Simple.c ****         {
 514              		.loc 1 383 0
 515 01aa 0128     		cmp	r0, #1
 516 01ac 09D1     		bne	.L48
 385:VS4210/VX_OSD_Simple.c ****             {
 517              		.loc 1 385 0
 518 01ae 524B     		ldr	r3, .L91+4
 519 01b0 1B78     		ldrb	r3, [r3]	@ zero_extendqisi2
 520 01b2 012B     		cmp	r3, #1
 521 01b4 40F08580 		bne	.L84
 388:VS4210/VX_OSD_Simple.c ****             }
 522              		.loc 1 388 0
 523 01b8 4FF03D0A 		mov	r10, #61
 387:VS4210/VX_OSD_Simple.c ****                 iy = Mode6_w1_1080P_param[1] ;
 524              		.loc 1 387 0
 525 01bc 40F2B459 		movw	r9, #1460
 526 01c0 A0E0     		b	.L30
ARM GAS  /tmp/cc0CX9nZ.s 			page 23


 527              	.L48:
 396:VS4210/VX_OSD_Simple.c ****         {
 528              		.loc 1 396 0
 529 01c2 0228     		cmp	r0, #2
 530 01c4 08D1     		bne	.L49
 398:VS4210/VX_OSD_Simple.c ****             {
 531              		.loc 1 398 0
 532 01c6 4C4B     		ldr	r3, .L91+4
 533 01c8 1B78     		ldrb	r3, [r3]	@ zero_extendqisi2
 534 01ca 012B     		cmp	r3, #1
 535 01cc 7ED1     		bne	.L85
 401:VS4210/VX_OSD_Simple.c ****             }
 536              		.loc 1 401 0
 537 01ce 4FF4D37A 		mov	r10, #422
 400:VS4210/VX_OSD_Simple.c ****                 iy = Mode6_w2_1080P_param[1] ;
 538              		.loc 1 400 0
 539 01d2 40F2B459 		movw	r9, #1460
 540 01d6 95E0     		b	.L30
 541              	.L49:
 411:VS4210/VX_OSD_Simple.c ****             {
 542              		.loc 1 411 0
 543 01d8 474B     		ldr	r3, .L91+4
 544 01da 1B78     		ldrb	r3, [r3]	@ zero_extendqisi2
 545 01dc 012B     		cmp	r3, #1
 546 01de 7AD1     		bne	.L86
 414:VS4210/VX_OSD_Simple.c ****             }
 547              		.loc 1 414 0
 548 01e0 40F20F3A 		movw	r10, #783
 413:VS4210/VX_OSD_Simple.c ****                 iy = Mode6_w3_1080P_param[1] ;
 549              		.loc 1 413 0
 550 01e4 40F2B459 		movw	r9, #1460
 551 01e8 8CE0     		b	.L30
 552              	.L46:
 423:VS4210/VX_OSD_Simple.c ****     {
 553              		.loc 1 423 0
 554 01ea 602A     		cmp	r2, #96
 555 01ec 78D1     		bne	.L87
 425:VS4210/VX_OSD_Simple.c ****         {
 556              		.loc 1 425 0
 557 01ee 40B9     		cbnz	r0, .L50
 427:VS4210/VX_OSD_Simple.c ****             {
 558              		.loc 1 427 0
 559 01f0 414B     		ldr	r3, .L91+4
 560 01f2 1B78     		ldrb	r3, [r3]	@ zero_extendqisi2
 561 01f4 012B     		cmp	r3, #1
 562 01f6 78D1     		bne	.L88
 430:VS4210/VX_OSD_Simple.c ****             }
 563              		.loc 1 430 0
 564 01f8 4FF03D0A 		mov	r10, #61
 429:VS4210/VX_OSD_Simple.c ****                 iy = Mode24_w0_1080P_param[1] ;
 565              		.loc 1 429 0
 566 01fc 4FF0B409 		mov	r9, #180
 567 0200 80E0     		b	.L30
 568              	.L50:
 438:VS4210/VX_OSD_Simple.c ****         {
 569              		.loc 1 438 0
 570 0202 0128     		cmp	r0, #1
ARM GAS  /tmp/cc0CX9nZ.s 			page 24


 571 0204 7ED1     		bne	.L30
 440:VS4210/VX_OSD_Simple.c ****             {
 572              		.loc 1 440 0
 573 0206 3C4B     		ldr	r3, .L91+4
 574 0208 1B78     		ldrb	r3, [r3]	@ zero_extendqisi2
 575 020a 012B     		cmp	r3, #1
 576 020c 76D1     		bne	.L89
 443:VS4210/VX_OSD_Simple.c ****             }
 577              		.loc 1 443 0
 578 020e 40F20D3A 		movw	r10, #781
 442:VS4210/VX_OSD_Simple.c ****                 iy = Mode24_w1_1080P_param[1] ;
 579              		.loc 1 442 0
 580 0212 40F2B459 		movw	r9, #1460
 581 0216 75E0     		b	.L30
 582              	.LVL8:
 583              	.L67:
 158:VS4210/VX_OSD_Simple.c ****         }
 584              		.loc 1 158 0
 585 0218 4FF0250A 		mov	r10, #37
 157:VS4210/VX_OSD_Simple.c ****             iy = Mode0_720P_param[1] ;
 586              		.loc 1 157 0
 587 021c 4FF0F409 		mov	r9, #244
 588 0220 70E0     		b	.L30
 589              	.LVL9:
 590              	.L68:
 171:VS4210/VX_OSD_Simple.c ****         }
 591              		.loc 1 171 0
 592 0222 4FF0250A 		mov	r10, #37
 170:VS4210/VX_OSD_Simple.c ****             iy = Mode0_720P_param[1] ;
 593              		.loc 1 170 0
 594 0226 4FF0F409 		mov	r9, #244
 595 022a 6BE0     		b	.L30
 596              	.L69:
 184:VS4210/VX_OSD_Simple.c ****         }
 597              		.loc 1 184 0
 598 022c 4FF0250A 		mov	r10, #37
 183:VS4210/VX_OSD_Simple.c ****             iy = Mode0_720P_param[1] ;
 599              		.loc 1 183 0
 600 0230 4FF0F409 		mov	r9, #244
 601 0234 66E0     		b	.L30
 602              	.L70:
 197:VS4210/VX_OSD_Simple.c ****         }
 603              		.loc 1 197 0
 604 0236 4FF0250A 		mov	r10, #37
 196:VS4210/VX_OSD_Simple.c ****             iy = Mode0_720P_param[1] ;
 605              		.loc 1 196 0
 606 023a 4FF0F409 		mov	r9, #244
 607 023e 61E0     		b	.L30
 608              	.L71:
 212:VS4210/VX_OSD_Simple.c ****             }
 609              		.loc 1 212 0
 610 0240 4FF0250A 		mov	r10, #37
 211:VS4210/VX_OSD_Simple.c ****                 iy = Mode1_w0_720P_param[1] ;
 611              		.loc 1 211 0
 612 0244 4FF0F409 		mov	r9, #244
 613 0248 5CE0     		b	.L30
 614              	.L72:
ARM GAS  /tmp/cc0CX9nZ.s 			page 25


 225:VS4210/VX_OSD_Simple.c ****             }
 615              		.loc 1 225 0
 616 024a 4FF0250A 		mov	r10, #37
 224:VS4210/VX_OSD_Simple.c ****                 iy = Mode1_w1_720P_param[1] ;
 617              		.loc 1 224 0
 618 024e 40F27639 		movw	r9, #886
 619 0252 57E0     		b	.L30
 620              	.L73:
 238:VS4210/VX_OSD_Simple.c ****             }
 621              		.loc 1 238 0
 622 0254 40F2911A 		movw	r10, #401
 237:VS4210/VX_OSD_Simple.c ****                 iy = Mode1_w2_720P_param[1] ;
 623              		.loc 1 237 0
 624 0258 4FF0F409 		mov	r9, #244
 625 025c 52E0     		b	.L30
 626              	.L74:
 251:VS4210/VX_OSD_Simple.c ****             }
 627              		.loc 1 251 0
 628 025e 40F2911A 		movw	r10, #401
 250:VS4210/VX_OSD_Simple.c ****                 iy = Mode1_w3_720P_param[1] ;
 629              		.loc 1 250 0
 630 0262 40F27639 		movw	r9, #886
 631 0266 4DE0     		b	.L30
 632              	.L75:
 267:VS4210/VX_OSD_Simple.c ****             }
 633              		.loc 1 267 0
 634 0268 4FF0250A 		mov	r10, #37
 266:VS4210/VX_OSD_Simple.c ****                 iy = Mode2_w0_720P_param[1] ;
 635              		.loc 1 266 0
 636 026c 4FF0F409 		mov	r9, #244
 637 0270 48E0     		b	.L30
 638              	.L76:
 280:VS4210/VX_OSD_Simple.c ****             }
 639              		.loc 1 280 0
 640 0272 4FF0250A 		mov	r10, #37
 279:VS4210/VX_OSD_Simple.c ****                 iy = Mode2_w1_720P_param[1] ;
 641              		.loc 1 279 0
 642 0276 40F23629 		movw	r9, #566
 643 027a 43E0     		b	.L30
 644              	.L77:
 293:VS4210/VX_OSD_Simple.c ****             }
 645              		.loc 1 293 0
 646 027c 40F2911A 		movw	r10, #401
 292:VS4210/VX_OSD_Simple.c ****                 iy = Mode2_w2_720P_param[1] ;
 647              		.loc 1 292 0
 648 0280 40F23629 		movw	r9, #566
 649 0284 3EE0     		b	.L30
 650              	.L78:
 306:VS4210/VX_OSD_Simple.c ****             }
 651              		.loc 1 306 0
 652 0286 4FF0250A 		mov	r10, #37
 305:VS4210/VX_OSD_Simple.c ****                 iy = Mode2_w3_720P_param[1] ;
 653              		.loc 1 305 0
 654 028a 40F2B649 		movw	r9, #1206
 655 028e 39E0     		b	.L30
 656              	.L79:
 322:VS4210/VX_OSD_Simple.c ****             }
ARM GAS  /tmp/cc0CX9nZ.s 			page 26


 657              		.loc 1 322 0
 658 0290 4FF0250A 		mov	r10, #37
 321:VS4210/VX_OSD_Simple.c ****                 iy = Mode12_w0_720P_param[1] ;
 659              		.loc 1 321 0
 660 0294 4FF0F409 		mov	r9, #244
 661 0298 34E0     		b	.L30
 662              	.L80:
 335:VS4210/VX_OSD_Simple.c ****             }
 663              		.loc 1 335 0
 664 029a 4FF0250A 		mov	r10, #37
 334:VS4210/VX_OSD_Simple.c ****                 iy = Mode12_w1_720P_param[1] ;
 665              		.loc 1 334 0
 666 029e 40F27639 		movw	r9, #886
 667 02a2 2FE0     		b	.L30
 668              	.L81:
 351:VS4210/VX_OSD_Simple.c ****             }
 669              		.loc 1 351 0
 670 02a4 4FF0250A 		mov	r10, #37
 350:VS4210/VX_OSD_Simple.c ****                 iy = Mode13_w0_720P_param[1] ;
 671              		.loc 1 350 0
 672 02a8 4FF0F409 		mov	r9, #244
 673 02ac 2AE0     		b	.L30
 674              	.L82:
 364:VS4210/VX_OSD_Simple.c ****             }
 675              		.loc 1 364 0
 676 02ae 40F2911A 		movw	r10, #401
 363:VS4210/VX_OSD_Simple.c ****                 iy = Mode13_w1_720P_param[1] ;
 677              		.loc 1 363 0
 678 02b2 4FF0F409 		mov	r9, #244
 679 02b6 25E0     		b	.L30
 680              	.L83:
 380:VS4210/VX_OSD_Simple.c ****             }
 681              		.loc 1 380 0
 682 02b8 4FF0250A 		mov	r10, #37
 379:VS4210/VX_OSD_Simple.c ****                 iy = Mode6_w0_720P_param[1] ;
 683              		.loc 1 379 0
 684 02bc 4FF0F409 		mov	r9, #244
 685 02c0 20E0     		b	.L30
 686              	.L84:
 393:VS4210/VX_OSD_Simple.c ****             }
 687              		.loc 1 393 0
 688 02c2 4FF0250A 		mov	r10, #37
 392:VS4210/VX_OSD_Simple.c ****                 iy = Mode6_w1_720P_param[1] ;
 689              		.loc 1 392 0
 690 02c6 40F24A49 		movw	r9, #1098
 691 02ca 1BE0     		b	.L30
 692              	.L85:
 406:VS4210/VX_OSD_Simple.c ****             }
 693              		.loc 1 406 0
 694 02cc 4FF48C7A 		mov	r10, #280
 405:VS4210/VX_OSD_Simple.c ****                 iy = Mode6_w2_720P_param[1] ;
 695              		.loc 1 405 0
 696 02d0 40F24A49 		movw	r9, #1098
 697 02d4 16E0     		b	.L30
 698              	.L86:
 419:VS4210/VX_OSD_Simple.c ****             }
 699              		.loc 1 419 0
ARM GAS  /tmp/cc0CX9nZ.s 			page 27


 700 02d6 4FF4027A 		mov	r10, #520
 418:VS4210/VX_OSD_Simple.c ****                 iy = Mode6_w3_720P_param[1] ;
 701              		.loc 1 418 0
 702 02da 40F24A49 		movw	r9, #1098
 703 02de 11E0     		b	.L30
 704              	.L87:
 455:VS4210/VX_OSD_Simple.c ****     }
 705              		.loc 1 455 0
 706 02e0 4FF0400A 		mov	r10, #64
 454:VS4210/VX_OSD_Simple.c ****         iy = 64 ;
 707              		.loc 1 454 0
 708 02e4 4FF0E009 		mov	r9, #224
 709 02e8 0CE0     		b	.L30
 710              	.L88:
 435:VS4210/VX_OSD_Simple.c ****             }
 711              		.loc 1 435 0
 712 02ea 4FF0250A 		mov	r10, #37
 434:VS4210/VX_OSD_Simple.c ****                 iy = Mode24_w0_720P_param[1] ;
 713              		.loc 1 434 0
 714 02ee 4FF0F409 		mov	r9, #244
 715 02f2 07E0     		b	.L30
 716              	.L92:
 717              		.align	2
 718              	.L91:
 719 02f4 00000000 		.word	u8gDrawOSDFlg
 720 02f8 00000000 		.word	gbVXIS_OuputSize
 721              	.L89:
 448:VS4210/VX_OSD_Simple.c ****             }
 722              		.loc 1 448 0
 723 02fc 40F2052A 		movw	r10, #517
 447:VS4210/VX_OSD_Simple.c ****                 iy = Mode24_w1_720P_param[1] ;
 724              		.loc 1 447 0
 725 0300 40F24A49 		movw	r9, #1098
 726              	.LVL10:
 727              	.L30:
 458:VS4210/VX_OSD_Simple.c ****     {
 728              		.loc 1 458 0
 729 0304 D5BB     		cbnz	r5, .L51
 460:VS4210/VX_OSD_Simple.c ****         {
 730              		.loc 1 460 0
 731 0306 BEB1     		cbz	r6, .L52
 462:VS4210/VX_OSD_Simple.c ****             SetOsdStartAddress(_Title0,0x00);
 732              		.loc 1 462 0
 733 0308 0020     		movs	r0, #0
 734              	.LVL11:
 735 030a 98F80010 		ldrb	r1, [r8]	@ zero_extendqisi2
 736              	.LVL12:
 737 030e 0122     		movs	r2, #1
 738 0310 FFF7FEFF 		bl	SetOsdSize
 739              	.LVL13:
 463:VS4210/VX_OSD_Simple.c ****             OsdDumpString(0x00,Str1);
 740              		.loc 1 463 0
 741 0314 0020     		movs	r0, #0
 742 0316 0146     		mov	r1, r0
 743 0318 FFF7FEFF 		bl	SetOsdStartAddress
 744              	.LVL14:
 464:VS4210/VX_OSD_Simple.c ****             OsdDumpAttribute(0x00,Str1,_Color);
ARM GAS  /tmp/cc0CX9nZ.s 			page 28


 745              		.loc 1 464 0
 746 031c 0020     		movs	r0, #0
 747 031e 4146     		mov	r1, r8
 748 0320 FFF7FEFF 		bl	OsdDumpString
 749              	.LVL15:
 465:VS4210/VX_OSD_Simple.c ****             SetOsdPosition(_Title0,ix,iy);
 750              		.loc 1 465 0
 751 0324 0020     		movs	r0, #0
 752 0326 4146     		mov	r1, r8
 753 0328 0722     		movs	r2, #7
 754 032a FFF7FEFF 		bl	OsdDumpAttribute
 755              	.LVL16:
 466:VS4210/VX_OSD_Simple.c ****         }
 756              		.loc 1 466 0
 757 032e 0020     		movs	r0, #0
 758 0330 4946     		mov	r1, r9
 759 0332 5246     		mov	r2, r10
 760 0334 FFF7FEFF 		bl	SetOsdPosition
 761              	.LVL17:
 762              	.L52:
 469:VS4210/VX_OSD_Simple.c ****         {
 763              		.loc 1 469 0
 764 0338 002C     		cmp	r4, #0
 765 033a 00F0D580 		beq	.L53
 471:VS4210/VX_OSD_Simple.c ****             SetOsdStartAddress(_Bar0,0x40);
 766              		.loc 1 471 0
 767 033e 0420     		movs	r0, #4
 768 0340 3978     		ldrb	r1, [r7]	@ zero_extendqisi2
 769 0342 0122     		movs	r2, #1
 770 0344 FFF7FEFF 		bl	SetOsdSize
 771              	.LVL18:
 472:VS4210/VX_OSD_Simple.c ****             OsdDumpString(0x40,Str2);
 772              		.loc 1 472 0
 773 0348 0420     		movs	r0, #4
 774 034a 4021     		movs	r1, #64
 775 034c FFF7FEFF 		bl	SetOsdStartAddress
 776              	.LVL19:
 473:VS4210/VX_OSD_Simple.c ****             OsdDumpAttribute(0x40,Str2,_Color);
 777              		.loc 1 473 0
 778 0350 4020     		movs	r0, #64
 779 0352 3946     		mov	r1, r7
 780 0354 FFF7FEFF 		bl	OsdDumpString
 781              	.LVL20:
 474:VS4210/VX_OSD_Simple.c ****             SetOsdPosition(_Bar0,ix,iy + 20 + OSDx2Flg*20);
 782              		.loc 1 474 0
 783 0358 4020     		movs	r0, #64
 784 035a 3946     		mov	r1, r7
 785 035c 0722     		movs	r2, #7
 786 035e FFF7FEFF 		bl	OsdDumpAttribute
 787              	.LVL21:
 475:VS4210/VX_OSD_Simple.c ****         }
 788              		.loc 1 475 0
 789 0362 844B     		ldr	r3, .L93
 790 0364 1B78     		ldrb	r3, [r3]	@ zero_extendqisi2
 791 0366 03EB8303 		add	r3, r3, r3, lsl #2
 792 036a 9A00     		lsls	r2, r3, #2
 793 036c 5244     		add	r2, r2, r10
ARM GAS  /tmp/cc0CX9nZ.s 			page 29


 794 036e 1432     		adds	r2, r2, #20
 795 0370 0420     		movs	r0, #4
 796 0372 4946     		mov	r1, r9
 797 0374 92B2     		uxth	r2, r2
 798 0376 FFF7FEFF 		bl	SetOsdPosition
 799              	.LVL22:
 800 037a B5E0     		b	.L53
 801              	.LVL23:
 802              	.L51:
 478:VS4210/VX_OSD_Simple.c ****     {
 803              		.loc 1 478 0
 804 037c 012D     		cmp	r5, #1
 805 037e 3BD1     		bne	.L54
 480:VS4210/VX_OSD_Simple.c ****         {
 806              		.loc 1 480 0
 807 0380 BEB1     		cbz	r6, .L55
 482:VS4210/VX_OSD_Simple.c ****             SetOsdStartAddress(_Title1,0x10);
 808              		.loc 1 482 0
 809 0382 0120     		movs	r0, #1
 810              	.LVL24:
 811 0384 98F80010 		ldrb	r1, [r8]	@ zero_extendqisi2
 812              	.LVL25:
 813 0388 0246     		mov	r2, r0
 814 038a FFF7FEFF 		bl	SetOsdSize
 815              	.LVL26:
 483:VS4210/VX_OSD_Simple.c ****             OsdDumpString(0x10,Str1);
 816              		.loc 1 483 0
 817 038e 0120     		movs	r0, #1
 818 0390 1021     		movs	r1, #16
 819 0392 FFF7FEFF 		bl	SetOsdStartAddress
 820              	.LVL27:
 484:VS4210/VX_OSD_Simple.c ****             OsdDumpAttribute(0x10,Str1,_Color);
 821              		.loc 1 484 0
 822 0396 1020     		movs	r0, #16
 823 0398 4146     		mov	r1, r8
 824 039a FFF7FEFF 		bl	OsdDumpString
 825              	.LVL28:
 485:VS4210/VX_OSD_Simple.c ****             SetOsdPosition(_Title1,ix,iy);
 826              		.loc 1 485 0
 827 039e 1020     		movs	r0, #16
 828 03a0 4146     		mov	r1, r8
 829 03a2 0722     		movs	r2, #7
 830 03a4 FFF7FEFF 		bl	OsdDumpAttribute
 831              	.LVL29:
 486:VS4210/VX_OSD_Simple.c ****         }
 832              		.loc 1 486 0
 833 03a8 0120     		movs	r0, #1
 834 03aa 4946     		mov	r1, r9
 835 03ac 5246     		mov	r2, r10
 836 03ae FFF7FEFF 		bl	SetOsdPosition
 837              	.LVL30:
 838              	.L55:
 489:VS4210/VX_OSD_Simple.c ****         {
 839              		.loc 1 489 0
 840 03b2 002C     		cmp	r4, #0
 841 03b4 00F09880 		beq	.L53
 491:VS4210/VX_OSD_Simple.c ****             SetOsdStartAddress(_Bar1,0x50);
ARM GAS  /tmp/cc0CX9nZ.s 			page 30


 842              		.loc 1 491 0
 843 03b8 0520     		movs	r0, #5
 844 03ba 3978     		ldrb	r1, [r7]	@ zero_extendqisi2
 845 03bc 0122     		movs	r2, #1
 846 03be FFF7FEFF 		bl	SetOsdSize
 847              	.LVL31:
 492:VS4210/VX_OSD_Simple.c ****             OsdDumpString(0x50,Str2);
 848              		.loc 1 492 0
 849 03c2 0520     		movs	r0, #5
 850 03c4 5021     		movs	r1, #80
 851 03c6 FFF7FEFF 		bl	SetOsdStartAddress
 852              	.LVL32:
 493:VS4210/VX_OSD_Simple.c ****             OsdDumpAttribute(0x50,Str2,_Color);
 853              		.loc 1 493 0
 854 03ca 5020     		movs	r0, #80
 855 03cc 3946     		mov	r1, r7
 856 03ce FFF7FEFF 		bl	OsdDumpString
 857              	.LVL33:
 494:VS4210/VX_OSD_Simple.c ****             SetOsdPosition(_Bar1,ix,iy + 20 + OSDx2Flg*20 );
 858              		.loc 1 494 0
 859 03d2 5020     		movs	r0, #80
 860 03d4 3946     		mov	r1, r7
 861 03d6 0722     		movs	r2, #7
 862 03d8 FFF7FEFF 		bl	OsdDumpAttribute
 863              	.LVL34:
 495:VS4210/VX_OSD_Simple.c ****         }
 864              		.loc 1 495 0
 865 03dc 654B     		ldr	r3, .L93
 866 03de 1A78     		ldrb	r2, [r3]	@ zero_extendqisi2
 867 03e0 02EB8202 		add	r2, r2, r2, lsl #2
 868 03e4 9300     		lsls	r3, r2, #2
 869 03e6 9A44     		add	r10, r10, r3
 870              	.LVL35:
 871 03e8 0AF11402 		add	r2, r10, #20
 872 03ec 0520     		movs	r0, #5
 873 03ee 4946     		mov	r1, r9
 874 03f0 92B2     		uxth	r2, r2
 875 03f2 FFF7FEFF 		bl	SetOsdPosition
 876              	.LVL36:
 877 03f6 77E0     		b	.L53
 878              	.LVL37:
 879              	.L54:
 498:VS4210/VX_OSD_Simple.c ****     {
 880              		.loc 1 498 0
 881 03f8 022D     		cmp	r5, #2
 882 03fa 3AD1     		bne	.L56
 500:VS4210/VX_OSD_Simple.c ****         {
 883              		.loc 1 500 0
 884 03fc BEB1     		cbz	r6, .L57
 502:VS4210/VX_OSD_Simple.c ****             SetOsdStartAddress(_Title1,0x20);
 885              		.loc 1 502 0
 886 03fe 0220     		movs	r0, #2
 887              	.LVL38:
 888 0400 98F80010 		ldrb	r1, [r8]	@ zero_extendqisi2
 889              	.LVL39:
 890 0404 0122     		movs	r2, #1
 891 0406 FFF7FEFF 		bl	SetOsdSize
ARM GAS  /tmp/cc0CX9nZ.s 			page 31


 892              	.LVL40:
 503:VS4210/VX_OSD_Simple.c ****             OsdDumpString(0x20,Str1);
 893              		.loc 1 503 0
 894 040a 0120     		movs	r0, #1
 895 040c 2021     		movs	r1, #32
 896 040e FFF7FEFF 		bl	SetOsdStartAddress
 897              	.LVL41:
 504:VS4210/VX_OSD_Simple.c ****             OsdDumpAttribute(0x20,Str1,_Color);
 898              		.loc 1 504 0
 899 0412 2020     		movs	r0, #32
 900 0414 4146     		mov	r1, r8
 901 0416 FFF7FEFF 		bl	OsdDumpString
 902              	.LVL42:
 505:VS4210/VX_OSD_Simple.c ****             SetOsdPosition(_Title2,ix,iy);
 903              		.loc 1 505 0
 904 041a 2020     		movs	r0, #32
 905 041c 4146     		mov	r1, r8
 906 041e 0722     		movs	r2, #7
 907 0420 FFF7FEFF 		bl	OsdDumpAttribute
 908              	.LVL43:
 506:VS4210/VX_OSD_Simple.c ****         }
 909              		.loc 1 506 0
 910 0424 0220     		movs	r0, #2
 911 0426 4946     		mov	r1, r9
 912 0428 5246     		mov	r2, r10
 913 042a FFF7FEFF 		bl	SetOsdPosition
 914              	.LVL44:
 915              	.L57:
 509:VS4210/VX_OSD_Simple.c ****         {
 916              		.loc 1 509 0
 917 042e 002C     		cmp	r4, #0
 918 0430 5AD0     		beq	.L53
 511:VS4210/VX_OSD_Simple.c ****             SetOsdStartAddress(_Bar2,0x60);
 919              		.loc 1 511 0
 920 0432 0620     		movs	r0, #6
 921 0434 3978     		ldrb	r1, [r7]	@ zero_extendqisi2
 922 0436 0122     		movs	r2, #1
 923 0438 FFF7FEFF 		bl	SetOsdSize
 924              	.LVL45:
 512:VS4210/VX_OSD_Simple.c ****             OsdDumpString(0x60,Str2);
 925              		.loc 1 512 0
 926 043c 0620     		movs	r0, #6
 927 043e 6021     		movs	r1, #96
 928 0440 FFF7FEFF 		bl	SetOsdStartAddress
 929              	.LVL46:
 513:VS4210/VX_OSD_Simple.c ****             OsdDumpAttribute(0x60,Str2,_Color);
 930              		.loc 1 513 0
 931 0444 6020     		movs	r0, #96
 932 0446 3946     		mov	r1, r7
 933 0448 FFF7FEFF 		bl	OsdDumpString
 934              	.LVL47:
 514:VS4210/VX_OSD_Simple.c ****             SetOsdPosition(_Bar2,ix,iy + 20 + OSDx2Flg*20);
 935              		.loc 1 514 0
 936 044c 6020     		movs	r0, #96
 937 044e 3946     		mov	r1, r7
 938 0450 0722     		movs	r2, #7
 939 0452 FFF7FEFF 		bl	OsdDumpAttribute
ARM GAS  /tmp/cc0CX9nZ.s 			page 32


 940              	.LVL48:
 515:VS4210/VX_OSD_Simple.c ****         }
 941              		.loc 1 515 0
 942 0456 474B     		ldr	r3, .L93
 943 0458 1A78     		ldrb	r2, [r3]	@ zero_extendqisi2
 944 045a 02EB8202 		add	r2, r2, r2, lsl #2
 945 045e 9300     		lsls	r3, r2, #2
 946 0460 5344     		add	r3, r3, r10
 947 0462 03F11402 		add	r2, r3, #20
 948 0466 0620     		movs	r0, #6
 949 0468 4946     		mov	r1, r9
 950 046a 92B2     		uxth	r2, r2
 951 046c FFF7FEFF 		bl	SetOsdPosition
 952              	.LVL49:
 953 0470 3AE0     		b	.L53
 954              	.LVL50:
 955              	.L56:
 518:VS4210/VX_OSD_Simple.c ****     {
 956              		.loc 1 518 0
 957 0472 032D     		cmp	r5, #3
 958 0474 38D1     		bne	.L53
 520:VS4210/VX_OSD_Simple.c ****         {
 959              		.loc 1 520 0
 960 0476 BEB1     		cbz	r6, .L58
 522:VS4210/VX_OSD_Simple.c ****             SetOsdStartAddress(_Title3,0x30);
 961              		.loc 1 522 0
 962 0478 0320     		movs	r0, #3
 963              	.LVL51:
 964 047a 98F80010 		ldrb	r1, [r8]	@ zero_extendqisi2
 965              	.LVL52:
 966 047e 0122     		movs	r2, #1
 967 0480 FFF7FEFF 		bl	SetOsdSize
 968              	.LVL53:
 523:VS4210/VX_OSD_Simple.c ****             OsdDumpString(0x30,Str1);
 969              		.loc 1 523 0
 970 0484 0320     		movs	r0, #3
 971 0486 3021     		movs	r1, #48
 972 0488 FFF7FEFF 		bl	SetOsdStartAddress
 973              	.LVL54:
 524:VS4210/VX_OSD_Simple.c ****             OsdDumpAttribute(0x30,Str1,_Color);
 974              		.loc 1 524 0
 975 048c 3020     		movs	r0, #48
 976 048e 4146     		mov	r1, r8
 977 0490 FFF7FEFF 		bl	OsdDumpString
 978              	.LVL55:
 525:VS4210/VX_OSD_Simple.c ****             SetOsdPosition(_Title3,ix,iy);
 979              		.loc 1 525 0
 980 0494 3020     		movs	r0, #48
 981 0496 4146     		mov	r1, r8
 982 0498 0722     		movs	r2, #7
 983 049a FFF7FEFF 		bl	OsdDumpAttribute
 984              	.LVL56:
 526:VS4210/VX_OSD_Simple.c ****         }
 985              		.loc 1 526 0
 986 049e 0320     		movs	r0, #3
 987 04a0 4946     		mov	r1, r9
 988 04a2 5246     		mov	r2, r10
ARM GAS  /tmp/cc0CX9nZ.s 			page 33


 989 04a4 FFF7FEFF 		bl	SetOsdPosition
 990              	.LVL57:
 991              	.L58:
 529:VS4210/VX_OSD_Simple.c ****         {
 992              		.loc 1 529 0
 993 04a8 F4B1     		cbz	r4, .L53
 531:VS4210/VX_OSD_Simple.c ****             SetOsdStartAddress(_Bar3,0x70);
 994              		.loc 1 531 0
 995 04aa 0720     		movs	r0, #7
 996 04ac 3978     		ldrb	r1, [r7]	@ zero_extendqisi2
 997 04ae 0122     		movs	r2, #1
 998 04b0 FFF7FEFF 		bl	SetOsdSize
 999              	.LVL58:
 532:VS4210/VX_OSD_Simple.c ****             OsdDumpString(0x70,Str2);
 1000              		.loc 1 532 0
 1001 04b4 0720     		movs	r0, #7
 1002 04b6 7021     		movs	r1, #112
 1003 04b8 FFF7FEFF 		bl	SetOsdStartAddress
 1004              	.LVL59:
 533:VS4210/VX_OSD_Simple.c ****             OsdDumpAttribute(0x70,Str2,_Color);
 1005              		.loc 1 533 0
 1006 04bc 7020     		movs	r0, #112
 1007 04be 3946     		mov	r1, r7
 1008 04c0 FFF7FEFF 		bl	OsdDumpString
 1009              	.LVL60:
 534:VS4210/VX_OSD_Simple.c ****             SetOsdPosition(_Bar3,ix,iy + 20 + OSDx2Flg*20);
 1010              		.loc 1 534 0
 1011 04c4 7020     		movs	r0, #112
 1012 04c6 3946     		mov	r1, r7
 1013 04c8 0722     		movs	r2, #7
 1014 04ca FFF7FEFF 		bl	OsdDumpAttribute
 1015              	.LVL61:
 535:VS4210/VX_OSD_Simple.c ****         }
 1016              		.loc 1 535 0
 1017 04ce 294B     		ldr	r3, .L93
 1018 04d0 1A78     		ldrb	r2, [r3]	@ zero_extendqisi2
 1019 04d2 02EB8202 		add	r2, r2, r2, lsl #2
 1020 04d6 9300     		lsls	r3, r2, #2
 1021 04d8 5344     		add	r3, r3, r10
 1022 04da 03F11402 		add	r2, r3, #20
 1023 04de 0720     		movs	r0, #7
 1024 04e0 4946     		mov	r1, r9
 1025 04e2 92B2     		uxth	r2, r2
 1026 04e4 FFF7FEFF 		bl	SetOsdPosition
 1027              	.LVL62:
 1028              	.L53:
 539:VS4210/VX_OSD_Simple.c **** 
 1029              		.loc 1 539 0
 1030 04e8 0820     		movs	r0, #8
 1031 04ea FFF7FEFF 		bl	setTransParentIndex
 1032              	.LVL63:
 541:VS4210/VX_OSD_Simple.c ****         {
 1033              		.loc 1 541 0
 1034 04ee 224B     		ldr	r3, .L93+4
 1035 04f0 1B78     		ldrb	r3, [r3]	@ zero_extendqisi2
 1036 04f2 032B     		cmp	r3, #3
 1037 04f4 0ED1     		bne	.L59
ARM GAS  /tmp/cc0CX9nZ.s 			page 34


 543:VS4210/VX_OSD_Simple.c ****                 VXIS_fSetOsdOnOff(ch , _TitleOn | _BottomOn );
 1038              		.loc 1 543 0
 1039 04f6 214B     		ldr	r3, .L93+8
 1040 04f8 1B78     		ldrb	r3, [r3]	@ zero_extendqisi2
 1041 04fa 2BB9     		cbnz	r3, .L60
 544:VS4210/VX_OSD_Simple.c ****             else
 1042              		.loc 1 544 0
 1043 04fc 2846     		mov	r0, r5
 1044 04fe 0521     		movs	r1, #5
 1045 0500 FFF7FEFF 		bl	VXIS_fSetOsdOnOff
 1046              	.LVL64:
 1047 0504 BDE8F087 		pop	{r4, r5, r6, r7, r8, r9, r10, pc}
 1048              	.LVL65:
 1049              	.L60:
 546:VS4210/VX_OSD_Simple.c ****                 //VXIS_fSetOsdOnOff(ch , _ContentOn );
 1050              		.loc 1 546 0
 1051 0508 2846     		mov	r0, r5
 1052 050a 0721     		movs	r1, #7
 1053 050c FFF7FEFF 		bl	VXIS_fSetOsdOnOff
 1054              	.LVL66:
 1055 0510 BDE8F087 		pop	{r4, r5, r6, r7, r8, r9, r10, pc}
 1056              	.LVL67:
 1057              	.L59:
 549:VS4210/VX_OSD_Simple.c ****         {
 1058              		.loc 1 549 0
 1059 0514 76B1     		cbz	r6, .L62
 551:VS4210/VX_OSD_Simple.c ****             {
 1060              		.loc 1 551 0
 1061 0516 194B     		ldr	r3, .L93+8
 1062 0518 1B78     		ldrb	r3, [r3]	@ zero_extendqisi2
 1063 051a 2BB9     		cbnz	r3, .L63
 553:VS4210/VX_OSD_Simple.c ****             }
 1064              		.loc 1 553 0
 1065 051c 2846     		mov	r0, r5
 1066 051e 0421     		movs	r1, #4
 1067 0520 FFF7FEFF 		bl	VXIS_fSetOsdOnOff
 1068              	.LVL68:
 1069 0524 BDE8F087 		pop	{r4, r5, r6, r7, r8, r9, r10, pc}
 1070              	.LVL69:
 1071              	.L63:
 557:VS4210/VX_OSD_Simple.c ****             }
 1072              		.loc 1 557 0
 1073 0528 2846     		mov	r0, r5
 1074 052a 0221     		movs	r1, #2
 1075 052c FFF7FEFF 		bl	VXIS_fSetOsdOnOff
 1076              	.LVL70:
 1077 0530 BDE8F087 		pop	{r4, r5, r6, r7, r8, r9, r10, pc}
 1078              	.LVL71:
 1079              	.L62:
 560:VS4210/VX_OSD_Simple.c ****         {
 1080              		.loc 1 560 0
 1081 0534 74B1     		cbz	r4, .L64
 562:VS4210/VX_OSD_Simple.c ****             {
 1082              		.loc 1 562 0
 1083 0536 114B     		ldr	r3, .L93+8
 1084 0538 1B78     		ldrb	r3, [r3]	@ zero_extendqisi2
 1085 053a 2BB9     		cbnz	r3, .L65
ARM GAS  /tmp/cc0CX9nZ.s 			page 35


 564:VS4210/VX_OSD_Simple.c ****             }
 1086              		.loc 1 564 0
 1087 053c 2846     		mov	r0, r5
 1088 053e 0121     		movs	r1, #1
 1089 0540 FFF7FEFF 		bl	VXIS_fSetOsdOnOff
 1090              	.LVL72:
 1091 0544 BDE8F087 		pop	{r4, r5, r6, r7, r8, r9, r10, pc}
 1092              	.LVL73:
 1093              	.L65:
 568:VS4210/VX_OSD_Simple.c ****             }
 1094              		.loc 1 568 0
 1095 0548 2846     		mov	r0, r5
 1096 054a 0221     		movs	r1, #2
 1097 054c FFF7FEFF 		bl	VXIS_fSetOsdOnOff
 1098              	.LVL74:
 1099 0550 BDE8F087 		pop	{r4, r5, r6, r7, r8, r9, r10, pc}
 1100              	.LVL75:
 1101              	.L64:
 573:VS4210/VX_OSD_Simple.c ****             {
 1102              		.loc 1 573 0
 1103 0554 094B     		ldr	r3, .L93+8
 1104 0556 1B78     		ldrb	r3, [r3]	@ zero_extendqisi2
 1105 0558 2BB9     		cbnz	r3, .L66
 575:VS4210/VX_OSD_Simple.c ****             }
 1106              		.loc 1 575 0
 1107 055a 2846     		mov	r0, r5
 1108 055c 0021     		movs	r1, #0
 1109 055e FFF7FEFF 		bl	VXIS_fSetOsdOnOff
 1110              	.LVL76:
 1111 0562 BDE8F087 		pop	{r4, r5, r6, r7, r8, r9, r10, pc}
 1112              	.LVL77:
 1113              	.L66:
 578:VS4210/VX_OSD_Simple.c ****             }
 1114              		.loc 1 578 0
 1115 0566 2846     		mov	r0, r5
 1116 0568 0221     		movs	r1, #2
 1117 056a FFF7FEFF 		bl	VXIS_fSetOsdOnOff
 1118              	.LVL78:
 1119 056e BDE8F087 		pop	{r4, r5, r6, r7, r8, r9, r10, pc}
 1120              	.LVL79:
 1121              	.L94:
 1122 0572 00BF     		.align	2
 1123              	.L93:
 1124 0574 00000000 		.word	OSDx2Flg
 1125 0578 00000000 		.word	u8gDrawOSDFlg
 1126 057c 00000000 		.word	MenuOSDonFlg
 1127              		.cfi_endproc
 1128              	.LFE65:
 1130              		.section	.text.VXIS_fShowInOutMode,"ax",%progbits
 1131              		.align	2
 1132              		.global	VXIS_fShowInOutMode
 1133              		.thumb
 1134              		.thumb_func
 1136              	VXIS_fShowInOutMode:
 1137              	.LFB67:
 656:VS4210/VX_OSD_Simple.c ****         break;
 657:VS4210/VX_OSD_Simple.c ****     }    
ARM GAS  /tmp/cc0CX9nZ.s 			page 36


 658:VS4210/VX_OSD_Simple.c **** }
 659:VS4210/VX_OSD_Simple.c **** 
 660:VS4210/VX_OSD_Simple.c **** /**
 661:VS4210/VX_OSD_Simple.c ****  * @brief Input resolution
 662:VS4210/VX_OSD_Simple.c ****  *
 663:VS4210/VX_OSD_Simple.c ****  * Input resolution on the screen display
 664:VS4210/VX_OSD_Simple.c ****  *
 665:VS4210/VX_OSD_Simple.c ****  * @param in_mode Input resolution
 666:VS4210/VX_OSD_Simple.c ****  * @param out_mode Output resolution
 667:VS4210/VX_OSD_Simple.c ****  * @return none
 668:VS4210/VX_OSD_Simple.c ****  */
 669:VS4210/VX_OSD_Simple.c **** void VXIS_fShowInOutMode( tByte ch ,  tByte in_mode,  tByte out_mode  )
 670:VS4210/VX_OSD_Simple.c **** {
 1138              		.loc 1 670 0
 1139              		.cfi_startproc
 1140              		@ args = 0, pretend = 0, frame = 24
 1141              		@ frame_needed = 0, uses_anonymous_args = 0
 1142              	.LVL80:
 1143 0000 70B5     		push	{r4, r5, r6, lr}
 1144              	.LCFI1:
 1145              		.cfi_def_cfa_offset 16
 1146              		.cfi_offset 4, -16
 1147              		.cfi_offset 5, -12
 1148              		.cfi_offset 6, -8
 1149              		.cfi_offset 14, -4
 1150 0002 86B0     		sub	sp, sp, #24
 1151              	.LCFI2:
 1152              		.cfi_def_cfa_offset 40
 1153 0004 0546     		mov	r5, r0
 1154 0006 0E46     		mov	r6, r1
 1155 0008 1446     		mov	r4, r2
 671:VS4210/VX_OSD_Simple.c ****     tcByte *ptr1 ;    
 672:VS4210/VX_OSD_Simple.c ****     tByte  OSD_CHx_param[7] ;
 673:VS4210/VX_OSD_Simple.c ****     tByte  pu8aOSDbar[11] ; 
 674:VS4210/VX_OSD_Simple.c ****     tByte chFix ;
 675:VS4210/VX_OSD_Simple.c **** 
 676:VS4210/VX_OSD_Simple.c ****     chFix = gaHDMI_MapWindowIndex[ch] ;
 1156              		.loc 1 676 0
 1157 000a 294B     		ldr	r3, .L109
 1158 000c 1A5C     		ldrb	r2, [r3, r0]	@ zero_extendqisi2
 1159              	.LVL81:
 677:VS4210/VX_OSD_Simple.c ****     ptr1 = &OSD_CH1_param[0] ;
 678:VS4210/VX_OSD_Simple.c **** 
 679:VS4210/VX_OSD_Simple.c ****     if (out_mode == VS4210_1080P_MODE0_w1 )
 1160              		.loc 1 679 0
 1161 000e 012C     		cmp	r4, #1
 1162 0010 03D1     		bne	.L96
 680:VS4210/VX_OSD_Simple.c ****     {
 681:VS4210/VX_OSD_Simple.c ****         if (ch == 1 )
 1163              		.loc 1 681 0
 1164 0012 0128     		cmp	r0, #1
 1165 0014 14D0     		beq	.L102
 677:VS4210/VX_OSD_Simple.c ****     ptr1 = &OSD_CH1_param[0] ;
 1166              		.loc 1 677 0
 1167 0016 274B     		ldr	r3, .L109+4
 1168 0018 20E0     		b	.L97
 1169              	.L96:
ARM GAS  /tmp/cc0CX9nZ.s 			page 37


 682:VS4210/VX_OSD_Simple.c ****         {
 683:VS4210/VX_OSD_Simple.c ****             ptr1 = OSD_CH1_param ;
 684:VS4210/VX_OSD_Simple.c ****             chFix = 0 ;
 685:VS4210/VX_OSD_Simple.c ****         }
 686:VS4210/VX_OSD_Simple.c ****     }
 687:VS4210/VX_OSD_Simple.c ****     else if (out_mode == VS4210_1080P_MODE0_w2 )
 1170              		.loc 1 687 0
 1171 001a 022C     		cmp	r4, #2
 1172 001c 03D1     		bne	.L98
 688:VS4210/VX_OSD_Simple.c ****     {
 689:VS4210/VX_OSD_Simple.c ****         if (ch == 2 )
 1173              		.loc 1 689 0
 1174 001e 0228     		cmp	r0, #2
 1175 0020 11D0     		beq	.L103
 677:VS4210/VX_OSD_Simple.c **** 
 1176              		.loc 1 677 0
 1177 0022 244B     		ldr	r3, .L109+4
 1178 0024 1AE0     		b	.L97
 1179              	.L98:
 690:VS4210/VX_OSD_Simple.c ****         {
 691:VS4210/VX_OSD_Simple.c ****             ptr1 = OSD_CH2_param ;
 692:VS4210/VX_OSD_Simple.c ****             chFix = 0 ;
 693:VS4210/VX_OSD_Simple.c ****         }
 694:VS4210/VX_OSD_Simple.c ****     }
 695:VS4210/VX_OSD_Simple.c ****     else if (out_mode == VS4210_1080P_MODE0_w3 )
 1180              		.loc 1 695 0
 1181 0026 032C     		cmp	r4, #3
 1182 0028 03D1     		bne	.L99
 696:VS4210/VX_OSD_Simple.c ****     {
 697:VS4210/VX_OSD_Simple.c ****         if (ch == 3 )
 1183              		.loc 1 697 0
 1184 002a 0328     		cmp	r0, #3
 1185 002c 0ED0     		beq	.L104
 677:VS4210/VX_OSD_Simple.c **** 
 1186              		.loc 1 677 0
 1187 002e 214B     		ldr	r3, .L109+4
 1188 0030 14E0     		b	.L97
 1189              	.L99:
 698:VS4210/VX_OSD_Simple.c ****         {
 699:VS4210/VX_OSD_Simple.c ****             ptr1 = OSD_CH3_param ;
 700:VS4210/VX_OSD_Simple.c ****             chFix = 0 ;
 701:VS4210/VX_OSD_Simple.c ****         }
 702:VS4210/VX_OSD_Simple.c ****     }
 703:VS4210/VX_OSD_Simple.c ****     else
 704:VS4210/VX_OSD_Simple.c ****     {
 705:VS4210/VX_OSD_Simple.c ****         if (chFix == 0 )
 1190              		.loc 1 705 0
 1191 0032 72B1     		cbz	r2, .L105
 706:VS4210/VX_OSD_Simple.c ****         {
 707:VS4210/VX_OSD_Simple.c ****             ptr1 = OSD_CH0_param ;
 708:VS4210/VX_OSD_Simple.c ****         }
 709:VS4210/VX_OSD_Simple.c ****         else  	if (chFix == 1 )
 1192              		.loc 1 709 0
 1193 0034 012A     		cmp	r2, #1
 1194 0036 0ED0     		beq	.L106
 710:VS4210/VX_OSD_Simple.c ****         {
 711:VS4210/VX_OSD_Simple.c ****             ptr1 = OSD_CH1_param ;
ARM GAS  /tmp/cc0CX9nZ.s 			page 38


 712:VS4210/VX_OSD_Simple.c ****         }
 713:VS4210/VX_OSD_Simple.c ****         else  	if (chFix == 2 )
 1195              		.loc 1 713 0
 1196 0038 022A     		cmp	r2, #2
 1197 003a 0ED1     		bne	.L107
 714:VS4210/VX_OSD_Simple.c ****         {
 715:VS4210/VX_OSD_Simple.c ****             ptr1 = OSD_CH2_param ;
 1198              		.loc 1 715 0
 1199 003c 1E4B     		ldr	r3, .L109+8
 1200 003e 0DE0     		b	.L97
 1201              	.L102:
 684:VS4210/VX_OSD_Simple.c ****         }
 1202              		.loc 1 684 0
 1203 0040 0022     		movs	r2, #0
 1204              	.LVL82:
 683:VS4210/VX_OSD_Simple.c ****             chFix = 0 ;
 1205              		.loc 1 683 0
 1206 0042 1C4B     		ldr	r3, .L109+4
 1207              	.LVL83:
 1208 0044 0AE0     		b	.L97
 1209              	.LVL84:
 1210              	.L103:
 692:VS4210/VX_OSD_Simple.c ****         }
 1211              		.loc 1 692 0
 1212 0046 0022     		movs	r2, #0
 1213              	.LVL85:
 691:VS4210/VX_OSD_Simple.c ****             chFix = 0 ;
 1214              		.loc 1 691 0
 1215 0048 1B4B     		ldr	r3, .L109+8
 1216              	.LVL86:
 1217 004a 07E0     		b	.L97
 1218              	.LVL87:
 1219              	.L104:
 700:VS4210/VX_OSD_Simple.c ****         }
 1220              		.loc 1 700 0
 1221 004c 0022     		movs	r2, #0
 1222              	.LVL88:
 699:VS4210/VX_OSD_Simple.c ****             chFix = 0 ;
 1223              		.loc 1 699 0
 1224 004e 1B4B     		ldr	r3, .L109+12
 1225              	.LVL89:
 1226 0050 04E0     		b	.L97
 1227              	.LVL90:
 1228              	.L105:
 707:VS4210/VX_OSD_Simple.c ****         }
 1229              		.loc 1 707 0
 1230 0052 1B4B     		ldr	r3, .L109+16
 1231 0054 02E0     		b	.L97
 1232              	.L106:
 711:VS4210/VX_OSD_Simple.c ****         }
 1233              		.loc 1 711 0
 1234 0056 174B     		ldr	r3, .L109+4
 1235 0058 00E0     		b	.L97
 1236              	.L107:
 716:VS4210/VX_OSD_Simple.c ****         }
 717:VS4210/VX_OSD_Simple.c ****         else
 718:VS4210/VX_OSD_Simple.c ****         {
ARM GAS  /tmp/cc0CX9nZ.s 			page 39


 719:VS4210/VX_OSD_Simple.c ****             ptr1 = OSD_CH3_param ;
 1237              		.loc 1 719 0
 1238 005a 184B     		ldr	r3, .L109+12
 1239              	.LVL91:
 1240              	.L97:
 720:VS4210/VX_OSD_Simple.c ****         }
 721:VS4210/VX_OSD_Simple.c ****     }
 722:VS4210/VX_OSD_Simple.c **** 
 723:VS4210/VX_OSD_Simple.c ****    if (gu8AudioMode == chFix  )
 1241              		.loc 1 723 0
 1242 005c 1949     		ldr	r1, .L109+20
 1243              	.LVL92:
 1244 005e 0978     		ldrb	r1, [r1]	@ zero_extendqisi2
 1245 0060 9142     		cmp	r1, r2
 1246 0062 08D1     		bne	.L100
 724:VS4210/VX_OSD_Simple.c ****     {
 725:VS4210/VX_OSD_Simple.c ****         memcpy(OSD_CHx_param , ptr1 , 6 ) ;
 1247              		.loc 1 725 0
 1248 0064 93E80300 		ldmia	r3, {r0, r1}
 1249              	.LVL93:
 1250 0068 0490     		str	r0, [sp, #16]
 1251 006a ADF81410 		strh	r1, [sp, #20]	@ movhi
 726:VS4210/VX_OSD_Simple.c **** 	OSD_CHx_param[6] =	0x6C ;
 1252              		.loc 1 726 0
 1253 006e 6C23     		movs	r3, #108
 1254              	.LVL94:
 1255 0070 8DF81630 		strb	r3, [sp, #22]
 1256 0074 07E0     		b	.L101
 1257              	.LVL95:
 1258              	.L100:
 727:VS4210/VX_OSD_Simple.c ****     }
 728:VS4210/VX_OSD_Simple.c ****     else
 729:VS4210/VX_OSD_Simple.c ****     {
 730:VS4210/VX_OSD_Simple.c ****         memcpy(OSD_CHx_param , ptr1 , 7 ) ;
 1259              		.loc 1 730 0
 1260 0076 93E80300 		ldmia	r3, {r0, r1}
 1261              	.LVL96:
 1262 007a 0490     		str	r0, [sp, #16]
 1263 007c ADF81410 		strh	r1, [sp, #20]	@ movhi
 1264 0080 090C     		lsrs	r1, r1, #16
 1265 0082 8DF81610 		strb	r1, [sp, #22]
 1266              	.LVL97:
 1267              	.L101:
 731:VS4210/VX_OSD_Simple.c ****     }
 732:VS4210/VX_OSD_Simple.c ****     
 733:VS4210/VX_OSD_Simple.c ****     GetconvertBarStr(in_mode ) ; 
 1268              		.loc 1 733 0
 1269 0086 3046     		mov	r0, r6
 1270 0088 FFF7FEFF 		bl	GetconvertBarStr
 1271              	.LVL98:
 734:VS4210/VX_OSD_Simple.c ****     memcpy(pu8aOSDbar , ptcOSDbar , 11) ; 
 1272              		.loc 1 734 0
 1273 008c 0E4B     		ldr	r3, .L109+24
 1274 008e 1A68     		ldr	r2, [r3]
 1275 0090 01AB     		add	r3, sp, #4
 1276 0092 1068     		ldr	r0, [r2]	@ unaligned
 1277 0094 5168     		ldr	r1, [r2, #4]	@ unaligned
ARM GAS  /tmp/cc0CX9nZ.s 			page 40


 1278 0096 03C3     		stmia	r3!, {r0, r1}
 1279 0098 1189     		ldrh	r1, [r2, #8]	@ unaligned
 1280 009a 927A     		ldrb	r2, [r2, #10]	@ zero_extendqisi2
 1281 009c 1980     		strh	r1, [r3]	@ unaligned
 1282 009e 9A70     		strb	r2, [r3, #2]
 735:VS4210/VX_OSD_Simple.c ****     VX_Write_OSD_In_OutString(ch , OSD_CHx_param, pu8aOSDbar ,out_mode) ;    
 1283              		.loc 1 735 0
 1284 00a0 2846     		mov	r0, r5
 1285 00a2 04A9     		add	r1, sp, #16
 1286 00a4 01AA     		add	r2, sp, #4
 1287 00a6 2346     		mov	r3, r4
 1288 00a8 FFF7FEFF 		bl	VX_Write_OSD_In_OutString
 1289              	.LVL99:
 736:VS4210/VX_OSD_Simple.c **** }
 1290              		.loc 1 736 0
 1291 00ac 06B0     		add	sp, sp, #24
 1292              	.LCFI3:
 1293              		.cfi_def_cfa_offset 16
 1294              		@ sp needed
 1295 00ae 70BD     		pop	{r4, r5, r6, pc}
 1296              	.L110:
 1297              		.align	2
 1298              	.L109:
 1299 00b0 00000000 		.word	gaHDMI_MapWindowIndex
 1300 00b4 00000000 		.word	.LANCHOR20
 1301 00b8 00000000 		.word	.LANCHOR21
 1302 00bc 00000000 		.word	.LANCHOR22
 1303 00c0 00000000 		.word	.LANCHOR23
 1304 00c4 00000000 		.word	gu8AudioMode
 1305 00c8 00000000 		.word	ptcOSDbar
 1306              		.cfi_endproc
 1307              	.LFE67:
 1309              		.section	.text.VXIS_fShowInOutMode0Fast,"ax",%progbits
 1310              		.align	2
 1311              		.global	VXIS_fShowInOutMode0Fast
 1312              		.thumb
 1313              		.thumb_func
 1315              	VXIS_fShowInOutMode0Fast:
 1316              	.LFB68:
 737:VS4210/VX_OSD_Simple.c **** 
 738:VS4210/VX_OSD_Simple.c **** 
 739:VS4210/VX_OSD_Simple.c **** 
 740:VS4210/VX_OSD_Simple.c **** void VXIS_fShowInOutMode0Fast( tByte ch ,  tByte in_mode,  tByte out_mode  )
 741:VS4210/VX_OSD_Simple.c **** {
 1317              		.loc 1 741 0
 1318              		.cfi_startproc
 1319              		@ args = 0, pretend = 0, frame = 24
 1320              		@ frame_needed = 0, uses_anonymous_args = 0
 1321              	.LVL100:
 1322 0000 30B5     		push	{r4, r5, lr}
 1323              	.LCFI4:
 1324              		.cfi_def_cfa_offset 12
 1325              		.cfi_offset 4, -12
 1326              		.cfi_offset 5, -8
 1327              		.cfi_offset 14, -4
 1328 0002 87B0     		sub	sp, sp, #28
 1329              	.LCFI5:
ARM GAS  /tmp/cc0CX9nZ.s 			page 41


 1330              		.cfi_def_cfa_offset 40
 1331 0004 0D46     		mov	r5, r1
 1332 0006 1446     		mov	r4, r2
 742:VS4210/VX_OSD_Simple.c ****     tcByte *ptr1 ;
 743:VS4210/VX_OSD_Simple.c ****     tByte  OSD_CHx_param[7] ;
 744:VS4210/VX_OSD_Simple.c ****     tByte  pu8aOSDbar[11] ; 
 745:VS4210/VX_OSD_Simple.c ****     tByte  chFix ;
 746:VS4210/VX_OSD_Simple.c **** 
 747:VS4210/VX_OSD_Simple.c ****     if (ch == 0 )
 1333              		.loc 1 747 0
 1334 0008 28B1     		cbz	r0, .L113
 748:VS4210/VX_OSD_Simple.c ****     {
 749:VS4210/VX_OSD_Simple.c ****         ptr1 = OSD_CH0_param ;
 750:VS4210/VX_OSD_Simple.c ****     }
 751:VS4210/VX_OSD_Simple.c ****     else if (ch == 1 )
 1335              		.loc 1 751 0
 1336 000a 0128     		cmp	r0, #1
 1337 000c 05D0     		beq	.L114
 752:VS4210/VX_OSD_Simple.c ****     {
 753:VS4210/VX_OSD_Simple.c ****         ptr1 = OSD_CH1_param ;
 754:VS4210/VX_OSD_Simple.c ****     }
 755:VS4210/VX_OSD_Simple.c ****     else if (ch == 2 )
 1338              		.loc 1 755 0
 1339 000e 0228     		cmp	r0, #2
 1340 0010 05D1     		bne	.L115
 756:VS4210/VX_OSD_Simple.c ****     {
 757:VS4210/VX_OSD_Simple.c ****         ptr1 = OSD_CH2_param ;
 1341              		.loc 1 757 0
 1342 0012 124B     		ldr	r3, .L117
 1343 0014 04E0     		b	.L112
 1344              	.L113:
 749:VS4210/VX_OSD_Simple.c ****     }
 1345              		.loc 1 749 0
 1346 0016 124B     		ldr	r3, .L117+4
 1347 0018 02E0     		b	.L112
 1348              	.L114:
 753:VS4210/VX_OSD_Simple.c ****     }
 1349              		.loc 1 753 0
 1350 001a 124B     		ldr	r3, .L117+8
 1351 001c 00E0     		b	.L112
 1352              	.L115:
 758:VS4210/VX_OSD_Simple.c ****     }
 759:VS4210/VX_OSD_Simple.c ****     else
 760:VS4210/VX_OSD_Simple.c ****     {
 761:VS4210/VX_OSD_Simple.c ****         ptr1 = OSD_CH3_param ;
 1353              		.loc 1 761 0
 1354 001e 124B     		ldr	r3, .L117+12
 1355              	.L112:
 1356              	.LVL101:
 762:VS4210/VX_OSD_Simple.c ****     }
 763:VS4210/VX_OSD_Simple.c **** 
 764:VS4210/VX_OSD_Simple.c ****    if(1)//ryan@20201229   if (gu8AudioMode == ch )
 765:VS4210/VX_OSD_Simple.c ****     {
 766:VS4210/VX_OSD_Simple.c ****         memcpy(OSD_CHx_param , ptr1 , 6 ) ;        
 1357              		.loc 1 766 0
 1358 0020 93E80300 		ldmia	r3, {r0, r1}
 1359              	.LVL102:
ARM GAS  /tmp/cc0CX9nZ.s 			page 42


 1360 0024 0490     		str	r0, [sp, #16]
 1361 0026 ADF81410 		strh	r1, [sp, #20]	@ movhi
 767:VS4210/VX_OSD_Simple.c ****         OSD_CHx_param[6] =  0x6C ;
 1362              		.loc 1 767 0
 1363 002a 6C23     		movs	r3, #108
 1364              	.LVL103:
 1365 002c 8DF81630 		strb	r3, [sp, #22]
 1366              	.LVL104:
 768:VS4210/VX_OSD_Simple.c ****     }
 769:VS4210/VX_OSD_Simple.c ****     else
 770:VS4210/VX_OSD_Simple.c ****     {
 771:VS4210/VX_OSD_Simple.c ****         memcpy(OSD_CHx_param , ptr1 , 7 ) ;
 772:VS4210/VX_OSD_Simple.c ****     }
 773:VS4210/VX_OSD_Simple.c **** 
 774:VS4210/VX_OSD_Simple.c ****     chFix = 0  ;    
 775:VS4210/VX_OSD_Simple.c ****     GetconvertBarStr(in_mode ) ;     
 1367              		.loc 1 775 0
 1368 0030 2846     		mov	r0, r5
 1369 0032 FFF7FEFF 		bl	GetconvertBarStr
 1370              	.LVL105:
 776:VS4210/VX_OSD_Simple.c ****     memcpy(pu8aOSDbar , ptcOSDbar , 11) ; 
 1371              		.loc 1 776 0
 1372 0036 0D4B     		ldr	r3, .L117+16
 1373 0038 1A68     		ldr	r2, [r3]
 1374 003a 01AB     		add	r3, sp, #4
 1375 003c 1068     		ldr	r0, [r2]	@ unaligned
 1376 003e 5168     		ldr	r1, [r2, #4]	@ unaligned
 1377 0040 03C3     		stmia	r3!, {r0, r1}
 1378 0042 1189     		ldrh	r1, [r2, #8]	@ unaligned
 1379 0044 927A     		ldrb	r2, [r2, #10]	@ zero_extendqisi2
 1380 0046 1980     		strh	r1, [r3]	@ unaligned
 1381 0048 9A70     		strb	r2, [r3, #2]
 777:VS4210/VX_OSD_Simple.c ****     VX_Write_OSD_In_OutString(chFix , OSD_CHx_param, pu8aOSDbar ,out_mode) ;
 1382              		.loc 1 777 0
 1383 004a 0020     		movs	r0, #0
 1384 004c 04A9     		add	r1, sp, #16
 1385 004e 01AA     		add	r2, sp, #4
 1386 0050 2346     		mov	r3, r4
 1387 0052 FFF7FEFF 		bl	VX_Write_OSD_In_OutString
 1388              	.LVL106:
 778:VS4210/VX_OSD_Simple.c **** 
 779:VS4210/VX_OSD_Simple.c **** }
 1389              		.loc 1 779 0
 1390 0056 07B0     		add	sp, sp, #28
 1391              	.LCFI6:
 1392              		.cfi_def_cfa_offset 12
 1393              		@ sp needed
 1394 0058 30BD     		pop	{r4, r5, pc}
 1395              	.L118:
 1396 005a 00BF     		.align	2
 1397              	.L117:
 1398 005c 00000000 		.word	.LANCHOR21
 1399 0060 00000000 		.word	.LANCHOR23
 1400 0064 00000000 		.word	.LANCHOR20
 1401 0068 00000000 		.word	.LANCHOR22
 1402 006c 00000000 		.word	ptcOSDbar
 1403              		.cfi_endproc
ARM GAS  /tmp/cc0CX9nZ.s 			page 43


 1404              	.LFE68:
 1406              		.section	.text.OSD_Clear,"ax",%progbits
 1407              		.align	2
 1408              		.global	OSD_Clear
 1409              		.thumb
 1410              		.thumb_func
 1412              	OSD_Clear:
 1413              	.LFB69:
 780:VS4210/VX_OSD_Simple.c **** 
 781:VS4210/VX_OSD_Simple.c **** void OSD_Clear(tByte Win )
 782:VS4210/VX_OSD_Simple.c **** {
 1414              		.loc 1 782 0
 1415              		.cfi_startproc
 1416              		@ args = 0, pretend = 0, frame = 0
 1417              		@ frame_needed = 0, uses_anonymous_args = 0
 1418              	.LVL107:
 1419 0000 70B5     		push	{r4, r5, r6, lr}
 1420              	.LCFI7:
 1421              		.cfi_def_cfa_offset 16
 1422              		.cfi_offset 4, -16
 1423              		.cfi_offset 5, -12
 1424              		.cfi_offset 6, -8
 1425              		.cfi_offset 14, -4
 783:VS4210/VX_OSD_Simple.c ****     tByte temp53;
 784:VS4210/VX_OSD_Simple.c ****     tByte temp5E ;
 785:VS4210/VX_OSD_Simple.c ****     tByte temp2 ;
 786:VS4210/VX_OSD_Simple.c ****     tByte temp ;
 787:VS4210/VX_OSD_Simple.c **** 
 788:VS4210/VX_OSD_Simple.c ****     if (Win == 0 )
 1426              		.loc 1 788 0
 1427 0002 48B9     		cbnz	r0, .L120
 789:VS4210/VX_OSD_Simple.c ****     {
 790:VS4210/VX_OSD_Simple.c ****         SetOsdSize(_Title0,0,1);
 1428              		.loc 1 790 0
 1429 0004 0146     		mov	r1, r0
 1430 0006 0122     		movs	r2, #1
 1431 0008 FFF7FEFF 		bl	SetOsdSize
 1432              	.LVL108:
 791:VS4210/VX_OSD_Simple.c ****         SetOsdSize(_Bar0,0,1);
 1433              		.loc 1 791 0
 1434 000c 0420     		movs	r0, #4
 1435 000e 0021     		movs	r1, #0
 1436 0010 0122     		movs	r2, #1
 1437 0012 FFF7FEFF 		bl	SetOsdSize
 1438              	.LVL109:
 1439 0016 70BD     		pop	{r4, r5, r6, pc}
 1440              	.LVL110:
 1441              	.L120:
 1442 0018 0446     		mov	r4, r0
 792:VS4210/VX_OSD_Simple.c ****     }
 793:VS4210/VX_OSD_Simple.c ****     else
 794:VS4210/VX_OSD_Simple.c ****     {
 795:VS4210/VX_OSD_Simple.c ****         temp2 = VXISI2CRead(0x53);
 1443              		.loc 1 795 0
 1444 001a 5320     		movs	r0, #83
 1445              	.LVL111:
 1446 001c FFF7FEFF 		bl	VXISI2CRead
ARM GAS  /tmp/cc0CX9nZ.s 			page 44


 1447              	.LVL112:
 796:VS4210/VX_OSD_Simple.c ****         temp53 = temp2 & 0x3f ;
 1448              		.loc 1 796 0
 1449 0020 00F03F06 		and	r6, r0, #63
 1450              	.LVL113:
 797:VS4210/VX_OSD_Simple.c ****         temp2 = VXISI2CRead(0x5E);
 1451              		.loc 1 797 0
 1452 0024 5E20     		movs	r0, #94
 1453              	.LVL114:
 1454 0026 FFF7FEFF 		bl	VXISI2CRead
 1455              	.LVL115:
 798:VS4210/VX_OSD_Simple.c ****         temp5E = temp2 & 0x3f ;
 1456              		.loc 1 798 0
 1457 002a 00F03F05 		and	r5, r0, #63
 1458              	.LVL116:
 799:VS4210/VX_OSD_Simple.c **** 
 800:VS4210/VX_OSD_Simple.c ****         if (Win == 1 )
 1459              		.loc 1 800 0
 1460 002e 012C     		cmp	r4, #1
 1461 0030 0AD1     		bne	.L122
 801:VS4210/VX_OSD_Simple.c ****         {
 802:VS4210/VX_OSD_Simple.c ****             VXISI2CWrite(0x53,0x40|temp53 );
 1462              		.loc 1 802 0
 1463 0032 5320     		movs	r0, #83
 1464              	.LVL117:
 1465 0034 46F04001 		orr	r1, r6, #64
 1466 0038 FFF7FEFF 		bl	VXISI2CWrite
 1467              	.LVL118:
 803:VS4210/VX_OSD_Simple.c ****             VXISI2CWrite(0x5E,0x40|temp5E );
 1468              		.loc 1 803 0
 1469 003c 5E20     		movs	r0, #94
 1470 003e 45F04001 		orr	r1, r5, #64
 1471 0042 FFF7FEFF 		bl	VXISI2CWrite
 1472              	.LVL119:
 1473 0046 18E0     		b	.L123
 1474              	.LVL120:
 1475              	.L122:
 804:VS4210/VX_OSD_Simple.c ****         }
 805:VS4210/VX_OSD_Simple.c ****         else if (Win == 2 )
 1476              		.loc 1 805 0
 1477 0048 022C     		cmp	r4, #2
 1478 004a 0AD1     		bne	.L124
 806:VS4210/VX_OSD_Simple.c ****         {
 807:VS4210/VX_OSD_Simple.c ****             VXISI2CWrite(0x53,0x80|temp53 );
 1479              		.loc 1 807 0
 1480 004c 5320     		movs	r0, #83
 1481              	.LVL121:
 1482 004e 46F08001 		orr	r1, r6, #128
 1483 0052 FFF7FEFF 		bl	VXISI2CWrite
 1484              	.LVL122:
 808:VS4210/VX_OSD_Simple.c ****             VXISI2CWrite(0x5E,0x80|temp5E );
 1485              		.loc 1 808 0
 1486 0056 5E20     		movs	r0, #94
 1487 0058 45F08001 		orr	r1, r5, #128
 1488 005c FFF7FEFF 		bl	VXISI2CWrite
 1489              	.LVL123:
 1490 0060 0BE0     		b	.L123
ARM GAS  /tmp/cc0CX9nZ.s 			page 45


 1491              	.LVL124:
 1492              	.L124:
 809:VS4210/VX_OSD_Simple.c ****         }
 810:VS4210/VX_OSD_Simple.c ****         else if (Win == 3 )
 1493              		.loc 1 810 0
 1494 0062 032C     		cmp	r4, #3
 1495 0064 09D1     		bne	.L123
 811:VS4210/VX_OSD_Simple.c ****         {
 812:VS4210/VX_OSD_Simple.c ****             VXISI2CWrite(0x53,0xC0|temp53 );
 1496              		.loc 1 812 0
 1497 0066 5320     		movs	r0, #83
 1498              	.LVL125:
 1499 0068 46F0C001 		orr	r1, r6, #192
 1500 006c FFF7FEFF 		bl	VXISI2CWrite
 1501              	.LVL126:
 813:VS4210/VX_OSD_Simple.c ****             VXISI2CWrite(0x5E,0xC0|temp5E );
 1502              		.loc 1 813 0
 1503 0070 5E20     		movs	r0, #94
 1504 0072 45F0C001 		orr	r1, r5, #192
 1505 0076 FFF7FEFF 		bl	VXISI2CWrite
 1506              	.LVL127:
 1507              	.L123:
 814:VS4210/VX_OSD_Simple.c ****         }
 815:VS4210/VX_OSD_Simple.c **** 
 816:VS4210/VX_OSD_Simple.c ****         temp=VXISI2CRead(0x51);
 1508              		.loc 1 816 0
 1509 007a 5120     		movs	r0, #81
 1510 007c FFF7FEFF 		bl	VXISI2CRead
 1511              	.LVL128:
 817:VS4210/VX_OSD_Simple.c ****         temp=temp& 0x8 ;
 1512              		.loc 1 817 0
 1513 0080 00F00800 		and	r0, r0, #8
 1514              	.LVL129:
 1515 0084 C1B2     		uxtb	r1, r0
 1516              	.LVL130:
 818:VS4210/VX_OSD_Simple.c **** 
 819:VS4210/VX_OSD_Simple.c ****         if (MenuOSDonFlg == 0 )
 1517              		.loc 1 819 0
 1518 0086 064B     		ldr	r3, .L127
 1519 0088 1B78     		ldrb	r3, [r3]	@ zero_extendqisi2
 1520 008a 1BB9     		cbnz	r3, .L125
 820:VS4210/VX_OSD_Simple.c ****         {
 821:VS4210/VX_OSD_Simple.c ****             VXISI2CWrite(0x51,0x00 | temp );
 1521              		.loc 1 821 0
 1522 008c 5120     		movs	r0, #81
 1523 008e FFF7FEFF 		bl	VXISI2CWrite
 1524              	.LVL131:
 1525 0092 70BD     		pop	{r4, r5, r6, pc}
 1526              	.LVL132:
 1527              	.L125:
 822:VS4210/VX_OSD_Simple.c ****         }
 823:VS4210/VX_OSD_Simple.c ****         else
 824:VS4210/VX_OSD_Simple.c ****         {
 825:VS4210/VX_OSD_Simple.c ****             VXISI2CWrite(0x51,_ContentOn | temp );
 1528              		.loc 1 825 0
 1529 0094 5120     		movs	r0, #81
 1530 0096 41F00201 		orr	r1, r1, #2
ARM GAS  /tmp/cc0CX9nZ.s 			page 46


 1531              	.LVL133:
 1532 009a FFF7FEFF 		bl	VXISI2CWrite
 1533              	.LVL134:
 1534 009e 70BD     		pop	{r4, r5, r6, pc}
 1535              	.LVL135:
 1536              	.L128:
 1537              		.align	2
 1538              	.L127:
 1539 00a0 00000000 		.word	MenuOSDonFlg
 1540              		.cfi_endproc
 1541              	.LFE69:
 1543              		.section	.text.OSD_Clear_4,"ax",%progbits
 1544              		.align	2
 1545              		.global	OSD_Clear_4
 1546              		.thumb
 1547              		.thumb_func
 1549              	OSD_Clear_4:
 1550              	.LFB70:
 826:VS4210/VX_OSD_Simple.c ****         }
 827:VS4210/VX_OSD_Simple.c ****     }
 828:VS4210/VX_OSD_Simple.c **** }
 829:VS4210/VX_OSD_Simple.c **** 
 830:VS4210/VX_OSD_Simple.c **** void OSD_Clear_4(void )
 831:VS4210/VX_OSD_Simple.c **** {
 1551              		.loc 1 831 0
 1552              		.cfi_startproc
 1553              		@ args = 0, pretend = 0, frame = 0
 1554              		@ frame_needed = 0, uses_anonymous_args = 0
 1555 0000 08B5     		push	{r3, lr}
 1556              	.LCFI8:
 1557              		.cfi_def_cfa_offset 8
 1558              		.cfi_offset 3, -8
 1559              		.cfi_offset 14, -4
 832:VS4210/VX_OSD_Simple.c ****     OSD_Clear(3) ;
 1560              		.loc 1 832 0
 1561 0002 0320     		movs	r0, #3
 1562 0004 FFF7FEFF 		bl	OSD_Clear
 1563              	.LVL136:
 1564 0008 08BD     		pop	{r3, pc}
 1565              		.cfi_endproc
 1566              	.LFE70:
 1568 000a 00BF     		.section	.text.OSD_Clear_34,"ax",%progbits
 1569              		.align	2
 1570              		.global	OSD_Clear_34
 1571              		.thumb
 1572              		.thumb_func
 1574              	OSD_Clear_34:
 1575              	.LFB71:
 833:VS4210/VX_OSD_Simple.c **** }
 834:VS4210/VX_OSD_Simple.c **** 
 835:VS4210/VX_OSD_Simple.c **** void OSD_Clear_34(void )
 836:VS4210/VX_OSD_Simple.c **** {
 1576              		.loc 1 836 0
 1577              		.cfi_startproc
 1578              		@ args = 0, pretend = 0, frame = 0
 1579              		@ frame_needed = 0, uses_anonymous_args = 0
 1580 0000 10B5     		push	{r4, lr}
ARM GAS  /tmp/cc0CX9nZ.s 			page 47


 1581              	.LCFI9:
 1582              		.cfi_def_cfa_offset 8
 1583              		.cfi_offset 4, -8
 1584              		.cfi_offset 14, -4
 1585              	.LVL137:
 837:VS4210/VX_OSD_Simple.c ****     tByte i ;
 838:VS4210/VX_OSD_Simple.c ****     for (i = 2 ; i < 4 ;i++)
 1586              		.loc 1 838 0
 1587 0002 0224     		movs	r4, #2
 1588 0004 04E0     		b	.L132
 1589              	.LVL138:
 1590              	.L133:
 839:VS4210/VX_OSD_Simple.c ****     {
 840:VS4210/VX_OSD_Simple.c ****         OSD_Clear(i) ;
 1591              		.loc 1 840 0 discriminator 3
 1592 0006 2046     		mov	r0, r4
 1593 0008 FFF7FEFF 		bl	OSD_Clear
 1594              	.LVL139:
 838:VS4210/VX_OSD_Simple.c ****     {
 1595              		.loc 1 838 0 discriminator 3
 1596 000c 0134     		adds	r4, r4, #1
 1597              	.LVL140:
 1598 000e E4B2     		uxtb	r4, r4
 1599              	.LVL141:
 1600              	.L132:
 838:VS4210/VX_OSD_Simple.c ****     {
 1601              		.loc 1 838 0 is_stmt 0 discriminator 1
 1602 0010 032C     		cmp	r4, #3
 1603 0012 F8D9     		bls	.L133
 841:VS4210/VX_OSD_Simple.c ****     }
 842:VS4210/VX_OSD_Simple.c **** }
 1604              		.loc 1 842 0 is_stmt 1
 1605 0014 10BD     		pop	{r4, pc}
 1606              		.cfi_endproc
 1607              	.LFE71:
 1609 0016 00BF     		.section	.text.OSD_Clear_234,"ax",%progbits
 1610              		.align	2
 1611              		.global	OSD_Clear_234
 1612              		.thumb
 1613              		.thumb_func
 1615              	OSD_Clear_234:
 1616              	.LFB72:
 843:VS4210/VX_OSD_Simple.c **** 
 844:VS4210/VX_OSD_Simple.c **** void OSD_Clear_234(void )
 845:VS4210/VX_OSD_Simple.c **** {
 1617              		.loc 1 845 0
 1618              		.cfi_startproc
 1619              		@ args = 0, pretend = 0, frame = 0
 1620              		@ frame_needed = 0, uses_anonymous_args = 0
 1621 0000 10B5     		push	{r4, lr}
 1622              	.LCFI10:
 1623              		.cfi_def_cfa_offset 8
 1624              		.cfi_offset 4, -8
 1625              		.cfi_offset 14, -4
 1626              	.LVL142:
 846:VS4210/VX_OSD_Simple.c ****     tByte i ;
 847:VS4210/VX_OSD_Simple.c ****     for (i = 1 ; i < 4 ;i++)
ARM GAS  /tmp/cc0CX9nZ.s 			page 48


 1627              		.loc 1 847 0
 1628 0002 0124     		movs	r4, #1
 1629 0004 04E0     		b	.L136
 1630              	.LVL143:
 1631              	.L137:
 848:VS4210/VX_OSD_Simple.c ****     {
 849:VS4210/VX_OSD_Simple.c ****         OSD_Clear(i) ;
 1632              		.loc 1 849 0 discriminator 3
 1633 0006 2046     		mov	r0, r4
 1634 0008 FFF7FEFF 		bl	OSD_Clear
 1635              	.LVL144:
 847:VS4210/VX_OSD_Simple.c ****     {
 1636              		.loc 1 847 0 discriminator 3
 1637 000c 0134     		adds	r4, r4, #1
 1638              	.LVL145:
 1639 000e E4B2     		uxtb	r4, r4
 1640              	.LVL146:
 1641              	.L136:
 847:VS4210/VX_OSD_Simple.c ****     {
 1642              		.loc 1 847 0 is_stmt 0 discriminator 1
 1643 0010 032C     		cmp	r4, #3
 1644 0012 F8D9     		bls	.L137
 850:VS4210/VX_OSD_Simple.c ****     }
 851:VS4210/VX_OSD_Simple.c **** }
 1645              		.loc 1 851 0 is_stmt 1
 1646 0014 10BD     		pop	{r4, pc}
 1647              		.cfi_endproc
 1648              	.LFE72:
 1650 0016 00BF     		.section	.text.OSD_Clear_All,"ax",%progbits
 1651              		.align	2
 1652              		.global	OSD_Clear_All
 1653              		.thumb
 1654              		.thumb_func
 1656              	OSD_Clear_All:
 1657              	.LFB73:
 852:VS4210/VX_OSD_Simple.c **** 
 853:VS4210/VX_OSD_Simple.c **** void OSD_Clear_All(void )
 854:VS4210/VX_OSD_Simple.c **** {
 1658              		.loc 1 854 0
 1659              		.cfi_startproc
 1660              		@ args = 0, pretend = 0, frame = 0
 1661              		@ frame_needed = 0, uses_anonymous_args = 0
 1662 0000 10B5     		push	{r4, lr}
 1663              	.LCFI11:
 1664              		.cfi_def_cfa_offset 8
 1665              		.cfi_offset 4, -8
 1666              		.cfi_offset 14, -4
 1667              	.LVL147:
 855:VS4210/VX_OSD_Simple.c ****     tByte i ;
 856:VS4210/VX_OSD_Simple.c ****     for (i = 0 ; i < 4 ;i++)
 1668              		.loc 1 856 0
 1669 0002 0024     		movs	r4, #0
 1670 0004 04E0     		b	.L140
 1671              	.LVL148:
 1672              	.L141:
 857:VS4210/VX_OSD_Simple.c ****     {
 858:VS4210/VX_OSD_Simple.c ****         OSD_Clear(i) ;
ARM GAS  /tmp/cc0CX9nZ.s 			page 49


 1673              		.loc 1 858 0 discriminator 3
 1674 0006 2046     		mov	r0, r4
 1675 0008 FFF7FEFF 		bl	OSD_Clear
 1676              	.LVL149:
 856:VS4210/VX_OSD_Simple.c ****     {
 1677              		.loc 1 856 0 discriminator 3
 1678 000c 0134     		adds	r4, r4, #1
 1679              	.LVL150:
 1680 000e E4B2     		uxtb	r4, r4
 1681              	.LVL151:
 1682              	.L140:
 856:VS4210/VX_OSD_Simple.c ****     {
 1683              		.loc 1 856 0 is_stmt 0 discriminator 1
 1684 0010 032C     		cmp	r4, #3
 1685 0012 F8D9     		bls	.L141
 859:VS4210/VX_OSD_Simple.c ****     }
 860:VS4210/VX_OSD_Simple.c **** }
 1686              		.loc 1 860 0 is_stmt 1
 1687 0014 10BD     		pop	{r4, pc}
 1688              		.cfi_endproc
 1689              	.LFE73:
 1691 0016 00BF     		.section	.text.osd_cont_write,"ax",%progbits
 1692              		.align	2
 1693              		.global	osd_cont_write
 1694              		.thumb
 1695              		.thumb_func
 1697              	osd_cont_write:
 1698              	.LFB74:
 861:VS4210/VX_OSD_Simple.c **** 
 862:VS4210/VX_OSD_Simple.c **** /*
 863:VS4210/VX_OSD_Simple.c **** void ClearAudioOSD(void)
 864:VS4210/VX_OSD_Simple.c **** {
 865:VS4210/VX_OSD_Simple.c ****     tByte i ;
 866:VS4210/VX_OSD_Simple.c ****     for (i = 0  ; i < HDMI_IN_NUMBER ; i++ )
 867:VS4210/VX_OSD_Simple.c ****     {
 868:VS4210/VX_OSD_Simple.c ****         VXIS_fShowInOutMode(gaHDMI_MapWindowIndex[i]  ,  gbVXIS_InputMode[i] , gbVXIS_OuputModeflg 
 869:VS4210/VX_OSD_Simple.c ****     }
 870:VS4210/VX_OSD_Simple.c **** }
 871:VS4210/VX_OSD_Simple.c **** 
 872:VS4210/VX_OSD_Simple.c **** void Clear1ChAudioOSD(tByte ch )
 873:VS4210/VX_OSD_Simple.c **** {
 874:VS4210/VX_OSD_Simple.c ****     VXIS_fShowInOutMode(gaHDMI_MapWindowIndex[ch]  ,  gbVXIS_InputMode[ch] , gbVXIS_OuputModeflg ) 
 875:VS4210/VX_OSD_Simple.c **** }
 876:VS4210/VX_OSD_Simple.c **** */
 877:VS4210/VX_OSD_Simple.c **** 
 878:VS4210/VX_OSD_Simple.c **** void osd_cont_write(unsigned char cw_dest, unsigned char init_addr, unsigned char num_of_data, cons
 879:VS4210/VX_OSD_Simple.c **** {////Extern OSD
 1699              		.loc 1 879 0
 1700              		.cfi_startproc
 1701              		@ args = 0, pretend = 0, frame = 256
 1702              		@ frame_needed = 0, uses_anonymous_args = 0
 1703              	.LVL152:
 1704 0000 10B5     		push	{r4, lr}
 1705              	.LCFI12:
 1706              		.cfi_def_cfa_offset 8
 1707              		.cfi_offset 4, -8
 1708              		.cfi_offset 14, -4
ARM GAS  /tmp/cc0CX9nZ.s 			page 50


 1709 0002 C0B0     		sub	sp, sp, #256
 1710              	.LCFI13:
 1711              		.cfi_def_cfa_offset 264
 1712 0004 1446     		mov	r4, r2
 880:VS4210/VX_OSD_Simple.c ****     unsigned char wbuf[255] ;
 881:VS4210/VX_OSD_Simple.c ****     wbuf[0] = cw_dest ;
 1713              		.loc 1 881 0
 1714 0006 8DF80000 		strb	r0, [sp]
 882:VS4210/VX_OSD_Simple.c ****     wbuf[1] = init_addr ;
 1715              		.loc 1 882 0
 1716 000a 8DF80110 		strb	r1, [sp, #1]
 883:VS4210/VX_OSD_Simple.c ****     memcpy(&wbuf[2],buf_data ,num_of_data )  ;
 1717              		.loc 1 883 0
 1718 000e 0DF10200 		add	r0, sp, #2
 1719              	.LVL153:
 1720 0012 1946     		mov	r1, r3
 1721              	.LVL154:
 1722 0014 FFF7FEFF 		bl	memcpy
 1723              	.LVL155:
 884:VS4210/VX_OSD_Simple.c ****     I2CMultiWrite(VS4210_ADDR, 0xFD, num_of_data +2, &wbuf[0]) ;
 1724              		.loc 1 884 0
 1725 0018 044B     		ldr	r3, .L145
 1726 001a 1878     		ldrb	r0, [r3]	@ zero_extendqisi2
 1727 001c A21C     		adds	r2, r4, #2
 1728 001e FD21     		movs	r1, #253
 1729 0020 D2B2     		uxtb	r2, r2
 1730 0022 6B46     		mov	r3, sp
 1731 0024 FFF7FEFF 		bl	I2CMultiWrite
 1732              	.LVL156:
 885:VS4210/VX_OSD_Simple.c **** }
 1733              		.loc 1 885 0
 1734 0028 40B0     		add	sp, sp, #256
 1735              	.LCFI14:
 1736              		.cfi_def_cfa_offset 8
 1737              		@ sp needed
 1738 002a 10BD     		pop	{r4, pc}
 1739              	.L146:
 1740              		.align	2
 1741              	.L145:
 1742 002c 00000000 		.word	VS4210_ADDR
 1743              		.cfi_endproc
 1744              	.LFE74:
 1746              		.section	.text.VXOSD_UseFont_init,"ax",%progbits
 1747              		.align	2
 1748              		.global	VXOSD_UseFont_init
 1749              		.thumb
 1750              		.thumb_func
 1752              	VXOSD_UseFont_init:
 1753              	.LFB75:
 886:VS4210/VX_OSD_Simple.c **** 
 887:VS4210/VX_OSD_Simple.c **** //---------------------------------------------------------------------------
 888:VS4210/VX_OSD_Simple.c **** /**
 889:VS4210/VX_OSD_Simple.c ****  * @brief Initialize the custom font function
 890:VS4210/VX_OSD_Simple.c ****  *
 891:VS4210/VX_OSD_Simple.c ****  * Initialize the custom font data.
 892:VS4210/VX_OSD_Simple.c ****  *
 893:VS4210/VX_OSD_Simple.c ****  * @param Size, Number of custom fonts.
ARM GAS  /tmp/cc0CX9nZ.s 			page 51


 894:VS4210/VX_OSD_Simple.c ****  * @param *UserDefineFont, Font data start position.
 895:VS4210/VX_OSD_Simple.c ****  * @return none
 896:VS4210/VX_OSD_Simple.c ****  */
 897:VS4210/VX_OSD_Simple.c **** void VXOSD_UseFont_init(tByte Size, tcByte *UserDefineFontPtr)
 898:VS4210/VX_OSD_Simple.c **** {//Extern OSD
 1754              		.loc 1 898 0
 1755              		.cfi_startproc
 1756              		@ args = 0, pretend = 0, frame = 0
 1757              		@ frame_needed = 0, uses_anonymous_args = 0
 1758              	.LVL157:
 1759 0000 70B5     		push	{r4, r5, r6, lr}
 1760              	.LCFI15:
 1761              		.cfi_def_cfa_offset 16
 1762              		.cfi_offset 4, -16
 1763              		.cfi_offset 5, -12
 1764              		.cfi_offset 6, -8
 1765              		.cfi_offset 14, -4
 899:VS4210/VX_OSD_Simple.c ****     //16*20
 900:VS4210/VX_OSD_Simple.c ****     uint16_t FontIndex ;
 901:VS4210/VX_OSD_Simple.c ****     uint8_t  bytecommand, Haddr,Laddr ;
 902:VS4210/VX_OSD_Simple.c ****     uint16_t i  ;
 903:VS4210/VX_OSD_Simple.c ****     uint16_t FontAddr  ;
 904:VS4210/VX_OSD_Simple.c ****     uint8_t Size2 ;
 905:VS4210/VX_OSD_Simple.c **** 
 906:VS4210/VX_OSD_Simple.c ****     Size2 = Size * 2   ;
 1766              		.loc 1 906 0
 1767 0002 4500     		lsls	r5, r0, #1
 1768 0004 EDB2     		uxtb	r5, r5
 1769              	.LVL158:
 907:VS4210/VX_OSD_Simple.c ****     if (Size < 64 )
 1770              		.loc 1 907 0
 1771 0006 3F28     		cmp	r0, #63
 1772 0008 14D9     		bls	.L151
 1773 000a 70BD     		pop	{r4, r5, r6, pc}
 1774              	.LVL159:
 1775              	.L150:
 908:VS4210/VX_OSD_Simple.c ****     {
 909:VS4210/VX_OSD_Simple.c ****         for ( i = 0 ; i< Size2 ; i++)   //
 910:VS4210/VX_OSD_Simple.c ****         {
 911:VS4210/VX_OSD_Simple.c ****             FontAddr = i * 10 ;  //WORD
 1776              		.loc 1 911 0 discriminator 3
 1777 000c A200     		lsls	r2, r4, #2
 1778 000e A318     		adds	r3, r4, r2
 1779 0010 5900     		lsls	r1, r3, #1
 1780 0012 89B2     		uxth	r1, r1
 1781              	.LVL160:
 912:VS4210/VX_OSD_Simple.c ****             FontIndex = i * 20 ; //BYTE
 1782              		.loc 1 912 0 discriminator 3
 1783 0014 2244     		add	r2, r2, r4
 1784 0016 9300     		lsls	r3, r2, #2
 1785 0018 9BB2     		uxth	r3, r3
 1786              	.LVL161:
 913:VS4210/VX_OSD_Simple.c ****             Haddr = (uint8_t) ((FontAddr & 0x0F00) >> 8)  ;
 1787              		.loc 1 913 0 discriminator 3
 1788 001a C1F30320 		ubfx	r0, r1, #8, #4
 1789              	.LVL162:
 914:VS4210/VX_OSD_Simple.c ****             Laddr = (uint8_t) (FontAddr & 0x00FF) ;
ARM GAS  /tmp/cc0CX9nZ.s 			page 52


 915:VS4210/VX_OSD_Simple.c ****             bytecommand = 0x20 | Haddr ;
 916:VS4210/VX_OSD_Simple.c ****             osd_cont_write(bytecommand, Laddr, 20, &UserDefineFontPtr[FontIndex] );   // user defin
 1790              		.loc 1 916 0 discriminator 3
 1791 001e 40F02000 		orr	r0, r0, #32
 1792              	.LVL163:
 1793 0022 01F0FE01 		and	r1, r1, #254
 1794              	.LVL164:
 1795 0026 1422     		movs	r2, #20
 1796              	.LVL165:
 1797 0028 3344     		add	r3, r3, r6
 1798              	.LVL166:
 1799 002a FFF7FEFF 		bl	osd_cont_write
 1800              	.LVL167:
 909:VS4210/VX_OSD_Simple.c ****         {
 1801              		.loc 1 909 0 discriminator 3
 1802 002e 0134     		adds	r4, r4, #1
 1803              	.LVL168:
 1804 0030 A4B2     		uxth	r4, r4
 1805              	.LVL169:
 1806 0032 01E0     		b	.L148
 1807              	.LVL170:
 1808              	.L151:
 1809 0034 0E46     		mov	r6, r1
 1810 0036 0024     		movs	r4, #0
 1811              	.LVL171:
 1812              	.L148:
 909:VS4210/VX_OSD_Simple.c ****         {
 1813              		.loc 1 909 0 is_stmt 0 discriminator 1
 1814 0038 ABB2     		uxth	r3, r5
 1815 003a A342     		cmp	r3, r4
 1816 003c E6D8     		bhi	.L150
 1817 003e 70BD     		pop	{r4, r5, r6, pc}
 1818              		.cfi_endproc
 1819              	.LFE75:
 1821              		.section	.text.VXOSD_ShowExContent,"ax",%progbits
 1822              		.align	2
 1823              		.global	VXOSD_ShowExContent
 1824              		.thumb
 1825              		.thumb_func
 1827              	VXOSD_ShowExContent:
 1828              	.LFB76:
 917:VS4210/VX_OSD_Simple.c ****         }
 918:VS4210/VX_OSD_Simple.c ****     }
 919:VS4210/VX_OSD_Simple.c ****     else {
 920:VS4210/VX_OSD_Simple.c ****         //printf("Error ,  Size >64\r\n" ) ;
 921:VS4210/VX_OSD_Simple.c ****     }
 922:VS4210/VX_OSD_Simple.c **** }
 923:VS4210/VX_OSD_Simple.c **** 
 924:VS4210/VX_OSD_Simple.c **** void VXOSD_ShowExContent(tByte *ptrExOsdContent, tByte index )
 925:VS4210/VX_OSD_Simple.c **** {
 1829              		.loc 1 925 0 is_stmt 1
 1830              		.cfi_startproc
 1831              		@ args = 0, pretend = 0, frame = 8
 1832              		@ frame_needed = 0, uses_anonymous_args = 0
 1833              	.LVL172:
 1834 0000 30B5     		push	{r4, r5, lr}
 1835              	.LCFI16:
ARM GAS  /tmp/cc0CX9nZ.s 			page 53


 1836              		.cfi_def_cfa_offset 12
 1837              		.cfi_offset 4, -12
 1838              		.cfi_offset 5, -8
 1839              		.cfi_offset 14, -4
 1840 0002 83B0     		sub	sp, sp, #12
 1841              	.LCFI17:
 1842              		.cfi_def_cfa_offset 24
 1843 0004 0546     		mov	r5, r0
 1844 0006 0C46     		mov	r4, r1
 1845              	.LVL173:
 926:VS4210/VX_OSD_Simple.c ****     tByte len ;
 927:VS4210/VX_OSD_Simple.c ****     tByte Indexoffset ;
 928:VS4210/VX_OSD_Simple.c ****     tByte FontLenx2 ;
 929:VS4210/VX_OSD_Simple.c ****     FontLenx2 = 2*EXTERNOSDNUMBER ;
 930:VS4210/VX_OSD_Simple.c **** /*
 931:VS4210/VX_OSD_Simple.c ****     //SetOsdSize(_Content,FontLenx2 ,1);
 932:VS4210/VX_OSD_Simple.c ****     SetOsdSize(_Content, 3 , FontLenx2 );
 933:VS4210/VX_OSD_Simple.c ****     SetOsdStartAddress(_Content,0x80);
 934:VS4210/VX_OSD_Simple.c ****     OsdDumpString(0x80, ptrExOsdContent );
 935:VS4210/VX_OSD_Simple.c ****     len = ptrExOsdContent[0] ;
 936:VS4210/VX_OSD_Simple.c ****     OsdDumpAttribute(0x80, &len, _MenuColor );
 937:VS4210/VX_OSD_Simple.c ****     if (index > 0 )
 938:VS4210/VX_OSD_Simple.c ****     {
 939:VS4210/VX_OSD_Simple.c ****         len = 1;
 940:VS4210/VX_OSD_Simple.c ****         Indexoffset = index *2 ;
 941:VS4210/VX_OSD_Simple.c ****         OsdDumpAttribute(0x80 + Indexoffset + FontLenx2 , &len, _MenuSelColor  );
 942:VS4210/VX_OSD_Simple.c ****         //OsdDumpAttribute(0x80 + FontLenx2 , &len, _MenuSelColor  );
 943:VS4210/VX_OSD_Simple.c ****     }
 944:VS4210/VX_OSD_Simple.c **** */
 945:VS4210/VX_OSD_Simple.c **** 
 946:VS4210/VX_OSD_Simple.c ****     SetOsdSize(_Content,FontLenx2 +1 ,3);
 1846              		.loc 1 946 0
 1847 0008 0820     		movs	r0, #8
 1848              	.LVL174:
 1849 000a 1F21     		movs	r1, #31
 1850              	.LVL175:
 1851 000c 0322     		movs	r2, #3
 1852 000e FFF7FEFF 		bl	SetOsdSize
 1853              	.LVL176:
 947:VS4210/VX_OSD_Simple.c ****     SetOsdStartAddress(_Content,0x80);
 1854              		.loc 1 947 0
 1855 0012 0820     		movs	r0, #8
 1856 0014 8021     		movs	r1, #128
 1857 0016 FFF7FEFF 		bl	SetOsdStartAddress
 1858              	.LVL177:
 948:VS4210/VX_OSD_Simple.c ****     OsdDumpString(0x80, ptrExOsdContent );
 1859              		.loc 1 948 0
 1860 001a 8020     		movs	r0, #128
 1861 001c 2946     		mov	r1, r5
 1862 001e FFF7FEFF 		bl	OsdDumpString
 1863              	.LVL178:
 949:VS4210/VX_OSD_Simple.c ****     len = ptrExOsdContent[0] ;
 1864              		.loc 1 949 0
 1865 0022 2B78     		ldrb	r3, [r5]	@ zero_extendqisi2
 1866 0024 02A9     		add	r1, sp, #8
 1867 0026 01F8013D 		strb	r3, [r1, #-1]!
 950:VS4210/VX_OSD_Simple.c ****     OsdDumpAttribute(0x80, &len, _MenuColor );
ARM GAS  /tmp/cc0CX9nZ.s 			page 54


 1868              		.loc 1 950 0
 1869 002a 8020     		movs	r0, #128
 1870 002c 1722     		movs	r2, #23
 1871 002e FFF7FEFF 		bl	OsdDumpAttribute
 1872              	.LVL179:
 951:VS4210/VX_OSD_Simple.c ****     if (index > 0 )
 1873              		.loc 1 951 0
 1874 0032 5CB1     		cbz	r4, .L154
 952:VS4210/VX_OSD_Simple.c ****     {
 953:VS4210/VX_OSD_Simple.c ****         len = 1;
 1875              		.loc 1 953 0
 1876 0034 02A9     		add	r1, sp, #8
 1877 0036 0123     		movs	r3, #1
 1878 0038 01F8013D 		strb	r3, [r1, #-1]!
 954:VS4210/VX_OSD_Simple.c ****         Indexoffset = index *2 ;
 1879              		.loc 1 954 0
 1880 003c 04FA03F0 		lsl	r0, r4, r3
 1881              	.LVL180:
 955:VS4210/VX_OSD_Simple.c ****         OsdDumpAttribute(0x80 + Indexoffset + FontLenx2 , &len, _MenuSelColor  );
 1882              		.loc 1 955 0
 1883 0040 6238     		subs	r0, r0, #98
 1884              	.LVL181:
 1885 0042 00F0FE00 		and	r0, r0, #254
 1886              	.LVL182:
 1887 0046 1C22     		movs	r2, #28
 1888 0048 FFF7FEFF 		bl	OsdDumpAttribute
 1889              	.LVL183:
 1890              	.L154:
 956:VS4210/VX_OSD_Simple.c ****     }
 957:VS4210/VX_OSD_Simple.c **** 
 958:VS4210/VX_OSD_Simple.c ****     //OSD_Clear_All();
 959:VS4210/VX_OSD_Simple.c ****   //  VXIS_fSetContentOsdOnOff(_ContentOn) ;
 960:VS4210/VX_OSD_Simple.c **** 
 961:VS4210/VX_OSD_Simple.c ****     if(gbVXIS_OuputSize == _OUTPUT_1080P60)
 1891              		.loc 1 961 0
 1892 004c 0C4B     		ldr	r3, .L158
 1893 004e 1B78     		ldrb	r3, [r3]	@ zero_extendqisi2
 1894 0050 012B     		cmp	r3, #1
 1895 0052 0AD1     		bne	.L155
 962:VS4210/VX_OSD_Simple.c ****     {
 963:VS4210/VX_OSD_Simple.c ****         //SetOsdPosition(_Content,600,420);
 964:VS4210/VX_OSD_Simple.c ****         SetOsdPosition(_Content,600,270);
 1896              		.loc 1 964 0
 1897 0054 0820     		movs	r0, #8
 1898 0056 4FF41671 		mov	r1, #600
 1899 005a 4FF48772 		mov	r2, #270
 1900 005e FFF7FEFF 		bl	SetOsdPosition
 1901              	.LVL184:
 965:VS4210/VX_OSD_Simple.c ****         VXIS_fSetOsdx2(1) ;
 1902              		.loc 1 965 0
 1903 0062 0120     		movs	r0, #1
 1904 0064 FFF7FEFF 		bl	VXIS_fSetOsdx2
 1905              	.LVL185:
 1906 0068 08E0     		b	.L153
 1907              	.L155:
 966:VS4210/VX_OSD_Simple.c ****     }
 967:VS4210/VX_OSD_Simple.c ****     else
ARM GAS  /tmp/cc0CX9nZ.s 			page 55


 968:VS4210/VX_OSD_Simple.c ****     {
 969:VS4210/VX_OSD_Simple.c ****         //SetOsdPosition(_Content,614,300);
 970:VS4210/VX_OSD_Simple.c ****         SetOsdPosition(_Content,614,200);
 1908              		.loc 1 970 0
 1909 006a 0820     		movs	r0, #8
 1910 006c 40F26621 		movw	r1, #614
 1911 0070 C822     		movs	r2, #200
 1912 0072 FFF7FEFF 		bl	SetOsdPosition
 1913              	.LVL186:
 971:VS4210/VX_OSD_Simple.c ****         VXIS_fSetOsdx2(0) ;
 1914              		.loc 1 971 0
 1915 0076 0020     		movs	r0, #0
 1916 0078 FFF7FEFF 		bl	VXIS_fSetOsdx2
 1917              	.LVL187:
 1918              	.L153:
 972:VS4210/VX_OSD_Simple.c ****     }
 973:VS4210/VX_OSD_Simple.c **** }
 1919              		.loc 1 973 0
 1920 007c 03B0     		add	sp, sp, #12
 1921              	.LCFI18:
 1922              		.cfi_def_cfa_offset 12
 1923              		@ sp needed
 1924 007e 30BD     		pop	{r4, r5, pc}
 1925              	.LVL188:
 1926              	.L159:
 1927              		.align	2
 1928              	.L158:
 1929 0080 00000000 		.word	gbVXIS_OuputSize
 1930              		.cfi_endproc
 1931              	.LFE76:
 1933              		.section	.text.VXOSD_SelectExContent,"ax",%progbits
 1934              		.align	2
 1935              		.global	VXOSD_SelectExContent
 1936              		.thumb
 1937              		.thumb_func
 1939              	VXOSD_SelectExContent:
 1940              	.LFB77:
 974:VS4210/VX_OSD_Simple.c **** 
 975:VS4210/VX_OSD_Simple.c **** void VXOSD_SelectExContent(tByte index )
 976:VS4210/VX_OSD_Simple.c **** {
 1941              		.loc 1 976 0
 1942              		.cfi_startproc
 1943              		@ args = 0, pretend = 0, frame = 8
 1944              		@ frame_needed = 0, uses_anonymous_args = 0
 1945              	.LVL189:
 1946 0000 30B5     		push	{r4, r5, lr}
 1947              	.LCFI19:
 1948              		.cfi_def_cfa_offset 12
 1949              		.cfi_offset 4, -12
 1950              		.cfi_offset 5, -8
 1951              		.cfi_offset 14, -4
 1952 0002 83B0     		sub	sp, sp, #12
 1953              	.LCFI20:
 1954              		.cfi_def_cfa_offset 24
 1955 0004 0446     		mov	r4, r0
 1956              	.LVL190:
 977:VS4210/VX_OSD_Simple.c ****     tByte len ;
ARM GAS  /tmp/cc0CX9nZ.s 			page 56


 978:VS4210/VX_OSD_Simple.c ****     tByte Indexoffset ;
 979:VS4210/VX_OSD_Simple.c **** 
 980:VS4210/VX_OSD_Simple.c ****     tByte FontLenx2 ;
 981:VS4210/VX_OSD_Simple.c **** 
 982:VS4210/VX_OSD_Simple.c ****     FontLenx2 = 2*EXTERNOSDNUMBER ;
 983:VS4210/VX_OSD_Simple.c ****     len = FontLenx2 +1  ;
 1957              		.loc 1 983 0
 1958 0006 02AD     		add	r5, sp, #8
 1959 0008 1F23     		movs	r3, #31
 1960 000a 05F8013D 		strb	r3, [r5, #-1]!
 984:VS4210/VX_OSD_Simple.c ****     //len = FontLenx2 ;
 985:VS4210/VX_OSD_Simple.c **** 
 986:VS4210/VX_OSD_Simple.c **** //    OsdDumpAttribute(0x80 , &len, _MenuColor );
 987:VS4210/VX_OSD_Simple.c **** //    len = 1;
 988:VS4210/VX_OSD_Simple.c **** //    Indexoffset = index *2 ;
 989:VS4210/VX_OSD_Simple.c **** //    OsdDumpAttribute(0x80 + Indexoffset , &len, _MenuSelColor  );
 990:VS4210/VX_OSD_Simple.c **** 
 991:VS4210/VX_OSD_Simple.c **** 
 992:VS4210/VX_OSD_Simple.c ****     OsdDumpAttribute(0x80+ (FontLenx2 +2), &len, _MenuColor );
 1961              		.loc 1 992 0
 1962 000e A020     		movs	r0, #160
 1963              	.LVL191:
 1964 0010 2946     		mov	r1, r5
 1965 0012 1722     		movs	r2, #23
 1966 0014 FFF7FEFF 		bl	OsdDumpAttribute
 1967              	.LVL192:
 993:VS4210/VX_OSD_Simple.c ****     len = 1;
 1968              		.loc 1 993 0
 1969 0018 0123     		movs	r3, #1
 1970 001a 8DF80730 		strb	r3, [sp, #7]
 994:VS4210/VX_OSD_Simple.c ****     Indexoffset = index *2 ;
 1971              		.loc 1 994 0
 1972 001e 04FA03F0 		lsl	r0, r4, r3
 1973              	.LVL193:
 995:VS4210/VX_OSD_Simple.c ****     OsdDumpAttribute(0x80 + Indexoffset +FontLenx2 , &len, _MenuSelColor  );
 1974              		.loc 1 995 0
 1975 0022 6238     		subs	r0, r0, #98
 1976              	.LVL194:
 1977 0024 00F0FE00 		and	r0, r0, #254
 1978              	.LVL195:
 1979 0028 2946     		mov	r1, r5
 1980 002a 1C22     		movs	r2, #28
 1981 002c FFF7FEFF 		bl	OsdDumpAttribute
 1982              	.LVL196:
 996:VS4210/VX_OSD_Simple.c **** 
 997:VS4210/VX_OSD_Simple.c **** 
 998:VS4210/VX_OSD_Simple.c **** //    if (OSDx2Flg == 0 )
 999:VS4210/VX_OSD_Simple.c **** //    {
1000:VS4210/VX_OSD_Simple.c **** //        OSD_Clear_All();
1001:VS4210/VX_OSD_Simple.c **** //        VXIS_fSetOsdx2(1) ;
1002:VS4210/VX_OSD_Simple.c **** //        OSDx2Flg = 1 ;
1003:VS4210/VX_OSD_Simple.c **** //    }
1004:VS4210/VX_OSD_Simple.c **** 
1005:VS4210/VX_OSD_Simple.c **** //    VXIS_fSetContentOsdOnOff(_ContentOn) ;
1006:VS4210/VX_OSD_Simple.c **** }
 1983              		.loc 1 1006 0
 1984 0030 03B0     		add	sp, sp, #12
ARM GAS  /tmp/cc0CX9nZ.s 			page 57


 1985              	.LCFI21:
 1986              		.cfi_def_cfa_offset 12
 1987              		@ sp needed
 1988 0032 30BD     		pop	{r4, r5, pc}
 1989              		.cfi_endproc
 1990              	.LFE77:
 1992              		.section	.text.Set_Video_Loss_OSD,"ax",%progbits
 1993              		.align	2
 1994              		.global	Set_Video_Loss_OSD
 1995              		.thumb
 1996              		.thumb_func
 1998              	Set_Video_Loss_OSD:
 1999              	.LFB78:
1007:VS4210/VX_OSD_Simple.c **** 
1008:VS4210/VX_OSD_Simple.c **** void Set_Video_Loss_OSD(BYTE ch, BYTE set)	
1009:VS4210/VX_OSD_Simple.c **** {
 2000              		.loc 1 1009 0
 2001              		.cfi_startproc
 2002              		@ args = 0, pretend = 0, frame = 0
 2003              		@ frame_needed = 0, uses_anonymous_args = 0
 2004              	.LVL197:
 2005 0000 38B5     		push	{r3, r4, r5, lr}
 2006              	.LCFI22:
 2007              		.cfi_def_cfa_offset 16
 2008              		.cfi_offset 3, -16
 2009              		.cfi_offset 4, -12
 2010              		.cfi_offset 5, -8
 2011              		.cfi_offset 14, -4
 2012 0002 0546     		mov	r5, r0
1010:VS4210/VX_OSD_Simple.c **** 	//VXISI2CWrite(0x32,0x00);
1011:VS4210/VX_OSD_Simple.c **** 
1012:VS4210/VX_OSD_Simple.c **** //bVloss_Flag=set;
1013:VS4210/VX_OSD_Simple.c **** 
1014:VS4210/VX_OSD_Simple.c **** #if 1
1015:VS4210/VX_OSD_Simple.c **** switch(set)
 2013              		.loc 1 1015 0
 2014 0004 0C46     		mov	r4, r1
 2015 0006 A1B1     		cbz	r1, .L164
 2016 0008 0129     		cmp	r1, #1
 2017 000a 2ED1     		bne	.L163
1016:VS4210/VX_OSD_Simple.c **** {
1017:VS4210/VX_OSD_Simple.c **** 	case ON:
1018:VS4210/VX_OSD_Simple.c **** 			if(ch==_HDMI_Input)
 2018              		.loc 1 1018 0
 2019 000c 40B9     		cbnz	r0, .L166
1019:VS4210/VX_OSD_Simple.c **** 				{
1020:VS4210/VX_OSD_Simple.c **** 				VXISI2CWrite(0x10,0x00);
 2020              		.loc 1 1020 0
 2021 000e 1020     		movs	r0, #16
 2022              	.LVL198:
 2023 0010 0021     		movs	r1, #0
 2024              	.LVL199:
 2025 0012 FFF7FEFF 		bl	VXISI2CWrite
 2026              	.LVL200:
1021:VS4210/VX_OSD_Simple.c **** 				VXISI2CWrite(0x9C,0x0A);	
 2027              		.loc 1 1021 0
 2028 0016 9C20     		movs	r0, #156
ARM GAS  /tmp/cc0CX9nZ.s 			page 58


 2029 0018 0A21     		movs	r1, #10
 2030 001a FFF7FEFF 		bl	VXISI2CWrite
 2031              	.LVL201:
 2032 001e 24E0     		b	.L163
 2033              	.LVL202:
 2034              	.L166:
1022:VS4210/VX_OSD_Simple.c **** 				}		
1023:VS4210/VX_OSD_Simple.c **** 			else 
1024:VS4210/VX_OSD_Simple.c **** 				{
1025:VS4210/VX_OSD_Simple.c **** 				VXISI2CWrite(0x10,0x01);
 2035              		.loc 1 1025 0
 2036 0020 1020     		movs	r0, #16
 2037              	.LVL203:
 2038 0022 0121     		movs	r1, #1
 2039              	.LVL204:
 2040 0024 FFF7FEFF 		bl	VXISI2CWrite
 2041              	.LVL205:
1026:VS4210/VX_OSD_Simple.c **** 				VXISI2CWrite(0x9C,0x0A);	
 2042              		.loc 1 1026 0
 2043 0028 9C20     		movs	r0, #156
 2044 002a 0A21     		movs	r1, #10
 2045 002c FFF7FEFF 		bl	VXISI2CWrite
 2046              	.LVL206:
 2047 0030 1BE0     		b	.L163
 2048              	.LVL207:
 2049              	.L164:
1027:VS4210/VX_OSD_Simple.c **** 				}
1028:VS4210/VX_OSD_Simple.c **** 			break;
1029:VS4210/VX_OSD_Simple.c **** 
1030:VS4210/VX_OSD_Simple.c **** 	case OFF:
1031:VS4210/VX_OSD_Simple.c **** 				if(ch==_HDMI_Input)
 2050              		.loc 1 1031 0
 2051 0032 68B9     		cbnz	r0, .L167
1032:VS4210/VX_OSD_Simple.c **** 				{
1033:VS4210/VX_OSD_Simple.c **** 				VXISI2CWrite(0x10,(VXISI2CRead(0x10)|0x80));
 2052              		.loc 1 1033 0
 2053 0034 1020     		movs	r0, #16
 2054              	.LVL208:
 2055 0036 FFF7FEFF 		bl	VXISI2CRead
 2056              	.LVL209:
 2057 003a 60F07F01 		orn	r1, r0, #127
 2058 003e 1020     		movs	r0, #16
 2059 0040 C9B2     		uxtb	r1, r1
 2060 0042 FFF7FEFF 		bl	VXISI2CWrite
 2061              	.LVL210:
1034:VS4210/VX_OSD_Simple.c **** 				VXISI2CWrite(0x9C,0x00);
 2062              		.loc 1 1034 0
 2063 0046 9C20     		movs	r0, #156
 2064 0048 0021     		movs	r1, #0
 2065 004a FFF7FEFF 		bl	VXISI2CWrite
 2066              	.LVL211:
 2067 004e 0CE0     		b	.L163
 2068              	.LVL212:
 2069              	.L167:
1035:VS4210/VX_OSD_Simple.c **** 				//SET_HDMI_SYNC_PARA();
1036:VS4210/VX_OSD_Simple.c **** 				}		
1037:VS4210/VX_OSD_Simple.c **** 			else
ARM GAS  /tmp/cc0CX9nZ.s 			page 59


1038:VS4210/VX_OSD_Simple.c **** 				{
1039:VS4210/VX_OSD_Simple.c **** 				VXISI2CWrite(0x10,(VXISI2CRead(0x10)|0x81));
 2070              		.loc 1 1039 0
 2071 0050 1020     		movs	r0, #16
 2072              	.LVL213:
 2073 0052 FFF7FEFF 		bl	VXISI2CRead
 2074              	.LVL214:
 2075 0056 60F07E01 		orn	r1, r0, #126
 2076 005a 1020     		movs	r0, #16
 2077 005c C9B2     		uxtb	r1, r1
 2078 005e FFF7FEFF 		bl	VXISI2CWrite
 2079              	.LVL215:
1040:VS4210/VX_OSD_Simple.c **** 				VXISI2CWrite(0x9C,0x00);
 2080              		.loc 1 1040 0
 2081 0062 9C20     		movs	r0, #156
 2082 0064 0021     		movs	r1, #0
 2083 0066 FFF7FEFF 		bl	VXISI2CWrite
 2084              	.LVL216:
 2085              	.L163:
1041:VS4210/VX_OSD_Simple.c **** 				}
1042:VS4210/VX_OSD_Simple.c **** 	
1043:VS4210/VX_OSD_Simple.c **** 			break;
1044:VS4210/VX_OSD_Simple.c **** 	
1045:VS4210/VX_OSD_Simple.c **** 
1046:VS4210/VX_OSD_Simple.c **** }
1047:VS4210/VX_OSD_Simple.c **** #endif
1048:VS4210/VX_OSD_Simple.c **** 	SET_VIDEO_VLOSS(set);	
 2086              		.loc 1 1048 0
 2087 006a 0648     		ldr	r0, .L169
 2088 006c 2021     		movs	r1, #32
 2089 006e 2246     		mov	r2, r4
 2090 0070 FFF7FEFF 		bl	HAL_GPIO_WritePin
 2091              	.LVL217:
1049:VS4210/VX_OSD_Simple.c **** 	//MCUTimerCancelTimerEvent( _SYSTEM_TIMER_EVENT_SET_VIDEO_LOSS);	
1050:VS4210/VX_OSD_Simple.c **** 	//MCUTimerActiveTimerEvent(SEC(1), _SYSTEM_TIMER_EVENT_SET_VIDEO_LOSS);	
1051:VS4210/VX_OSD_Simple.c **** 	
1052:VS4210/VX_OSD_Simple.c **** 	#if (_DEBUG_OSD==ON)	
1053:VS4210/VX_OSD_Simple.c **** 	GraphicsPrint(RED,"(SET_VIDEO_VLOSS ch=%d set=%d)",(WORD)ch,(WORD)set);	
 2092              		.loc 1 1053 0
 2093 0074 0120     		movs	r0, #1
 2094 0076 0449     		ldr	r1, .L169+4
 2095 0078 2A46     		mov	r2, r5
 2096 007a 2346     		mov	r3, r4
 2097 007c FFF7FEFF 		bl	GraphicsPrint
 2098              	.LVL218:
 2099 0080 38BD     		pop	{r3, r4, r5, pc}
 2100              	.L170:
 2101 0082 00BF     		.align	2
 2102              	.L169:
 2103 0084 00080140 		.word	1073809408
 2104 0088 00000000 		.word	.LC0
 2105              		.cfi_endproc
 2106              	.LFE78:
 2108              		.global	aLineMode720PMode12Lin1
 2109              		.global	aLineMode1080PMode12Lin1
 2110              		.global	aLineMode720PMode6Lin3
 2111              		.global	aLineMode720PMode6Lin2
ARM GAS  /tmp/cc0CX9nZ.s 			page 60


 2112              		.global	aLineMode720PMode6Lin1
 2113              		.global	aLineMode720PMode2Lin3
 2114              		.global	aLineMode720PMode2Lin2
 2115              		.global	aLineMode720PMode2Lin1
 2116              		.global	aLineMode720PMode1Lin2
 2117              		.global	aLineMode720PMode1Lin1
 2118              		.global	aLineMode1080PMode6Lin3
 2119              		.global	aLineMode1080PMode6Lin2
 2120              		.global	aLineMode1080PMode6Lin1
 2121              		.global	aLineMode1080PMode2Lin3
 2122              		.global	aLineMode1080PMode2Lin2
 2123              		.global	aLineMode1080PMode2Lin1
 2124              		.global	aLineMode1080PMode1Lin2
 2125              		.global	aLineMode1080PMode1Lin1
 2126              		.global	aLineModeReg
 2127              		.global	Mode24_w1_720P_param
 2128              		.global	Mode24_w0_720P_param
 2129              		.global	Mode13_w1_720P_param
 2130              		.global	Mode13_w0_720P_param
 2131              		.global	Mode24_w1_1080P_param
 2132              		.global	Mode24_w0_1080P_param
 2133              		.global	Mode13_w1_1080P_param
 2134              		.global	Mode13_w0_1080P_param
 2135              		.global	Mode12_w1_720P_param
 2136              		.global	Mode12_w0_720P_param
 2137              		.global	Mode6_w3_720P_param
 2138              		.global	Mode6_w2_720P_param
 2139              		.global	Mode6_w1_720P_param
 2140              		.global	Mode6_w0_720P_param
 2141              		.global	Mode2_w3_720P_param
 2142              		.global	Mode2_w2_720P_param
 2143              		.global	Mode2_w1_720P_param
 2144              		.global	Mode2_w0_720P_param
 2145              		.global	Mode1_w3_720P_param
 2146              		.global	Mode1_w2_720P_param
 2147              		.global	Mode1_w1_720P_param
 2148              		.global	Mode1_w0_720P_param
 2149              		.global	Mode0_720P_param
 2150              		.global	Mode12_w1_1080P_param
 2151              		.global	Mode12_w0_1080P_param
 2152              		.global	Mode6_w3_1080P_param
 2153              		.global	Mode6_w2_1080P_param
 2154              		.global	Mode6_w1_1080P_param
 2155              		.global	Mode6_w0_1080P_param
 2156              		.global	Mode2_w3_1080P_param
 2157              		.global	Mode2_w2_1080P_param
 2158              		.global	Mode2_w1_1080P_param
 2159              		.global	Mode2_w0_1080P_param
 2160              		.global	Mode1_w3_1080P_param
 2161              		.global	Mode1_w2_1080P_param
 2162              		.global	Mode1_w1_1080P_param
 2163              		.global	Mode1_w0_1080P_param
 2164              		.global	Mode0_1080P_param
 2165              		.global	OSD_CH3_param
 2166              		.global	OSD_CH2_param
 2167              		.global	OSD_CH1_param
 2168              		.global	OSD_CH0_param
ARM GAS  /tmp/cc0CX9nZ.s 			page 61


 2169              		.global	OSD_No_Signal_param
 2170              		.global	OSD_1920X1200P_param
 2171              		.global	OSD_1600X1200P_param
 2172              		.global	OSD_1680X1050P_param
 2173              		.global	OSD_1400X1050P_param
 2174              		.global	OSD_1280X1024P_param
 2175              		.global	OSD_1440X900P_param
 2176              		.global	OSD_1280X800P_param
 2177              		.global	OSD_1366X768P_param
 2178              		.global	OSD_1360X768P_param
 2179              		.global	OSD_1280X768P_param
 2180              		.global	OSD_1024X768P_param
 2181              		.global	OSD_800X600P_param
 2182              		.global	OSD_640X480P_param
 2183              		.global	OSD_1920x1080I_param
 2184              		.global	OSD_1920x1080P_param
 2185              		.global	OSD_1280x720P_param
 2186              		.global	OSD_720x576P50_param
 2187              		.global	OSD_720x576I50_param
 2188              		.global	OSD_720x480P60_param
 2189              		.global	OSD_720x480I60_param
 2190              		.comm	ptcOSDbar,4,4
 2191              		.comm	OSDx2Flg,1,1
 2192              		.global	bVloss_Flag
 2193              		.comm	MenuOSDonFlg,1,1
 2194              		.section	.rodata.Mode2_w0_1080P_param,"a",%progbits
 2195              		.align	2
 2198              	Mode2_w0_1080P_param:
 2199 0000 B400     		.short	180
 2200 0002 3D00     		.short	61
 2201              		.section	.rodata.OSD_1360X768P_param,"a",%progbits
 2202              		.align	2
 2205              	OSD_1360X768P_param:
 2206 0000 0A       		.byte	10
 2207 0001 63       		.byte	99
 2208 0002 65       		.byte	101
 2209 0003 68       		.byte	104
 2210 0004 62       		.byte	98
 2211 0005 17       		.byte	23
 2212 0006 69       		.byte	105
 2213 0007 68       		.byte	104
 2214 0008 6A       		.byte	106
 2215 0009 0F       		.byte	15
 2216 000a 6D       		.byte	109
 2217              		.section	.rodata.Mode1_w1_720P_param,"a",%progbits
 2218              		.align	2
 2221              	Mode1_w1_720P_param:
 2222 0000 7603     		.short	886
 2223 0002 2500     		.short	37
 2224              		.section	.rodata.OSD_1920x1080I_param,"a",%progbits
 2225              		.align	2
 2226              		.set	.LANCHOR4,. + 0
 2229              	OSD_1920x1080I_param:
 2230 0000 0A       		.byte	10
 2231 0001 63       		.byte	99
 2232 0002 6B       		.byte	107
 2233 0003 64       		.byte	100
ARM GAS  /tmp/cc0CX9nZ.s 			page 62


 2234 0004 62       		.byte	98
 2235 0005 17       		.byte	23
 2236 0006 63       		.byte	99
 2237 0007 62       		.byte	98
 2238 0008 6A       		.byte	106
 2239 0009 62       		.byte	98
 2240 000a 08       		.byte	8
 2241              		.section	.rodata.Mode12_w1_720P_param,"a",%progbits
 2242              		.align	2
 2245              	Mode12_w1_720P_param:
 2246 0000 7603     		.short	886
 2247 0002 2500     		.short	37
 2248              		.section	.rodata.OSD_720x576I50_param,"a",%progbits
 2249              		.align	2
 2250              		.set	.LANCHOR1,. + 0
 2253              	OSD_720x576I50_param:
 2254 0000 0A       		.byte	10
 2255 0001 69       		.byte	105
 2256 0002 64       		.byte	100
 2257 0003 62       		.byte	98
 2258 0004 17       		.byte	23
 2259 0005 67       		.byte	103
 2260 0006 69       		.byte	105
 2261 0007 68       		.byte	104
 2262 0008 08       		.byte	8
 2263 0009 6D       		.byte	109
 2264 000a 6D       		.byte	109
 2265              		.section	.rodata.Mode0_1080P_param,"a",%progbits
 2266              		.align	2
 2269              	Mode0_1080P_param:
 2270 0000 B400     		.short	180
 2271 0002 3D00     		.short	61
 2272              		.section	.rodata.aLineMode720PMode6Lin1,"a",%progbits
 2273              		.align	2
 2276              	aLineMode720PMode6Lin1:
 2277 0000 01       		.byte	1
 2278 0001 02       		.byte	2
 2279 0002 15       		.byte	21
 2280 0003 E4       		.byte	-28
 2281 0004 04       		.byte	4
 2282 0005 2E       		.byte	46
 2283 0006 83       		.byte	-125
 2284              		.section	.rodata.aLineMode720PMode6Lin2,"a",%progbits
 2285              		.align	2
 2288              	aLineMode720PMode6Lin2:
 2289 0000 02       		.byte	2
 2290 0001 45       		.byte	69
 2291 0002 30       		.byte	48
 2292 0003 DB       		.byte	-37
 2293 0004 81       		.byte	-127
 2294 0005 04       		.byte	4
 2295 0006 83       		.byte	-125
 2296              		.section	.rodata.aLineMode720PMode6Lin3,"a",%progbits
 2297              		.align	2
 2300              	aLineMode720PMode6Lin3:
 2301 0000 03       		.byte	3
 2302 0001 45       		.byte	69
ARM GAS  /tmp/cc0CX9nZ.s 			page 63


 2303 0002 30       		.byte	48
 2304 0003 DB       		.byte	-37
 2305 0004 81       		.byte	-127
 2306 0005 F5       		.byte	-11
 2307 0006 83       		.byte	-125
 2308              		.section	.rodata.aLineMode720PMode2Lin1,"a",%progbits
 2309              		.align	2
 2312              	aLineMode720PMode2Lin1:
 2313 0000 01       		.byte	1
 2314 0001 02       		.byte	2
 2315 0002 15       		.byte	21
 2316 0003 E4       		.byte	-28
 2317 0004 02       		.byte	2
 2318 0005 1A       		.byte	26
 2319 0006 83       		.byte	-125
 2320              		.section	.rodata.aLineMode1080PMode12Lin1,"a",%progbits
 2321              		.align	2
 2324              	aLineMode1080PMode12Lin1:
 2325 0000 01       		.byte	1
 2326 0001 04       		.byte	4
 2327 0002 25       		.byte	37
 2328 0003 5C       		.byte	92
 2329 0004 04       		.byte	4
 2330 0005 51       		.byte	81
 2331 0006 83       		.byte	-125
 2332              		.section	.rodata.aLineMode720PMode2Lin3,"a",%progbits
 2333              		.align	2
 2336              	aLineMode720PMode2Lin3:
 2337 0000 03       		.byte	3
 2338 0001 24       		.byte	36
 2339 0002 1B       		.byte	27
 2340 0003 9B       		.byte	-101
 2341 0004 81       		.byte	-127
 2342 0005 7D       		.byte	125
 2343 0006 83       		.byte	-125
 2344              		.section	.rodata.Mode24_w0_1080P_param,"a",%progbits
 2345              		.align	2
 2348              	Mode24_w0_1080P_param:
 2349 0000 B400     		.short	180
 2350 0002 3D00     		.short	61
 2351              		.section	.rodata.Mode2_w3_1080P_param,"a",%progbits
 2352              		.align	2
 2355              	Mode2_w3_1080P_param:
 2356 0000 5806     		.short	1624
 2357 0002 3D00     		.short	61
 2358              		.section	.rodata.aLineMode720PMode2Lin2,"a",%progbits
 2359              		.align	2
 2362              	aLineMode720PMode2Lin2:
 2363 0000 02       		.byte	2
 2364 0001 02       		.byte	2
 2365 0002 15       		.byte	21
 2366 0003 E4       		.byte	-28
 2367 0004 04       		.byte	4
 2368 0005 9A       		.byte	-102
 2369 0006 83       		.byte	-125
 2370              		.section	.rodata.OSD_1280X768P_param,"a",%progbits
 2371              		.align	2
ARM GAS  /tmp/cc0CX9nZ.s 			page 64


 2372              		.set	.LANCHOR10,. + 0
 2375              	OSD_1280X768P_param:
 2376 0000 0A       		.byte	10
 2377 0001 63       		.byte	99
 2378 0002 64       		.byte	100
 2379 0003 6A       		.byte	106
 2380 0004 62       		.byte	98
 2381 0005 17       		.byte	23
 2382 0006 69       		.byte	105
 2383 0007 68       		.byte	104
 2384 0008 6A       		.byte	106
 2385 0009 0F       		.byte	15
 2386 000a 6D       		.byte	109
 2387              		.section	.rodata.Mode13_w1_1080P_param,"a",%progbits
 2388              		.align	2
 2391              	Mode13_w1_1080P_param:
 2392 0000 B400     		.short	180
 2393 0002 5B02     		.short	603
 2394              		.section	.rodata.Mode12_w1_1080P_param,"a",%progbits
 2395              		.align	2
 2398              	Mode12_w1_1080P_param:
 2399 0000 7404     		.short	1140
 2400 0002 3D00     		.short	61
 2401              		.section	.rodata.OSD_1280X800P_param,"a",%progbits
 2402              		.align	2
 2403              		.set	.LANCHOR12,. + 0
 2406              	OSD_1280X800P_param:
 2407 0000 0A       		.byte	10
 2408 0001 63       		.byte	99
 2409 0002 64       		.byte	100
 2410 0003 6A       		.byte	106
 2411 0004 62       		.byte	98
 2412 0005 17       		.byte	23
 2413 0006 6A       		.byte	106
 2414 0007 62       		.byte	98
 2415 0008 62       		.byte	98
 2416 0009 0F       		.byte	15
 2417 000a 6D       		.byte	109
 2418              		.section	.rodata.OSD_1440X900P_param,"a",%progbits
 2419              		.align	2
 2420              		.set	.LANCHOR13,. + 0
 2423              	OSD_1440X900P_param:
 2424 0000 0A       		.byte	10
 2425 0001 63       		.byte	99
 2426 0002 66       		.byte	102
 2427 0003 66       		.byte	102
 2428 0004 62       		.byte	98
 2429 0005 17       		.byte	23
 2430 0006 6B       		.byte	107
 2431 0007 62       		.byte	98
 2432 0008 62       		.byte	98
 2433 0009 0F       		.byte	15
 2434 000a 6D       		.byte	109
 2435              		.section	.rodata.Mode1_w1_1080P_param,"a",%progbits
 2436              		.align	2
 2439              	Mode1_w1_1080P_param:
 2440 0000 7404     		.short	1140
ARM GAS  /tmp/cc0CX9nZ.s 			page 65


 2441 0002 3D00     		.short	61
 2442              		.section	.rodata.OSD_CH0_param,"a",%progbits
 2443              		.align	2
 2444              		.set	.LANCHOR23,. + 0
 2447              	OSD_CH0_param:
 2448 0000 06       		.byte	6
 2449 0001 02       		.byte	2
 2450 0002 07       		.byte	7
 2451 0003 6D       		.byte	109
 2452 0004 63       		.byte	99
 2453 0005 6D       		.byte	109
 2454 0006 6D       		.byte	109
 2455              		.section	.rodata.Mode2_w2_1080P_param,"a",%progbits
 2456              		.align	2
 2459              	Mode2_w2_1080P_param:
 2460 0000 9802     		.short	664
 2461 0002 5B02     		.short	603
 2462              		.section	.rodata.OSD_1680X1050P_param,"a",%progbits
 2463              		.align	2
 2464              		.set	.LANCHOR16,. + 0
 2467              	OSD_1680X1050P_param:
 2468 0000 0A       		.byte	10
 2469 0001 63       		.byte	99
 2470 0002 68       		.byte	104
 2471 0003 6A       		.byte	106
 2472 0004 62       		.byte	98
 2473 0005 17       		.byte	23
 2474 0006 63       		.byte	99
 2475 0007 62       		.byte	98
 2476 0008 67       		.byte	103
 2477 0009 62       		.byte	98
 2478 000a 0F       		.byte	15
 2479              		.section	.rodata.Mode12_w0_1080P_param,"a",%progbits
 2480              		.align	2
 2483              	Mode12_w0_1080P_param:
 2484 0000 B400     		.short	180
 2485 0002 3D00     		.short	61
 2486              		.section	.rodata.Mode6_w2_720P_param,"a",%progbits
 2487              		.align	2
 2490              	Mode6_w2_720P_param:
 2491 0000 4A04     		.short	1098
 2492 0002 1801     		.short	280
 2493              		.section	.rodata.Mode24_w1_720P_param,"a",%progbits
 2494              		.align	2
 2497              	Mode24_w1_720P_param:
 2498 0000 4A04     		.short	1098
 2499 0002 0502     		.short	517
 2500              		.section	.rodata.aLineMode1080PMode6Lin1,"a",%progbits
 2501              		.align	2
 2504              	aLineMode1080PMode6Lin1:
 2505 0000 01       		.byte	1
 2506 0001 04       		.byte	4
 2507 0002 25       		.byte	37
 2508 0003 5C       		.byte	92
 2509 0004 05       		.byte	5
 2510 0005 90       		.byte	-112
 2511 0006 83       		.byte	-125
ARM GAS  /tmp/cc0CX9nZ.s 			page 66


 2512              		.section	.rodata.OSD_1280X1024P_param,"a",%progbits
 2513              		.align	2
 2514              		.set	.LANCHOR14,. + 0
 2517              	OSD_1280X1024P_param:
 2518 0000 0A       		.byte	10
 2519 0001 63       		.byte	99
 2520 0002 64       		.byte	100
 2521 0003 6A       		.byte	106
 2522 0004 62       		.byte	98
 2523 0005 17       		.byte	23
 2524 0006 63       		.byte	99
 2525 0007 62       		.byte	98
 2526 0008 64       		.byte	100
 2527 0009 66       		.byte	102
 2528 000a 0F       		.byte	15
 2529              		.section	.rodata.aLineMode1080PMode6Lin3,"a",%progbits
 2530              		.align	2
 2533              	aLineMode1080PMode6Lin3:
 2534 0000 03       		.byte	3
 2535 0001 58       		.byte	88
 2536 0002 92       		.byte	-110
 2537 0003 13       		.byte	19
 2538 0004 82       		.byte	-126
 2539 0005 F5       		.byte	-11
 2540 0006 83       		.byte	-125
 2541              		.section	.rodata.aLineMode1080PMode2Lin1,"a",%progbits
 2542              		.align	2
 2545              	aLineMode1080PMode2Lin1:
 2546 0000 01       		.byte	1
 2547 0001 04       		.byte	4
 2548 0002 25       		.byte	37
 2549 0003 5C       		.byte	92
 2550 0004 02       		.byte	2
 2551 0005 72       		.byte	114
 2552 0006 83       		.byte	-125
 2553              		.section	.rodata.aLineMode1080PMode2Lin2,"a",%progbits
 2554              		.align	2
 2557              	aLineMode1080PMode2Lin2:
 2558 0000 02       		.byte	2
 2559 0001 04       		.byte	4
 2560 0002 25       		.byte	37
 2561 0003 5C       		.byte	92
 2562 0004 06       		.byte	6
 2563 0005 32       		.byte	50
 2564 0006 83       		.byte	-125
 2565              		.section	.rodata.aLineMode1080PMode2Lin3,"a",%progbits
 2566              		.align	2
 2569              	aLineMode1080PMode2Lin3:
 2570 0000 03       		.byte	3
 2571 0001 26       		.byte	38
 2572 0002 74       		.byte	116
 2573 0003 33       		.byte	51
 2574 0004 82       		.byte	-126
 2575 0005 41       		.byte	65
 2576 0006 83       		.byte	-125
 2577              		.section	.rodata.Mode2_w0_720P_param,"a",%progbits
 2578              		.align	2
ARM GAS  /tmp/cc0CX9nZ.s 			page 67


 2581              	Mode2_w0_720P_param:
 2582 0000 F400     		.short	244
 2583 0002 2500     		.short	37
 2584              		.section	.rodata.OSD_1920x1080P_param,"a",%progbits
 2585              		.align	2
 2586              		.set	.LANCHOR6,. + 0
 2589              	OSD_1920x1080P_param:
 2590 0000 0A       		.byte	10
 2591 0001 63       		.byte	99
 2592 0002 6B       		.byte	107
 2593 0003 64       		.byte	100
 2594 0004 62       		.byte	98
 2595 0005 17       		.byte	23
 2596 0006 63       		.byte	99
 2597 0007 62       		.byte	98
 2598 0008 6A       		.byte	106
 2599 0009 62       		.byte	98
 2600 000a 0F       		.byte	15
 2601              		.section	.rodata.Mode6_w2_1080P_param,"a",%progbits
 2602              		.align	2
 2605              	Mode6_w2_1080P_param:
 2606 0000 B405     		.short	1460
 2607 0002 A601     		.short	422
 2608              		.section	.rodata.Mode1_w0_720P_param,"a",%progbits
 2609              		.align	2
 2612              	Mode1_w0_720P_param:
 2613 0000 F400     		.short	244
 2614 0002 2500     		.short	37
 2615              		.section	.rodata.OSD_CH2_param,"a",%progbits
 2616              		.align	2
 2617              		.set	.LANCHOR21,. + 0
 2620              	OSD_CH2_param:
 2621 0000 06       		.byte	6
 2622 0001 02       		.byte	2
 2623 0002 07       		.byte	7
 2624 0003 6D       		.byte	109
 2625 0004 65       		.byte	101
 2626 0005 6D       		.byte	109
 2627 0006 6D       		.byte	109
 2628              		.section	.rodata.Mode13_w0_1080P_param,"a",%progbits
 2629              		.align	2
 2632              	Mode13_w0_1080P_param:
 2633 0000 B400     		.short	180
 2634 0002 3D00     		.short	61
 2635              		.section	.rodata.Mode6_w0_720P_param,"a",%progbits
 2636              		.align	2
 2639              	Mode6_w0_720P_param:
 2640 0000 F400     		.short	244
 2641 0002 2500     		.short	37
 2642              		.section	.rodata.OSD_No_Signal_param,"a",%progbits
 2643              		.align	2
 2644              		.set	.LANCHOR19,. + 0
 2647              	OSD_No_Signal_param:
 2648 0000 0A       		.byte	10
 2649 0001 0D       		.byte	13
 2650 0002 28       		.byte	40
 2651 0003 6D       		.byte	109
ARM GAS  /tmp/cc0CX9nZ.s 			page 68


 2652 0004 12       		.byte	18
 2653 0005 22       		.byte	34
 2654 0006 20       		.byte	32
 2655 0007 27       		.byte	39
 2656 0008 1A       		.byte	26
 2657 0009 25       		.byte	37
 2658 000a 6D       		.byte	109
 2659              		.section	.rodata.aLineModeReg,"a",%progbits
 2660              		.align	2
 2663              	aLineModeReg:
 2664 0000 B8       		.byte	-72
 2665 0001 BA       		.byte	-70
 2666 0002 BB       		.byte	-69
 2667 0003 BC       		.byte	-68
 2668 0004 BD       		.byte	-67
 2669 0005 BE       		.byte	-66
 2670 0006 B9       		.byte	-71
 2671              		.section	.rodata.OSD_CH3_param,"a",%progbits
 2672              		.align	2
 2673              		.set	.LANCHOR22,. + 0
 2676              	OSD_CH3_param:
 2677 0000 06       		.byte	6
 2678 0001 02       		.byte	2
 2679 0002 07       		.byte	7
 2680 0003 6D       		.byte	109
 2681 0004 66       		.byte	102
 2682 0005 6D       		.byte	109
 2683 0006 6D       		.byte	109
 2684              		.section	.rodata.Mode2_w2_720P_param,"a",%progbits
 2685              		.align	2
 2688              	Mode2_w2_720P_param:
 2689 0000 3602     		.short	566
 2690 0002 9101     		.short	401
 2691              		.section	.rodata.Mode13_w0_720P_param,"a",%progbits
 2692              		.align	2
 2695              	Mode13_w0_720P_param:
 2696 0000 F400     		.short	244
 2697 0002 2500     		.short	37
 2698              		.section	.rodata.Mode2_w1_1080P_param,"a",%progbits
 2699              		.align	2
 2702              	Mode2_w1_1080P_param:
 2703 0000 9802     		.short	664
 2704 0002 3D00     		.short	61
 2705              		.section	.rodata.Mode1_w3_1080P_param,"a",%progbits
 2706              		.align	2
 2709              	Mode1_w3_1080P_param:
 2710 0000 7404     		.short	1140
 2711 0002 5B02     		.short	603
 2712              		.section	.rodata.Mode1_w2_1080P_param,"a",%progbits
 2713              		.align	2
 2716              	Mode1_w2_1080P_param:
 2717 0000 B400     		.short	180
 2718 0002 5B02     		.short	603
 2719              		.section	.rodata.Mode0_720P_param,"a",%progbits
 2720              		.align	2
 2723              	Mode0_720P_param:
 2724 0000 F400     		.short	244
ARM GAS  /tmp/cc0CX9nZ.s 			page 69


 2725 0002 2500     		.short	37
 2726              		.section	.rodata.Mode12_w0_720P_param,"a",%progbits
 2727              		.align	2
 2730              	Mode12_w0_720P_param:
 2731 0000 F400     		.short	244
 2732 0002 2500     		.short	37
 2733              		.section	.rodata.Mode1_w2_720P_param,"a",%progbits
 2734              		.align	2
 2737              	Mode1_w2_720P_param:
 2738 0000 F400     		.short	244
 2739 0002 9101     		.short	401
 2740              		.section	.rodata.Mode1_w0_1080P_param,"a",%progbits
 2741              		.align	2
 2744              	Mode1_w0_1080P_param:
 2745 0000 B400     		.short	180
 2746 0002 3D00     		.short	61
 2747              		.section	.rodata.OSD_720x480P60_param,"a",%progbits
 2748              		.align	2
 2749              		.set	.LANCHOR2,. + 0
 2752              	OSD_720x480P60_param:
 2753 0000 0A       		.byte	10
 2754 0001 69       		.byte	105
 2755 0002 64       		.byte	100
 2756 0003 62       		.byte	98
 2757 0004 17       		.byte	23
 2758 0005 66       		.byte	102
 2759 0006 6A       		.byte	106
 2760 0007 62       		.byte	98
 2761 0008 0F       		.byte	15
 2762 0009 6D       		.byte	109
 2763 000a 6D       		.byte	109
 2764              		.section	.rodata.Mode24_w1_1080P_param,"a",%progbits
 2765              		.align	2
 2768              	Mode24_w1_1080P_param:
 2769 0000 B405     		.short	1460
 2770 0002 0D03     		.short	781
 2771              		.section	.rodata.Mode1_w3_720P_param,"a",%progbits
 2772              		.align	2
 2775              	Mode1_w3_720P_param:
 2776 0000 7603     		.short	886
 2777 0002 9101     		.short	401
 2778              		.section	.rodata.aLineMode1080PMode1Lin2,"a",%progbits
 2779              		.align	2
 2782              	aLineMode1080PMode1Lin2:
 2783 0000 02       		.byte	2
 2784 0001 08       		.byte	8
 2785 0002 94       		.byte	-108
 2786 0003 13       		.byte	19
 2787 0004 82       		.byte	-126
 2788 0005 41       		.byte	65
 2789 0006 83       		.byte	-125
 2790              		.section	.rodata.OSD_1280x720P_param,"a",%progbits
 2791              		.align	2
 2792              		.set	.LANCHOR5,. + 0
 2795              	OSD_1280x720P_param:
 2796 0000 0A       		.byte	10
 2797 0001 63       		.byte	99
ARM GAS  /tmp/cc0CX9nZ.s 			page 70


 2798 0002 64       		.byte	100
 2799 0003 6A       		.byte	106
 2800 0004 62       		.byte	98
 2801 0005 17       		.byte	23
 2802 0006 69       		.byte	105
 2803 0007 64       		.byte	100
 2804 0008 62       		.byte	98
 2805 0009 0F       		.byte	15
 2806 000a 6D       		.byte	109
 2807              		.section	.rodata.OSD_800X600P_param,"a",%progbits
 2808              		.align	2
 2809              		.set	.LANCHOR8,. + 0
 2812              	OSD_800X600P_param:
 2813 0000 0A       		.byte	10
 2814 0001 6A       		.byte	106
 2815 0002 62       		.byte	98
 2816 0003 62       		.byte	98
 2817 0004 17       		.byte	23
 2818 0005 68       		.byte	104
 2819 0006 62       		.byte	98
 2820 0007 62       		.byte	98
 2821 0008 0F       		.byte	15
 2822 0009 6D       		.byte	109
 2823 000a 6D       		.byte	109
 2824              		.section	.rodata.OSD_640X480P_param,"a",%progbits
 2825              		.align	2
 2826              		.set	.LANCHOR7,. + 0
 2829              	OSD_640X480P_param:
 2830 0000 0A       		.byte	10
 2831 0001 68       		.byte	104
 2832 0002 66       		.byte	102
 2833 0003 62       		.byte	98
 2834 0004 17       		.byte	23
 2835 0005 66       		.byte	102
 2836 0006 6A       		.byte	106
 2837 0007 62       		.byte	98
 2838 0008 0F       		.byte	15
 2839 0009 6D       		.byte	109
 2840 000a 6D       		.byte	109
 2841              		.section	.rodata.Mode6_w0_1080P_param,"a",%progbits
 2842              		.align	2
 2845              	Mode6_w0_1080P_param:
 2846 0000 B400     		.short	180
 2847 0002 3D00     		.short	61
 2848              		.section	.rodata.OSD_720x576P50_param,"a",%progbits
 2849              		.align	2
 2850              		.set	.LANCHOR3,. + 0
 2853              	OSD_720x576P50_param:
 2854 0000 0A       		.byte	10
 2855 0001 69       		.byte	105
 2856 0002 64       		.byte	100
 2857 0003 62       		.byte	98
 2858 0004 17       		.byte	23
 2859 0005 67       		.byte	103
 2860 0006 69       		.byte	105
 2861 0007 68       		.byte	104
 2862 0008 0F       		.byte	15
ARM GAS  /tmp/cc0CX9nZ.s 			page 71


 2863 0009 6D       		.byte	109
 2864 000a 6D       		.byte	109
 2865              		.section	.rodata.Mode6_w1_1080P_param,"a",%progbits
 2866              		.align	2
 2869              	Mode6_w1_1080P_param:
 2870 0000 B405     		.short	1460
 2871 0002 3D00     		.short	61
 2872              		.section	.rodata.OSD_1920X1200P_param,"a",%progbits
 2873              		.align	2
 2874              		.set	.LANCHOR18,. + 0
 2877              	OSD_1920X1200P_param:
 2878 0000 0A       		.byte	10
 2879 0001 63       		.byte	99
 2880 0002 6B       		.byte	107
 2881 0003 64       		.byte	100
 2882 0004 62       		.byte	98
 2883 0005 17       		.byte	23
 2884 0006 63       		.byte	99
 2885 0007 64       		.byte	100
 2886 0008 62       		.byte	98
 2887 0009 62       		.byte	98
 2888 000a 0F       		.byte	15
 2889              		.section	.rodata.Mode24_w0_720P_param,"a",%progbits
 2890              		.align	2
 2893              	Mode24_w0_720P_param:
 2894 0000 F400     		.short	244
 2895 0002 2500     		.short	37
 2896              		.section	.rodata.Mode6_w3_1080P_param,"a",%progbits
 2897              		.align	2
 2900              	Mode6_w3_1080P_param:
 2901 0000 B405     		.short	1460
 2902 0002 0F03     		.short	783
 2903              		.section	.rodata.Mode13_w1_720P_param,"a",%progbits
 2904              		.align	2
 2907              	Mode13_w1_720P_param:
 2908 0000 F400     		.short	244
 2909 0002 9101     		.short	401
 2910              		.section	.rodata.OSD_1600X1200P_param,"a",%progbits
 2911              		.align	2
 2912              		.set	.LANCHOR17,. + 0
 2915              	OSD_1600X1200P_param:
 2916 0000 0A       		.byte	10
 2917 0001 63       		.byte	99
 2918 0002 68       		.byte	104
 2919 0003 62       		.byte	98
 2920 0004 62       		.byte	98
 2921 0005 17       		.byte	23
 2922 0006 63       		.byte	99
 2923 0007 64       		.byte	100
 2924 0008 62       		.byte	98
 2925 0009 62       		.byte	98
 2926 000a 0F       		.byte	15
 2927              		.section	.rodata.OSD_CH1_param,"a",%progbits
 2928              		.align	2
 2929              		.set	.LANCHOR20,. + 0
 2932              	OSD_CH1_param:
 2933 0000 06       		.byte	6
ARM GAS  /tmp/cc0CX9nZ.s 			page 72


 2934 0001 02       		.byte	2
 2935 0002 07       		.byte	7
 2936 0003 6D       		.byte	109
 2937 0004 64       		.byte	100
 2938 0005 6D       		.byte	109
 2939 0006 6D       		.byte	109
 2940              		.section	.rodata.aLineMode720PMode12Lin1,"a",%progbits
 2941              		.align	2
 2944              	aLineMode720PMode12Lin1:
 2945 0000 01       		.byte	1
 2946 0001 02       		.byte	2
 2947 0002 15       		.byte	21
 2948 0003 E4       		.byte	-28
 2949 0004 03       		.byte	3
 2950 0005 5A       		.byte	90
 2951 0006 83       		.byte	-125
 2952              		.section	.rodata.aLineMode720PMode1Lin2,"a",%progbits
 2953              		.align	2
 2956              	aLineMode720PMode1Lin2:
 2957 0000 02       		.byte	2
 2958 0001 05       		.byte	5
 2959 0002 DC       		.byte	-36
 2960 0003 DB       		.byte	-37
 2961 0004 81       		.byte	-127
 2962 0005 7D       		.byte	125
 2963 0006 83       		.byte	-125
 2964              		.section	.rodata.Mode6_w1_720P_param,"a",%progbits
 2965              		.align	2
 2968              	Mode6_w1_720P_param:
 2969 0000 4A04     		.short	1098
 2970 0002 2500     		.short	37
 2971              		.section	.rodata.aLineMode1080PMode1Lin1,"a",%progbits
 2972              		.align	2
 2975              	aLineMode1080PMode1Lin1:
 2976 0000 01       		.byte	1
 2977 0001 04       		.byte	4
 2978 0002 25       		.byte	37
 2979 0003 5C       		.byte	92
 2980 0004 04       		.byte	4
 2981 0005 51       		.byte	81
 2982 0006 83       		.byte	-125
 2983              		.section	.bss.bVloss_Flag,"aw",%nobits
 2986              	bVloss_Flag:
 2987 0000 00       		.space	1
 2988              		.section	.rodata.Mode6_w3_720P_param,"a",%progbits
 2989              		.align	2
 2992              	Mode6_w3_720P_param:
 2993 0000 4A04     		.short	1098
 2994 0002 0802     		.short	520
 2995              		.section	.rodata.aLineMode720PMode1Lin1,"a",%progbits
 2996              		.align	2
 2999              	aLineMode720PMode1Lin1:
 3000 0000 01       		.byte	1
 3001 0001 02       		.byte	2
 3002 0002 15       		.byte	21
 3003 0003 E4       		.byte	-28
 3004 0004 03       		.byte	3
ARM GAS  /tmp/cc0CX9nZ.s 			page 73


 3005 0005 5A       		.byte	90
 3006 0006 83       		.byte	-125
 3007              		.section	.rodata.OSD_1400X1050P_param,"a",%progbits
 3008              		.align	2
 3009              		.set	.LANCHOR15,. + 0
 3012              	OSD_1400X1050P_param:
 3013 0000 0A       		.byte	10
 3014 0001 63       		.byte	99
 3015 0002 66       		.byte	102
 3016 0003 62       		.byte	98
 3017 0004 62       		.byte	98
 3018 0005 17       		.byte	23
 3019 0006 63       		.byte	99
 3020 0007 62       		.byte	98
 3021 0008 67       		.byte	103
 3022 0009 62       		.byte	98
 3023 000a 0F       		.byte	15
 3024              		.section	.rodata.Mode2_w3_720P_param,"a",%progbits
 3025              		.align	2
 3028              	Mode2_w3_720P_param:
 3029 0000 B604     		.short	1206
 3030 0002 2500     		.short	37
 3031              		.section	.rodata.OSD_720x480I60_param,"a",%progbits
 3032              		.align	2
 3033              		.set	.LANCHOR0,. + 0
 3036              	OSD_720x480I60_param:
 3037 0000 0A       		.byte	10
 3038 0001 69       		.byte	105
 3039 0002 64       		.byte	100
 3040 0003 62       		.byte	98
 3041 0004 17       		.byte	23
 3042 0005 66       		.byte	102
 3043 0006 6A       		.byte	106
 3044 0007 62       		.byte	98
 3045 0008 08       		.byte	8
 3046 0009 6D       		.byte	109
 3047 000a 6D       		.byte	109
 3048              		.section	.rodata.aLineMode1080PMode6Lin2,"a",%progbits
 3049              		.align	2
 3052              	aLineMode1080PMode6Lin2:
 3053 0000 02       		.byte	2
 3054 0001 58       		.byte	88
 3055 0002 92       		.byte	-110
 3056 0003 13       		.byte	19
 3057 0004 81       		.byte	-127
 3058 0005 8C       		.byte	-116
 3059 0006 83       		.byte	-125
 3060              		.section	.rodata.str1.4,"aMS",%progbits,1
 3061              		.align	2
 3062              	.LC0:
 3063 0000 28534554 		.ascii	"(SET_VIDEO_VLOSS ch=%d set=%d)\000"
 3063      5F564944 
 3063      454F5F56 
 3063      4C4F5353 
 3063      2063683D 
 3064              		.section	.rodata.Mode2_w1_720P_param,"a",%progbits
 3065              		.align	2
ARM GAS  /tmp/cc0CX9nZ.s 			page 74


 3068              	Mode2_w1_720P_param:
 3069 0000 3602     		.short	566
 3070 0002 2500     		.short	37
 3071              		.section	.rodata.OSD_1366X768P_param,"a",%progbits
 3072              		.align	2
 3073              		.set	.LANCHOR11,. + 0
 3076              	OSD_1366X768P_param:
 3077 0000 0A       		.byte	10
 3078 0001 63       		.byte	99
 3079 0002 65       		.byte	101
 3080 0003 68       		.byte	104
 3081 0004 68       		.byte	104
 3082 0005 17       		.byte	23
 3083 0006 69       		.byte	105
 3084 0007 68       		.byte	104
 3085 0008 6A       		.byte	106
 3086 0009 0F       		.byte	15
 3087 000a 6D       		.byte	109
 3088              		.section	.rodata.OSD_1024X768P_param,"a",%progbits
 3089              		.align	2
 3090              		.set	.LANCHOR9,. + 0
 3093              	OSD_1024X768P_param:
 3094 0000 0A       		.byte	10
 3095 0001 63       		.byte	99
 3096 0002 62       		.byte	98
 3097 0003 64       		.byte	100
 3098 0004 66       		.byte	102
 3099 0005 17       		.byte	23
 3100 0006 69       		.byte	105
 3101 0007 68       		.byte	104
 3102 0008 6A       		.byte	106
 3103 0009 0F       		.byte	15
 3104 000a 6D       		.byte	109
 3105              		.text
 3106              	.Letext0:
 3107              		.file 2 "/usr/include/newlib/machine/_default_types.h"
 3108              		.file 3 "/usr/include/newlib/sys/_stdint.h"
 3109              		.file 4 "VS4210/VXIS_Extern_Define.h"
 3110              		.file 5 "Drivers/CMSIS/Device/ST/STM32F1xx/Include/stm32f103xb.h"
 3111              		.file 6 "Drivers/STM32F1xx_HAL_Driver/Inc/stm32f1xx_hal_gpio.h"
 3112              		.file 7 "VS4210/Printf.h"
 3113              		.file 8 "sw_i2c/VX_swi2c.h"
 3114              		.file 9 "Drivers/CMSIS/Include/core_cm3.h"
 3115              		.file 10 "VS4210/VX_OSD.h"
 3116              		.file 11 "Inc/main.h"
ARM GAS  /tmp/cc0CX9nZ.s 			page 75

