ARM GAS  /tmp/ccCN3Dsv.s 			page 1


   1              		.cpu cortex-m3
   2              		.eabi_attribute 20, 1
   3              		.eabi_attribute 21, 1
   4              		.eabi_attribute 23, 3
   5              		.eabi_attribute 24, 1
   6              		.eabi_attribute 25, 1
   7              		.eabi_attribute 26, 1
   8              		.eabi_attribute 30, 1
   9              		.eabi_attribute 34, 1
  10              		.eabi_attribute 18, 4
  11              		.file	"VX_OSD_Simple.c"
  12              		.text
  13              	.Ltext0:
  14              		.cfi_sections	.debug_frame
  15              		.section	.text.GetconvertBarStr,"ax",%progbits
  16              		.align	1
  17              		.syntax unified
  18              		.thumb
  19              		.thumb_func
  20              		.fpu softvfp
  22              	GetconvertBarStr:
  23              	.LFB69:
  24              		.file 1 "VS4210/VX_OSD_Simple.c"
   1:VS4210/VX_OSD_Simple.c **** /** @file VX_OSD_Simple.c
   2:VS4210/VX_OSD_Simple.c ****   * @brief OSD subtitle display program
   3:VS4210/VX_OSD_Simple.c ****   *
   4:VS4210/VX_OSD_Simple.c ****   * Message is displayed on the screen.
   5:VS4210/VX_OSD_Simple.c ****   *
   6:VS4210/VX_OSD_Simple.c ****   * @author Cunu-Yu
   7:VS4210/VX_OSD_Simple.c ****   * @date 2018/06/20
   8:VS4210/VX_OSD_Simple.c ****   */
   9:VS4210/VX_OSD_Simple.c **** 
  10:VS4210/VX_OSD_Simple.c **** #include <string.h>
  11:VS4210/VX_OSD_Simple.c **** #include "VXIS_Extern_Define.h"
  12:VS4210/VX_OSD_Simple.c **** #include "VX_OSD.h"
  13:VS4210/VX_OSD_Simple.c **** #include "VX_swi2c.h"
  14:VS4210/VX_OSD_Simple.c **** 
  15:VS4210/VX_OSD_Simple.c **** #include "main.h"
  16:VS4210/VX_OSD_Simple.c **** #include "Printf.h"
  17:VS4210/VX_OSD_Simple.c **** 
  18:VS4210/VX_OSD_Simple.c **** tByte MenuOSDonFlg ;
  19:VS4210/VX_OSD_Simple.c **** tByte bVloss_Flag=0;
  20:VS4210/VX_OSD_Simple.c **** 
  21:VS4210/VX_OSD_Simple.c **** extern  tByte u8gDrawOSDFlg ;
  22:VS4210/VX_OSD_Simple.c **** extern  tByte gbVXIS_OuputSize  ;
  23:VS4210/VX_OSD_Simple.c **** extern  tByte gbVXIS_OuputModeflg ;
  24:VS4210/VX_OSD_Simple.c **** extern  tByte gbVXIS_InputMode[4]  ;
  25:VS4210/VX_OSD_Simple.c **** extern  tByte gaHDMI_MapWindowIndex[4] ;
  26:VS4210/VX_OSD_Simple.c **** extern  tByte gu8AudioMode  ;
  27:VS4210/VX_OSD_Simple.c **** extern BYTE SelectInputMode;///0=HDMI , 1=AHD
  28:VS4210/VX_OSD_Simple.c **** extern tByte bSignal[4];
  29:VS4210/VX_OSD_Simple.c **** 
  30:VS4210/VX_OSD_Simple.c **** tByte OSDx2Flg ;
  31:VS4210/VX_OSD_Simple.c **** #define _TransParentColor  8
  32:VS4210/VX_OSD_Simple.c **** #define _Color 0x07
  33:VS4210/VX_OSD_Simple.c **** #define _MenuColor 0x17 // _Blue (bg) + _White
  34:VS4210/VX_OSD_Simple.c **** #define _MenuSelColor ((_RoyalBlue & 0x07) << 4 ) | _Orange
ARM GAS  /tmp/ccCN3Dsv.s 			page 2


  35:VS4210/VX_OSD_Simple.c **** 
  36:VS4210/VX_OSD_Simple.c **** tcByte *ptcOSDbar ;    
  37:VS4210/VX_OSD_Simple.c **** tcByte OSD_720x480I60_param[]=  {10 ,_7,_2,_0,_X,_4,_8,_0,_I,_spc,_spc};
  38:VS4210/VX_OSD_Simple.c **** tcByte OSD_720x480P60_param[]=  {10 ,_7,_2,_0,_X,_4,_8,_0,_P,_spc,_spc};
  39:VS4210/VX_OSD_Simple.c **** tcByte OSD_720x576I50_param[]=  {10 ,_7,_2,_0,_X,_5,_7,_6,_I,_spc,_spc};
  40:VS4210/VX_OSD_Simple.c **** tcByte OSD_720x576P50_param[]=  {10 ,_7,_2,_0,_X,_5,_7,_6,_P,_spc,_spc};
  41:VS4210/VX_OSD_Simple.c **** tcByte OSD_1280x720P_param[] =  {10 ,_1,_2,_8,_0,_X,_7,_2,_0,_P  ,_spc};
  42:VS4210/VX_OSD_Simple.c **** tcByte OSD_1920x1080P_param[]=  {10 ,_1,_9,_2,_0,_X,_1,_0,_8,_0  ,_P  };
  43:VS4210/VX_OSD_Simple.c **** tcByte OSD_1920x1080I_param[]=  {10 ,_1,_9,_2,_0,_X,_1,_0,_8,_0  ,_I  };
  44:VS4210/VX_OSD_Simple.c **** //DVI
  45:VS4210/VX_OSD_Simple.c **** tcByte OSD_640X480P_param[]=   {10 ,_6,_4,_0,_X,_4,_8,_0,_P,_spc,_spc};
  46:VS4210/VX_OSD_Simple.c **** tcByte OSD_800X600P_param[]=  {10 ,_8,_0,_0,_X,_6,_0,_0,_P,_spc,_spc};
  47:VS4210/VX_OSD_Simple.c **** tcByte OSD_1024X768P_param[]=  {10 ,_1,_0,_2,_4,_X,_7,_6,_8,_P  ,_spc};
  48:VS4210/VX_OSD_Simple.c **** tcByte OSD_1280X768P_param[]=  {10 ,_1,_2,_8,_0,_X,_7,_6,_8,_P  ,_spc};
  49:VS4210/VX_OSD_Simple.c **** tcByte OSD_1360X768P_param[]=  {10 ,_1,_3,_6,_0,_X,_7,_6,_8,_P  ,_spc};
  50:VS4210/VX_OSD_Simple.c **** tcByte OSD_1366X768P_param[]=  {10 ,_1,_3,_6,_6,_X,_7,_6,_8,_P  ,_spc};
  51:VS4210/VX_OSD_Simple.c **** tcByte OSD_1280X800P_param[]=  {10 ,_1,_2,_8,_0,_X,_8,_0,_0,_P  ,_spc};
  52:VS4210/VX_OSD_Simple.c **** tcByte OSD_1440X900P_param[]=  {10 ,_1,_4,_4,_0,_X,_9,_0,_0,_P  ,_spc};
  53:VS4210/VX_OSD_Simple.c **** tcByte OSD_1280X1024P_param[]= {10 ,_1,_2,_8,_0,_X,_1,_0,_2,_4  ,_P  };
  54:VS4210/VX_OSD_Simple.c **** tcByte OSD_1400X1050P_param[]= {10 ,_1,_4,_0,_0,_X,_1,_0,_5,_0  ,_P  };
  55:VS4210/VX_OSD_Simple.c **** tcByte OSD_1680X1050P_param[]= {10 ,_1,_6,_8,_0,_X,_1,_0,_5,_0  ,_P  };
  56:VS4210/VX_OSD_Simple.c **** tcByte OSD_1600X1200P_param[]= {10 ,_1,_6,_0,_0,_X,_1,_2,_0,_0  ,_P  };
  57:VS4210/VX_OSD_Simple.c **** tcByte OSD_1920X1200P_param[]= {10 ,_1,_9,_2,_0,_X,_1,_2,_0,_0  ,_P  };
  58:VS4210/VX_OSD_Simple.c **** 
  59:VS4210/VX_OSD_Simple.c **** tcByte OSD_No_Signal_param[]=   {10 ,_N,_o,_spc,_S,_i,_g,_n,_a,_l,_spc};
  60:VS4210/VX_OSD_Simple.c **** 
  61:VS4210/VX_OSD_Simple.c **** tcByte OSD_CH0_param[]= {6,_C,_H,_spc,_1,_spc,_spc};
  62:VS4210/VX_OSD_Simple.c **** tcByte OSD_CH1_param[]= {6,_C,_H,_spc,_2,_spc,_spc};
  63:VS4210/VX_OSD_Simple.c **** tcByte OSD_CH2_param[]= {6,_C,_H,_spc,_3,_spc,_spc};
  64:VS4210/VX_OSD_Simple.c **** tcByte OSD_CH3_param[]= {6,_C,_H,_spc,_4,_spc,_spc};
  65:VS4210/VX_OSD_Simple.c **** 
  66:VS4210/VX_OSD_Simple.c **** //tByte  OSD_CHx_param[7] ;
  67:VS4210/VX_OSD_Simple.c **** 
  68:VS4210/VX_OSD_Simple.c **** 
  69:VS4210/VX_OSD_Simple.c **** tcWord Mode0_1080P_param[]   = {180,61} ;
  70:VS4210/VX_OSD_Simple.c **** tcWord Mode1_w0_1080P_param[]= {180,61} ;
  71:VS4210/VX_OSD_Simple.c **** tcWord Mode1_w1_1080P_param[]= {1140,61} ;
  72:VS4210/VX_OSD_Simple.c **** tcWord Mode1_w2_1080P_param[]= {180,603} ;
  73:VS4210/VX_OSD_Simple.c **** tcWord Mode1_w3_1080P_param[]= {1140,603} ;
  74:VS4210/VX_OSD_Simple.c **** tcWord Mode2_w0_1080P_param[]= {180,61} ;
  75:VS4210/VX_OSD_Simple.c **** tcWord Mode2_w1_1080P_param[]= {664,61} ;
  76:VS4210/VX_OSD_Simple.c **** tcWord Mode2_w2_1080P_param[]= {664,603} ;
  77:VS4210/VX_OSD_Simple.c **** tcWord Mode2_w3_1080P_param[]= {1624,61} ;
  78:VS4210/VX_OSD_Simple.c **** tcWord Mode6_w0_1080P_param[]= {180,61} ;
  79:VS4210/VX_OSD_Simple.c **** tcWord Mode6_w1_1080P_param[]= {1460,61} ;
  80:VS4210/VX_OSD_Simple.c **** tcWord Mode6_w2_1080P_param[]= {1460,422} ;
  81:VS4210/VX_OSD_Simple.c **** tcWord Mode6_w3_1080P_param[]= {1460,783} ;
  82:VS4210/VX_OSD_Simple.c **** tcWord Mode12_w0_1080P_param[]= {180,61} ;
  83:VS4210/VX_OSD_Simple.c **** tcWord Mode12_w1_1080P_param[]= {1140,61} ;
  84:VS4210/VX_OSD_Simple.c **** 
  85:VS4210/VX_OSD_Simple.c **** tcWord Mode0_720P_param[]   = {244,37} ;
  86:VS4210/VX_OSD_Simple.c **** tcWord Mode1_w0_720P_param[]= {244,37} ;
  87:VS4210/VX_OSD_Simple.c **** tcWord Mode1_w1_720P_param[]= {886,37} ;
  88:VS4210/VX_OSD_Simple.c **** tcWord Mode1_w2_720P_param[]= {244,401} ;
  89:VS4210/VX_OSD_Simple.c **** tcWord Mode1_w3_720P_param[]= {886,401} ;
  90:VS4210/VX_OSD_Simple.c **** tcWord Mode2_w0_720P_param[]= {244,37} ;
  91:VS4210/VX_OSD_Simple.c **** tcWord Mode2_w1_720P_param[]= {566,37} ;
ARM GAS  /tmp/ccCN3Dsv.s 			page 3


  92:VS4210/VX_OSD_Simple.c **** tcWord Mode2_w2_720P_param[]= {566,401} ;
  93:VS4210/VX_OSD_Simple.c **** tcWord Mode2_w3_720P_param[]= {1206,37} ;
  94:VS4210/VX_OSD_Simple.c **** 
  95:VS4210/VX_OSD_Simple.c **** tcWord Mode6_w0_720P_param[]= {244,37} ;
  96:VS4210/VX_OSD_Simple.c **** tcWord Mode6_w1_720P_param[]= {1098,37} ;
  97:VS4210/VX_OSD_Simple.c **** tcWord Mode6_w2_720P_param[]= {1098,280} ;
  98:VS4210/VX_OSD_Simple.c **** tcWord Mode6_w3_720P_param[]= {1098,520} ;
  99:VS4210/VX_OSD_Simple.c **** 
 100:VS4210/VX_OSD_Simple.c **** tcWord Mode12_w0_720P_param[]= {244,37} ;
 101:VS4210/VX_OSD_Simple.c **** tcWord Mode12_w1_720P_param[]= {886,37} ;
 102:VS4210/VX_OSD_Simple.c **** 
 103:VS4210/VX_OSD_Simple.c **** 
 104:VS4210/VX_OSD_Simple.c **** tcWord Mode13_w0_1080P_param[]= {180,61} ;
 105:VS4210/VX_OSD_Simple.c **** tcWord Mode13_w1_1080P_param[]= {180,603} ;
 106:VS4210/VX_OSD_Simple.c **** tcWord Mode24_w0_1080P_param[]= {180,61} ;
 107:VS4210/VX_OSD_Simple.c **** tcWord Mode24_w1_1080P_param[]= {1460,781} ;
 108:VS4210/VX_OSD_Simple.c **** 
 109:VS4210/VX_OSD_Simple.c **** tcWord Mode13_w0_720P_param[]= {244,37} ;
 110:VS4210/VX_OSD_Simple.c **** tcWord Mode13_w1_720P_param[]= {244,401} ;
 111:VS4210/VX_OSD_Simple.c **** tcWord Mode24_w0_720P_param[]= {244,37} ;
 112:VS4210/VX_OSD_Simple.c **** tcWord Mode24_w1_720P_param[]= {1098,517} ;
 113:VS4210/VX_OSD_Simple.c **** 
 114:VS4210/VX_OSD_Simple.c **** 
 115:VS4210/VX_OSD_Simple.c **** //LINE
 116:VS4210/VX_OSD_Simple.c **** tcByte aLineModeReg[] = {0xB8,0xBA,0xBB,0xBC,0xBD,0xBE ,0xB9} ;
 117:VS4210/VX_OSD_Simple.c **** tcByte aLineMode1080PMode1Lin1[]= {0x01,0x04,0x25,0x5c,0x04,0x51 ,0x83} ;
 118:VS4210/VX_OSD_Simple.c **** tcByte aLineMode1080PMode1Lin2[]= {0x02,0x08,0x94,0x13,0x82,0x41 ,0x83} ;
 119:VS4210/VX_OSD_Simple.c **** tcByte aLineMode1080PMode2Lin1[]= {0x01,0x04,0x25,0x5C,0x02,0x72 ,0x83} ;
 120:VS4210/VX_OSD_Simple.c **** tcByte aLineMode1080PMode2Lin2[]= {0x02,0x04,0x25,0x5C,0x06,0x32 ,0x83} ;
 121:VS4210/VX_OSD_Simple.c **** tcByte aLineMode1080PMode2Lin3[]= {0x03,0x26,0x74,0x33,0x82,0x41 ,0x83} ;
 122:VS4210/VX_OSD_Simple.c **** tcByte aLineMode1080PMode6Lin1[]= {0x01,0x04,0x25,0x5C,0x05,0x90 ,0x83} ;
 123:VS4210/VX_OSD_Simple.c **** tcByte aLineMode1080PMode6Lin2[]= {0x02,0x58,0x92,0x13,0x81,0x8C ,0x83} ;
 124:VS4210/VX_OSD_Simple.c **** tcByte aLineMode1080PMode6Lin3[]= {0x03,0x58,0x92,0x13,0x82,0xF5 ,0x83} ;
 125:VS4210/VX_OSD_Simple.c **** 
 126:VS4210/VX_OSD_Simple.c **** tcByte aLineMode720PMode1Lin1[]= {0x01,0x02,0x15,0xE4,0x03,0x5A ,0x83} ;
 127:VS4210/VX_OSD_Simple.c **** tcByte aLineMode720PMode1Lin2[]= {0x02,0x05,0xDC,0xDB,0x81,0x7D ,0x83} ;
 128:VS4210/VX_OSD_Simple.c **** tcByte aLineMode720PMode2Lin1[]= {0x01,0x02,0x15,0xE4,0x02,0x1A ,0x83} ;
 129:VS4210/VX_OSD_Simple.c **** tcByte aLineMode720PMode2Lin2[]= {0x02,0x02,0x15,0xE4,0x04,0x9A ,0x83} ;
 130:VS4210/VX_OSD_Simple.c **** tcByte aLineMode720PMode2Lin3[]= {0x03,0x24,0x1B,0x9B,0x81,0x7D ,0x83} ;
 131:VS4210/VX_OSD_Simple.c **** tcByte aLineMode720PMode6Lin1[]= {0x01,0x02,0x15,0xE4,0x04,0x2E ,0x83} ;
 132:VS4210/VX_OSD_Simple.c **** tcByte aLineMode720PMode6Lin2[]= {0x02,0x45,0x30,0xDB,0x81,0x04 ,0x83} ;
 133:VS4210/VX_OSD_Simple.c **** tcByte aLineMode720PMode6Lin3[]= {0x03,0x45,0x30,0xDB,0x81,0xF5 ,0x83} ;
 134:VS4210/VX_OSD_Simple.c **** 
 135:VS4210/VX_OSD_Simple.c **** tcByte aLineMode1080PMode12Lin1[]= {0x01,0x04,0x25,0x5C,0x04,0x51 ,0x83} ;
 136:VS4210/VX_OSD_Simple.c **** tcByte aLineMode720PMode12Lin1[]= {0x01,0x02,0x15,0xE4,0x03,0x5A ,0x83} ;
 137:VS4210/VX_OSD_Simple.c **** 
 138:VS4210/VX_OSD_Simple.c **** ///////////////////////////////////////////////////////////////////////////////////////
 139:VS4210/VX_OSD_Simple.c **** static void VX_Write_OSD_In_OutString(tByte ch , tByte *Str1,tByte *Str2, int out_mode)
 140:VS4210/VX_OSD_Simple.c **** {
 141:VS4210/VX_OSD_Simple.c ****     tWord ix,iy ;
 142:VS4210/VX_OSD_Simple.c ****     tByte TitleFlg ;
 143:VS4210/VX_OSD_Simple.c ****     tByte BarFlg ;
 144:VS4210/VX_OSD_Simple.c **** 
 145:VS4210/VX_OSD_Simple.c ****     TitleFlg = (u8gDrawOSDFlg & 0x02 ) >> 1 ;
 146:VS4210/VX_OSD_Simple.c ****     BarFlg   = u8gDrawOSDFlg & 0x01 ;
 147:VS4210/VX_OSD_Simple.c **** 
 148:VS4210/VX_OSD_Simple.c ****     if (out_mode == VS4210_1080P_MODE0_w0 )
ARM GAS  /tmp/ccCN3Dsv.s 			page 4


 149:VS4210/VX_OSD_Simple.c ****     {
 150:VS4210/VX_OSD_Simple.c ****         if(gbVXIS_OuputSize == _OUTPUT_1080P60)
 151:VS4210/VX_OSD_Simple.c ****         {
 152:VS4210/VX_OSD_Simple.c ****             ix = Mode0_1080P_param[0] ;
 153:VS4210/VX_OSD_Simple.c ****             iy = Mode0_1080P_param[1] ;
 154:VS4210/VX_OSD_Simple.c ****         }
 155:VS4210/VX_OSD_Simple.c ****         else
 156:VS4210/VX_OSD_Simple.c ****         {
 157:VS4210/VX_OSD_Simple.c ****             ix = Mode0_720P_param[0] ;
 158:VS4210/VX_OSD_Simple.c ****             iy = Mode0_720P_param[1] ;
 159:VS4210/VX_OSD_Simple.c ****         }
 160:VS4210/VX_OSD_Simple.c ****     }
 161:VS4210/VX_OSD_Simple.c ****     else if (out_mode == VS4210_1080P_MODE0_w1  )
 162:VS4210/VX_OSD_Simple.c ****     {
 163:VS4210/VX_OSD_Simple.c ****         if(gbVXIS_OuputSize == _OUTPUT_1080P60)
 164:VS4210/VX_OSD_Simple.c ****         {
 165:VS4210/VX_OSD_Simple.c ****             ix = Mode0_1080P_param[0] ;
 166:VS4210/VX_OSD_Simple.c ****             iy = Mode0_1080P_param[1] ;
 167:VS4210/VX_OSD_Simple.c ****         }
 168:VS4210/VX_OSD_Simple.c ****         else
 169:VS4210/VX_OSD_Simple.c ****         {
 170:VS4210/VX_OSD_Simple.c ****             ix = Mode0_720P_param[0] ;
 171:VS4210/VX_OSD_Simple.c ****             iy = Mode0_720P_param[1] ;
 172:VS4210/VX_OSD_Simple.c ****         }
 173:VS4210/VX_OSD_Simple.c ****     }
 174:VS4210/VX_OSD_Simple.c ****     else if (out_mode == VS4210_1080P_MODE0_w2  )
 175:VS4210/VX_OSD_Simple.c ****     {
 176:VS4210/VX_OSD_Simple.c ****         if(gbVXIS_OuputSize == _OUTPUT_1080P60)
 177:VS4210/VX_OSD_Simple.c ****         {
 178:VS4210/VX_OSD_Simple.c ****             ix = Mode0_1080P_param[0] ;
 179:VS4210/VX_OSD_Simple.c ****             iy = Mode0_1080P_param[1] ;
 180:VS4210/VX_OSD_Simple.c ****         }
 181:VS4210/VX_OSD_Simple.c ****         else
 182:VS4210/VX_OSD_Simple.c ****         {
 183:VS4210/VX_OSD_Simple.c ****             ix = Mode0_720P_param[0] ;
 184:VS4210/VX_OSD_Simple.c ****             iy = Mode0_720P_param[1] ;
 185:VS4210/VX_OSD_Simple.c ****         }
 186:VS4210/VX_OSD_Simple.c ****     }
 187:VS4210/VX_OSD_Simple.c ****     else if (out_mode == VS4210_1080P_MODE0_w3  )
 188:VS4210/VX_OSD_Simple.c ****     {
 189:VS4210/VX_OSD_Simple.c ****         if(gbVXIS_OuputSize == _OUTPUT_1080P60)
 190:VS4210/VX_OSD_Simple.c ****         {
 191:VS4210/VX_OSD_Simple.c ****             ix = Mode0_1080P_param[0] ;
 192:VS4210/VX_OSD_Simple.c ****             iy = Mode0_1080P_param[1] ;
 193:VS4210/VX_OSD_Simple.c ****         }
 194:VS4210/VX_OSD_Simple.c ****         else
 195:VS4210/VX_OSD_Simple.c ****         {
 196:VS4210/VX_OSD_Simple.c ****             ix = Mode0_720P_param[0] ;
 197:VS4210/VX_OSD_Simple.c ****             iy = Mode0_720P_param[1] ;
 198:VS4210/VX_OSD_Simple.c ****         }
 199:VS4210/VX_OSD_Simple.c ****     }
 200:VS4210/VX_OSD_Simple.c ****     else if (out_mode == VS4210_1080P_MODE1  )
 201:VS4210/VX_OSD_Simple.c ****     {
 202:VS4210/VX_OSD_Simple.c ****         if (ch == 0 )
 203:VS4210/VX_OSD_Simple.c ****         {
 204:VS4210/VX_OSD_Simple.c ****             if(gbVXIS_OuputSize == _OUTPUT_1080P60)
 205:VS4210/VX_OSD_Simple.c ****             {
ARM GAS  /tmp/ccCN3Dsv.s 			page 5


 206:VS4210/VX_OSD_Simple.c ****                 ix = Mode1_w0_1080P_param[0] ;
 207:VS4210/VX_OSD_Simple.c ****                 iy = Mode1_w0_1080P_param[1] ;
 208:VS4210/VX_OSD_Simple.c ****             }
 209:VS4210/VX_OSD_Simple.c ****             else
 210:VS4210/VX_OSD_Simple.c ****             {
 211:VS4210/VX_OSD_Simple.c ****                 ix = Mode1_w0_720P_param[0] ;
 212:VS4210/VX_OSD_Simple.c ****                 iy = Mode1_w0_720P_param[1] ;
 213:VS4210/VX_OSD_Simple.c ****             }
 214:VS4210/VX_OSD_Simple.c ****         }
 215:VS4210/VX_OSD_Simple.c ****         else if (ch == 1 )
 216:VS4210/VX_OSD_Simple.c ****         {
 217:VS4210/VX_OSD_Simple.c ****             if(gbVXIS_OuputSize == _OUTPUT_1080P60)
 218:VS4210/VX_OSD_Simple.c ****             {
 219:VS4210/VX_OSD_Simple.c ****                 ix = Mode1_w1_1080P_param[0] ;
 220:VS4210/VX_OSD_Simple.c ****                 iy = Mode1_w1_1080P_param[1] ;
 221:VS4210/VX_OSD_Simple.c ****             }
 222:VS4210/VX_OSD_Simple.c ****             else
 223:VS4210/VX_OSD_Simple.c ****             {
 224:VS4210/VX_OSD_Simple.c ****                 ix = Mode1_w1_720P_param[0] ;
 225:VS4210/VX_OSD_Simple.c ****                 iy = Mode1_w1_720P_param[1] ;
 226:VS4210/VX_OSD_Simple.c ****             }
 227:VS4210/VX_OSD_Simple.c ****         }
 228:VS4210/VX_OSD_Simple.c ****         else if (ch == 2 )
 229:VS4210/VX_OSD_Simple.c ****         {
 230:VS4210/VX_OSD_Simple.c ****             if(gbVXIS_OuputSize == _OUTPUT_1080P60)
 231:VS4210/VX_OSD_Simple.c ****             {
 232:VS4210/VX_OSD_Simple.c ****                 ix = Mode1_w2_1080P_param[0] ;
 233:VS4210/VX_OSD_Simple.c ****                 iy = Mode1_w2_1080P_param[1] ;
 234:VS4210/VX_OSD_Simple.c ****             }
 235:VS4210/VX_OSD_Simple.c ****             else
 236:VS4210/VX_OSD_Simple.c ****             {
 237:VS4210/VX_OSD_Simple.c ****                 ix = Mode1_w2_720P_param[0] ;
 238:VS4210/VX_OSD_Simple.c ****                 iy = Mode1_w2_720P_param[1] ;
 239:VS4210/VX_OSD_Simple.c ****             }
 240:VS4210/VX_OSD_Simple.c ****         }
 241:VS4210/VX_OSD_Simple.c ****         else //if (ch == 3 )
 242:VS4210/VX_OSD_Simple.c ****         {
 243:VS4210/VX_OSD_Simple.c ****             if(gbVXIS_OuputSize == _OUTPUT_1080P60)
 244:VS4210/VX_OSD_Simple.c ****             {
 245:VS4210/VX_OSD_Simple.c ****                 ix = Mode1_w3_1080P_param[0] ;
 246:VS4210/VX_OSD_Simple.c ****                 iy = Mode1_w3_1080P_param[1] ;
 247:VS4210/VX_OSD_Simple.c ****             }
 248:VS4210/VX_OSD_Simple.c ****             else
 249:VS4210/VX_OSD_Simple.c ****             {
 250:VS4210/VX_OSD_Simple.c ****                 ix = Mode1_w3_720P_param[0] ;
 251:VS4210/VX_OSD_Simple.c ****                 iy = Mode1_w3_720P_param[1] ;
 252:VS4210/VX_OSD_Simple.c ****             }
 253:VS4210/VX_OSD_Simple.c ****         }
 254:VS4210/VX_OSD_Simple.c ****     }
 255:VS4210/VX_OSD_Simple.c ****     else if (out_mode == VS4210_1080P_MODE2 )
 256:VS4210/VX_OSD_Simple.c ****     {
 257:VS4210/VX_OSD_Simple.c ****         if (ch == 0 )
 258:VS4210/VX_OSD_Simple.c ****         {
 259:VS4210/VX_OSD_Simple.c ****             if(gbVXIS_OuputSize == _OUTPUT_1080P60)
 260:VS4210/VX_OSD_Simple.c ****             {
 261:VS4210/VX_OSD_Simple.c ****                 ix = Mode2_w0_1080P_param[0] ;
 262:VS4210/VX_OSD_Simple.c ****                 iy = Mode2_w0_1080P_param[1] ;
ARM GAS  /tmp/ccCN3Dsv.s 			page 6


 263:VS4210/VX_OSD_Simple.c ****             }
 264:VS4210/VX_OSD_Simple.c ****             else
 265:VS4210/VX_OSD_Simple.c ****             {
 266:VS4210/VX_OSD_Simple.c ****                 ix = Mode2_w0_720P_param[0] ;
 267:VS4210/VX_OSD_Simple.c ****                 iy = Mode2_w0_720P_param[1] ;
 268:VS4210/VX_OSD_Simple.c ****             }
 269:VS4210/VX_OSD_Simple.c ****         }
 270:VS4210/VX_OSD_Simple.c ****         else if (ch == 1 )
 271:VS4210/VX_OSD_Simple.c ****         {
 272:VS4210/VX_OSD_Simple.c ****             if(gbVXIS_OuputSize == _OUTPUT_1080P60)
 273:VS4210/VX_OSD_Simple.c ****             {
 274:VS4210/VX_OSD_Simple.c ****                 ix = Mode2_w1_1080P_param[0] ;
 275:VS4210/VX_OSD_Simple.c ****                 iy = Mode2_w1_1080P_param[1] ;
 276:VS4210/VX_OSD_Simple.c ****             }
 277:VS4210/VX_OSD_Simple.c ****             else
 278:VS4210/VX_OSD_Simple.c ****             {
 279:VS4210/VX_OSD_Simple.c ****                 ix = Mode2_w1_720P_param[0] ;
 280:VS4210/VX_OSD_Simple.c ****                 iy = Mode2_w1_720P_param[1] ;
 281:VS4210/VX_OSD_Simple.c ****             }
 282:VS4210/VX_OSD_Simple.c ****         }
 283:VS4210/VX_OSD_Simple.c ****         else if (ch == 2 )
 284:VS4210/VX_OSD_Simple.c ****         {
 285:VS4210/VX_OSD_Simple.c ****             if(gbVXIS_OuputSize == _OUTPUT_1080P60)
 286:VS4210/VX_OSD_Simple.c ****             {
 287:VS4210/VX_OSD_Simple.c ****                 ix = Mode2_w2_1080P_param[0] ;
 288:VS4210/VX_OSD_Simple.c ****                 iy = Mode2_w2_1080P_param[1] ;
 289:VS4210/VX_OSD_Simple.c ****             }
 290:VS4210/VX_OSD_Simple.c ****             else
 291:VS4210/VX_OSD_Simple.c ****             {
 292:VS4210/VX_OSD_Simple.c ****                 ix = Mode2_w2_720P_param[0] ;
 293:VS4210/VX_OSD_Simple.c ****                 iy = Mode2_w2_720P_param[1] ;
 294:VS4210/VX_OSD_Simple.c ****             }
 295:VS4210/VX_OSD_Simple.c ****         }
 296:VS4210/VX_OSD_Simple.c ****         else //if (ch == 3 )
 297:VS4210/VX_OSD_Simple.c ****         {
 298:VS4210/VX_OSD_Simple.c ****             if(gbVXIS_OuputSize == _OUTPUT_1080P60)
 299:VS4210/VX_OSD_Simple.c ****             {
 300:VS4210/VX_OSD_Simple.c ****                 ix = Mode2_w3_1080P_param[0] ;
 301:VS4210/VX_OSD_Simple.c ****                 iy = Mode2_w3_1080P_param[1] ;
 302:VS4210/VX_OSD_Simple.c ****             }
 303:VS4210/VX_OSD_Simple.c ****             else
 304:VS4210/VX_OSD_Simple.c ****             {
 305:VS4210/VX_OSD_Simple.c ****                 ix = Mode2_w3_720P_param[0] ;
 306:VS4210/VX_OSD_Simple.c ****                 iy = Mode2_w3_720P_param[1] ;
 307:VS4210/VX_OSD_Simple.c ****             }
 308:VS4210/VX_OSD_Simple.c ****         }
 309:VS4210/VX_OSD_Simple.c ****     }
 310:VS4210/VX_OSD_Simple.c ****     else if ((out_mode == VS4210_1080P_MODE12 ) )
 311:VS4210/VX_OSD_Simple.c ****     {
 312:VS4210/VX_OSD_Simple.c ****         if (ch == 0 )
 313:VS4210/VX_OSD_Simple.c ****         {
 314:VS4210/VX_OSD_Simple.c ****             if(gbVXIS_OuputSize == _OUTPUT_1080P60)
 315:VS4210/VX_OSD_Simple.c ****             {
 316:VS4210/VX_OSD_Simple.c ****                 ix = Mode12_w0_1080P_param[0] ;
 317:VS4210/VX_OSD_Simple.c ****                 iy = Mode12_w0_1080P_param[1] ;
 318:VS4210/VX_OSD_Simple.c ****             }
 319:VS4210/VX_OSD_Simple.c ****             else
ARM GAS  /tmp/ccCN3Dsv.s 			page 7


 320:VS4210/VX_OSD_Simple.c ****             {
 321:VS4210/VX_OSD_Simple.c ****                 ix = Mode12_w0_720P_param[0] ;
 322:VS4210/VX_OSD_Simple.c ****                 iy = Mode12_w0_720P_param[1] ;
 323:VS4210/VX_OSD_Simple.c ****             }
 324:VS4210/VX_OSD_Simple.c ****         }
 325:VS4210/VX_OSD_Simple.c ****         else
 326:VS4210/VX_OSD_Simple.c ****         {
 327:VS4210/VX_OSD_Simple.c ****             if(gbVXIS_OuputSize == _OUTPUT_1080P60)
 328:VS4210/VX_OSD_Simple.c ****             {
 329:VS4210/VX_OSD_Simple.c ****                 ix = Mode12_w1_1080P_param[0] ;
 330:VS4210/VX_OSD_Simple.c ****                 iy = Mode12_w1_1080P_param[1] ;
 331:VS4210/VX_OSD_Simple.c ****             }
 332:VS4210/VX_OSD_Simple.c ****             else
 333:VS4210/VX_OSD_Simple.c ****             {
 334:VS4210/VX_OSD_Simple.c ****                 ix = Mode12_w1_720P_param[0] ;
 335:VS4210/VX_OSD_Simple.c ****                 iy = Mode12_w1_720P_param[1] ;
 336:VS4210/VX_OSD_Simple.c ****             }
 337:VS4210/VX_OSD_Simple.c ****         }
 338:VS4210/VX_OSD_Simple.c ****     }
 339:VS4210/VX_OSD_Simple.c ****     else if ((out_mode == VS4210_1080P_MODE13 ) )
 340:VS4210/VX_OSD_Simple.c ****     {
 341:VS4210/VX_OSD_Simple.c ****         if (ch == 0 )
 342:VS4210/VX_OSD_Simple.c ****         {
 343:VS4210/VX_OSD_Simple.c ****             if(gbVXIS_OuputSize == _OUTPUT_1080P60)
 344:VS4210/VX_OSD_Simple.c ****             {
 345:VS4210/VX_OSD_Simple.c ****                 ix = Mode13_w0_1080P_param[0] ;
 346:VS4210/VX_OSD_Simple.c ****                 iy = Mode13_w0_1080P_param[1] ;
 347:VS4210/VX_OSD_Simple.c ****             }
 348:VS4210/VX_OSD_Simple.c ****             else
 349:VS4210/VX_OSD_Simple.c ****             {
 350:VS4210/VX_OSD_Simple.c ****                 ix = Mode13_w0_720P_param[0] ;
 351:VS4210/VX_OSD_Simple.c ****                 iy = Mode13_w0_720P_param[1] ;
 352:VS4210/VX_OSD_Simple.c ****             }
 353:VS4210/VX_OSD_Simple.c ****         }
 354:VS4210/VX_OSD_Simple.c ****         else
 355:VS4210/VX_OSD_Simple.c ****         {
 356:VS4210/VX_OSD_Simple.c ****             if(gbVXIS_OuputSize == _OUTPUT_1080P60)
 357:VS4210/VX_OSD_Simple.c ****             {
 358:VS4210/VX_OSD_Simple.c ****                 ix = Mode13_w1_1080P_param[0] ;
 359:VS4210/VX_OSD_Simple.c ****                 iy = Mode13_w1_1080P_param[1] ;
 360:VS4210/VX_OSD_Simple.c ****             }
 361:VS4210/VX_OSD_Simple.c ****             else
 362:VS4210/VX_OSD_Simple.c ****             {
 363:VS4210/VX_OSD_Simple.c ****                 ix = Mode13_w1_720P_param[0] ;
 364:VS4210/VX_OSD_Simple.c ****                 iy = Mode13_w1_720P_param[1] ;
 365:VS4210/VX_OSD_Simple.c ****             }
 366:VS4210/VX_OSD_Simple.c ****         }
 367:VS4210/VX_OSD_Simple.c ****     }
 368:VS4210/VX_OSD_Simple.c ****     else if ((out_mode >= VS4210_1080P_MODE6  ) && (out_mode < VS4210_1080P_MODE12))
 369:VS4210/VX_OSD_Simple.c ****     {
 370:VS4210/VX_OSD_Simple.c ****         if (ch == 0 )
 371:VS4210/VX_OSD_Simple.c ****         {
 372:VS4210/VX_OSD_Simple.c ****             if(gbVXIS_OuputSize == _OUTPUT_1080P60)
 373:VS4210/VX_OSD_Simple.c ****             {
 374:VS4210/VX_OSD_Simple.c ****                 ix = Mode6_w0_1080P_param[0] ;
 375:VS4210/VX_OSD_Simple.c ****                 iy = Mode6_w0_1080P_param[1] ;
 376:VS4210/VX_OSD_Simple.c ****             }
ARM GAS  /tmp/ccCN3Dsv.s 			page 8


 377:VS4210/VX_OSD_Simple.c ****             else
 378:VS4210/VX_OSD_Simple.c ****             {
 379:VS4210/VX_OSD_Simple.c ****                 ix = Mode6_w0_720P_param[0] ;
 380:VS4210/VX_OSD_Simple.c ****                 iy = Mode6_w0_720P_param[1] ;
 381:VS4210/VX_OSD_Simple.c ****             }
 382:VS4210/VX_OSD_Simple.c ****         }
 383:VS4210/VX_OSD_Simple.c ****         else  if (ch == 1 )
 384:VS4210/VX_OSD_Simple.c ****         {
 385:VS4210/VX_OSD_Simple.c ****             if(gbVXIS_OuputSize == _OUTPUT_1080P60)
 386:VS4210/VX_OSD_Simple.c ****             {
 387:VS4210/VX_OSD_Simple.c ****                 ix = Mode6_w1_1080P_param[0] ;
 388:VS4210/VX_OSD_Simple.c ****                 iy = Mode6_w1_1080P_param[1] ;
 389:VS4210/VX_OSD_Simple.c ****             }
 390:VS4210/VX_OSD_Simple.c ****             else
 391:VS4210/VX_OSD_Simple.c ****             {
 392:VS4210/VX_OSD_Simple.c ****                 ix = Mode6_w1_720P_param[0] ;
 393:VS4210/VX_OSD_Simple.c ****                 iy = Mode6_w1_720P_param[1] ;
 394:VS4210/VX_OSD_Simple.c ****             }
 395:VS4210/VX_OSD_Simple.c ****         }
 396:VS4210/VX_OSD_Simple.c ****         else  if (ch == 2 )
 397:VS4210/VX_OSD_Simple.c ****         {
 398:VS4210/VX_OSD_Simple.c ****             if(gbVXIS_OuputSize == _OUTPUT_1080P60)
 399:VS4210/VX_OSD_Simple.c ****             {
 400:VS4210/VX_OSD_Simple.c ****                 ix = Mode6_w2_1080P_param[0] ;
 401:VS4210/VX_OSD_Simple.c ****                 iy = Mode6_w2_1080P_param[1] ;
 402:VS4210/VX_OSD_Simple.c ****             }
 403:VS4210/VX_OSD_Simple.c ****             else
 404:VS4210/VX_OSD_Simple.c ****             {
 405:VS4210/VX_OSD_Simple.c ****                 ix = Mode6_w2_720P_param[0] ;
 406:VS4210/VX_OSD_Simple.c ****                 iy = Mode6_w2_720P_param[1] ;
 407:VS4210/VX_OSD_Simple.c ****             }
 408:VS4210/VX_OSD_Simple.c ****         }
 409:VS4210/VX_OSD_Simple.c ****         else
 410:VS4210/VX_OSD_Simple.c ****         {
 411:VS4210/VX_OSD_Simple.c ****             if(gbVXIS_OuputSize == _OUTPUT_1080P60)
 412:VS4210/VX_OSD_Simple.c ****             {
 413:VS4210/VX_OSD_Simple.c ****                 ix = Mode6_w3_1080P_param[0] ;
 414:VS4210/VX_OSD_Simple.c ****                 iy = Mode6_w3_1080P_param[1] ;
 415:VS4210/VX_OSD_Simple.c ****             }
 416:VS4210/VX_OSD_Simple.c ****             else
 417:VS4210/VX_OSD_Simple.c ****             {
 418:VS4210/VX_OSD_Simple.c ****                 ix = Mode6_w3_720P_param[0] ;
 419:VS4210/VX_OSD_Simple.c ****                 iy = Mode6_w3_720P_param[1] ;
 420:VS4210/VX_OSD_Simple.c ****             }
 421:VS4210/VX_OSD_Simple.c ****         }
 422:VS4210/VX_OSD_Simple.c ****     }
 423:VS4210/VX_OSD_Simple.c ****     else if (out_mode == VS4210_1080P_MODE24  )
 424:VS4210/VX_OSD_Simple.c ****     {
 425:VS4210/VX_OSD_Simple.c ****         if (ch == 0 )
 426:VS4210/VX_OSD_Simple.c ****         {
 427:VS4210/VX_OSD_Simple.c ****             if(gbVXIS_OuputSize == _OUTPUT_1080P60)
 428:VS4210/VX_OSD_Simple.c ****             {
 429:VS4210/VX_OSD_Simple.c ****                 ix = Mode24_w0_1080P_param[0] ;
 430:VS4210/VX_OSD_Simple.c ****                 iy = Mode24_w0_1080P_param[1] ;
 431:VS4210/VX_OSD_Simple.c ****             }
 432:VS4210/VX_OSD_Simple.c ****             else
 433:VS4210/VX_OSD_Simple.c ****             {
ARM GAS  /tmp/ccCN3Dsv.s 			page 9


 434:VS4210/VX_OSD_Simple.c ****                 ix = Mode24_w0_720P_param[0] ;
 435:VS4210/VX_OSD_Simple.c ****                 iy = Mode24_w0_720P_param[1] ;
 436:VS4210/VX_OSD_Simple.c ****             }
 437:VS4210/VX_OSD_Simple.c ****         }
 438:VS4210/VX_OSD_Simple.c ****         else if (ch == 1 )
 439:VS4210/VX_OSD_Simple.c ****         {
 440:VS4210/VX_OSD_Simple.c ****             if(gbVXIS_OuputSize == _OUTPUT_1080P60)
 441:VS4210/VX_OSD_Simple.c ****             {
 442:VS4210/VX_OSD_Simple.c ****                 ix = Mode24_w1_1080P_param[0] ;
 443:VS4210/VX_OSD_Simple.c ****                 iy = Mode24_w1_1080P_param[1] ;
 444:VS4210/VX_OSD_Simple.c ****             }
 445:VS4210/VX_OSD_Simple.c ****             else
 446:VS4210/VX_OSD_Simple.c ****             {
 447:VS4210/VX_OSD_Simple.c ****                 ix = Mode24_w1_720P_param[0] ;
 448:VS4210/VX_OSD_Simple.c ****                 iy = Mode24_w1_720P_param[1] ;
 449:VS4210/VX_OSD_Simple.c ****             }
 450:VS4210/VX_OSD_Simple.c ****         }
 451:VS4210/VX_OSD_Simple.c ****     }
 452:VS4210/VX_OSD_Simple.c ****     else
 453:VS4210/VX_OSD_Simple.c ****     {
 454:VS4210/VX_OSD_Simple.c ****         ix = 224 ;
 455:VS4210/VX_OSD_Simple.c ****         iy = 64 ;
 456:VS4210/VX_OSD_Simple.c ****     }
 457:VS4210/VX_OSD_Simple.c **** 
 458:VS4210/VX_OSD_Simple.c ****     if (ch == 0  )
 459:VS4210/VX_OSD_Simple.c ****     {
 460:VS4210/VX_OSD_Simple.c ****         if (TitleFlg == 1 )
 461:VS4210/VX_OSD_Simple.c ****         {
 462:VS4210/VX_OSD_Simple.c ****             SetOsdSize(_Title0,Str1[0],1);
 463:VS4210/VX_OSD_Simple.c ****             SetOsdStartAddress(_Title0,0x00);
 464:VS4210/VX_OSD_Simple.c ****             OsdDumpString(0x00,Str1);
 465:VS4210/VX_OSD_Simple.c ****             OsdDumpAttribute(0x00,Str1,_Color);
 466:VS4210/VX_OSD_Simple.c ****             SetOsdPosition(_Title0,ix,iy);
 467:VS4210/VX_OSD_Simple.c ****         }
 468:VS4210/VX_OSD_Simple.c **** 
 469:VS4210/VX_OSD_Simple.c ****         if (BarFlg == 1 )
 470:VS4210/VX_OSD_Simple.c ****         {
 471:VS4210/VX_OSD_Simple.c ****             SetOsdSize(_Bar0,Str2[0],1);
 472:VS4210/VX_OSD_Simple.c ****             SetOsdStartAddress(_Bar0,0x40);
 473:VS4210/VX_OSD_Simple.c ****             OsdDumpString(0x40,Str2);
 474:VS4210/VX_OSD_Simple.c ****             OsdDumpAttribute(0x40,Str2,_Color);
 475:VS4210/VX_OSD_Simple.c ****             SetOsdPosition(_Bar0,ix,iy + 20 + OSDx2Flg*20);
 476:VS4210/VX_OSD_Simple.c ****         }
 477:VS4210/VX_OSD_Simple.c ****     }
 478:VS4210/VX_OSD_Simple.c ****     else if (ch == 1 )
 479:VS4210/VX_OSD_Simple.c ****     {
 480:VS4210/VX_OSD_Simple.c ****         if (TitleFlg == 1 )
 481:VS4210/VX_OSD_Simple.c ****         {
 482:VS4210/VX_OSD_Simple.c ****             SetOsdSize(_Title1,Str1[0],1);
 483:VS4210/VX_OSD_Simple.c ****             SetOsdStartAddress(_Title1,0x10);
 484:VS4210/VX_OSD_Simple.c ****             OsdDumpString(0x10,Str1);
 485:VS4210/VX_OSD_Simple.c ****             OsdDumpAttribute(0x10,Str1,_Color);
 486:VS4210/VX_OSD_Simple.c ****             SetOsdPosition(_Title1,ix,iy);
 487:VS4210/VX_OSD_Simple.c ****         }
 488:VS4210/VX_OSD_Simple.c **** 
 489:VS4210/VX_OSD_Simple.c ****         if (BarFlg == 1 )
 490:VS4210/VX_OSD_Simple.c ****         {
ARM GAS  /tmp/ccCN3Dsv.s 			page 10


 491:VS4210/VX_OSD_Simple.c ****             SetOsdSize(_Bar1,Str2[0],1);
 492:VS4210/VX_OSD_Simple.c ****             SetOsdStartAddress(_Bar1,0x50);
 493:VS4210/VX_OSD_Simple.c ****             OsdDumpString(0x50,Str2);
 494:VS4210/VX_OSD_Simple.c ****             OsdDumpAttribute(0x50,Str2,_Color);
 495:VS4210/VX_OSD_Simple.c ****             SetOsdPosition(_Bar1,ix,iy + 20 + OSDx2Flg*20 );
 496:VS4210/VX_OSD_Simple.c ****         }
 497:VS4210/VX_OSD_Simple.c ****     }
 498:VS4210/VX_OSD_Simple.c ****     else if (ch == 2 )
 499:VS4210/VX_OSD_Simple.c ****     {
 500:VS4210/VX_OSD_Simple.c ****         if (TitleFlg == 1 )
 501:VS4210/VX_OSD_Simple.c ****         {
 502:VS4210/VX_OSD_Simple.c ****             SetOsdSize(_Title2,Str1[0],1);
 503:VS4210/VX_OSD_Simple.c ****             SetOsdStartAddress(_Title1,0x20);
 504:VS4210/VX_OSD_Simple.c ****             OsdDumpString(0x20,Str1);
 505:VS4210/VX_OSD_Simple.c ****             OsdDumpAttribute(0x20,Str1,_Color);
 506:VS4210/VX_OSD_Simple.c ****             SetOsdPosition(_Title2,ix,iy);
 507:VS4210/VX_OSD_Simple.c ****         }
 508:VS4210/VX_OSD_Simple.c **** 
 509:VS4210/VX_OSD_Simple.c ****         if (BarFlg == 1 )
 510:VS4210/VX_OSD_Simple.c ****         {
 511:VS4210/VX_OSD_Simple.c ****             SetOsdSize(_Bar2,Str2[0],1);
 512:VS4210/VX_OSD_Simple.c ****             SetOsdStartAddress(_Bar2,0x60);
 513:VS4210/VX_OSD_Simple.c ****             OsdDumpString(0x60,Str2);
 514:VS4210/VX_OSD_Simple.c ****             OsdDumpAttribute(0x60,Str2,_Color);
 515:VS4210/VX_OSD_Simple.c ****             SetOsdPosition(_Bar2,ix,iy + 20 + OSDx2Flg*20);
 516:VS4210/VX_OSD_Simple.c ****         }
 517:VS4210/VX_OSD_Simple.c ****     }
 518:VS4210/VX_OSD_Simple.c ****     else if (ch == 3 )
 519:VS4210/VX_OSD_Simple.c ****     {
 520:VS4210/VX_OSD_Simple.c ****         if (TitleFlg == 1 )
 521:VS4210/VX_OSD_Simple.c ****         {
 522:VS4210/VX_OSD_Simple.c ****             SetOsdSize(_Title3,Str1[0],1);
 523:VS4210/VX_OSD_Simple.c ****             SetOsdStartAddress(_Title3,0x30);
 524:VS4210/VX_OSD_Simple.c ****             OsdDumpString(0x30,Str1);
 525:VS4210/VX_OSD_Simple.c ****             OsdDumpAttribute(0x30,Str1,_Color);
 526:VS4210/VX_OSD_Simple.c ****             SetOsdPosition(_Title3,ix,iy);
 527:VS4210/VX_OSD_Simple.c ****         }
 528:VS4210/VX_OSD_Simple.c **** 
 529:VS4210/VX_OSD_Simple.c ****         if (BarFlg == 1 )
 530:VS4210/VX_OSD_Simple.c ****         {
 531:VS4210/VX_OSD_Simple.c ****             SetOsdSize(_Bar3,Str2[0],1);
 532:VS4210/VX_OSD_Simple.c ****             SetOsdStartAddress(_Bar3,0x70);
 533:VS4210/VX_OSD_Simple.c ****             OsdDumpString(0x70,Str2);
 534:VS4210/VX_OSD_Simple.c ****             OsdDumpAttribute(0x70,Str2,_Color);
 535:VS4210/VX_OSD_Simple.c ****             SetOsdPosition(_Bar3,ix,iy + 20 + OSDx2Flg*20);
 536:VS4210/VX_OSD_Simple.c ****         }
 537:VS4210/VX_OSD_Simple.c ****     }
 538:VS4210/VX_OSD_Simple.c **** 
 539:VS4210/VX_OSD_Simple.c ****     setTransParentIndex(_TransParentColor);
 540:VS4210/VX_OSD_Simple.c **** 
 541:VS4210/VX_OSD_Simple.c ****         if (u8gDrawOSDFlg == 3 )
 542:VS4210/VX_OSD_Simple.c ****         {
 543:VS4210/VX_OSD_Simple.c ****             if ( MenuOSDonFlg == 0 )
 544:VS4210/VX_OSD_Simple.c ****                 VXIS_fSetOsdOnOff(ch , _TitleOn | _BottomOn );
 545:VS4210/VX_OSD_Simple.c ****             else
 546:VS4210/VX_OSD_Simple.c ****                 VXIS_fSetOsdOnOff(ch , _TitleOn | _BottomOn | _ContentOn );
 547:VS4210/VX_OSD_Simple.c ****                 //VXIS_fSetOsdOnOff(ch , _ContentOn );
ARM GAS  /tmp/ccCN3Dsv.s 			page 11


 548:VS4210/VX_OSD_Simple.c ****         }
 549:VS4210/VX_OSD_Simple.c ****         else if (TitleFlg == 1 )
 550:VS4210/VX_OSD_Simple.c ****         {
 551:VS4210/VX_OSD_Simple.c ****             if ( MenuOSDonFlg == 0 )
 552:VS4210/VX_OSD_Simple.c ****             {
 553:VS4210/VX_OSD_Simple.c ****                 VXIS_fSetOsdOnOff(ch , _TitleOn  );
 554:VS4210/VX_OSD_Simple.c ****             }
 555:VS4210/VX_OSD_Simple.c ****             else {
 556:VS4210/VX_OSD_Simple.c ****                 //VXIS_fSetOsdOnOff(ch , _TitleOn | _ContentOn );
 557:VS4210/VX_OSD_Simple.c ****                 VXIS_fSetOsdOnOff(ch , _ContentOn );
 558:VS4210/VX_OSD_Simple.c ****             }
 559:VS4210/VX_OSD_Simple.c ****         }
 560:VS4210/VX_OSD_Simple.c ****         else if (BarFlg == 1 )
 561:VS4210/VX_OSD_Simple.c ****         {
 562:VS4210/VX_OSD_Simple.c ****             if ( MenuOSDonFlg == 0 )
 563:VS4210/VX_OSD_Simple.c ****             {
 564:VS4210/VX_OSD_Simple.c ****                 VXIS_fSetOsdOnOff(ch , _BottomOn  );
 565:VS4210/VX_OSD_Simple.c ****             }
 566:VS4210/VX_OSD_Simple.c ****             else {
 567:VS4210/VX_OSD_Simple.c ****                 //VXIS_fSetOsdOnOff(ch , _BottomOn | _ContentOn );
 568:VS4210/VX_OSD_Simple.c ****                 VXIS_fSetOsdOnOff(ch ,  _ContentOn );
 569:VS4210/VX_OSD_Simple.c ****             }
 570:VS4210/VX_OSD_Simple.c ****         }
 571:VS4210/VX_OSD_Simple.c ****         else
 572:VS4210/VX_OSD_Simple.c ****         {
 573:VS4210/VX_OSD_Simple.c ****             if ( MenuOSDonFlg == 0 )
 574:VS4210/VX_OSD_Simple.c ****             {
 575:VS4210/VX_OSD_Simple.c ****                 VXIS_fSetOsdOnOff(ch , _TurnoffAll   );
 576:VS4210/VX_OSD_Simple.c ****             }
 577:VS4210/VX_OSD_Simple.c ****             else {
 578:VS4210/VX_OSD_Simple.c ****                 VXIS_fSetOsdOnOff(ch ,  _ContentOn );
 579:VS4210/VX_OSD_Simple.c ****             }
 580:VS4210/VX_OSD_Simple.c ****         }
 581:VS4210/VX_OSD_Simple.c **** 
 582:VS4210/VX_OSD_Simple.c **** }
 583:VS4210/VX_OSD_Simple.c **** 
 584:VS4210/VX_OSD_Simple.c **** static void GetconvertBarStr( tByte in_mode)
 585:VS4210/VX_OSD_Simple.c **** {
  25              		.loc 1 585 0
  26              		.cfi_startproc
  27              		@ args = 0, pretend = 0, frame = 0
  28              		@ frame_needed = 0, uses_anonymous_args = 0
  29              		@ link register save eliminated.
  30              	.LVL0:
 586:VS4210/VX_OSD_Simple.c ****     switch(in_mode)
  31              		.loc 1 586 0
  32 0000 1428     		cmp	r0, #20
  33 0002 60D8     		bhi	.L2
  34 0004 DFE800F0 		tbb	[pc, r0]
  35              	.L4:
  36 0008 0B       		.byte	(.L3-.L4)/2
  37 0009 0F       		.byte	(.L5-.L4)/2
  38 000a 13       		.byte	(.L6-.L4)/2
  39 000b 17       		.byte	(.L7-.L4)/2
  40 000c 1B       		.byte	(.L8-.L4)/2
  41 000d 1F       		.byte	(.L9-.L4)/2
  42 000e 23       		.byte	(.L10-.L4)/2
ARM GAS  /tmp/ccCN3Dsv.s 			page 12


  43 000f 27       		.byte	(.L11-.L4)/2
  44 0010 2B       		.byte	(.L12-.L4)/2
  45 0011 2F       		.byte	(.L13-.L4)/2
  46 0012 33       		.byte	(.L14-.L4)/2
  47 0013 37       		.byte	(.L15-.L4)/2
  48 0014 3B       		.byte	(.L16-.L4)/2
  49 0015 3F       		.byte	(.L17-.L4)/2
  50 0016 43       		.byte	(.L18-.L4)/2
  51 0017 47       		.byte	(.L19-.L4)/2
  52 0018 4B       		.byte	(.L20-.L4)/2
  53 0019 4F       		.byte	(.L21-.L4)/2
  54 001a 53       		.byte	(.L22-.L4)/2
  55 001b 57       		.byte	(.L23-.L4)/2
  56 001c 5B       		.byte	(.L24-.L4)/2
  57 001d 00       		.p2align 1
  58              	.L3:
 587:VS4210/VX_OSD_Simple.c ****     {
 588:VS4210/VX_OSD_Simple.c **** //HDMI
 589:VS4210/VX_OSD_Simple.c ****     case _OSD_720X480I60:
 590:VS4210/VX_OSD_Simple.c ****         ptcOSDbar = &OSD_720x480I60_param[0] ; 
  59              		.loc 1 590 0
  60 001e 2C4B     		ldr	r3, .L26
  61 0020 2C4A     		ldr	r2, .L26+4
  62 0022 1A60     		str	r2, [r3]
 591:VS4210/VX_OSD_Simple.c ****         break ;
  63              		.loc 1 591 0
  64 0024 7047     		bx	lr
  65              	.L5:
 592:VS4210/VX_OSD_Simple.c ****     case _OSD_720X576I50:
 593:VS4210/VX_OSD_Simple.c ****         ptcOSDbar = &OSD_720x576I50_param[0] ; 
  66              		.loc 1 593 0
  67 0026 2A4B     		ldr	r3, .L26
  68 0028 2B4A     		ldr	r2, .L26+8
  69 002a 1A60     		str	r2, [r3]
 594:VS4210/VX_OSD_Simple.c ****         break ;
  70              		.loc 1 594 0
  71 002c 7047     		bx	lr
  72              	.L6:
 595:VS4210/VX_OSD_Simple.c ****     case _OSD_720X480P60:
 596:VS4210/VX_OSD_Simple.c ****         ptcOSDbar = &OSD_720x480P60_param[0] ; 
  73              		.loc 1 596 0
  74 002e 284B     		ldr	r3, .L26
  75 0030 2A4A     		ldr	r2, .L26+12
  76 0032 1A60     		str	r2, [r3]
 597:VS4210/VX_OSD_Simple.c ****         break ;
  77              		.loc 1 597 0
  78 0034 7047     		bx	lr
  79              	.L7:
 598:VS4210/VX_OSD_Simple.c ****     case _OSD_720X576P50:
 599:VS4210/VX_OSD_Simple.c ****         ptcOSDbar = &OSD_720x576P50_param[0] ; 
  80              		.loc 1 599 0
  81 0036 264B     		ldr	r3, .L26
  82 0038 294A     		ldr	r2, .L26+16
  83 003a 1A60     		str	r2, [r3]
 600:VS4210/VX_OSD_Simple.c ****         break ;
  84              		.loc 1 600 0
  85 003c 7047     		bx	lr
ARM GAS  /tmp/ccCN3Dsv.s 			page 13


  86              	.L8:
 601:VS4210/VX_OSD_Simple.c ****     case _OSD_1920X1080I:
 602:VS4210/VX_OSD_Simple.c ****         ptcOSDbar = &OSD_1920x1080I_param[0] ; 
  87              		.loc 1 602 0
  88 003e 244B     		ldr	r3, .L26
  89 0040 284A     		ldr	r2, .L26+20
  90 0042 1A60     		str	r2, [r3]
 603:VS4210/VX_OSD_Simple.c ****         break;
  91              		.loc 1 603 0
  92 0044 7047     		bx	lr
  93              	.L9:
 604:VS4210/VX_OSD_Simple.c ****     case _OSD_1280X720P :
 605:VS4210/VX_OSD_Simple.c ****         ptcOSDbar = &OSD_1280x720P_param[0] ; 
  94              		.loc 1 605 0
  95 0046 224B     		ldr	r3, .L26
  96 0048 274A     		ldr	r2, .L26+24
  97 004a 1A60     		str	r2, [r3]
 606:VS4210/VX_OSD_Simple.c ****         break;
  98              		.loc 1 606 0
  99 004c 7047     		bx	lr
 100              	.L10:
 607:VS4210/VX_OSD_Simple.c ****     case _OSD_1920X1080P:
 608:VS4210/VX_OSD_Simple.c ****         ptcOSDbar = &OSD_1920x1080P_param[0] ; 
 101              		.loc 1 608 0
 102 004e 204B     		ldr	r3, .L26
 103 0050 264A     		ldr	r2, .L26+28
 104 0052 1A60     		str	r2, [r3]
 609:VS4210/VX_OSD_Simple.c ****         break;
 105              		.loc 1 609 0
 106 0054 7047     		bx	lr
 107              	.L11:
 610:VS4210/VX_OSD_Simple.c **** //DVI
 611:VS4210/VX_OSD_Simple.c ****     case _OSD_640X480P  :
 612:VS4210/VX_OSD_Simple.c ****         ptcOSDbar = &OSD_640X480P_param[0] ; 
 108              		.loc 1 612 0
 109 0056 1E4B     		ldr	r3, .L26
 110 0058 254A     		ldr	r2, .L26+32
 111 005a 1A60     		str	r2, [r3]
 613:VS4210/VX_OSD_Simple.c ****         break;
 112              		.loc 1 613 0
 113 005c 7047     		bx	lr
 114              	.L12:
 614:VS4210/VX_OSD_Simple.c ****     case _OSD_800X600P  :
 615:VS4210/VX_OSD_Simple.c ****         ptcOSDbar = &OSD_800X600P_param[0] ; 
 115              		.loc 1 615 0
 116 005e 1C4B     		ldr	r3, .L26
 117 0060 244A     		ldr	r2, .L26+36
 118 0062 1A60     		str	r2, [r3]
 616:VS4210/VX_OSD_Simple.c ****         break;
 119              		.loc 1 616 0
 120 0064 7047     		bx	lr
 121              	.L13:
 617:VS4210/VX_OSD_Simple.c ****     case _OSD_1024X768P :
 618:VS4210/VX_OSD_Simple.c ****         ptcOSDbar = &OSD_1024X768P_param[0] ; 
 122              		.loc 1 618 0
 123 0066 1A4B     		ldr	r3, .L26
 124 0068 234A     		ldr	r2, .L26+40
ARM GAS  /tmp/ccCN3Dsv.s 			page 14


 125 006a 1A60     		str	r2, [r3]
 619:VS4210/VX_OSD_Simple.c ****         break;
 126              		.loc 1 619 0
 127 006c 7047     		bx	lr
 128              	.L14:
 620:VS4210/VX_OSD_Simple.c ****     case _OSD_1280X768P :
 621:VS4210/VX_OSD_Simple.c ****         ptcOSDbar = &OSD_720x480P60_param[0] ; 
 129              		.loc 1 621 0
 130 006e 184B     		ldr	r3, .L26
 131 0070 1A4A     		ldr	r2, .L26+12
 132 0072 1A60     		str	r2, [r3]
 622:VS4210/VX_OSD_Simple.c ****         break;
 133              		.loc 1 622 0
 134 0074 7047     		bx	lr
 135              	.L15:
 623:VS4210/VX_OSD_Simple.c ****     case _OSD_1360X768P :
 624:VS4210/VX_OSD_Simple.c ****         ptcOSDbar = &OSD_1280X768P_param[0] ; 
 136              		.loc 1 624 0
 137 0076 164B     		ldr	r3, .L26
 138 0078 204A     		ldr	r2, .L26+44
 139 007a 1A60     		str	r2, [r3]
 625:VS4210/VX_OSD_Simple.c ****         break;
 140              		.loc 1 625 0
 141 007c 7047     		bx	lr
 142              	.L16:
 626:VS4210/VX_OSD_Simple.c ****     case _OSD_1366X768P :
 627:VS4210/VX_OSD_Simple.c ****         ptcOSDbar = &OSD_1366X768P_param[0] ; 
 143              		.loc 1 627 0
 144 007e 144B     		ldr	r3, .L26
 145 0080 1F4A     		ldr	r2, .L26+48
 146 0082 1A60     		str	r2, [r3]
 628:VS4210/VX_OSD_Simple.c ****         break;
 147              		.loc 1 628 0
 148 0084 7047     		bx	lr
 149              	.L17:
 629:VS4210/VX_OSD_Simple.c ****     case _OSD_1280X800P :
 630:VS4210/VX_OSD_Simple.c ****         ptcOSDbar = &OSD_1280X800P_param[0] ; 
 150              		.loc 1 630 0
 151 0086 124B     		ldr	r3, .L26
 152 0088 1E4A     		ldr	r2, .L26+52
 153 008a 1A60     		str	r2, [r3]
 631:VS4210/VX_OSD_Simple.c ****         break;
 154              		.loc 1 631 0
 155 008c 7047     		bx	lr
 156              	.L18:
 632:VS4210/VX_OSD_Simple.c ****     case _OSD_1440X900P :
 633:VS4210/VX_OSD_Simple.c ****         ptcOSDbar = &OSD_1440X900P_param[0] ; 
 157              		.loc 1 633 0
 158 008e 104B     		ldr	r3, .L26
 159 0090 1D4A     		ldr	r2, .L26+56
 160 0092 1A60     		str	r2, [r3]
 634:VS4210/VX_OSD_Simple.c ****         break;
 161              		.loc 1 634 0
 162 0094 7047     		bx	lr
 163              	.L19:
 635:VS4210/VX_OSD_Simple.c ****     case _OSD_1280X1024P:
 636:VS4210/VX_OSD_Simple.c ****         ptcOSDbar = &OSD_1280X1024P_param[0] ; 
ARM GAS  /tmp/ccCN3Dsv.s 			page 15


 164              		.loc 1 636 0
 165 0096 0E4B     		ldr	r3, .L26
 166 0098 1C4A     		ldr	r2, .L26+60
 167 009a 1A60     		str	r2, [r3]
 637:VS4210/VX_OSD_Simple.c ****         break;
 168              		.loc 1 637 0
 169 009c 7047     		bx	lr
 170              	.L20:
 638:VS4210/VX_OSD_Simple.c ****     case _OSD_1400X1050P:
 639:VS4210/VX_OSD_Simple.c ****         ptcOSDbar = &OSD_1400X1050P_param[0] ; 
 171              		.loc 1 639 0
 172 009e 0C4B     		ldr	r3, .L26
 173 00a0 1B4A     		ldr	r2, .L26+64
 174 00a2 1A60     		str	r2, [r3]
 640:VS4210/VX_OSD_Simple.c ****         break;
 175              		.loc 1 640 0
 176 00a4 7047     		bx	lr
 177              	.L21:
 641:VS4210/VX_OSD_Simple.c ****     case _OSD_1680X1050P:
 642:VS4210/VX_OSD_Simple.c ****         ptcOSDbar = &OSD_1680X1050P_param[0] ; 
 178              		.loc 1 642 0
 179 00a6 0A4B     		ldr	r3, .L26
 180 00a8 1A4A     		ldr	r2, .L26+68
 181 00aa 1A60     		str	r2, [r3]
 643:VS4210/VX_OSD_Simple.c ****         break;
 182              		.loc 1 643 0
 183 00ac 7047     		bx	lr
 184              	.L22:
 644:VS4210/VX_OSD_Simple.c ****     case _OSD_1600X1200P:
 645:VS4210/VX_OSD_Simple.c ****         ptcOSDbar = &OSD_1600X1200P_param[0] ; 
 185              		.loc 1 645 0
 186 00ae 084B     		ldr	r3, .L26
 187 00b0 194A     		ldr	r2, .L26+72
 188 00b2 1A60     		str	r2, [r3]
 646:VS4210/VX_OSD_Simple.c ****         break;
 189              		.loc 1 646 0
 190 00b4 7047     		bx	lr
 191              	.L23:
 647:VS4210/VX_OSD_Simple.c ****     case _OSD_1920X1200P:
 648:VS4210/VX_OSD_Simple.c ****         ptcOSDbar = &OSD_1920X1200P_param[0] ; 
 192              		.loc 1 648 0
 193 00b6 064B     		ldr	r3, .L26
 194 00b8 184A     		ldr	r2, .L26+76
 195 00ba 1A60     		str	r2, [r3]
 649:VS4210/VX_OSD_Simple.c ****         break;
 196              		.loc 1 649 0
 197 00bc 7047     		bx	lr
 198              	.L24:
 650:VS4210/VX_OSD_Simple.c ****     case _OSD_No_Signal :
 651:VS4210/VX_OSD_Simple.c ****         ptcOSDbar = &OSD_No_Signal_param[0] ; 
 199              		.loc 1 651 0
 200 00be 044B     		ldr	r3, .L26
 201 00c0 174A     		ldr	r2, .L26+80
 202 00c2 1A60     		str	r2, [r3]
 652:VS4210/VX_OSD_Simple.c ****         break;
 203              		.loc 1 652 0
 204 00c4 7047     		bx	lr
ARM GAS  /tmp/ccCN3Dsv.s 			page 16


 205              	.L2:
 653:VS4210/VX_OSD_Simple.c **** 
 654:VS4210/VX_OSD_Simple.c ****     default :
 655:VS4210/VX_OSD_Simple.c ****         ptcOSDbar = &OSD_No_Signal_param[0] ; 
 206              		.loc 1 655 0
 207 00c6 024B     		ldr	r3, .L26
 208 00c8 154A     		ldr	r2, .L26+80
 209 00ca 1A60     		str	r2, [r3]
 656:VS4210/VX_OSD_Simple.c ****         break;
 657:VS4210/VX_OSD_Simple.c ****     }    
 658:VS4210/VX_OSD_Simple.c **** }
 210              		.loc 1 658 0
 211 00cc 7047     		bx	lr
 212              	.L27:
 213 00ce 00BF     		.align	2
 214              	.L26:
 215 00d0 00000000 		.word	ptcOSDbar
 216 00d4 00000000 		.word	.LANCHOR0
 217 00d8 00000000 		.word	.LANCHOR1
 218 00dc 00000000 		.word	.LANCHOR2
 219 00e0 00000000 		.word	.LANCHOR3
 220 00e4 00000000 		.word	.LANCHOR4
 221 00e8 00000000 		.word	.LANCHOR5
 222 00ec 00000000 		.word	.LANCHOR6
 223 00f0 00000000 		.word	.LANCHOR7
 224 00f4 00000000 		.word	.LANCHOR8
 225 00f8 00000000 		.word	.LANCHOR9
 226 00fc 00000000 		.word	.LANCHOR10
 227 0100 00000000 		.word	.LANCHOR11
 228 0104 00000000 		.word	.LANCHOR12
 229 0108 00000000 		.word	.LANCHOR13
 230 010c 00000000 		.word	.LANCHOR14
 231 0110 00000000 		.word	.LANCHOR15
 232 0114 00000000 		.word	.LANCHOR16
 233 0118 00000000 		.word	.LANCHOR17
 234 011c 00000000 		.word	.LANCHOR18
 235 0120 00000000 		.word	.LANCHOR19
 236              		.cfi_endproc
 237              	.LFE69:
 239              		.section	.text.VX_Write_OSD_In_OutString,"ax",%progbits
 240              		.align	1
 241              		.syntax unified
 242              		.thumb
 243              		.thumb_func
 244              		.fpu softvfp
 246              	VX_Write_OSD_In_OutString:
 247              	.LFB68:
 140:VS4210/VX_OSD_Simple.c ****     tWord ix,iy ;
 248              		.loc 1 140 0
 249              		.cfi_startproc
 250              		@ args = 0, pretend = 0, frame = 0
 251              		@ frame_needed = 0, uses_anonymous_args = 0
 252              	.LVL1:
 253 0000 2DE9F047 		push	{r4, r5, r6, r7, r8, r9, r10, lr}
 254              	.LCFI0:
 255              		.cfi_def_cfa_offset 32
 256              		.cfi_offset 4, -32
ARM GAS  /tmp/ccCN3Dsv.s 			page 17


 257              		.cfi_offset 5, -28
 258              		.cfi_offset 6, -24
 259              		.cfi_offset 7, -20
 260              		.cfi_offset 8, -16
 261              		.cfi_offset 9, -12
 262              		.cfi_offset 10, -8
 263              		.cfi_offset 14, -4
 264 0004 0546     		mov	r5, r0
 265 0006 8846     		mov	r8, r1
 266 0008 1746     		mov	r7, r2
 145:VS4210/VX_OSD_Simple.c ****     BarFlg   = u8gDrawOSDFlg & 0x01 ;
 267              		.loc 1 145 0
 268 000a B64A     		ldr	r2, .L136
 269              	.LVL2:
 270 000c 1278     		ldrb	r2, [r2]	@ zero_extendqisi2
 271 000e C2F34006 		ubfx	r6, r2, #1, #1
 272              	.LVL3:
 146:VS4210/VX_OSD_Simple.c **** 
 273              		.loc 1 146 0
 274 0012 02F00104 		and	r4, r2, #1
 275              	.LVL4:
 148:VS4210/VX_OSD_Simple.c ****     {
 276              		.loc 1 148 0
 277 0016 53BB     		cbnz	r3, .L29
 150:VS4210/VX_OSD_Simple.c ****         {
 278              		.loc 1 150 0
 279 0018 B34B     		ldr	r3, .L136+4
 280              	.LVL5:
 281 001a 1B78     		ldrb	r3, [r3]	@ zero_extendqisi2
 282 001c 012B     		cmp	r3, #1
 283 001e 21D0     		beq	.L91
 158:VS4210/VX_OSD_Simple.c ****         }
 284              		.loc 1 158 0
 285 0020 4FF02509 		mov	r9, #37
 157:VS4210/VX_OSD_Simple.c ****             iy = Mode0_720P_param[1] ;
 286              		.loc 1 157 0
 287 0024 4FF0F40A 		mov	r10, #244
 288              	.L30:
 289              	.LVL6:
 458:VS4210/VX_OSD_Simple.c ****     {
 290              		.loc 1 458 0
 291 0028 002D     		cmp	r5, #0
 292 002a 40F0BB81 		bne	.L51
 460:VS4210/VX_OSD_Simple.c ****         {
 293              		.loc 1 460 0
 294 002e 002E     		cmp	r6, #0
 295 0030 40F07E81 		bne	.L92
 296              	.LVL7:
 297              	.L52:
 469:VS4210/VX_OSD_Simple.c ****         {
 298              		.loc 1 469 0
 299 0034 002C     		cmp	r4, #0
 300 0036 40F09481 		bne	.L93
 301              	.L53:
 539:VS4210/VX_OSD_Simple.c **** 
 302              		.loc 1 539 0
 303 003a 0820     		movs	r0, #8
ARM GAS  /tmp/ccCN3Dsv.s 			page 18


 304 003c FFF7FEFF 		bl	setTransParentIndex
 305              	.LVL8:
 541:VS4210/VX_OSD_Simple.c ****         {
 306              		.loc 1 541 0
 307 0040 A84B     		ldr	r3, .L136
 308 0042 1B78     		ldrb	r3, [r3]	@ zero_extendqisi2
 309 0044 032B     		cmp	r3, #3
 310 0046 00F06F82 		beq	.L94
 549:VS4210/VX_OSD_Simple.c ****         {
 311              		.loc 1 549 0
 312 004a 002E     		cmp	r6, #0
 313 004c 00F07F82 		beq	.L62
 551:VS4210/VX_OSD_Simple.c ****             {
 314              		.loc 1 551 0
 315 0050 A64B     		ldr	r3, .L136+8
 316 0052 1B78     		ldrb	r3, [r3]	@ zero_extendqisi2
 317 0054 002B     		cmp	r3, #0
 318 0056 40F07582 		bne	.L63
 553:VS4210/VX_OSD_Simple.c ****             }
 319              		.loc 1 553 0
 320 005a 0421     		movs	r1, #4
 321 005c 2846     		mov	r0, r5
 322 005e FFF7FEFF 		bl	VXIS_fSetOsdOnOff
 323              	.LVL9:
 324 0062 68E2     		b	.L28
 325              	.LVL10:
 326              	.L91:
 153:VS4210/VX_OSD_Simple.c ****         }
 327              		.loc 1 153 0
 328 0064 4FF03D09 		mov	r9, #61
 152:VS4210/VX_OSD_Simple.c ****             iy = Mode0_1080P_param[1] ;
 329              		.loc 1 152 0
 330 0068 4FF0B40A 		mov	r10, #180
 331 006c DCE7     		b	.L30
 332              	.LVL11:
 333              	.L29:
 334 006e 1A46     		mov	r2, r3
 161:VS4210/VX_OSD_Simple.c ****     {
 335              		.loc 1 161 0
 336 0070 012B     		cmp	r3, #1
 337 0072 1ED0     		beq	.L95
 338              	.LVL12:
 174:VS4210/VX_OSD_Simple.c ****     {
 339              		.loc 1 174 0
 340 0074 022B     		cmp	r3, #2
 341 0076 2AD0     		beq	.L96
 187:VS4210/VX_OSD_Simple.c ****     {
 342              		.loc 1 187 0
 343 0078 032B     		cmp	r3, #3
 344 007a 36D0     		beq	.L97
 200:VS4210/VX_OSD_Simple.c ****     {
 345              		.loc 1 200 0
 346 007c 102B     		cmp	r3, #16
 347 007e 42D0     		beq	.L98
 255:VS4210/VX_OSD_Simple.c ****     {
 348              		.loc 1 255 0
 349 0080 202B     		cmp	r3, #32
ARM GAS  /tmp/ccCN3Dsv.s 			page 19


 350 0082 7DD0     		beq	.L99
 310:VS4210/VX_OSD_Simple.c ****     {
 351              		.loc 1 310 0
 352 0084 402B     		cmp	r3, #64
 353 0086 00F0B880 		beq	.L100
 339:VS4210/VX_OSD_Simple.c ****     {
 354              		.loc 1 339 0
 355 008a 502B     		cmp	r3, #80
 356 008c 00F0D280 		beq	.L101
 368:VS4210/VX_OSD_Simple.c ****     {
 357              		.loc 1 368 0
 358 0090 303B     		subs	r3, r3, #48
 359 0092 0F2B     		cmp	r3, #15
 360 0094 00F21E81 		bhi	.L46
 370:VS4210/VX_OSD_Simple.c ****         {
 361              		.loc 1 370 0
 362 0098 0028     		cmp	r0, #0
 363 009a 40F0ED80 		bne	.L47
 372:VS4210/VX_OSD_Simple.c ****             {
 364              		.loc 1 372 0
 365 009e 924B     		ldr	r3, .L136+4
 366 00a0 1B78     		ldrb	r3, [r3]	@ zero_extendqisi2
 367 00a2 012B     		cmp	r3, #1
 368 00a4 00F0E380 		beq	.L102
 380:VS4210/VX_OSD_Simple.c ****             }
 369              		.loc 1 380 0
 370 00a8 4FF02509 		mov	r9, #37
 379:VS4210/VX_OSD_Simple.c ****                 iy = Mode6_w0_720P_param[1] ;
 371              		.loc 1 379 0
 372 00ac 4FF0F40A 		mov	r10, #244
 373 00b0 BAE7     		b	.L30
 374              	.L95:
 163:VS4210/VX_OSD_Simple.c ****         {
 375              		.loc 1 163 0
 376 00b2 8D4B     		ldr	r3, .L136+4
 377 00b4 1B78     		ldrb	r3, [r3]	@ zero_extendqisi2
 378 00b6 012B     		cmp	r3, #1
 379 00b8 04D0     		beq	.L103
 171:VS4210/VX_OSD_Simple.c ****         }
 380              		.loc 1 171 0
 381 00ba 4FF02509 		mov	r9, #37
 170:VS4210/VX_OSD_Simple.c ****             iy = Mode0_720P_param[1] ;
 382              		.loc 1 170 0
 383 00be 4FF0F40A 		mov	r10, #244
 384 00c2 B1E7     		b	.L30
 385              	.L103:
 166:VS4210/VX_OSD_Simple.c ****         }
 386              		.loc 1 166 0
 387 00c4 4FF03D09 		mov	r9, #61
 165:VS4210/VX_OSD_Simple.c ****             iy = Mode0_1080P_param[1] ;
 388              		.loc 1 165 0
 389 00c8 4FF0B40A 		mov	r10, #180
 390 00cc ACE7     		b	.L30
 391              	.L96:
 176:VS4210/VX_OSD_Simple.c ****         {
 392              		.loc 1 176 0
 393 00ce 864B     		ldr	r3, .L136+4
ARM GAS  /tmp/ccCN3Dsv.s 			page 20


 394 00d0 1B78     		ldrb	r3, [r3]	@ zero_extendqisi2
 395 00d2 012B     		cmp	r3, #1
 396 00d4 04D0     		beq	.L104
 184:VS4210/VX_OSD_Simple.c ****         }
 397              		.loc 1 184 0
 398 00d6 4FF02509 		mov	r9, #37
 183:VS4210/VX_OSD_Simple.c ****             iy = Mode0_720P_param[1] ;
 399              		.loc 1 183 0
 400 00da 4FF0F40A 		mov	r10, #244
 401 00de A3E7     		b	.L30
 402              	.L104:
 179:VS4210/VX_OSD_Simple.c ****         }
 403              		.loc 1 179 0
 404 00e0 4FF03D09 		mov	r9, #61
 178:VS4210/VX_OSD_Simple.c ****             iy = Mode0_1080P_param[1] ;
 405              		.loc 1 178 0
 406 00e4 4FF0B40A 		mov	r10, #180
 407 00e8 9EE7     		b	.L30
 408              	.L97:
 189:VS4210/VX_OSD_Simple.c ****         {
 409              		.loc 1 189 0
 410 00ea 7F4B     		ldr	r3, .L136+4
 411 00ec 1B78     		ldrb	r3, [r3]	@ zero_extendqisi2
 412 00ee 012B     		cmp	r3, #1
 413 00f0 04D0     		beq	.L105
 197:VS4210/VX_OSD_Simple.c ****         }
 414              		.loc 1 197 0
 415 00f2 4FF02509 		mov	r9, #37
 196:VS4210/VX_OSD_Simple.c ****             iy = Mode0_720P_param[1] ;
 416              		.loc 1 196 0
 417 00f6 4FF0F40A 		mov	r10, #244
 418 00fa 95E7     		b	.L30
 419              	.L105:
 192:VS4210/VX_OSD_Simple.c ****         }
 420              		.loc 1 192 0
 421 00fc 4FF03D09 		mov	r9, #61
 191:VS4210/VX_OSD_Simple.c ****             iy = Mode0_1080P_param[1] ;
 422              		.loc 1 191 0
 423 0100 4FF0B40A 		mov	r10, #180
 424 0104 90E7     		b	.L30
 425              	.L98:
 202:VS4210/VX_OSD_Simple.c ****         {
 426              		.loc 1 202 0
 427 0106 68B9     		cbnz	r0, .L35
 204:VS4210/VX_OSD_Simple.c ****             {
 428              		.loc 1 204 0
 429 0108 774B     		ldr	r3, .L136+4
 430 010a 1B78     		ldrb	r3, [r3]	@ zero_extendqisi2
 431 010c 012B     		cmp	r3, #1
 432 010e 04D0     		beq	.L106
 212:VS4210/VX_OSD_Simple.c ****             }
 433              		.loc 1 212 0
 434 0110 4FF02509 		mov	r9, #37
 211:VS4210/VX_OSD_Simple.c ****                 iy = Mode1_w0_720P_param[1] ;
 435              		.loc 1 211 0
 436 0114 4FF0F40A 		mov	r10, #244
 437 0118 86E7     		b	.L30
ARM GAS  /tmp/ccCN3Dsv.s 			page 21


 438              	.L106:
 207:VS4210/VX_OSD_Simple.c ****             }
 439              		.loc 1 207 0
 440 011a 4FF03D09 		mov	r9, #61
 206:VS4210/VX_OSD_Simple.c ****                 iy = Mode1_w0_1080P_param[1] ;
 441              		.loc 1 206 0
 442 011e 4FF0B40A 		mov	r10, #180
 443 0122 81E7     		b	.L30
 444              	.L35:
 215:VS4210/VX_OSD_Simple.c ****         {
 445              		.loc 1 215 0
 446 0124 0128     		cmp	r0, #1
 447 0126 0AD0     		beq	.L107
 228:VS4210/VX_OSD_Simple.c ****         {
 448              		.loc 1 228 0
 449 0128 0228     		cmp	r0, #2
 450 012a 16D0     		beq	.L108
 243:VS4210/VX_OSD_Simple.c ****             {
 451              		.loc 1 243 0
 452 012c 6E4B     		ldr	r3, .L136+4
 453 012e 1B78     		ldrb	r3, [r3]	@ zero_extendqisi2
 454 0130 012B     		cmp	r3, #1
 455 0132 20D0     		beq	.L109
 251:VS4210/VX_OSD_Simple.c ****             }
 456              		.loc 1 251 0
 457 0134 40F29119 		movw	r9, #401
 250:VS4210/VX_OSD_Simple.c ****                 iy = Mode1_w3_720P_param[1] ;
 458              		.loc 1 250 0
 459 0138 40F2763A 		movw	r10, #886
 460 013c 74E7     		b	.L30
 461              	.L107:
 217:VS4210/VX_OSD_Simple.c ****             {
 462              		.loc 1 217 0
 463 013e 6A4B     		ldr	r3, .L136+4
 464 0140 1B78     		ldrb	r3, [r3]	@ zero_extendqisi2
 465 0142 012B     		cmp	r3, #1
 466 0144 04D0     		beq	.L110
 225:VS4210/VX_OSD_Simple.c ****             }
 467              		.loc 1 225 0
 468 0146 4FF02509 		mov	r9, #37
 224:VS4210/VX_OSD_Simple.c ****                 iy = Mode1_w1_720P_param[1] ;
 469              		.loc 1 224 0
 470 014a 40F2763A 		movw	r10, #886
 471 014e 6BE7     		b	.L30
 472              	.L110:
 220:VS4210/VX_OSD_Simple.c ****             }
 473              		.loc 1 220 0
 474 0150 4FF03D09 		mov	r9, #61
 219:VS4210/VX_OSD_Simple.c ****                 iy = Mode1_w1_1080P_param[1] ;
 475              		.loc 1 219 0
 476 0154 40F2744A 		movw	r10, #1140
 477 0158 66E7     		b	.L30
 478              	.L108:
 230:VS4210/VX_OSD_Simple.c ****             {
 479              		.loc 1 230 0
 480 015a 634B     		ldr	r3, .L136+4
 481 015c 1B78     		ldrb	r3, [r3]	@ zero_extendqisi2
ARM GAS  /tmp/ccCN3Dsv.s 			page 22


 482 015e 012B     		cmp	r3, #1
 483 0160 04D0     		beq	.L111
 238:VS4210/VX_OSD_Simple.c ****             }
 484              		.loc 1 238 0
 485 0162 40F29119 		movw	r9, #401
 237:VS4210/VX_OSD_Simple.c ****                 iy = Mode1_w2_720P_param[1] ;
 486              		.loc 1 237 0
 487 0166 4FF0F40A 		mov	r10, #244
 488 016a 5DE7     		b	.L30
 489              	.L111:
 233:VS4210/VX_OSD_Simple.c ****             }
 490              		.loc 1 233 0
 491 016c 40F25B29 		movw	r9, #603
 232:VS4210/VX_OSD_Simple.c ****                 iy = Mode1_w2_1080P_param[1] ;
 492              		.loc 1 232 0
 493 0170 4FF0B40A 		mov	r10, #180
 494 0174 58E7     		b	.L30
 495              	.L109:
 246:VS4210/VX_OSD_Simple.c ****             }
 496              		.loc 1 246 0
 497 0176 40F25B29 		movw	r9, #603
 245:VS4210/VX_OSD_Simple.c ****                 iy = Mode1_w3_1080P_param[1] ;
 498              		.loc 1 245 0
 499 017a 40F2744A 		movw	r10, #1140
 500 017e 53E7     		b	.L30
 501              	.L99:
 257:VS4210/VX_OSD_Simple.c ****         {
 502              		.loc 1 257 0
 503 0180 68B9     		cbnz	r0, .L39
 259:VS4210/VX_OSD_Simple.c ****             {
 504              		.loc 1 259 0
 505 0182 594B     		ldr	r3, .L136+4
 506 0184 1B78     		ldrb	r3, [r3]	@ zero_extendqisi2
 507 0186 012B     		cmp	r3, #1
 508 0188 04D0     		beq	.L112
 267:VS4210/VX_OSD_Simple.c ****             }
 509              		.loc 1 267 0
 510 018a 4FF02509 		mov	r9, #37
 266:VS4210/VX_OSD_Simple.c ****                 iy = Mode2_w0_720P_param[1] ;
 511              		.loc 1 266 0
 512 018e 4FF0F40A 		mov	r10, #244
 513 0192 49E7     		b	.L30
 514              	.L112:
 262:VS4210/VX_OSD_Simple.c ****             }
 515              		.loc 1 262 0
 516 0194 4FF03D09 		mov	r9, #61
 261:VS4210/VX_OSD_Simple.c ****                 iy = Mode2_w0_1080P_param[1] ;
 517              		.loc 1 261 0
 518 0198 4FF0B40A 		mov	r10, #180
 519 019c 44E7     		b	.L30
 520              	.L39:
 270:VS4210/VX_OSD_Simple.c ****         {
 521              		.loc 1 270 0
 522 019e 0128     		cmp	r0, #1
 523 01a0 0AD0     		beq	.L113
 283:VS4210/VX_OSD_Simple.c ****         {
 524              		.loc 1 283 0
ARM GAS  /tmp/ccCN3Dsv.s 			page 23


 525 01a2 0228     		cmp	r0, #2
 526 01a4 16D0     		beq	.L114
 298:VS4210/VX_OSD_Simple.c ****             {
 527              		.loc 1 298 0
 528 01a6 504B     		ldr	r3, .L136+4
 529 01a8 1B78     		ldrb	r3, [r3]	@ zero_extendqisi2
 530 01aa 012B     		cmp	r3, #1
 531 01ac 20D0     		beq	.L115
 306:VS4210/VX_OSD_Simple.c ****             }
 532              		.loc 1 306 0
 533 01ae 4FF02509 		mov	r9, #37
 305:VS4210/VX_OSD_Simple.c ****                 iy = Mode2_w3_720P_param[1] ;
 534              		.loc 1 305 0
 535 01b2 40F2B64A 		movw	r10, #1206
 536 01b6 37E7     		b	.L30
 537              	.L113:
 272:VS4210/VX_OSD_Simple.c ****             {
 538              		.loc 1 272 0
 539 01b8 4B4B     		ldr	r3, .L136+4
 540 01ba 1B78     		ldrb	r3, [r3]	@ zero_extendqisi2
 541 01bc 012B     		cmp	r3, #1
 542 01be 04D0     		beq	.L116
 280:VS4210/VX_OSD_Simple.c ****             }
 543              		.loc 1 280 0
 544 01c0 4FF02509 		mov	r9, #37
 279:VS4210/VX_OSD_Simple.c ****                 iy = Mode2_w1_720P_param[1] ;
 545              		.loc 1 279 0
 546 01c4 40F2362A 		movw	r10, #566
 547 01c8 2EE7     		b	.L30
 548              	.L116:
 275:VS4210/VX_OSD_Simple.c ****             }
 549              		.loc 1 275 0
 550 01ca 4FF03D09 		mov	r9, #61
 274:VS4210/VX_OSD_Simple.c ****                 iy = Mode2_w1_1080P_param[1] ;
 551              		.loc 1 274 0
 552 01ce 4FF4267A 		mov	r10, #664
 553 01d2 29E7     		b	.L30
 554              	.L114:
 285:VS4210/VX_OSD_Simple.c ****             {
 555              		.loc 1 285 0
 556 01d4 444B     		ldr	r3, .L136+4
 557 01d6 1B78     		ldrb	r3, [r3]	@ zero_extendqisi2
 558 01d8 012B     		cmp	r3, #1
 559 01da 04D0     		beq	.L117
 293:VS4210/VX_OSD_Simple.c ****             }
 560              		.loc 1 293 0
 561 01dc 40F29119 		movw	r9, #401
 292:VS4210/VX_OSD_Simple.c ****                 iy = Mode2_w2_720P_param[1] ;
 562              		.loc 1 292 0
 563 01e0 40F2362A 		movw	r10, #566
 564 01e4 20E7     		b	.L30
 565              	.L117:
 288:VS4210/VX_OSD_Simple.c ****             }
 566              		.loc 1 288 0
 567 01e6 40F25B29 		movw	r9, #603
 287:VS4210/VX_OSD_Simple.c ****                 iy = Mode2_w2_1080P_param[1] ;
 568              		.loc 1 287 0
ARM GAS  /tmp/ccCN3Dsv.s 			page 24


 569 01ea 4FF4267A 		mov	r10, #664
 570 01ee 1BE7     		b	.L30
 571              	.L115:
 301:VS4210/VX_OSD_Simple.c ****             }
 572              		.loc 1 301 0
 573 01f0 4FF03D09 		mov	r9, #61
 300:VS4210/VX_OSD_Simple.c ****                 iy = Mode2_w3_1080P_param[1] ;
 574              		.loc 1 300 0
 575 01f4 4FF4CB6A 		mov	r10, #1624
 576 01f8 16E7     		b	.L30
 577              	.L100:
 312:VS4210/VX_OSD_Simple.c ****         {
 578              		.loc 1 312 0
 579 01fa 68B9     		cbnz	r0, .L43
 314:VS4210/VX_OSD_Simple.c ****             {
 580              		.loc 1 314 0
 581 01fc 3A4B     		ldr	r3, .L136+4
 582 01fe 1B78     		ldrb	r3, [r3]	@ zero_extendqisi2
 583 0200 012B     		cmp	r3, #1
 584 0202 04D0     		beq	.L118
 322:VS4210/VX_OSD_Simple.c ****             }
 585              		.loc 1 322 0
 586 0204 4FF02509 		mov	r9, #37
 321:VS4210/VX_OSD_Simple.c ****                 iy = Mode12_w0_720P_param[1] ;
 587              		.loc 1 321 0
 588 0208 4FF0F40A 		mov	r10, #244
 589 020c 0CE7     		b	.L30
 590              	.L118:
 317:VS4210/VX_OSD_Simple.c ****             }
 591              		.loc 1 317 0
 592 020e 4FF03D09 		mov	r9, #61
 316:VS4210/VX_OSD_Simple.c ****                 iy = Mode12_w0_1080P_param[1] ;
 593              		.loc 1 316 0
 594 0212 4FF0B40A 		mov	r10, #180
 595 0216 07E7     		b	.L30
 596              	.L43:
 327:VS4210/VX_OSD_Simple.c ****             {
 597              		.loc 1 327 0
 598 0218 334B     		ldr	r3, .L136+4
 599 021a 1B78     		ldrb	r3, [r3]	@ zero_extendqisi2
 600 021c 012B     		cmp	r3, #1
 601 021e 04D0     		beq	.L119
 335:VS4210/VX_OSD_Simple.c ****             }
 602              		.loc 1 335 0
 603 0220 4FF02509 		mov	r9, #37
 334:VS4210/VX_OSD_Simple.c ****                 iy = Mode12_w1_720P_param[1] ;
 604              		.loc 1 334 0
 605 0224 40F2763A 		movw	r10, #886
 606 0228 FEE6     		b	.L30
 607              	.L119:
 330:VS4210/VX_OSD_Simple.c ****             }
 608              		.loc 1 330 0
 609 022a 4FF03D09 		mov	r9, #61
 329:VS4210/VX_OSD_Simple.c ****                 iy = Mode12_w1_1080P_param[1] ;
 610              		.loc 1 329 0
 611 022e 40F2744A 		movw	r10, #1140
 612 0232 F9E6     		b	.L30
ARM GAS  /tmp/ccCN3Dsv.s 			page 25


 613              	.L101:
 341:VS4210/VX_OSD_Simple.c ****         {
 614              		.loc 1 341 0
 615 0234 68B9     		cbnz	r0, .L45
 343:VS4210/VX_OSD_Simple.c ****             {
 616              		.loc 1 343 0
 617 0236 2C4B     		ldr	r3, .L136+4
 618 0238 1B78     		ldrb	r3, [r3]	@ zero_extendqisi2
 619 023a 012B     		cmp	r3, #1
 620 023c 04D0     		beq	.L120
 351:VS4210/VX_OSD_Simple.c ****             }
 621              		.loc 1 351 0
 622 023e 4FF02509 		mov	r9, #37
 350:VS4210/VX_OSD_Simple.c ****                 iy = Mode13_w0_720P_param[1] ;
 623              		.loc 1 350 0
 624 0242 4FF0F40A 		mov	r10, #244
 625 0246 EFE6     		b	.L30
 626              	.L120:
 346:VS4210/VX_OSD_Simple.c ****             }
 627              		.loc 1 346 0
 628 0248 4FF03D09 		mov	r9, #61
 345:VS4210/VX_OSD_Simple.c ****                 iy = Mode13_w0_1080P_param[1] ;
 629              		.loc 1 345 0
 630 024c 4FF0B40A 		mov	r10, #180
 631 0250 EAE6     		b	.L30
 632              	.L45:
 356:VS4210/VX_OSD_Simple.c ****             {
 633              		.loc 1 356 0
 634 0252 254B     		ldr	r3, .L136+4
 635 0254 1B78     		ldrb	r3, [r3]	@ zero_extendqisi2
 636 0256 012B     		cmp	r3, #1
 637 0258 04D0     		beq	.L121
 364:VS4210/VX_OSD_Simple.c ****             }
 638              		.loc 1 364 0
 639 025a 40F29119 		movw	r9, #401
 363:VS4210/VX_OSD_Simple.c ****                 iy = Mode13_w1_720P_param[1] ;
 640              		.loc 1 363 0
 641 025e 4FF0F40A 		mov	r10, #244
 642 0262 E1E6     		b	.L30
 643              	.L121:
 359:VS4210/VX_OSD_Simple.c ****             }
 644              		.loc 1 359 0
 645 0264 40F25B29 		movw	r9, #603
 358:VS4210/VX_OSD_Simple.c ****                 iy = Mode13_w1_1080P_param[1] ;
 646              		.loc 1 358 0
 647 0268 4FF0B40A 		mov	r10, #180
 648 026c DCE6     		b	.L30
 649              	.L102:
 375:VS4210/VX_OSD_Simple.c ****             }
 650              		.loc 1 375 0
 651 026e 4FF03D09 		mov	r9, #61
 374:VS4210/VX_OSD_Simple.c ****                 iy = Mode6_w0_1080P_param[1] ;
 652              		.loc 1 374 0
 653 0272 4FF0B40A 		mov	r10, #180
 654 0276 D7E6     		b	.L30
 655              	.L47:
 383:VS4210/VX_OSD_Simple.c ****         {
ARM GAS  /tmp/ccCN3Dsv.s 			page 26


 656              		.loc 1 383 0
 657 0278 0128     		cmp	r0, #1
 658 027a 0AD0     		beq	.L122
 396:VS4210/VX_OSD_Simple.c ****         {
 659              		.loc 1 396 0
 660 027c 0228     		cmp	r0, #2
 661 027e 16D0     		beq	.L123
 411:VS4210/VX_OSD_Simple.c ****             {
 662              		.loc 1 411 0
 663 0280 194B     		ldr	r3, .L136+4
 664 0282 1B78     		ldrb	r3, [r3]	@ zero_extendqisi2
 665 0284 012B     		cmp	r3, #1
 666 0286 20D0     		beq	.L124
 419:VS4210/VX_OSD_Simple.c ****             }
 667              		.loc 1 419 0
 668 0288 4FF40279 		mov	r9, #520
 418:VS4210/VX_OSD_Simple.c ****                 iy = Mode6_w3_720P_param[1] ;
 669              		.loc 1 418 0
 670 028c 40F24A4A 		movw	r10, #1098
 671 0290 CAE6     		b	.L30
 672              	.L122:
 385:VS4210/VX_OSD_Simple.c ****             {
 673              		.loc 1 385 0
 674 0292 154B     		ldr	r3, .L136+4
 675 0294 1B78     		ldrb	r3, [r3]	@ zero_extendqisi2
 676 0296 012B     		cmp	r3, #1
 677 0298 04D0     		beq	.L125
 393:VS4210/VX_OSD_Simple.c ****             }
 678              		.loc 1 393 0
 679 029a 4FF02509 		mov	r9, #37
 392:VS4210/VX_OSD_Simple.c ****                 iy = Mode6_w1_720P_param[1] ;
 680              		.loc 1 392 0
 681 029e 40F24A4A 		movw	r10, #1098
 682 02a2 C1E6     		b	.L30
 683              	.L125:
 388:VS4210/VX_OSD_Simple.c ****             }
 684              		.loc 1 388 0
 685 02a4 4FF03D09 		mov	r9, #61
 387:VS4210/VX_OSD_Simple.c ****                 iy = Mode6_w1_1080P_param[1] ;
 686              		.loc 1 387 0
 687 02a8 40F2B45A 		movw	r10, #1460
 688 02ac BCE6     		b	.L30
 689              	.L123:
 398:VS4210/VX_OSD_Simple.c ****             {
 690              		.loc 1 398 0
 691 02ae 0E4B     		ldr	r3, .L136+4
 692 02b0 1B78     		ldrb	r3, [r3]	@ zero_extendqisi2
 693 02b2 012B     		cmp	r3, #1
 694 02b4 04D0     		beq	.L126
 406:VS4210/VX_OSD_Simple.c ****             }
 695              		.loc 1 406 0
 696 02b6 4FF48C79 		mov	r9, #280
 405:VS4210/VX_OSD_Simple.c ****                 iy = Mode6_w2_720P_param[1] ;
 697              		.loc 1 405 0
 698 02ba 40F24A4A 		movw	r10, #1098
 699 02be B3E6     		b	.L30
 700              	.L126:
ARM GAS  /tmp/ccCN3Dsv.s 			page 27


 401:VS4210/VX_OSD_Simple.c ****             }
 701              		.loc 1 401 0
 702 02c0 4FF4D379 		mov	r9, #422
 400:VS4210/VX_OSD_Simple.c ****                 iy = Mode6_w2_1080P_param[1] ;
 703              		.loc 1 400 0
 704 02c4 40F2B45A 		movw	r10, #1460
 705 02c8 AEE6     		b	.L30
 706              	.L124:
 414:VS4210/VX_OSD_Simple.c ****             }
 707              		.loc 1 414 0
 708 02ca 40F20F39 		movw	r9, #783
 413:VS4210/VX_OSD_Simple.c ****                 iy = Mode6_w3_1080P_param[1] ;
 709              		.loc 1 413 0
 710 02ce 40F2B45A 		movw	r10, #1460
 711 02d2 A9E6     		b	.L30
 712              	.L46:
 423:VS4210/VX_OSD_Simple.c ****     {
 713              		.loc 1 423 0
 714 02d4 602A     		cmp	r2, #96
 715 02d6 0BD0     		beq	.L127
 455:VS4210/VX_OSD_Simple.c ****     }
 716              		.loc 1 455 0
 717 02d8 4FF04009 		mov	r9, #64
 454:VS4210/VX_OSD_Simple.c ****         iy = 64 ;
 718              		.loc 1 454 0
 719 02dc 4FF0E00A 		mov	r10, #224
 720 02e0 A2E6     		b	.L30
 721              	.L137:
 722 02e2 00BF     		.align	2
 723              	.L136:
 724 02e4 00000000 		.word	u8gDrawOSDFlg
 725 02e8 00000000 		.word	gbVXIS_OuputSize
 726 02ec 00000000 		.word	MenuOSDonFlg
 727              	.L127:
 425:VS4210/VX_OSD_Simple.c ****         {
 728              		.loc 1 425 0
 729 02f0 68B9     		cbnz	r0, .L50
 427:VS4210/VX_OSD_Simple.c ****             {
 730              		.loc 1 427 0
 731 02f2 A44B     		ldr	r3, .L138
 732 02f4 1B78     		ldrb	r3, [r3]	@ zero_extendqisi2
 733 02f6 012B     		cmp	r3, #1
 734 02f8 04D0     		beq	.L128
 435:VS4210/VX_OSD_Simple.c ****             }
 735              		.loc 1 435 0
 736 02fa 4FF02509 		mov	r9, #37
 434:VS4210/VX_OSD_Simple.c ****                 iy = Mode24_w0_720P_param[1] ;
 737              		.loc 1 434 0
 738 02fe 4FF0F40A 		mov	r10, #244
 739 0302 91E6     		b	.L30
 740              	.L128:
 430:VS4210/VX_OSD_Simple.c ****             }
 741              		.loc 1 430 0
 742 0304 4FF03D09 		mov	r9, #61
 429:VS4210/VX_OSD_Simple.c ****                 iy = Mode24_w0_1080P_param[1] ;
 743              		.loc 1 429 0
 744 0308 4FF0B40A 		mov	r10, #180
ARM GAS  /tmp/ccCN3Dsv.s 			page 28


 745 030c 8CE6     		b	.L30
 746              	.L50:
 438:VS4210/VX_OSD_Simple.c ****         {
 747              		.loc 1 438 0
 748 030e 0128     		cmp	r0, #1
 749 0310 7FF48AAE 		bne	.L30
 440:VS4210/VX_OSD_Simple.c ****             {
 750              		.loc 1 440 0
 751 0314 9B4B     		ldr	r3, .L138
 752 0316 1B78     		ldrb	r3, [r3]	@ zero_extendqisi2
 753 0318 012B     		cmp	r3, #1
 754 031a 04D0     		beq	.L129
 448:VS4210/VX_OSD_Simple.c ****             }
 755              		.loc 1 448 0
 756 031c 40F20529 		movw	r9, #517
 447:VS4210/VX_OSD_Simple.c ****                 iy = Mode24_w1_720P_param[1] ;
 757              		.loc 1 447 0
 758 0320 40F24A4A 		movw	r10, #1098
 759 0324 80E6     		b	.L30
 760              	.L129:
 443:VS4210/VX_OSD_Simple.c ****             }
 761              		.loc 1 443 0
 762 0326 40F20D39 		movw	r9, #781
 442:VS4210/VX_OSD_Simple.c ****                 iy = Mode24_w1_1080P_param[1] ;
 763              		.loc 1 442 0
 764 032a 40F2B45A 		movw	r10, #1460
 765 032e 7BE6     		b	.L30
 766              	.LVL13:
 767              	.L92:
 462:VS4210/VX_OSD_Simple.c ****             SetOsdStartAddress(_Title0,0x00);
 768              		.loc 1 462 0
 769 0330 0122     		movs	r2, #1
 770 0332 98F80010 		ldrb	r1, [r8]	@ zero_extendqisi2
 771              	.LVL14:
 772 0336 0020     		movs	r0, #0
 773              	.LVL15:
 774 0338 FFF7FEFF 		bl	SetOsdSize
 775              	.LVL16:
 463:VS4210/VX_OSD_Simple.c ****             OsdDumpString(0x00,Str1);
 776              		.loc 1 463 0
 777 033c 0021     		movs	r1, #0
 778 033e 0846     		mov	r0, r1
 779 0340 FFF7FEFF 		bl	SetOsdStartAddress
 780              	.LVL17:
 464:VS4210/VX_OSD_Simple.c ****             OsdDumpAttribute(0x00,Str1,_Color);
 781              		.loc 1 464 0
 782 0344 4146     		mov	r1, r8
 783 0346 0020     		movs	r0, #0
 784 0348 FFF7FEFF 		bl	OsdDumpString
 785              	.LVL18:
 465:VS4210/VX_OSD_Simple.c ****             SetOsdPosition(_Title0,ix,iy);
 786              		.loc 1 465 0
 787 034c 0722     		movs	r2, #7
 788 034e 4146     		mov	r1, r8
 789 0350 0020     		movs	r0, #0
 790 0352 FFF7FEFF 		bl	OsdDumpAttribute
 791              	.LVL19:
ARM GAS  /tmp/ccCN3Dsv.s 			page 29


 466:VS4210/VX_OSD_Simple.c ****         }
 792              		.loc 1 466 0
 793 0356 4A46     		mov	r2, r9
 794 0358 5146     		mov	r1, r10
 795 035a 0020     		movs	r0, #0
 796 035c FFF7FEFF 		bl	SetOsdPosition
 797              	.LVL20:
 798 0360 68E6     		b	.L52
 799              	.L93:
 471:VS4210/VX_OSD_Simple.c ****             SetOsdStartAddress(_Bar0,0x40);
 800              		.loc 1 471 0
 801 0362 0122     		movs	r2, #1
 802 0364 3978     		ldrb	r1, [r7]	@ zero_extendqisi2
 803 0366 0420     		movs	r0, #4
 804 0368 FFF7FEFF 		bl	SetOsdSize
 805              	.LVL21:
 472:VS4210/VX_OSD_Simple.c ****             OsdDumpString(0x40,Str2);
 806              		.loc 1 472 0
 807 036c 4021     		movs	r1, #64
 808 036e 0420     		movs	r0, #4
 809 0370 FFF7FEFF 		bl	SetOsdStartAddress
 810              	.LVL22:
 473:VS4210/VX_OSD_Simple.c ****             OsdDumpAttribute(0x40,Str2,_Color);
 811              		.loc 1 473 0
 812 0374 3946     		mov	r1, r7
 813 0376 4020     		movs	r0, #64
 814 0378 FFF7FEFF 		bl	OsdDumpString
 815              	.LVL23:
 474:VS4210/VX_OSD_Simple.c ****             SetOsdPosition(_Bar0,ix,iy + 20 + OSDx2Flg*20);
 816              		.loc 1 474 0
 817 037c 0722     		movs	r2, #7
 818 037e 3946     		mov	r1, r7
 819 0380 4020     		movs	r0, #64
 820 0382 FFF7FEFF 		bl	OsdDumpAttribute
 821              	.LVL24:
 475:VS4210/VX_OSD_Simple.c ****         }
 822              		.loc 1 475 0
 823 0386 804B     		ldr	r3, .L138+4
 824 0388 1A78     		ldrb	r2, [r3]	@ zero_extendqisi2
 825 038a 02EB8202 		add	r2, r2, r2, lsl #2
 826 038e 9300     		lsls	r3, r2, #2
 827 0390 09EB0302 		add	r2, r9, r3
 828 0394 92B2     		uxth	r2, r2
 829 0396 1432     		adds	r2, r2, #20
 830 0398 92B2     		uxth	r2, r2
 831 039a 5146     		mov	r1, r10
 832 039c 0420     		movs	r0, #4
 833 039e FFF7FEFF 		bl	SetOsdPosition
 834              	.LVL25:
 835 03a2 4AE6     		b	.L53
 836              	.LVL26:
 837              	.L51:
 478:VS4210/VX_OSD_Simple.c ****     {
 838              		.loc 1 478 0
 839 03a4 012D     		cmp	r5, #1
 840 03a6 2AD0     		beq	.L130
 498:VS4210/VX_OSD_Simple.c ****     {
ARM GAS  /tmp/ccCN3Dsv.s 			page 30


 841              		.loc 1 498 0
 842 03a8 022D     		cmp	r5, #2
 843 03aa 66D0     		beq	.L131
 518:VS4210/VX_OSD_Simple.c ****     {
 844              		.loc 1 518 0
 845 03ac 032D     		cmp	r5, #3
 846 03ae 7FF444AE 		bne	.L53
 520:VS4210/VX_OSD_Simple.c ****         {
 847              		.loc 1 520 0
 848 03b2 002E     		cmp	r6, #0
 849 03b4 40F09F80 		bne	.L132
 850              	.LVL27:
 851              	.L58:
 529:VS4210/VX_OSD_Simple.c ****         {
 852              		.loc 1 529 0
 853 03b8 002C     		cmp	r4, #0
 854 03ba 3FF43EAE 		beq	.L53
 531:VS4210/VX_OSD_Simple.c ****             SetOsdStartAddress(_Bar3,0x70);
 855              		.loc 1 531 0
 856 03be 0122     		movs	r2, #1
 857 03c0 3978     		ldrb	r1, [r7]	@ zero_extendqisi2
 858 03c2 0720     		movs	r0, #7
 859 03c4 FFF7FEFF 		bl	SetOsdSize
 860              	.LVL28:
 532:VS4210/VX_OSD_Simple.c ****             OsdDumpString(0x70,Str2);
 861              		.loc 1 532 0
 862 03c8 7021     		movs	r1, #112
 863 03ca 0720     		movs	r0, #7
 864 03cc FFF7FEFF 		bl	SetOsdStartAddress
 865              	.LVL29:
 533:VS4210/VX_OSD_Simple.c ****             OsdDumpAttribute(0x70,Str2,_Color);
 866              		.loc 1 533 0
 867 03d0 3946     		mov	r1, r7
 868 03d2 7020     		movs	r0, #112
 869 03d4 FFF7FEFF 		bl	OsdDumpString
 870              	.LVL30:
 534:VS4210/VX_OSD_Simple.c ****             SetOsdPosition(_Bar3,ix,iy + 20 + OSDx2Flg*20);
 871              		.loc 1 534 0
 872 03d8 0722     		movs	r2, #7
 873 03da 3946     		mov	r1, r7
 874 03dc 7020     		movs	r0, #112
 875 03de FFF7FEFF 		bl	OsdDumpAttribute
 876              	.LVL31:
 535:VS4210/VX_OSD_Simple.c ****         }
 877              		.loc 1 535 0
 878 03e2 694B     		ldr	r3, .L138+4
 879 03e4 1B78     		ldrb	r3, [r3]	@ zero_extendqisi2
 880 03e6 03EB8303 		add	r3, r3, r3, lsl #2
 881 03ea 9A00     		lsls	r2, r3, #2
 882 03ec 4A44     		add	r2, r2, r9
 883 03ee 92B2     		uxth	r2, r2
 884 03f0 1432     		adds	r2, r2, #20
 885 03f2 92B2     		uxth	r2, r2
 886 03f4 5146     		mov	r1, r10
 887 03f6 0720     		movs	r0, #7
 888 03f8 FFF7FEFF 		bl	SetOsdPosition
 889              	.LVL32:
ARM GAS  /tmp/ccCN3Dsv.s 			page 31


 890 03fc 1DE6     		b	.L53
 891              	.LVL33:
 892              	.L130:
 480:VS4210/VX_OSD_Simple.c ****         {
 893              		.loc 1 480 0
 894 03fe 1EBB     		cbnz	r6, .L133
 895              	.LVL34:
 896              	.L55:
 489:VS4210/VX_OSD_Simple.c ****         {
 897              		.loc 1 489 0
 898 0400 002C     		cmp	r4, #0
 899 0402 3FF41AAE 		beq	.L53
 491:VS4210/VX_OSD_Simple.c ****             SetOsdStartAddress(_Bar1,0x50);
 900              		.loc 1 491 0
 901 0406 0122     		movs	r2, #1
 902 0408 3978     		ldrb	r1, [r7]	@ zero_extendqisi2
 903 040a 0520     		movs	r0, #5
 904 040c FFF7FEFF 		bl	SetOsdSize
 905              	.LVL35:
 492:VS4210/VX_OSD_Simple.c ****             OsdDumpString(0x50,Str2);
 906              		.loc 1 492 0
 907 0410 5021     		movs	r1, #80
 908 0412 0520     		movs	r0, #5
 909 0414 FFF7FEFF 		bl	SetOsdStartAddress
 910              	.LVL36:
 493:VS4210/VX_OSD_Simple.c ****             OsdDumpAttribute(0x50,Str2,_Color);
 911              		.loc 1 493 0
 912 0418 3946     		mov	r1, r7
 913 041a 5020     		movs	r0, #80
 914 041c FFF7FEFF 		bl	OsdDumpString
 915              	.LVL37:
 494:VS4210/VX_OSD_Simple.c ****             SetOsdPosition(_Bar1,ix,iy + 20 + OSDx2Flg*20 );
 916              		.loc 1 494 0
 917 0420 0722     		movs	r2, #7
 918 0422 3946     		mov	r1, r7
 919 0424 5020     		movs	r0, #80
 920 0426 FFF7FEFF 		bl	OsdDumpAttribute
 921              	.LVL38:
 495:VS4210/VX_OSD_Simple.c ****         }
 922              		.loc 1 495 0
 923 042a 574B     		ldr	r3, .L138+4
 924 042c 1A78     		ldrb	r2, [r3]	@ zero_extendqisi2
 925 042e 02EB8202 		add	r2, r2, r2, lsl #2
 926 0432 9300     		lsls	r3, r2, #2
 927 0434 09EB0302 		add	r2, r9, r3
 928 0438 92B2     		uxth	r2, r2
 929 043a 1432     		adds	r2, r2, #20
 930 043c 92B2     		uxth	r2, r2
 931 043e 5146     		mov	r1, r10
 932 0440 0520     		movs	r0, #5
 933 0442 FFF7FEFF 		bl	SetOsdPosition
 934              	.LVL39:
 935 0446 F8E5     		b	.L53
 936              	.LVL40:
 937              	.L133:
 482:VS4210/VX_OSD_Simple.c ****             SetOsdStartAddress(_Title1,0x10);
 938              		.loc 1 482 0
ARM GAS  /tmp/ccCN3Dsv.s 			page 32


 939 0448 0122     		movs	r2, #1
 940 044a 98F80010 		ldrb	r1, [r8]	@ zero_extendqisi2
 941              	.LVL41:
 942 044e 1046     		mov	r0, r2
 943              	.LVL42:
 944 0450 FFF7FEFF 		bl	SetOsdSize
 945              	.LVL43:
 483:VS4210/VX_OSD_Simple.c ****             OsdDumpString(0x10,Str1);
 946              		.loc 1 483 0
 947 0454 1021     		movs	r1, #16
 948 0456 0120     		movs	r0, #1
 949 0458 FFF7FEFF 		bl	SetOsdStartAddress
 950              	.LVL44:
 484:VS4210/VX_OSD_Simple.c ****             OsdDumpAttribute(0x10,Str1,_Color);
 951              		.loc 1 484 0
 952 045c 4146     		mov	r1, r8
 953 045e 1020     		movs	r0, #16
 954 0460 FFF7FEFF 		bl	OsdDumpString
 955              	.LVL45:
 485:VS4210/VX_OSD_Simple.c ****             SetOsdPosition(_Title1,ix,iy);
 956              		.loc 1 485 0
 957 0464 0722     		movs	r2, #7
 958 0466 4146     		mov	r1, r8
 959 0468 1020     		movs	r0, #16
 960 046a FFF7FEFF 		bl	OsdDumpAttribute
 961              	.LVL46:
 486:VS4210/VX_OSD_Simple.c ****         }
 962              		.loc 1 486 0
 963 046e 4A46     		mov	r2, r9
 964 0470 5146     		mov	r1, r10
 965 0472 0120     		movs	r0, #1
 966 0474 FFF7FEFF 		bl	SetOsdPosition
 967              	.LVL47:
 968 0478 C2E7     		b	.L55
 969              	.LVL48:
 970              	.L131:
 500:VS4210/VX_OSD_Simple.c ****         {
 971              		.loc 1 500 0
 972 047a 1EBB     		cbnz	r6, .L134
 973              	.LVL49:
 974              	.L57:
 509:VS4210/VX_OSD_Simple.c ****         {
 975              		.loc 1 509 0
 976 047c 002C     		cmp	r4, #0
 977 047e 3FF4DCAD 		beq	.L53
 511:VS4210/VX_OSD_Simple.c ****             SetOsdStartAddress(_Bar2,0x60);
 978              		.loc 1 511 0
 979 0482 0122     		movs	r2, #1
 980 0484 3978     		ldrb	r1, [r7]	@ zero_extendqisi2
 981 0486 0620     		movs	r0, #6
 982 0488 FFF7FEFF 		bl	SetOsdSize
 983              	.LVL50:
 512:VS4210/VX_OSD_Simple.c ****             OsdDumpString(0x60,Str2);
 984              		.loc 1 512 0
 985 048c 6021     		movs	r1, #96
 986 048e 0620     		movs	r0, #6
 987 0490 FFF7FEFF 		bl	SetOsdStartAddress
ARM GAS  /tmp/ccCN3Dsv.s 			page 33


 988              	.LVL51:
 513:VS4210/VX_OSD_Simple.c ****             OsdDumpAttribute(0x60,Str2,_Color);
 989              		.loc 1 513 0
 990 0494 3946     		mov	r1, r7
 991 0496 6020     		movs	r0, #96
 992 0498 FFF7FEFF 		bl	OsdDumpString
 993              	.LVL52:
 514:VS4210/VX_OSD_Simple.c ****             SetOsdPosition(_Bar2,ix,iy + 20 + OSDx2Flg*20);
 994              		.loc 1 514 0
 995 049c 0722     		movs	r2, #7
 996 049e 3946     		mov	r1, r7
 997 04a0 6020     		movs	r0, #96
 998 04a2 FFF7FEFF 		bl	OsdDumpAttribute
 999              	.LVL53:
 515:VS4210/VX_OSD_Simple.c ****         }
 1000              		.loc 1 515 0
 1001 04a6 384B     		ldr	r3, .L138+4
 1002 04a8 1A78     		ldrb	r2, [r3]	@ zero_extendqisi2
 1003 04aa 02EB8202 		add	r2, r2, r2, lsl #2
 1004 04ae 9300     		lsls	r3, r2, #2
 1005 04b0 09EB0302 		add	r2, r9, r3
 1006 04b4 92B2     		uxth	r2, r2
 1007 04b6 1432     		adds	r2, r2, #20
 1008 04b8 92B2     		uxth	r2, r2
 1009 04ba 5146     		mov	r1, r10
 1010 04bc 0620     		movs	r0, #6
 1011 04be FFF7FEFF 		bl	SetOsdPosition
 1012              	.LVL54:
 1013 04c2 BAE5     		b	.L53
 1014              	.LVL55:
 1015              	.L134:
 502:VS4210/VX_OSD_Simple.c ****             SetOsdStartAddress(_Title1,0x20);
 1016              		.loc 1 502 0
 1017 04c4 0122     		movs	r2, #1
 1018 04c6 98F80010 		ldrb	r1, [r8]	@ zero_extendqisi2
 1019              	.LVL56:
 1020 04ca 0220     		movs	r0, #2
 1021              	.LVL57:
 1022 04cc FFF7FEFF 		bl	SetOsdSize
 1023              	.LVL58:
 503:VS4210/VX_OSD_Simple.c ****             OsdDumpString(0x20,Str1);
 1024              		.loc 1 503 0
 1025 04d0 2021     		movs	r1, #32
 1026 04d2 0120     		movs	r0, #1
 1027 04d4 FFF7FEFF 		bl	SetOsdStartAddress
 1028              	.LVL59:
 504:VS4210/VX_OSD_Simple.c ****             OsdDumpAttribute(0x20,Str1,_Color);
 1029              		.loc 1 504 0
 1030 04d8 4146     		mov	r1, r8
 1031 04da 2020     		movs	r0, #32
 1032 04dc FFF7FEFF 		bl	OsdDumpString
 1033              	.LVL60:
 505:VS4210/VX_OSD_Simple.c ****             SetOsdPosition(_Title2,ix,iy);
 1034              		.loc 1 505 0
 1035 04e0 0722     		movs	r2, #7
 1036 04e2 4146     		mov	r1, r8
 1037 04e4 2020     		movs	r0, #32
ARM GAS  /tmp/ccCN3Dsv.s 			page 34


 1038 04e6 FFF7FEFF 		bl	OsdDumpAttribute
 1039              	.LVL61:
 506:VS4210/VX_OSD_Simple.c ****         }
 1040              		.loc 1 506 0
 1041 04ea 4A46     		mov	r2, r9
 1042 04ec 5146     		mov	r1, r10
 1043 04ee 0220     		movs	r0, #2
 1044 04f0 FFF7FEFF 		bl	SetOsdPosition
 1045              	.LVL62:
 1046 04f4 C2E7     		b	.L57
 1047              	.LVL63:
 1048              	.L132:
 522:VS4210/VX_OSD_Simple.c ****             SetOsdStartAddress(_Title3,0x30);
 1049              		.loc 1 522 0
 1050 04f6 0122     		movs	r2, #1
 1051 04f8 98F80010 		ldrb	r1, [r8]	@ zero_extendqisi2
 1052              	.LVL64:
 1053 04fc 0320     		movs	r0, #3
 1054              	.LVL65:
 1055 04fe FFF7FEFF 		bl	SetOsdSize
 1056              	.LVL66:
 523:VS4210/VX_OSD_Simple.c ****             OsdDumpString(0x30,Str1);
 1057              		.loc 1 523 0
 1058 0502 3021     		movs	r1, #48
 1059 0504 0320     		movs	r0, #3
 1060 0506 FFF7FEFF 		bl	SetOsdStartAddress
 1061              	.LVL67:
 524:VS4210/VX_OSD_Simple.c ****             OsdDumpAttribute(0x30,Str1,_Color);
 1062              		.loc 1 524 0
 1063 050a 4146     		mov	r1, r8
 1064 050c 3020     		movs	r0, #48
 1065 050e FFF7FEFF 		bl	OsdDumpString
 1066              	.LVL68:
 525:VS4210/VX_OSD_Simple.c ****             SetOsdPosition(_Title3,ix,iy);
 1067              		.loc 1 525 0
 1068 0512 0722     		movs	r2, #7
 1069 0514 4146     		mov	r1, r8
 1070 0516 3020     		movs	r0, #48
 1071 0518 FFF7FEFF 		bl	OsdDumpAttribute
 1072              	.LVL69:
 526:VS4210/VX_OSD_Simple.c ****         }
 1073              		.loc 1 526 0
 1074 051c 4A46     		mov	r2, r9
 1075 051e 5146     		mov	r1, r10
 1076 0520 0320     		movs	r0, #3
 1077 0522 FFF7FEFF 		bl	SetOsdPosition
 1078              	.LVL70:
 1079 0526 47E7     		b	.L58
 1080              	.L94:
 543:VS4210/VX_OSD_Simple.c ****                 VXIS_fSetOsdOnOff(ch , _TitleOn | _BottomOn );
 1081              		.loc 1 543 0
 1082 0528 184B     		ldr	r3, .L138+8
 1083 052a 1B78     		ldrb	r3, [r3]	@ zero_extendqisi2
 1084 052c 2BB9     		cbnz	r3, .L60
 544:VS4210/VX_OSD_Simple.c ****             else
 1085              		.loc 1 544 0
 1086 052e 0521     		movs	r1, #5
ARM GAS  /tmp/ccCN3Dsv.s 			page 35


 1087 0530 2846     		mov	r0, r5
 1088 0532 FFF7FEFF 		bl	VXIS_fSetOsdOnOff
 1089              	.LVL71:
 1090              	.L28:
 582:VS4210/VX_OSD_Simple.c **** 
 1091              		.loc 1 582 0
 1092 0536 BDE8F087 		pop	{r4, r5, r6, r7, r8, r9, r10, pc}
 1093              	.LVL72:
 1094              	.L60:
 546:VS4210/VX_OSD_Simple.c ****                 //VXIS_fSetOsdOnOff(ch , _ContentOn );
 1095              		.loc 1 546 0
 1096 053a 0721     		movs	r1, #7
 1097 053c 2846     		mov	r0, r5
 1098 053e FFF7FEFF 		bl	VXIS_fSetOsdOnOff
 1099              	.LVL73:
 1100 0542 F8E7     		b	.L28
 1101              	.L63:
 557:VS4210/VX_OSD_Simple.c ****             }
 1102              		.loc 1 557 0
 1103 0544 0221     		movs	r1, #2
 1104 0546 2846     		mov	r0, r5
 1105 0548 FFF7FEFF 		bl	VXIS_fSetOsdOnOff
 1106              	.LVL74:
 1107 054c F3E7     		b	.L28
 1108              	.L62:
 560:VS4210/VX_OSD_Simple.c ****         {
 1109              		.loc 1 560 0
 1110 054e 64B1     		cbz	r4, .L64
 562:VS4210/VX_OSD_Simple.c ****             {
 1111              		.loc 1 562 0
 1112 0550 0E4B     		ldr	r3, .L138+8
 1113 0552 1B78     		ldrb	r3, [r3]	@ zero_extendqisi2
 1114 0554 23B9     		cbnz	r3, .L65
 564:VS4210/VX_OSD_Simple.c ****             }
 1115              		.loc 1 564 0
 1116 0556 0121     		movs	r1, #1
 1117 0558 2846     		mov	r0, r5
 1118 055a FFF7FEFF 		bl	VXIS_fSetOsdOnOff
 1119              	.LVL75:
 1120 055e EAE7     		b	.L28
 1121              	.L65:
 568:VS4210/VX_OSD_Simple.c ****             }
 1122              		.loc 1 568 0
 1123 0560 0221     		movs	r1, #2
 1124 0562 2846     		mov	r0, r5
 1125 0564 FFF7FEFF 		bl	VXIS_fSetOsdOnOff
 1126              	.LVL76:
 1127 0568 E5E7     		b	.L28
 1128              	.L64:
 573:VS4210/VX_OSD_Simple.c ****             {
 1129              		.loc 1 573 0
 1130 056a 084B     		ldr	r3, .L138+8
 1131 056c 1B78     		ldrb	r3, [r3]	@ zero_extendqisi2
 1132 056e 23B1     		cbz	r3, .L135
 578:VS4210/VX_OSD_Simple.c ****             }
 1133              		.loc 1 578 0
 1134 0570 0221     		movs	r1, #2
ARM GAS  /tmp/ccCN3Dsv.s 			page 36


 1135 0572 2846     		mov	r0, r5
 1136 0574 FFF7FEFF 		bl	VXIS_fSetOsdOnOff
 1137              	.LVL77:
 582:VS4210/VX_OSD_Simple.c **** 
 1138              		.loc 1 582 0
 1139 0578 DDE7     		b	.L28
 1140              	.L135:
 575:VS4210/VX_OSD_Simple.c ****             }
 1141              		.loc 1 575 0
 1142 057a 0021     		movs	r1, #0
 1143 057c 2846     		mov	r0, r5
 1144 057e FFF7FEFF 		bl	VXIS_fSetOsdOnOff
 1145              	.LVL78:
 1146 0582 D8E7     		b	.L28
 1147              	.L139:
 1148              		.align	2
 1149              	.L138:
 1150 0584 00000000 		.word	gbVXIS_OuputSize
 1151 0588 00000000 		.word	OSDx2Flg
 1152 058c 00000000 		.word	MenuOSDonFlg
 1153              		.cfi_endproc
 1154              	.LFE68:
 1156              		.section	.text.VXIS_fShowInOutMode,"ax",%progbits
 1157              		.align	1
 1158              		.global	VXIS_fShowInOutMode
 1159              		.syntax unified
 1160              		.thumb
 1161              		.thumb_func
 1162              		.fpu softvfp
 1164              	VXIS_fShowInOutMode:
 1165              	.LFB70:
 659:VS4210/VX_OSD_Simple.c **** 
 660:VS4210/VX_OSD_Simple.c **** /**
 661:VS4210/VX_OSD_Simple.c ****  * @brief Input resolution
 662:VS4210/VX_OSD_Simple.c ****  *
 663:VS4210/VX_OSD_Simple.c ****  * Input resolution on the screen display
 664:VS4210/VX_OSD_Simple.c ****  *
 665:VS4210/VX_OSD_Simple.c ****  * @param in_mode Input resolution
 666:VS4210/VX_OSD_Simple.c ****  * @param out_mode Output resolution
 667:VS4210/VX_OSD_Simple.c ****  * @return none
 668:VS4210/VX_OSD_Simple.c ****  */
 669:VS4210/VX_OSD_Simple.c **** void VXIS_fShowInOutMode( tByte ch ,  tByte in_mode,  tByte out_mode  )
 670:VS4210/VX_OSD_Simple.c **** {
 1166              		.loc 1 670 0
 1167              		.cfi_startproc
 1168              		@ args = 0, pretend = 0, frame = 24
 1169              		@ frame_needed = 0, uses_anonymous_args = 0
 1170              	.LVL79:
 1171 0000 70B5     		push	{r4, r5, r6, lr}
 1172              	.LCFI1:
 1173              		.cfi_def_cfa_offset 16
 1174              		.cfi_offset 4, -16
 1175              		.cfi_offset 5, -12
 1176              		.cfi_offset 6, -8
 1177              		.cfi_offset 14, -4
 1178 0002 86B0     		sub	sp, sp, #24
 1179              	.LCFI2:
ARM GAS  /tmp/ccCN3Dsv.s 			page 37


 1180              		.cfi_def_cfa_offset 40
 1181 0004 0546     		mov	r5, r0
 1182 0006 0E46     		mov	r6, r1
 1183 0008 1446     		mov	r4, r2
 671:VS4210/VX_OSD_Simple.c ****     tcByte *ptr1 ;    
 672:VS4210/VX_OSD_Simple.c ****     tByte  OSD_CHx_param[7] ;
 673:VS4210/VX_OSD_Simple.c ****     tByte  pu8aOSDbar[11] ; 
 674:VS4210/VX_OSD_Simple.c ****     tByte chFix ;
 675:VS4210/VX_OSD_Simple.c **** 
 676:VS4210/VX_OSD_Simple.c ****     chFix = gaHDMI_MapWindowIndex[ch] ;
 1184              		.loc 1 676 0
 1185 000a 2A4B     		ldr	r3, .L159
 1186 000c 1A5C     		ldrb	r2, [r3, r0]	@ zero_extendqisi2
 1187              	.LVL80:
 677:VS4210/VX_OSD_Simple.c ****     ptr1 = &OSD_CH1_param[0] ;
 678:VS4210/VX_OSD_Simple.c **** 
 679:VS4210/VX_OSD_Simple.c ****     if (out_mode == VS4210_1080P_MODE0_w1 )
 1188              		.loc 1 679 0
 1189 000e 012C     		cmp	r4, #1
 1190 0010 0BD0     		beq	.L154
 680:VS4210/VX_OSD_Simple.c ****     {
 681:VS4210/VX_OSD_Simple.c ****         if (ch == 1 )
 682:VS4210/VX_OSD_Simple.c ****         {
 683:VS4210/VX_OSD_Simple.c ****             ptr1 = OSD_CH1_param ;
 684:VS4210/VX_OSD_Simple.c ****             chFix = 0 ;
 685:VS4210/VX_OSD_Simple.c ****         }
 686:VS4210/VX_OSD_Simple.c ****     }
 687:VS4210/VX_OSD_Simple.c ****     else if (out_mode == VS4210_1080P_MODE0_w2 )
 1191              		.loc 1 687 0
 1192 0012 022C     		cmp	r4, #2
 1193 0014 2DD0     		beq	.L155
 688:VS4210/VX_OSD_Simple.c ****     {
 689:VS4210/VX_OSD_Simple.c ****         if (ch == 2 )
 690:VS4210/VX_OSD_Simple.c ****         {
 691:VS4210/VX_OSD_Simple.c ****             ptr1 = OSD_CH2_param ;
 692:VS4210/VX_OSD_Simple.c ****             chFix = 0 ;
 693:VS4210/VX_OSD_Simple.c ****         }
 694:VS4210/VX_OSD_Simple.c ****     }
 695:VS4210/VX_OSD_Simple.c ****     else if (out_mode == VS4210_1080P_MODE0_w3 )
 1194              		.loc 1 695 0
 1195 0016 032C     		cmp	r4, #3
 1196 0018 2FD0     		beq	.L156
 696:VS4210/VX_OSD_Simple.c ****     {
 697:VS4210/VX_OSD_Simple.c ****         if (ch == 3 )
 698:VS4210/VX_OSD_Simple.c ****         {
 699:VS4210/VX_OSD_Simple.c ****             ptr1 = OSD_CH3_param ;
 700:VS4210/VX_OSD_Simple.c ****             chFix = 0 ;
 701:VS4210/VX_OSD_Simple.c ****         }
 702:VS4210/VX_OSD_Simple.c ****     }
 703:VS4210/VX_OSD_Simple.c ****     else
 704:VS4210/VX_OSD_Simple.c ****     {
 705:VS4210/VX_OSD_Simple.c ****         if (chFix == 0 )
 1197              		.loc 1 705 0
 1198 001a 002A     		cmp	r2, #0
 1199 001c 3CD0     		beq	.L150
 706:VS4210/VX_OSD_Simple.c ****         {
 707:VS4210/VX_OSD_Simple.c ****             ptr1 = OSD_CH0_param ;
ARM GAS  /tmp/ccCN3Dsv.s 			page 38


 708:VS4210/VX_OSD_Simple.c ****         }
 709:VS4210/VX_OSD_Simple.c ****         else  	if (chFix == 1 )
 1200              		.loc 1 709 0
 1201 001e 012A     		cmp	r2, #1
 1202 0020 3CD0     		beq	.L151
 710:VS4210/VX_OSD_Simple.c ****         {
 711:VS4210/VX_OSD_Simple.c ****             ptr1 = OSD_CH1_param ;
 712:VS4210/VX_OSD_Simple.c ****         }
 713:VS4210/VX_OSD_Simple.c ****         else  	if (chFix == 2 )
 1203              		.loc 1 713 0
 1204 0022 022A     		cmp	r2, #2
 1205 0024 2DD0     		beq	.L157
 714:VS4210/VX_OSD_Simple.c ****         {
 715:VS4210/VX_OSD_Simple.c ****             ptr1 = OSD_CH2_param ;
 716:VS4210/VX_OSD_Simple.c ****         }
 717:VS4210/VX_OSD_Simple.c ****         else
 718:VS4210/VX_OSD_Simple.c ****         {
 719:VS4210/VX_OSD_Simple.c ****             ptr1 = OSD_CH3_param ;
 1206              		.loc 1 719 0
 1207 0026 244B     		ldr	r3, .L159+4
 1208 0028 02E0     		b	.L142
 1209              	.L154:
 681:VS4210/VX_OSD_Simple.c ****         {
 1210              		.loc 1 681 0
 1211 002a 0128     		cmp	r0, #1
 1212 002c 2BD0     		beq	.L147
 677:VS4210/VX_OSD_Simple.c **** 
 1213              		.loc 1 677 0
 1214 002e 234B     		ldr	r3, .L159+8
 1215              	.LVL81:
 1216              	.L142:
 720:VS4210/VX_OSD_Simple.c ****         }
 721:VS4210/VX_OSD_Simple.c ****     }
 722:VS4210/VX_OSD_Simple.c **** 
 723:VS4210/VX_OSD_Simple.c ****    if (gu8AudioMode == chFix  )
 1217              		.loc 1 723 0
 1218 0030 2349     		ldr	r1, .L159+12
 1219              	.LVL82:
 1220 0032 0978     		ldrb	r1, [r1]	@ zero_extendqisi2
 1221 0034 9142     		cmp	r1, r2
 1222 0036 33D0     		beq	.L158
 724:VS4210/VX_OSD_Simple.c ****     {
 725:VS4210/VX_OSD_Simple.c ****         memcpy(OSD_CHx_param , ptr1 , 6 ) ;
 726:VS4210/VX_OSD_Simple.c **** 	OSD_CHx_param[6] =	0x6C ;
 727:VS4210/VX_OSD_Simple.c ****     }
 728:VS4210/VX_OSD_Simple.c ****     else
 729:VS4210/VX_OSD_Simple.c ****     {
 730:VS4210/VX_OSD_Simple.c ****         memcpy(OSD_CHx_param , ptr1 , 7 ) ;
 1223              		.loc 1 730 0
 1224 0038 93E80300 		ldm	r3, {r0, r1}
 1225              	.LVL83:
 1226 003c 0490     		str	r0, [sp, #16]
 1227 003e ADF81410 		strh	r1, [sp, #20]	@ movhi
 1228 0042 090C     		lsrs	r1, r1, #16
 1229 0044 8DF81610 		strb	r1, [sp, #22]
 1230              	.LVL84:
 1231              	.L146:
ARM GAS  /tmp/ccCN3Dsv.s 			page 39


 731:VS4210/VX_OSD_Simple.c ****     }
 732:VS4210/VX_OSD_Simple.c ****     
 733:VS4210/VX_OSD_Simple.c ****     GetconvertBarStr(in_mode ) ; 
 1232              		.loc 1 733 0
 1233 0048 3046     		mov	r0, r6
 1234 004a FFF7FEFF 		bl	GetconvertBarStr
 1235              	.LVL85:
 734:VS4210/VX_OSD_Simple.c ****     memcpy(pu8aOSDbar , ptcOSDbar , 11) ; 
 1236              		.loc 1 734 0
 1237 004e 1D4B     		ldr	r3, .L159+16
 1238 0050 1A68     		ldr	r2, [r3]
 1239 0052 01AB     		add	r3, sp, #4
 1240 0054 1068     		ldr	r0, [r2]	@ unaligned
 1241 0056 5168     		ldr	r1, [r2, #4]	@ unaligned
 1242 0058 03C3     		stmia	r3!, {r0, r1}
 1243 005a 1189     		ldrh	r1, [r2, #8]	@ unaligned
 1244 005c 927A     		ldrb	r2, [r2, #10]	@ zero_extendqisi2
 1245 005e 1980     		strh	r1, [r3]	@ unaligned
 1246 0060 9A70     		strb	r2, [r3, #2]
 735:VS4210/VX_OSD_Simple.c ****     VX_Write_OSD_In_OutString(ch , OSD_CHx_param, pu8aOSDbar ,out_mode) ;    
 1247              		.loc 1 735 0
 1248 0062 2346     		mov	r3, r4
 1249 0064 01AA     		add	r2, sp, #4
 1250 0066 04A9     		add	r1, sp, #16
 1251 0068 2846     		mov	r0, r5
 1252 006a FFF7FEFF 		bl	VX_Write_OSD_In_OutString
 1253              	.LVL86:
 736:VS4210/VX_OSD_Simple.c **** }
 1254              		.loc 1 736 0
 1255 006e 06B0     		add	sp, sp, #24
 1256              	.LCFI3:
 1257              		.cfi_remember_state
 1258              		.cfi_def_cfa_offset 16
 1259              		@ sp needed
 1260 0070 70BD     		pop	{r4, r5, r6, pc}
 1261              	.LVL87:
 1262              	.L155:
 1263              	.LCFI4:
 1264              		.cfi_restore_state
 689:VS4210/VX_OSD_Simple.c ****         {
 1265              		.loc 1 689 0
 1266 0072 0228     		cmp	r0, #2
 1267 0074 0AD0     		beq	.L148
 677:VS4210/VX_OSD_Simple.c **** 
 1268              		.loc 1 677 0
 1269 0076 114B     		ldr	r3, .L159+8
 1270 0078 DAE7     		b	.L142
 1271              	.L156:
 697:VS4210/VX_OSD_Simple.c ****         {
 1272              		.loc 1 697 0
 1273 007a 0328     		cmp	r0, #3
 1274 007c 09D0     		beq	.L149
 677:VS4210/VX_OSD_Simple.c **** 
 1275              		.loc 1 677 0
 1276 007e 0F4B     		ldr	r3, .L159+8
 1277 0080 D6E7     		b	.L142
 1278              	.L157:
ARM GAS  /tmp/ccCN3Dsv.s 			page 40


 715:VS4210/VX_OSD_Simple.c ****         }
 1279              		.loc 1 715 0
 1280 0082 114B     		ldr	r3, .L159+20
 1281 0084 D4E7     		b	.L142
 1282              	.L147:
 684:VS4210/VX_OSD_Simple.c ****         }
 1283              		.loc 1 684 0
 1284 0086 0022     		movs	r2, #0
 1285              	.LVL88:
 683:VS4210/VX_OSD_Simple.c ****             chFix = 0 ;
 1286              		.loc 1 683 0
 1287 0088 0C4B     		ldr	r3, .L159+8
 1288              	.LVL89:
 1289 008a D1E7     		b	.L142
 1290              	.LVL90:
 1291              	.L148:
 692:VS4210/VX_OSD_Simple.c ****         }
 1292              		.loc 1 692 0
 1293 008c 0022     		movs	r2, #0
 1294              	.LVL91:
 691:VS4210/VX_OSD_Simple.c ****             chFix = 0 ;
 1295              		.loc 1 691 0
 1296 008e 0E4B     		ldr	r3, .L159+20
 1297              	.LVL92:
 1298 0090 CEE7     		b	.L142
 1299              	.LVL93:
 1300              	.L149:
 700:VS4210/VX_OSD_Simple.c ****         }
 1301              		.loc 1 700 0
 1302 0092 0022     		movs	r2, #0
 1303              	.LVL94:
 699:VS4210/VX_OSD_Simple.c ****             chFix = 0 ;
 1304              		.loc 1 699 0
 1305 0094 084B     		ldr	r3, .L159+4
 1306              	.LVL95:
 1307 0096 CBE7     		b	.L142
 1308              	.LVL96:
 1309              	.L150:
 707:VS4210/VX_OSD_Simple.c ****         }
 1310              		.loc 1 707 0
 1311 0098 0C4B     		ldr	r3, .L159+24
 1312 009a C9E7     		b	.L142
 1313              	.L151:
 711:VS4210/VX_OSD_Simple.c ****         }
 1314              		.loc 1 711 0
 1315 009c 074B     		ldr	r3, .L159+8
 1316 009e C7E7     		b	.L142
 1317              	.LVL97:
 1318              	.L158:
 725:VS4210/VX_OSD_Simple.c **** 	OSD_CHx_param[6] =	0x6C ;
 1319              		.loc 1 725 0
 1320 00a0 93E80300 		ldm	r3, {r0, r1}
 1321              	.LVL98:
 1322 00a4 0490     		str	r0, [sp, #16]
 1323 00a6 ADF81410 		strh	r1, [sp, #20]	@ movhi
 726:VS4210/VX_OSD_Simple.c ****     }
 1324              		.loc 1 726 0
ARM GAS  /tmp/ccCN3Dsv.s 			page 41


 1325 00aa 6C23     		movs	r3, #108
 1326              	.LVL99:
 1327 00ac 8DF81630 		strb	r3, [sp, #22]
 1328 00b0 CAE7     		b	.L146
 1329              	.L160:
 1330 00b2 00BF     		.align	2
 1331              	.L159:
 1332 00b4 00000000 		.word	gaHDMI_MapWindowIndex
 1333 00b8 00000000 		.word	.LANCHOR22
 1334 00bc 00000000 		.word	.LANCHOR20
 1335 00c0 00000000 		.word	gu8AudioMode
 1336 00c4 00000000 		.word	ptcOSDbar
 1337 00c8 00000000 		.word	.LANCHOR21
 1338 00cc 00000000 		.word	.LANCHOR23
 1339              		.cfi_endproc
 1340              	.LFE70:
 1342              		.section	.text.VXIS_fShowInOutMode0Fast,"ax",%progbits
 1343              		.align	1
 1344              		.global	VXIS_fShowInOutMode0Fast
 1345              		.syntax unified
 1346              		.thumb
 1347              		.thumb_func
 1348              		.fpu softvfp
 1350              	VXIS_fShowInOutMode0Fast:
 1351              	.LFB71:
 737:VS4210/VX_OSD_Simple.c **** 
 738:VS4210/VX_OSD_Simple.c **** 
 739:VS4210/VX_OSD_Simple.c **** 
 740:VS4210/VX_OSD_Simple.c **** void VXIS_fShowInOutMode0Fast( tByte ch ,  tByte in_mode,  tByte out_mode  )
 741:VS4210/VX_OSD_Simple.c **** {
 1352              		.loc 1 741 0
 1353              		.cfi_startproc
 1354              		@ args = 0, pretend = 0, frame = 24
 1355              		@ frame_needed = 0, uses_anonymous_args = 0
 1356              	.LVL100:
 1357 0000 30B5     		push	{r4, r5, lr}
 1358              	.LCFI5:
 1359              		.cfi_def_cfa_offset 12
 1360              		.cfi_offset 4, -12
 1361              		.cfi_offset 5, -8
 1362              		.cfi_offset 14, -4
 1363 0002 87B0     		sub	sp, sp, #28
 1364              	.LCFI6:
 1365              		.cfi_def_cfa_offset 40
 1366 0004 0D46     		mov	r5, r1
 1367 0006 1446     		mov	r4, r2
 742:VS4210/VX_OSD_Simple.c ****     tcByte *ptr1 ;
 743:VS4210/VX_OSD_Simple.c ****     tByte  OSD_CHx_param[7] ;
 744:VS4210/VX_OSD_Simple.c ****     tByte  pu8aOSDbar[11] ; 
 745:VS4210/VX_OSD_Simple.c ****     tByte  chFix ;
 746:VS4210/VX_OSD_Simple.c **** 
 747:VS4210/VX_OSD_Simple.c ****     if (ch == 0 )
 1368              		.loc 1 747 0
 1369 0008 38B1     		cbz	r0, .L163
 748:VS4210/VX_OSD_Simple.c ****     {
 749:VS4210/VX_OSD_Simple.c ****         ptr1 = OSD_CH0_param ;
 750:VS4210/VX_OSD_Simple.c ****     }
ARM GAS  /tmp/ccCN3Dsv.s 			page 42


 751:VS4210/VX_OSD_Simple.c ****     else if (ch == 1 )
 1370              		.loc 1 751 0
 1371 000a 0128     		cmp	r0, #1
 1372 000c 23D0     		beq	.L164
 752:VS4210/VX_OSD_Simple.c ****     {
 753:VS4210/VX_OSD_Simple.c ****         ptr1 = OSD_CH1_param ;
 754:VS4210/VX_OSD_Simple.c ****     }
 755:VS4210/VX_OSD_Simple.c ****     else if (ch == 2 )
 1373              		.loc 1 755 0
 1374 000e 0228     		cmp	r0, #2
 1375 0010 01D0     		beq	.L167
 756:VS4210/VX_OSD_Simple.c ****     {
 757:VS4210/VX_OSD_Simple.c ****         ptr1 = OSD_CH2_param ;
 758:VS4210/VX_OSD_Simple.c ****     }
 759:VS4210/VX_OSD_Simple.c ****     else
 760:VS4210/VX_OSD_Simple.c ****     {
 761:VS4210/VX_OSD_Simple.c ****         ptr1 = OSD_CH3_param ;
 1376              		.loc 1 761 0
 1377 0012 124B     		ldr	r3, .L168
 1378 0014 02E0     		b	.L162
 1379              	.L167:
 757:VS4210/VX_OSD_Simple.c ****     }
 1380              		.loc 1 757 0
 1381 0016 124B     		ldr	r3, .L168+4
 1382 0018 00E0     		b	.L162
 1383              	.L163:
 749:VS4210/VX_OSD_Simple.c ****     }
 1384              		.loc 1 749 0
 1385 001a 124B     		ldr	r3, .L168+8
 1386              	.L162:
 1387              	.LVL101:
 762:VS4210/VX_OSD_Simple.c ****     }
 763:VS4210/VX_OSD_Simple.c **** 
 764:VS4210/VX_OSD_Simple.c ****    if(1)//ryan@20201229   if (gu8AudioMode == ch )
 765:VS4210/VX_OSD_Simple.c ****     {
 766:VS4210/VX_OSD_Simple.c ****         memcpy(OSD_CHx_param , ptr1 , 6 ) ;        
 1388              		.loc 1 766 0
 1389 001c 93E80300 		ldm	r3, {r0, r1}
 1390              	.LVL102:
 1391 0020 0490     		str	r0, [sp, #16]
 1392 0022 ADF81410 		strh	r1, [sp, #20]	@ movhi
 767:VS4210/VX_OSD_Simple.c ****         OSD_CHx_param[6] =  0x6C ;
 1393              		.loc 1 767 0
 1394 0026 6C23     		movs	r3, #108
 1395              	.LVL103:
 1396 0028 8DF81630 		strb	r3, [sp, #22]
 1397              	.LVL104:
 768:VS4210/VX_OSD_Simple.c ****     }
 769:VS4210/VX_OSD_Simple.c ****     else
 770:VS4210/VX_OSD_Simple.c ****     {
 771:VS4210/VX_OSD_Simple.c ****         memcpy(OSD_CHx_param , ptr1 , 7 ) ;
 772:VS4210/VX_OSD_Simple.c ****     }
 773:VS4210/VX_OSD_Simple.c **** 
 774:VS4210/VX_OSD_Simple.c ****     chFix = 0  ;    
 775:VS4210/VX_OSD_Simple.c ****     GetconvertBarStr(in_mode ) ;     
 1398              		.loc 1 775 0
 1399 002c 2846     		mov	r0, r5
ARM GAS  /tmp/ccCN3Dsv.s 			page 43


 1400 002e FFF7FEFF 		bl	GetconvertBarStr
 1401              	.LVL105:
 776:VS4210/VX_OSD_Simple.c ****     memcpy(pu8aOSDbar , ptcOSDbar , 11) ; 
 1402              		.loc 1 776 0
 1403 0032 0D4B     		ldr	r3, .L168+12
 1404 0034 1A68     		ldr	r2, [r3]
 1405 0036 01AB     		add	r3, sp, #4
 1406 0038 1068     		ldr	r0, [r2]	@ unaligned
 1407 003a 5168     		ldr	r1, [r2, #4]	@ unaligned
 1408 003c 03C3     		stmia	r3!, {r0, r1}
 1409 003e 1189     		ldrh	r1, [r2, #8]	@ unaligned
 1410 0040 927A     		ldrb	r2, [r2, #10]	@ zero_extendqisi2
 1411 0042 1980     		strh	r1, [r3]	@ unaligned
 1412 0044 9A70     		strb	r2, [r3, #2]
 777:VS4210/VX_OSD_Simple.c ****     VX_Write_OSD_In_OutString(chFix , OSD_CHx_param, pu8aOSDbar ,out_mode) ;
 1413              		.loc 1 777 0
 1414 0046 2346     		mov	r3, r4
 1415 0048 01AA     		add	r2, sp, #4
 1416 004a 04A9     		add	r1, sp, #16
 1417 004c 0020     		movs	r0, #0
 1418 004e FFF7FEFF 		bl	VX_Write_OSD_In_OutString
 1419              	.LVL106:
 778:VS4210/VX_OSD_Simple.c **** 
 779:VS4210/VX_OSD_Simple.c **** }
 1420              		.loc 1 779 0
 1421 0052 07B0     		add	sp, sp, #28
 1422              	.LCFI7:
 1423              		.cfi_remember_state
 1424              		.cfi_def_cfa_offset 12
 1425              		@ sp needed
 1426 0054 30BD     		pop	{r4, r5, pc}
 1427              	.LVL107:
 1428              	.L164:
 1429              	.LCFI8:
 1430              		.cfi_restore_state
 753:VS4210/VX_OSD_Simple.c ****     }
 1431              		.loc 1 753 0
 1432 0056 054B     		ldr	r3, .L168+16
 1433 0058 E0E7     		b	.L162
 1434              	.L169:
 1435 005a 00BF     		.align	2
 1436              	.L168:
 1437 005c 00000000 		.word	.LANCHOR22
 1438 0060 00000000 		.word	.LANCHOR21
 1439 0064 00000000 		.word	.LANCHOR23
 1440 0068 00000000 		.word	ptcOSDbar
 1441 006c 00000000 		.word	.LANCHOR20
 1442              		.cfi_endproc
 1443              	.LFE71:
 1445              		.section	.text.OSD_Clear,"ax",%progbits
 1446              		.align	1
 1447              		.global	OSD_Clear
 1448              		.syntax unified
 1449              		.thumb
 1450              		.thumb_func
 1451              		.fpu softvfp
 1453              	OSD_Clear:
ARM GAS  /tmp/ccCN3Dsv.s 			page 44


 1454              	.LFB72:
 780:VS4210/VX_OSD_Simple.c **** 
 781:VS4210/VX_OSD_Simple.c **** void OSD_Clear(tByte Win )
 782:VS4210/VX_OSD_Simple.c **** {
 1455              		.loc 1 782 0
 1456              		.cfi_startproc
 1457              		@ args = 0, pretend = 0, frame = 0
 1458              		@ frame_needed = 0, uses_anonymous_args = 0
 1459              	.LVL108:
 1460 0000 70B5     		push	{r4, r5, r6, lr}
 1461              	.LCFI9:
 1462              		.cfi_def_cfa_offset 16
 1463              		.cfi_offset 4, -16
 1464              		.cfi_offset 5, -12
 1465              		.cfi_offset 6, -8
 1466              		.cfi_offset 14, -4
 783:VS4210/VX_OSD_Simple.c ****     tByte temp53;
 784:VS4210/VX_OSD_Simple.c ****     tByte temp5E ;
 785:VS4210/VX_OSD_Simple.c ****     tByte temp2 ;
 786:VS4210/VX_OSD_Simple.c ****     tByte temp ;
 787:VS4210/VX_OSD_Simple.c **** 
 788:VS4210/VX_OSD_Simple.c ****     if (Win == 0 )
 1467              		.loc 1 788 0
 1468 0002 F0B1     		cbz	r0, .L178
 1469 0004 0446     		mov	r4, r0
 789:VS4210/VX_OSD_Simple.c ****     {
 790:VS4210/VX_OSD_Simple.c ****         SetOsdSize(_Title0,0,1);
 791:VS4210/VX_OSD_Simple.c ****         SetOsdSize(_Bar0,0,1);
 792:VS4210/VX_OSD_Simple.c ****     }
 793:VS4210/VX_OSD_Simple.c ****     else
 794:VS4210/VX_OSD_Simple.c ****     {
 795:VS4210/VX_OSD_Simple.c ****         temp2 = VXISI2CRead(0x53);
 1470              		.loc 1 795 0
 1471 0006 5320     		movs	r0, #83
 1472              	.LVL109:
 1473 0008 FFF7FEFF 		bl	VXISI2CRead
 1474              	.LVL110:
 796:VS4210/VX_OSD_Simple.c ****         temp53 = temp2 & 0x3f ;
 1475              		.loc 1 796 0
 1476 000c 00F03F06 		and	r6, r0, #63
 1477              	.LVL111:
 797:VS4210/VX_OSD_Simple.c ****         temp2 = VXISI2CRead(0x5E);
 1478              		.loc 1 797 0
 1479 0010 5E20     		movs	r0, #94
 1480              	.LVL112:
 1481 0012 FFF7FEFF 		bl	VXISI2CRead
 1482              	.LVL113:
 798:VS4210/VX_OSD_Simple.c ****         temp5E = temp2 & 0x3f ;
 1483              		.loc 1 798 0
 1484 0016 00F03F05 		and	r5, r0, #63
 1485              	.LVL114:
 799:VS4210/VX_OSD_Simple.c **** 
 800:VS4210/VX_OSD_Simple.c ****         if (Win == 1 )
 1486              		.loc 1 800 0
 1487 001a 012C     		cmp	r4, #1
 1488 001c 1CD0     		beq	.L179
 801:VS4210/VX_OSD_Simple.c ****         {
ARM GAS  /tmp/ccCN3Dsv.s 			page 45


 802:VS4210/VX_OSD_Simple.c ****             VXISI2CWrite(0x53,0x40|temp53 );
 803:VS4210/VX_OSD_Simple.c ****             VXISI2CWrite(0x5E,0x40|temp5E );
 804:VS4210/VX_OSD_Simple.c ****         }
 805:VS4210/VX_OSD_Simple.c ****         else if (Win == 2 )
 1489              		.loc 1 805 0
 1490 001e 022C     		cmp	r4, #2
 1491 0020 25D0     		beq	.L180
 806:VS4210/VX_OSD_Simple.c ****         {
 807:VS4210/VX_OSD_Simple.c ****             VXISI2CWrite(0x53,0x80|temp53 );
 808:VS4210/VX_OSD_Simple.c ****             VXISI2CWrite(0x5E,0x80|temp5E );
 809:VS4210/VX_OSD_Simple.c ****         }
 810:VS4210/VX_OSD_Simple.c ****         else if (Win == 3 )
 1492              		.loc 1 810 0
 1493 0022 032C     		cmp	r4, #3
 1494 0024 2ED0     		beq	.L181
 1495              	.LVL115:
 1496              	.L174:
 811:VS4210/VX_OSD_Simple.c ****         {
 812:VS4210/VX_OSD_Simple.c ****             VXISI2CWrite(0x53,0xC0|temp53 );
 813:VS4210/VX_OSD_Simple.c ****             VXISI2CWrite(0x5E,0xC0|temp5E );
 814:VS4210/VX_OSD_Simple.c ****         }
 815:VS4210/VX_OSD_Simple.c **** 
 816:VS4210/VX_OSD_Simple.c ****         temp=VXISI2CRead(0x51);
 1497              		.loc 1 816 0
 1498 0026 5120     		movs	r0, #81
 1499 0028 FFF7FEFF 		bl	VXISI2CRead
 1500              	.LVL116:
 817:VS4210/VX_OSD_Simple.c ****         temp=temp& 0x8 ;
 1501              		.loc 1 817 0
 1502 002c 00F00801 		and	r1, r0, #8
 1503              	.LVL117:
 818:VS4210/VX_OSD_Simple.c **** 
 819:VS4210/VX_OSD_Simple.c ****         if (MenuOSDonFlg == 0 )
 1504              		.loc 1 819 0
 1505 0030 1C4B     		ldr	r3, .L183
 1506 0032 1B78     		ldrb	r3, [r3]	@ zero_extendqisi2
 1507 0034 8BB3     		cbz	r3, .L182
 820:VS4210/VX_OSD_Simple.c ****         {
 821:VS4210/VX_OSD_Simple.c ****             VXISI2CWrite(0x51,0x00 | temp );
 822:VS4210/VX_OSD_Simple.c ****         }
 823:VS4210/VX_OSD_Simple.c ****         else
 824:VS4210/VX_OSD_Simple.c ****         {
 825:VS4210/VX_OSD_Simple.c ****             VXISI2CWrite(0x51,_ContentOn | temp );
 1508              		.loc 1 825 0
 1509 0036 41F00201 		orr	r1, r1, #2
 1510              	.LVL118:
 1511 003a 5120     		movs	r0, #81
 1512              	.LVL119:
 1513 003c FFF7FEFF 		bl	VXISI2CWrite
 1514              	.LVL120:
 826:VS4210/VX_OSD_Simple.c ****         }
 827:VS4210/VX_OSD_Simple.c ****     }
 828:VS4210/VX_OSD_Simple.c **** }
 1515              		.loc 1 828 0
 1516 0040 09E0     		b	.L170
 1517              	.LVL121:
 1518              	.L178:
ARM GAS  /tmp/ccCN3Dsv.s 			page 46


 790:VS4210/VX_OSD_Simple.c ****         SetOsdSize(_Bar0,0,1);
 1519              		.loc 1 790 0
 1520 0042 0122     		movs	r2, #1
 1521 0044 0021     		movs	r1, #0
 1522 0046 0846     		mov	r0, r1
 1523              	.LVL122:
 1524 0048 FFF7FEFF 		bl	SetOsdSize
 1525              	.LVL123:
 791:VS4210/VX_OSD_Simple.c ****     }
 1526              		.loc 1 791 0
 1527 004c 0122     		movs	r2, #1
 1528 004e 0021     		movs	r1, #0
 1529 0050 0420     		movs	r0, #4
 1530 0052 FFF7FEFF 		bl	SetOsdSize
 1531              	.LVL124:
 1532              	.L170:
 1533              		.loc 1 828 0
 1534 0056 70BD     		pop	{r4, r5, r6, pc}
 1535              	.LVL125:
 1536              	.L179:
 802:VS4210/VX_OSD_Simple.c ****             VXISI2CWrite(0x5E,0x40|temp5E );
 1537              		.loc 1 802 0
 1538 0058 46F04001 		orr	r1, r6, #64
 1539 005c 5320     		movs	r0, #83
 1540              	.LVL126:
 1541 005e FFF7FEFF 		bl	VXISI2CWrite
 1542              	.LVL127:
 803:VS4210/VX_OSD_Simple.c ****         }
 1543              		.loc 1 803 0
 1544 0062 45F04001 		orr	r1, r5, #64
 1545 0066 5E20     		movs	r0, #94
 1546 0068 FFF7FEFF 		bl	VXISI2CWrite
 1547              	.LVL128:
 1548 006c DBE7     		b	.L174
 1549              	.LVL129:
 1550              	.L180:
 807:VS4210/VX_OSD_Simple.c ****             VXISI2CWrite(0x5E,0x80|temp5E );
 1551              		.loc 1 807 0
 1552 006e 46F08001 		orr	r1, r6, #128
 1553 0072 5320     		movs	r0, #83
 1554              	.LVL130:
 1555 0074 FFF7FEFF 		bl	VXISI2CWrite
 1556              	.LVL131:
 808:VS4210/VX_OSD_Simple.c ****         }
 1557              		.loc 1 808 0
 1558 0078 45F08001 		orr	r1, r5, #128
 1559 007c 5E20     		movs	r0, #94
 1560 007e FFF7FEFF 		bl	VXISI2CWrite
 1561              	.LVL132:
 1562 0082 D0E7     		b	.L174
 1563              	.LVL133:
 1564              	.L181:
 812:VS4210/VX_OSD_Simple.c ****             VXISI2CWrite(0x5E,0xC0|temp5E );
 1565              		.loc 1 812 0
 1566 0084 46F0C001 		orr	r1, r6, #192
 1567 0088 5320     		movs	r0, #83
 1568              	.LVL134:
ARM GAS  /tmp/ccCN3Dsv.s 			page 47


 1569 008a FFF7FEFF 		bl	VXISI2CWrite
 1570              	.LVL135:
 813:VS4210/VX_OSD_Simple.c ****         }
 1571              		.loc 1 813 0
 1572 008e 45F0C001 		orr	r1, r5, #192
 1573 0092 5E20     		movs	r0, #94
 1574 0094 FFF7FEFF 		bl	VXISI2CWrite
 1575              	.LVL136:
 1576 0098 C5E7     		b	.L174
 1577              	.LVL137:
 1578              	.L182:
 821:VS4210/VX_OSD_Simple.c ****         }
 1579              		.loc 1 821 0
 1580 009a 5120     		movs	r0, #81
 1581 009c FFF7FEFF 		bl	VXISI2CWrite
 1582              	.LVL138:
 1583 00a0 D9E7     		b	.L170
 1584              	.L184:
 1585 00a2 00BF     		.align	2
 1586              	.L183:
 1587 00a4 00000000 		.word	MenuOSDonFlg
 1588              		.cfi_endproc
 1589              	.LFE72:
 1591              		.section	.text.OSD_Clear_4,"ax",%progbits
 1592              		.align	1
 1593              		.global	OSD_Clear_4
 1594              		.syntax unified
 1595              		.thumb
 1596              		.thumb_func
 1597              		.fpu softvfp
 1599              	OSD_Clear_4:
 1600              	.LFB73:
 829:VS4210/VX_OSD_Simple.c **** 
 830:VS4210/VX_OSD_Simple.c **** void OSD_Clear_4(void )
 831:VS4210/VX_OSD_Simple.c **** {
 1601              		.loc 1 831 0
 1602              		.cfi_startproc
 1603              		@ args = 0, pretend = 0, frame = 0
 1604              		@ frame_needed = 0, uses_anonymous_args = 0
 1605 0000 08B5     		push	{r3, lr}
 1606              	.LCFI10:
 1607              		.cfi_def_cfa_offset 8
 1608              		.cfi_offset 3, -8
 1609              		.cfi_offset 14, -4
 832:VS4210/VX_OSD_Simple.c ****     OSD_Clear(3) ;
 1610              		.loc 1 832 0
 1611 0002 0320     		movs	r0, #3
 1612 0004 FFF7FEFF 		bl	OSD_Clear
 1613              	.LVL139:
 833:VS4210/VX_OSD_Simple.c **** }
 1614              		.loc 1 833 0
 1615 0008 08BD     		pop	{r3, pc}
 1616              		.cfi_endproc
 1617              	.LFE73:
 1619              		.section	.text.OSD_Clear_34,"ax",%progbits
 1620              		.align	1
 1621              		.global	OSD_Clear_34
ARM GAS  /tmp/ccCN3Dsv.s 			page 48


 1622              		.syntax unified
 1623              		.thumb
 1624              		.thumb_func
 1625              		.fpu softvfp
 1627              	OSD_Clear_34:
 1628              	.LFB74:
 834:VS4210/VX_OSD_Simple.c **** 
 835:VS4210/VX_OSD_Simple.c **** void OSD_Clear_34(void )
 836:VS4210/VX_OSD_Simple.c **** {
 1629              		.loc 1 836 0
 1630              		.cfi_startproc
 1631              		@ args = 0, pretend = 0, frame = 0
 1632              		@ frame_needed = 0, uses_anonymous_args = 0
 1633 0000 10B5     		push	{r4, lr}
 1634              	.LCFI11:
 1635              		.cfi_def_cfa_offset 8
 1636              		.cfi_offset 4, -8
 1637              		.cfi_offset 14, -4
 1638              	.LVL140:
 837:VS4210/VX_OSD_Simple.c ****     tByte i ;
 838:VS4210/VX_OSD_Simple.c ****     for (i = 2 ; i < 4 ;i++)
 1639              		.loc 1 838 0
 1640 0002 0224     		movs	r4, #2
 1641 0004 04E0     		b	.L188
 1642              	.LVL141:
 1643              	.L189:
 839:VS4210/VX_OSD_Simple.c ****     {
 840:VS4210/VX_OSD_Simple.c ****         OSD_Clear(i) ;
 1644              		.loc 1 840 0 discriminator 3
 1645 0006 2046     		mov	r0, r4
 1646 0008 FFF7FEFF 		bl	OSD_Clear
 1647              	.LVL142:
 838:VS4210/VX_OSD_Simple.c ****     {
 1648              		.loc 1 838 0 discriminator 3
 1649 000c 0134     		adds	r4, r4, #1
 1650              	.LVL143:
 1651 000e E4B2     		uxtb	r4, r4
 1652              	.LVL144:
 1653              	.L188:
 838:VS4210/VX_OSD_Simple.c ****     {
 1654              		.loc 1 838 0 is_stmt 0 discriminator 1
 1655 0010 032C     		cmp	r4, #3
 1656 0012 F8D9     		bls	.L189
 841:VS4210/VX_OSD_Simple.c ****     }
 842:VS4210/VX_OSD_Simple.c **** }
 1657              		.loc 1 842 0 is_stmt 1
 1658 0014 10BD     		pop	{r4, pc}
 1659              		.cfi_endproc
 1660              	.LFE74:
 1662              		.section	.text.OSD_Clear_234,"ax",%progbits
 1663              		.align	1
 1664              		.global	OSD_Clear_234
 1665              		.syntax unified
 1666              		.thumb
 1667              		.thumb_func
 1668              		.fpu softvfp
 1670              	OSD_Clear_234:
ARM GAS  /tmp/ccCN3Dsv.s 			page 49


 1671              	.LFB75:
 843:VS4210/VX_OSD_Simple.c **** 
 844:VS4210/VX_OSD_Simple.c **** void OSD_Clear_234(void )
 845:VS4210/VX_OSD_Simple.c **** {
 1672              		.loc 1 845 0
 1673              		.cfi_startproc
 1674              		@ args = 0, pretend = 0, frame = 0
 1675              		@ frame_needed = 0, uses_anonymous_args = 0
 1676 0000 10B5     		push	{r4, lr}
 1677              	.LCFI12:
 1678              		.cfi_def_cfa_offset 8
 1679              		.cfi_offset 4, -8
 1680              		.cfi_offset 14, -4
 1681              	.LVL145:
 846:VS4210/VX_OSD_Simple.c ****     tByte i ;
 847:VS4210/VX_OSD_Simple.c ****     for (i = 1 ; i < 4 ;i++)
 1682              		.loc 1 847 0
 1683 0002 0124     		movs	r4, #1
 1684 0004 04E0     		b	.L192
 1685              	.LVL146:
 1686              	.L193:
 848:VS4210/VX_OSD_Simple.c ****     {
 849:VS4210/VX_OSD_Simple.c ****         OSD_Clear(i) ;
 1687              		.loc 1 849 0 discriminator 3
 1688 0006 2046     		mov	r0, r4
 1689 0008 FFF7FEFF 		bl	OSD_Clear
 1690              	.LVL147:
 847:VS4210/VX_OSD_Simple.c ****     {
 1691              		.loc 1 847 0 discriminator 3
 1692 000c 0134     		adds	r4, r4, #1
 1693              	.LVL148:
 1694 000e E4B2     		uxtb	r4, r4
 1695              	.LVL149:
 1696              	.L192:
 847:VS4210/VX_OSD_Simple.c ****     {
 1697              		.loc 1 847 0 is_stmt 0 discriminator 1
 1698 0010 032C     		cmp	r4, #3
 1699 0012 F8D9     		bls	.L193
 850:VS4210/VX_OSD_Simple.c ****     }
 851:VS4210/VX_OSD_Simple.c **** }
 1700              		.loc 1 851 0 is_stmt 1
 1701 0014 10BD     		pop	{r4, pc}
 1702              		.cfi_endproc
 1703              	.LFE75:
 1705              		.section	.text.OSD_Clear_All,"ax",%progbits
 1706              		.align	1
 1707              		.global	OSD_Clear_All
 1708              		.syntax unified
 1709              		.thumb
 1710              		.thumb_func
 1711              		.fpu softvfp
 1713              	OSD_Clear_All:
 1714              	.LFB76:
 852:VS4210/VX_OSD_Simple.c **** 
 853:VS4210/VX_OSD_Simple.c **** void OSD_Clear_All(void )
 854:VS4210/VX_OSD_Simple.c **** {
 1715              		.loc 1 854 0
ARM GAS  /tmp/ccCN3Dsv.s 			page 50


 1716              		.cfi_startproc
 1717              		@ args = 0, pretend = 0, frame = 0
 1718              		@ frame_needed = 0, uses_anonymous_args = 0
 1719 0000 10B5     		push	{r4, lr}
 1720              	.LCFI13:
 1721              		.cfi_def_cfa_offset 8
 1722              		.cfi_offset 4, -8
 1723              		.cfi_offset 14, -4
 1724              	.LVL150:
 855:VS4210/VX_OSD_Simple.c ****     tByte i ;
 856:VS4210/VX_OSD_Simple.c ****     for (i = 0 ; i < 4 ;i++)
 1725              		.loc 1 856 0
 1726 0002 0024     		movs	r4, #0
 1727 0004 04E0     		b	.L196
 1728              	.LVL151:
 1729              	.L197:
 857:VS4210/VX_OSD_Simple.c ****     {
 858:VS4210/VX_OSD_Simple.c ****         OSD_Clear(i) ;
 1730              		.loc 1 858 0 discriminator 3
 1731 0006 2046     		mov	r0, r4
 1732 0008 FFF7FEFF 		bl	OSD_Clear
 1733              	.LVL152:
 856:VS4210/VX_OSD_Simple.c ****     {
 1734              		.loc 1 856 0 discriminator 3
 1735 000c 0134     		adds	r4, r4, #1
 1736              	.LVL153:
 1737 000e E4B2     		uxtb	r4, r4
 1738              	.LVL154:
 1739              	.L196:
 856:VS4210/VX_OSD_Simple.c ****     {
 1740              		.loc 1 856 0 is_stmt 0 discriminator 1
 1741 0010 032C     		cmp	r4, #3
 1742 0012 F8D9     		bls	.L197
 859:VS4210/VX_OSD_Simple.c ****     }
 860:VS4210/VX_OSD_Simple.c **** }
 1743              		.loc 1 860 0 is_stmt 1
 1744 0014 10BD     		pop	{r4, pc}
 1745              		.cfi_endproc
 1746              	.LFE76:
 1748              		.section	.text.osd_cont_write,"ax",%progbits
 1749              		.align	1
 1750              		.global	osd_cont_write
 1751              		.syntax unified
 1752              		.thumb
 1753              		.thumb_func
 1754              		.fpu softvfp
 1756              	osd_cont_write:
 1757              	.LFB77:
 861:VS4210/VX_OSD_Simple.c **** 
 862:VS4210/VX_OSD_Simple.c **** /*
 863:VS4210/VX_OSD_Simple.c **** void ClearAudioOSD(void)
 864:VS4210/VX_OSD_Simple.c **** {
 865:VS4210/VX_OSD_Simple.c ****     tByte i ;
 866:VS4210/VX_OSD_Simple.c ****     for (i = 0  ; i < HDMI_IN_NUMBER ; i++ )
 867:VS4210/VX_OSD_Simple.c ****     {
 868:VS4210/VX_OSD_Simple.c ****         VXIS_fShowInOutMode(gaHDMI_MapWindowIndex[i]  ,  gbVXIS_InputMode[i] , gbVXIS_OuputModeflg 
 869:VS4210/VX_OSD_Simple.c ****     }
ARM GAS  /tmp/ccCN3Dsv.s 			page 51


 870:VS4210/VX_OSD_Simple.c **** }
 871:VS4210/VX_OSD_Simple.c **** 
 872:VS4210/VX_OSD_Simple.c **** void Clear1ChAudioOSD(tByte ch )
 873:VS4210/VX_OSD_Simple.c **** {
 874:VS4210/VX_OSD_Simple.c ****     VXIS_fShowInOutMode(gaHDMI_MapWindowIndex[ch]  ,  gbVXIS_InputMode[ch] , gbVXIS_OuputModeflg ) 
 875:VS4210/VX_OSD_Simple.c **** }
 876:VS4210/VX_OSD_Simple.c **** */
 877:VS4210/VX_OSD_Simple.c **** 
 878:VS4210/VX_OSD_Simple.c **** void osd_cont_write(unsigned char cw_dest, unsigned char init_addr, unsigned char num_of_data, cons
 879:VS4210/VX_OSD_Simple.c **** {////Extern OSD
 1758              		.loc 1 879 0
 1759              		.cfi_startproc
 1760              		@ args = 0, pretend = 0, frame = 256
 1761              		@ frame_needed = 0, uses_anonymous_args = 0
 1762              	.LVL155:
 1763 0000 10B5     		push	{r4, lr}
 1764              	.LCFI14:
 1765              		.cfi_def_cfa_offset 8
 1766              		.cfi_offset 4, -8
 1767              		.cfi_offset 14, -4
 1768 0002 C0B0     		sub	sp, sp, #256
 1769              	.LCFI15:
 1770              		.cfi_def_cfa_offset 264
 1771 0004 1446     		mov	r4, r2
 880:VS4210/VX_OSD_Simple.c ****     unsigned char wbuf[255] ;
 881:VS4210/VX_OSD_Simple.c ****     wbuf[0] = cw_dest ;
 1772              		.loc 1 881 0
 1773 0006 8DF80000 		strb	r0, [sp]
 882:VS4210/VX_OSD_Simple.c ****     wbuf[1] = init_addr ;
 1774              		.loc 1 882 0
 1775 000a 8DF80110 		strb	r1, [sp, #1]
 883:VS4210/VX_OSD_Simple.c ****     memcpy(&wbuf[2],buf_data ,num_of_data )  ;
 1776              		.loc 1 883 0
 1777 000e 1946     		mov	r1, r3
 1778              	.LVL156:
 1779 0010 0DF10200 		add	r0, sp, #2
 1780              	.LVL157:
 1781 0014 FFF7FEFF 		bl	memcpy
 1782              	.LVL158:
 884:VS4210/VX_OSD_Simple.c ****     I2CMultiWrite(VS4210_ADDR, 0xFD, num_of_data +2, &wbuf[0]) ;
 1783              		.loc 1 884 0
 1784 0018 044B     		ldr	r3, .L201
 1785 001a 1878     		ldrb	r0, [r3]	@ zero_extendqisi2
 1786 001c A21C     		adds	r2, r4, #2
 1787 001e 6B46     		mov	r3, sp
 1788 0020 D2B2     		uxtb	r2, r2
 1789 0022 FD21     		movs	r1, #253
 1790 0024 FFF7FEFF 		bl	I2CMultiWrite
 1791              	.LVL159:
 885:VS4210/VX_OSD_Simple.c **** }
 1792              		.loc 1 885 0
 1793 0028 40B0     		add	sp, sp, #256
 1794              	.LCFI16:
 1795              		.cfi_def_cfa_offset 8
 1796              		@ sp needed
 1797 002a 10BD     		pop	{r4, pc}
 1798              	.L202:
ARM GAS  /tmp/ccCN3Dsv.s 			page 52


 1799              		.align	2
 1800              	.L201:
 1801 002c 00000000 		.word	VS4210_ADDR
 1802              		.cfi_endproc
 1803              	.LFE77:
 1805              		.section	.text.VXOSD_UseFont_init,"ax",%progbits
 1806              		.align	1
 1807              		.global	VXOSD_UseFont_init
 1808              		.syntax unified
 1809              		.thumb
 1810              		.thumb_func
 1811              		.fpu softvfp
 1813              	VXOSD_UseFont_init:
 1814              	.LFB78:
 886:VS4210/VX_OSD_Simple.c **** 
 887:VS4210/VX_OSD_Simple.c **** //---------------------------------------------------------------------------
 888:VS4210/VX_OSD_Simple.c **** /**
 889:VS4210/VX_OSD_Simple.c ****  * @brief Initialize the custom font function
 890:VS4210/VX_OSD_Simple.c ****  *
 891:VS4210/VX_OSD_Simple.c ****  * Initialize the custom font data.
 892:VS4210/VX_OSD_Simple.c ****  *
 893:VS4210/VX_OSD_Simple.c ****  * @param Size, Number of custom fonts.
 894:VS4210/VX_OSD_Simple.c ****  * @param *UserDefineFont, Font data start position.
 895:VS4210/VX_OSD_Simple.c ****  * @return none
 896:VS4210/VX_OSD_Simple.c ****  */
 897:VS4210/VX_OSD_Simple.c **** void VXOSD_UseFont_init(tByte Size, tcByte *UserDefineFontPtr)
 898:VS4210/VX_OSD_Simple.c **** {//Extern OSD
 1815              		.loc 1 898 0
 1816              		.cfi_startproc
 1817              		@ args = 0, pretend = 0, frame = 0
 1818              		@ frame_needed = 0, uses_anonymous_args = 0
 1819              	.LVL160:
 899:VS4210/VX_OSD_Simple.c ****     //16*20
 900:VS4210/VX_OSD_Simple.c ****     uint16_t FontIndex ;
 901:VS4210/VX_OSD_Simple.c ****     uint8_t  bytecommand, Haddr,Laddr ;
 902:VS4210/VX_OSD_Simple.c ****     uint16_t i  ;
 903:VS4210/VX_OSD_Simple.c ****     uint16_t FontAddr  ;
 904:VS4210/VX_OSD_Simple.c ****     uint8_t Size2 ;
 905:VS4210/VX_OSD_Simple.c **** 
 906:VS4210/VX_OSD_Simple.c ****     Size2 = Size * 2   ;
 907:VS4210/VX_OSD_Simple.c ****     if (Size < 64 )
 1820              		.loc 1 907 0
 1821 0000 3F28     		cmp	r0, #63
 1822 0002 05D8     		bhi	.L211
 898:VS4210/VX_OSD_Simple.c ****     //16*20
 1823              		.loc 1 898 0
 1824 0004 70B5     		push	{r4, r5, r6, lr}
 1825              	.LCFI17:
 1826              		.cfi_def_cfa_offset 16
 1827              		.cfi_offset 4, -16
 1828              		.cfi_offset 5, -12
 1829              		.cfi_offset 6, -8
 1830              		.cfi_offset 14, -4
 1831 0006 4500     		lsls	r5, r0, #1
 1832 0008 EDB2     		uxtb	r5, r5
 1833 000a 0E46     		mov	r6, r1
 908:VS4210/VX_OSD_Simple.c ****     {
ARM GAS  /tmp/ccCN3Dsv.s 			page 53


 909:VS4210/VX_OSD_Simple.c ****         for ( i = 0 ; i< Size2 ; i++)   //
 1834              		.loc 1 909 0
 1835 000c 0024     		movs	r4, #0
 1836 000e 13E0     		b	.L204
 1837              	.L211:
 1838              	.LCFI18:
 1839              		.cfi_def_cfa_offset 0
 1840              		.cfi_restore 4
 1841              		.cfi_restore 5
 1842              		.cfi_restore 6
 1843              		.cfi_restore 14
 1844 0010 7047     		bx	lr
 1845              	.LVL161:
 1846              	.L206:
 1847              	.LCFI19:
 1848              		.cfi_def_cfa_offset 16
 1849              		.cfi_offset 4, -16
 1850              		.cfi_offset 5, -12
 1851              		.cfi_offset 6, -8
 1852              		.cfi_offset 14, -4
 910:VS4210/VX_OSD_Simple.c ****         {
 911:VS4210/VX_OSD_Simple.c ****             FontAddr = i * 10 ;  //WORD
 1853              		.loc 1 911 0 discriminator 3
 1854 0012 A200     		lsls	r2, r4, #2
 1855 0014 A318     		adds	r3, r4, r2
 1856 0016 5900     		lsls	r1, r3, #1
 1857 0018 89B2     		uxth	r1, r1
 1858              	.LVL162:
 912:VS4210/VX_OSD_Simple.c ****             FontIndex = i * 20 ; //BYTE
 1859              		.loc 1 912 0 discriminator 3
 1860 001a 2244     		add	r2, r2, r4
 1861 001c 9300     		lsls	r3, r2, #2
 1862 001e 9BB2     		uxth	r3, r3
 1863              	.LVL163:
 913:VS4210/VX_OSD_Simple.c ****             Haddr = (uint8_t) ((FontAddr & 0x0F00) >> 8)  ;
 1864              		.loc 1 913 0 discriminator 3
 1865 0020 C1F30320 		ubfx	r0, r1, #8, #4
 1866              	.LVL164:
 914:VS4210/VX_OSD_Simple.c ****             Laddr = (uint8_t) (FontAddr & 0x00FF) ;
 915:VS4210/VX_OSD_Simple.c ****             bytecommand = 0x20 | Haddr ;
 916:VS4210/VX_OSD_Simple.c ****             osd_cont_write(bytecommand, Laddr, 20, &UserDefineFontPtr[FontIndex] );   // user defin
 1867              		.loc 1 916 0 discriminator 3
 1868 0024 3344     		add	r3, r3, r6
 1869              	.LVL165:
 1870 0026 1422     		movs	r2, #20
 1871              	.LVL166:
 1872 0028 01F0FE01 		and	r1, r1, #254
 1873              	.LVL167:
 1874 002c 40F02000 		orr	r0, r0, #32
 1875              	.LVL168:
 1876 0030 FFF7FEFF 		bl	osd_cont_write
 1877              	.LVL169:
 909:VS4210/VX_OSD_Simple.c ****         {
 1878              		.loc 1 909 0 discriminator 3
 1879 0034 0134     		adds	r4, r4, #1
 1880              	.LVL170:
 1881 0036 A4B2     		uxth	r4, r4
ARM GAS  /tmp/ccCN3Dsv.s 			page 54


 1882              	.LVL171:
 1883              	.L204:
 909:VS4210/VX_OSD_Simple.c ****         {
 1884              		.loc 1 909 0 is_stmt 0 discriminator 1
 1885 0038 ABB2     		uxth	r3, r5
 1886 003a A342     		cmp	r3, r4
 1887 003c E9D8     		bhi	.L206
 917:VS4210/VX_OSD_Simple.c ****         }
 918:VS4210/VX_OSD_Simple.c ****     }
 919:VS4210/VX_OSD_Simple.c ****     else {
 920:VS4210/VX_OSD_Simple.c ****         //printf("Error ,  Size >64\r\n" ) ;
 921:VS4210/VX_OSD_Simple.c ****     }
 922:VS4210/VX_OSD_Simple.c **** }
 1888              		.loc 1 922 0 is_stmt 1
 1889 003e 70BD     		pop	{r4, r5, r6, pc}
 1890              		.cfi_endproc
 1891              	.LFE78:
 1893              		.section	.text.VXOSD_ShowExContent,"ax",%progbits
 1894              		.align	1
 1895              		.global	VXOSD_ShowExContent
 1896              		.syntax unified
 1897              		.thumb
 1898              		.thumb_func
 1899              		.fpu softvfp
 1901              	VXOSD_ShowExContent:
 1902              	.LFB79:
 923:VS4210/VX_OSD_Simple.c **** 
 924:VS4210/VX_OSD_Simple.c **** void VXOSD_ShowExContent(tByte *ptrExOsdContent, tByte index )
 925:VS4210/VX_OSD_Simple.c **** {
 1903              		.loc 1 925 0
 1904              		.cfi_startproc
 1905              		@ args = 0, pretend = 0, frame = 8
 1906              		@ frame_needed = 0, uses_anonymous_args = 0
 1907              	.LVL172:
 1908 0000 30B5     		push	{r4, r5, lr}
 1909              	.LCFI20:
 1910              		.cfi_def_cfa_offset 12
 1911              		.cfi_offset 4, -12
 1912              		.cfi_offset 5, -8
 1913              		.cfi_offset 14, -4
 1914 0002 83B0     		sub	sp, sp, #12
 1915              	.LCFI21:
 1916              		.cfi_def_cfa_offset 24
 1917 0004 0546     		mov	r5, r0
 1918 0006 0C46     		mov	r4, r1
 1919              	.LVL173:
 926:VS4210/VX_OSD_Simple.c ****     tByte len ;
 927:VS4210/VX_OSD_Simple.c ****     tByte Indexoffset ;
 928:VS4210/VX_OSD_Simple.c ****     tByte FontLenx2 ;
 929:VS4210/VX_OSD_Simple.c ****     FontLenx2 = 2*EXTERNOSDNUMBER ;
 930:VS4210/VX_OSD_Simple.c **** /*
 931:VS4210/VX_OSD_Simple.c ****     //SetOsdSize(_Content,FontLenx2 ,1);
 932:VS4210/VX_OSD_Simple.c ****     SetOsdSize(_Content, 3 , FontLenx2 );
 933:VS4210/VX_OSD_Simple.c ****     SetOsdStartAddress(_Content,0x80);
 934:VS4210/VX_OSD_Simple.c ****     OsdDumpString(0x80, ptrExOsdContent );
 935:VS4210/VX_OSD_Simple.c ****     len = ptrExOsdContent[0] ;
 936:VS4210/VX_OSD_Simple.c ****     OsdDumpAttribute(0x80, &len, _MenuColor );
ARM GAS  /tmp/ccCN3Dsv.s 			page 55


 937:VS4210/VX_OSD_Simple.c ****     if (index > 0 )
 938:VS4210/VX_OSD_Simple.c ****     {
 939:VS4210/VX_OSD_Simple.c ****         len = 1;
 940:VS4210/VX_OSD_Simple.c ****         Indexoffset = index *2 ;
 941:VS4210/VX_OSD_Simple.c ****         OsdDumpAttribute(0x80 + Indexoffset + FontLenx2 , &len, _MenuSelColor  );
 942:VS4210/VX_OSD_Simple.c ****         //OsdDumpAttribute(0x80 + FontLenx2 , &len, _MenuSelColor  );
 943:VS4210/VX_OSD_Simple.c ****     }
 944:VS4210/VX_OSD_Simple.c **** */
 945:VS4210/VX_OSD_Simple.c **** 
 946:VS4210/VX_OSD_Simple.c ****     SetOsdSize(_Content,FontLenx2 +1 ,3);
 1920              		.loc 1 946 0
 1921 0008 0322     		movs	r2, #3
 1922 000a 1F21     		movs	r1, #31
 1923              	.LVL174:
 1924 000c 0820     		movs	r0, #8
 1925              	.LVL175:
 1926 000e FFF7FEFF 		bl	SetOsdSize
 1927              	.LVL176:
 947:VS4210/VX_OSD_Simple.c ****     SetOsdStartAddress(_Content,0x80);
 1928              		.loc 1 947 0
 1929 0012 8021     		movs	r1, #128
 1930 0014 0820     		movs	r0, #8
 1931 0016 FFF7FEFF 		bl	SetOsdStartAddress
 1932              	.LVL177:
 948:VS4210/VX_OSD_Simple.c ****     OsdDumpString(0x80, ptrExOsdContent );
 1933              		.loc 1 948 0
 1934 001a 2946     		mov	r1, r5
 1935 001c 8020     		movs	r0, #128
 1936 001e FFF7FEFF 		bl	OsdDumpString
 1937              	.LVL178:
 949:VS4210/VX_OSD_Simple.c ****     len = ptrExOsdContent[0] ;
 1938              		.loc 1 949 0
 1939 0022 2B78     		ldrb	r3, [r5]	@ zero_extendqisi2
 1940 0024 02A9     		add	r1, sp, #8
 1941 0026 01F8013D 		strb	r3, [r1, #-1]!
 950:VS4210/VX_OSD_Simple.c ****     OsdDumpAttribute(0x80, &len, _MenuColor );
 1942              		.loc 1 950 0
 1943 002a 1722     		movs	r2, #23
 1944 002c 8020     		movs	r0, #128
 1945 002e FFF7FEFF 		bl	OsdDumpAttribute
 1946              	.LVL179:
 951:VS4210/VX_OSD_Simple.c ****     if (index > 0 )
 1947              		.loc 1 951 0
 1948 0032 74B9     		cbnz	r4, .L217
 1949              	.L213:
 952:VS4210/VX_OSD_Simple.c ****     {
 953:VS4210/VX_OSD_Simple.c ****         len = 1;
 954:VS4210/VX_OSD_Simple.c ****         Indexoffset = index *2 ;
 955:VS4210/VX_OSD_Simple.c ****         OsdDumpAttribute(0x80 + Indexoffset + FontLenx2 , &len, _MenuSelColor  );
 956:VS4210/VX_OSD_Simple.c ****     }
 957:VS4210/VX_OSD_Simple.c **** 
 958:VS4210/VX_OSD_Simple.c ****     //OSD_Clear_All();
 959:VS4210/VX_OSD_Simple.c ****   //  VXIS_fSetContentOsdOnOff(_ContentOn) ;
 960:VS4210/VX_OSD_Simple.c **** 
 961:VS4210/VX_OSD_Simple.c ****     if(gbVXIS_OuputSize == _OUTPUT_1080P60)
 1950              		.loc 1 961 0
 1951 0034 134B     		ldr	r3, .L219
ARM GAS  /tmp/ccCN3Dsv.s 			page 56


 1952 0036 1B78     		ldrb	r3, [r3]	@ zero_extendqisi2
 1953 0038 012B     		cmp	r3, #1
 1954 003a 18D0     		beq	.L218
 962:VS4210/VX_OSD_Simple.c ****     {
 963:VS4210/VX_OSD_Simple.c ****         //SetOsdPosition(_Content,600,420);
 964:VS4210/VX_OSD_Simple.c ****         SetOsdPosition(_Content,600,270);
 965:VS4210/VX_OSD_Simple.c ****         VXIS_fSetOsdx2(1) ;
 966:VS4210/VX_OSD_Simple.c ****     }
 967:VS4210/VX_OSD_Simple.c ****     else
 968:VS4210/VX_OSD_Simple.c ****     {
 969:VS4210/VX_OSD_Simple.c ****         //SetOsdPosition(_Content,614,300);
 970:VS4210/VX_OSD_Simple.c ****         SetOsdPosition(_Content,614,200);
 1955              		.loc 1 970 0
 1956 003c C822     		movs	r2, #200
 1957 003e 40F26621 		movw	r1, #614
 1958 0042 0820     		movs	r0, #8
 1959 0044 FFF7FEFF 		bl	SetOsdPosition
 1960              	.LVL180:
 971:VS4210/VX_OSD_Simple.c ****         VXIS_fSetOsdx2(0) ;
 1961              		.loc 1 971 0
 1962 0048 0020     		movs	r0, #0
 1963 004a FFF7FEFF 		bl	VXIS_fSetOsdx2
 1964              	.LVL181:
 1965              	.L212:
 972:VS4210/VX_OSD_Simple.c ****     }
 973:VS4210/VX_OSD_Simple.c **** }
 1966              		.loc 1 973 0
 1967 004e 03B0     		add	sp, sp, #12
 1968              	.LCFI22:
 1969              		.cfi_remember_state
 1970              		.cfi_def_cfa_offset 12
 1971              		@ sp needed
 1972 0050 30BD     		pop	{r4, r5, pc}
 1973              	.LVL182:
 1974              	.L217:
 1975              	.LCFI23:
 1976              		.cfi_restore_state
 953:VS4210/VX_OSD_Simple.c ****         Indexoffset = index *2 ;
 1977              		.loc 1 953 0
 1978 0052 02A9     		add	r1, sp, #8
 1979 0054 0123     		movs	r3, #1
 1980 0056 01F8013D 		strb	r3, [r1, #-1]!
 954:VS4210/VX_OSD_Simple.c ****         OsdDumpAttribute(0x80 + Indexoffset + FontLenx2 , &len, _MenuSelColor  );
 1981              		.loc 1 954 0
 1982 005a 04FA03F0 		lsl	r0, r4, r3
 1983 005e C0B2     		uxtb	r0, r0
 1984              	.LVL183:
 955:VS4210/VX_OSD_Simple.c ****     }
 1985              		.loc 1 955 0
 1986 0060 6238     		subs	r0, r0, #98
 1987              	.LVL184:
 1988 0062 1C22     		movs	r2, #28
 1989 0064 00F0FE00 		and	r0, r0, #254
 1990              	.LVL185:
 1991 0068 FFF7FEFF 		bl	OsdDumpAttribute
 1992              	.LVL186:
 1993 006c E2E7     		b	.L213
ARM GAS  /tmp/ccCN3Dsv.s 			page 57


 1994              	.LVL187:
 1995              	.L218:
 964:VS4210/VX_OSD_Simple.c ****         VXIS_fSetOsdx2(1) ;
 1996              		.loc 1 964 0
 1997 006e 4FF48772 		mov	r2, #270
 1998 0072 4FF41671 		mov	r1, #600
 1999 0076 0820     		movs	r0, #8
 2000 0078 FFF7FEFF 		bl	SetOsdPosition
 2001              	.LVL188:
 965:VS4210/VX_OSD_Simple.c ****     }
 2002              		.loc 1 965 0
 2003 007c 0120     		movs	r0, #1
 2004 007e FFF7FEFF 		bl	VXIS_fSetOsdx2
 2005              	.LVL189:
 2006 0082 E4E7     		b	.L212
 2007              	.L220:
 2008              		.align	2
 2009              	.L219:
 2010 0084 00000000 		.word	gbVXIS_OuputSize
 2011              		.cfi_endproc
 2012              	.LFE79:
 2014              		.section	.text.VXOSD_SelectExContent,"ax",%progbits
 2015              		.align	1
 2016              		.global	VXOSD_SelectExContent
 2017              		.syntax unified
 2018              		.thumb
 2019              		.thumb_func
 2020              		.fpu softvfp
 2022              	VXOSD_SelectExContent:
 2023              	.LFB80:
 974:VS4210/VX_OSD_Simple.c **** 
 975:VS4210/VX_OSD_Simple.c **** void VXOSD_SelectExContent(tByte index )
 976:VS4210/VX_OSD_Simple.c **** {
 2024              		.loc 1 976 0
 2025              		.cfi_startproc
 2026              		@ args = 0, pretend = 0, frame = 8
 2027              		@ frame_needed = 0, uses_anonymous_args = 0
 2028              	.LVL190:
 2029 0000 30B5     		push	{r4, r5, lr}
 2030              	.LCFI24:
 2031              		.cfi_def_cfa_offset 12
 2032              		.cfi_offset 4, -12
 2033              		.cfi_offset 5, -8
 2034              		.cfi_offset 14, -4
 2035 0002 83B0     		sub	sp, sp, #12
 2036              	.LCFI25:
 2037              		.cfi_def_cfa_offset 24
 2038 0004 0446     		mov	r4, r0
 2039              	.LVL191:
 977:VS4210/VX_OSD_Simple.c ****     tByte len ;
 978:VS4210/VX_OSD_Simple.c ****     tByte Indexoffset ;
 979:VS4210/VX_OSD_Simple.c **** 
 980:VS4210/VX_OSD_Simple.c ****     tByte FontLenx2 ;
 981:VS4210/VX_OSD_Simple.c **** 
 982:VS4210/VX_OSD_Simple.c ****     FontLenx2 = 2*EXTERNOSDNUMBER ;
 983:VS4210/VX_OSD_Simple.c ****     len = FontLenx2 +1  ;
 2040              		.loc 1 983 0
ARM GAS  /tmp/ccCN3Dsv.s 			page 58


 2041 0006 02AD     		add	r5, sp, #8
 2042 0008 1F23     		movs	r3, #31
 2043 000a 05F8013D 		strb	r3, [r5, #-1]!
 984:VS4210/VX_OSD_Simple.c ****     //len = FontLenx2 ;
 985:VS4210/VX_OSD_Simple.c **** 
 986:VS4210/VX_OSD_Simple.c **** //    OsdDumpAttribute(0x80 , &len, _MenuColor );
 987:VS4210/VX_OSD_Simple.c **** //    len = 1;
 988:VS4210/VX_OSD_Simple.c **** //    Indexoffset = index *2 ;
 989:VS4210/VX_OSD_Simple.c **** //    OsdDumpAttribute(0x80 + Indexoffset , &len, _MenuSelColor  );
 990:VS4210/VX_OSD_Simple.c **** 
 991:VS4210/VX_OSD_Simple.c **** 
 992:VS4210/VX_OSD_Simple.c ****     OsdDumpAttribute(0x80+ (FontLenx2 +2), &len, _MenuColor );
 2044              		.loc 1 992 0
 2045 000e 1722     		movs	r2, #23
 2046 0010 2946     		mov	r1, r5
 2047 0012 A020     		movs	r0, #160
 2048              	.LVL192:
 2049 0014 FFF7FEFF 		bl	OsdDumpAttribute
 2050              	.LVL193:
 993:VS4210/VX_OSD_Simple.c ****     len = 1;
 2051              		.loc 1 993 0
 2052 0018 0123     		movs	r3, #1
 2053 001a 8DF80730 		strb	r3, [sp, #7]
 994:VS4210/VX_OSD_Simple.c ****     Indexoffset = index *2 ;
 2054              		.loc 1 994 0
 2055 001e 04FA03F0 		lsl	r0, r4, r3
 2056 0022 C0B2     		uxtb	r0, r0
 2057              	.LVL194:
 995:VS4210/VX_OSD_Simple.c ****     OsdDumpAttribute(0x80 + Indexoffset +FontLenx2 , &len, _MenuSelColor  );
 2058              		.loc 1 995 0
 2059 0024 6238     		subs	r0, r0, #98
 2060              	.LVL195:
 2061 0026 1C22     		movs	r2, #28
 2062 0028 2946     		mov	r1, r5
 2063 002a 00F0FE00 		and	r0, r0, #254
 2064              	.LVL196:
 2065 002e FFF7FEFF 		bl	OsdDumpAttribute
 2066              	.LVL197:
 996:VS4210/VX_OSD_Simple.c **** 
 997:VS4210/VX_OSD_Simple.c **** 
 998:VS4210/VX_OSD_Simple.c **** //    if (OSDx2Flg == 0 )
 999:VS4210/VX_OSD_Simple.c **** //    {
1000:VS4210/VX_OSD_Simple.c **** //        OSD_Clear_All();
1001:VS4210/VX_OSD_Simple.c **** //        VXIS_fSetOsdx2(1) ;
1002:VS4210/VX_OSD_Simple.c **** //        OSDx2Flg = 1 ;
1003:VS4210/VX_OSD_Simple.c **** //    }
1004:VS4210/VX_OSD_Simple.c **** 
1005:VS4210/VX_OSD_Simple.c **** //    VXIS_fSetContentOsdOnOff(_ContentOn) ;
1006:VS4210/VX_OSD_Simple.c **** }
 2067              		.loc 1 1006 0
 2068 0032 03B0     		add	sp, sp, #12
 2069              	.LCFI26:
 2070              		.cfi_def_cfa_offset 12
 2071              		@ sp needed
 2072 0034 30BD     		pop	{r4, r5, pc}
 2073              		.cfi_endproc
 2074              	.LFE80:
ARM GAS  /tmp/ccCN3Dsv.s 			page 59


 2076              		.section	.text.Set_Video_Loss_OSD,"ax",%progbits
 2077              		.align	1
 2078              		.global	Set_Video_Loss_OSD
 2079              		.syntax unified
 2080              		.thumb
 2081              		.thumb_func
 2082              		.fpu softvfp
 2084              	Set_Video_Loss_OSD:
 2085              	.LFB81:
1007:VS4210/VX_OSD_Simple.c **** 
1008:VS4210/VX_OSD_Simple.c **** void Set_Video_Loss_OSD(BYTE ch, BYTE set)	
1009:VS4210/VX_OSD_Simple.c **** {
 2086              		.loc 1 1009 0
 2087              		.cfi_startproc
 2088              		@ args = 0, pretend = 0, frame = 0
 2089              		@ frame_needed = 0, uses_anonymous_args = 0
 2090              	.LVL198:
 2091 0000 38B5     		push	{r3, r4, r5, lr}
 2092              	.LCFI27:
 2093              		.cfi_def_cfa_offset 16
 2094              		.cfi_offset 3, -16
 2095              		.cfi_offset 4, -12
 2096              		.cfi_offset 5, -8
 2097              		.cfi_offset 14, -4
 2098 0002 0546     		mov	r5, r0
1010:VS4210/VX_OSD_Simple.c **** 	//VXISI2CWrite(0x32,0x00);
1011:VS4210/VX_OSD_Simple.c **** 
1012:VS4210/VX_OSD_Simple.c **** //bVloss_Flag=set;
1013:VS4210/VX_OSD_Simple.c **** 
1014:VS4210/VX_OSD_Simple.c **** #if 1
1015:VS4210/VX_OSD_Simple.c **** switch(set)
 2099              		.loc 1 1015 0
 2100 0004 0C46     		mov	r4, r1
 2101 0006 A1B1     		cbz	r1, .L225
 2102 0008 0129     		cmp	r1, #1
 2103 000a 20D1     		bne	.L224
1016:VS4210/VX_OSD_Simple.c **** {
1017:VS4210/VX_OSD_Simple.c **** 	case ON:
1018:VS4210/VX_OSD_Simple.c **** 			if(ch==_HDMI_Input)
 2104              		.loc 1 1018 0
 2105 000c 40B9     		cbnz	r0, .L227
1019:VS4210/VX_OSD_Simple.c **** 				{
1020:VS4210/VX_OSD_Simple.c **** 				VXISI2CWrite(0x10,0x00);
 2106              		.loc 1 1020 0
 2107 000e 0021     		movs	r1, #0
 2108              	.LVL199:
 2109 0010 1020     		movs	r0, #16
 2110              	.LVL200:
 2111 0012 FFF7FEFF 		bl	VXISI2CWrite
 2112              	.LVL201:
1021:VS4210/VX_OSD_Simple.c **** 				VXISI2CWrite(0x9C,0x0A);	
 2113              		.loc 1 1021 0
 2114 0016 0A21     		movs	r1, #10
 2115 0018 9C20     		movs	r0, #156
 2116 001a FFF7FEFF 		bl	VXISI2CWrite
 2117              	.LVL202:
 2118 001e 16E0     		b	.L224
ARM GAS  /tmp/ccCN3Dsv.s 			page 60


 2119              	.LVL203:
 2120              	.L227:
1022:VS4210/VX_OSD_Simple.c **** 				}		
1023:VS4210/VX_OSD_Simple.c **** 			else 
1024:VS4210/VX_OSD_Simple.c **** 				{
1025:VS4210/VX_OSD_Simple.c **** 				VXISI2CWrite(0x10,0x01);
 2121              		.loc 1 1025 0
 2122 0020 0121     		movs	r1, #1
 2123              	.LVL204:
 2124 0022 1020     		movs	r0, #16
 2125              	.LVL205:
 2126 0024 FFF7FEFF 		bl	VXISI2CWrite
 2127              	.LVL206:
1026:VS4210/VX_OSD_Simple.c **** 				VXISI2CWrite(0x9C,0x0A);	
 2128              		.loc 1 1026 0
 2129 0028 0A21     		movs	r1, #10
 2130 002a 9C20     		movs	r0, #156
 2131 002c FFF7FEFF 		bl	VXISI2CWrite
 2132              	.LVL207:
 2133 0030 0DE0     		b	.L224
 2134              	.LVL208:
 2135              	.L225:
1027:VS4210/VX_OSD_Simple.c **** 				}
1028:VS4210/VX_OSD_Simple.c **** 			break;
1029:VS4210/VX_OSD_Simple.c **** 
1030:VS4210/VX_OSD_Simple.c **** 	case OFF:
1031:VS4210/VX_OSD_Simple.c **** 				if(ch==_HDMI_Input)
 2136              		.loc 1 1031 0
 2137 0032 C0B1     		cbz	r0, .L230
1032:VS4210/VX_OSD_Simple.c **** 				{
1033:VS4210/VX_OSD_Simple.c **** 				VXISI2CWrite(0x10,(VXISI2CRead(0x10)|0x80));
1034:VS4210/VX_OSD_Simple.c **** 				VXISI2CWrite(0x9C,0x00);
1035:VS4210/VX_OSD_Simple.c **** 				//SET_HDMI_SYNC_PARA();
1036:VS4210/VX_OSD_Simple.c **** 				}		
1037:VS4210/VX_OSD_Simple.c **** 			else
1038:VS4210/VX_OSD_Simple.c **** 				{
1039:VS4210/VX_OSD_Simple.c **** 				VXISI2CWrite(0x10,(VXISI2CRead(0x10)|0x81));
 2138              		.loc 1 1039 0
 2139 0034 1020     		movs	r0, #16
 2140              	.LVL209:
 2141 0036 FFF7FEFF 		bl	VXISI2CRead
 2142              	.LVL210:
 2143 003a 60F07E01 		orn	r1, r0, #126
 2144 003e C9B2     		uxtb	r1, r1
 2145 0040 1020     		movs	r0, #16
 2146 0042 FFF7FEFF 		bl	VXISI2CWrite
 2147              	.LVL211:
1040:VS4210/VX_OSD_Simple.c **** 				VXISI2CWrite(0x9C,0x00);
 2148              		.loc 1 1040 0
 2149 0046 0021     		movs	r1, #0
 2150 0048 9C20     		movs	r0, #156
 2151 004a FFF7FEFF 		bl	VXISI2CWrite
 2152              	.LVL212:
 2153              	.L224:
1041:VS4210/VX_OSD_Simple.c **** 				}
1042:VS4210/VX_OSD_Simple.c **** 	
1043:VS4210/VX_OSD_Simple.c **** 			break;
ARM GAS  /tmp/ccCN3Dsv.s 			page 61


1044:VS4210/VX_OSD_Simple.c **** 	
1045:VS4210/VX_OSD_Simple.c **** 
1046:VS4210/VX_OSD_Simple.c **** }
1047:VS4210/VX_OSD_Simple.c **** #endif
1048:VS4210/VX_OSD_Simple.c **** 	SET_VIDEO_VLOSS(set);	
 2154              		.loc 1 1048 0
 2155 004e 2246     		mov	r2, r4
 2156 0050 2021     		movs	r1, #32
 2157 0052 0C48     		ldr	r0, .L231
 2158 0054 FFF7FEFF 		bl	HAL_GPIO_WritePin
 2159              	.LVL213:
1049:VS4210/VX_OSD_Simple.c **** 	//MCUTimerCancelTimerEvent( _SYSTEM_TIMER_EVENT_SET_VIDEO_LOSS);	
1050:VS4210/VX_OSD_Simple.c **** 	//MCUTimerActiveTimerEvent(SEC(1), _SYSTEM_TIMER_EVENT_SET_VIDEO_LOSS);	
1051:VS4210/VX_OSD_Simple.c **** 	
1052:VS4210/VX_OSD_Simple.c **** 	#if (_DEBUG_OSD==ON)	
1053:VS4210/VX_OSD_Simple.c **** 	GraphicsPrint(RED,"(SET_VIDEO_VLOSS ch=%d set=%d)",(WORD)ch,(WORD)set);	
 2160              		.loc 1 1053 0
 2161 0058 2346     		mov	r3, r4
 2162 005a 2A46     		mov	r2, r5
 2163 005c 0A49     		ldr	r1, .L231+4
 2164 005e 0120     		movs	r0, #1
 2165 0060 FFF7FEFF 		bl	GraphicsPrint
 2166              	.LVL214:
1054:VS4210/VX_OSD_Simple.c **** 	#endif	
1055:VS4210/VX_OSD_Simple.c **** 
1056:VS4210/VX_OSD_Simple.c **** 	//MCUTimerActiveTimerEvent( SEC(2),_SYSTEM_TIMER_EVENT_SET_EMBEDDED_SYNC);	
1057:VS4210/VX_OSD_Simple.c **** 
1058:VS4210/VX_OSD_Simple.c **** }
 2167              		.loc 1 1058 0
 2168 0064 38BD     		pop	{r3, r4, r5, pc}
 2169              	.LVL215:
 2170              	.L230:
1033:VS4210/VX_OSD_Simple.c **** 				VXISI2CWrite(0x10,(VXISI2CRead(0x10)|0x80));
 2171              		.loc 1 1033 0
 2172 0066 1020     		movs	r0, #16
 2173              	.LVL216:
 2174 0068 FFF7FEFF 		bl	VXISI2CRead
 2175              	.LVL217:
 2176 006c 60F07F01 		orn	r1, r0, #127
 2177 0070 C9B2     		uxtb	r1, r1
 2178 0072 1020     		movs	r0, #16
 2179 0074 FFF7FEFF 		bl	VXISI2CWrite
 2180              	.LVL218:
1034:VS4210/VX_OSD_Simple.c **** 				VXISI2CWrite(0x9C,0x00);
 2181              		.loc 1 1034 0
 2182 0078 0021     		movs	r1, #0
 2183 007a 9C20     		movs	r0, #156
 2184 007c FFF7FEFF 		bl	VXISI2CWrite
 2185              	.LVL219:
 2186 0080 E5E7     		b	.L224
 2187              	.L232:
 2188 0082 00BF     		.align	2
 2189              	.L231:
 2190 0084 00080140 		.word	1073809408
 2191 0088 00000000 		.word	.LC0
 2192              		.cfi_endproc
 2193              	.LFE81:
ARM GAS  /tmp/ccCN3Dsv.s 			page 62


 2195              		.global	aLineMode720PMode12Lin1
 2196              		.global	aLineMode1080PMode12Lin1
 2197              		.global	aLineMode720PMode6Lin3
 2198              		.global	aLineMode720PMode6Lin2
 2199              		.global	aLineMode720PMode6Lin1
 2200              		.global	aLineMode720PMode2Lin3
 2201              		.global	aLineMode720PMode2Lin2
 2202              		.global	aLineMode720PMode2Lin1
 2203              		.global	aLineMode720PMode1Lin2
 2204              		.global	aLineMode720PMode1Lin1
 2205              		.global	aLineMode1080PMode6Lin3
 2206              		.global	aLineMode1080PMode6Lin2
 2207              		.global	aLineMode1080PMode6Lin1
 2208              		.global	aLineMode1080PMode2Lin3
 2209              		.global	aLineMode1080PMode2Lin2
 2210              		.global	aLineMode1080PMode2Lin1
 2211              		.global	aLineMode1080PMode1Lin2
 2212              		.global	aLineMode1080PMode1Lin1
 2213              		.global	aLineModeReg
 2214              		.global	Mode24_w1_720P_param
 2215              		.global	Mode24_w0_720P_param
 2216              		.global	Mode13_w1_720P_param
 2217              		.global	Mode13_w0_720P_param
 2218              		.global	Mode24_w1_1080P_param
 2219              		.global	Mode24_w0_1080P_param
 2220              		.global	Mode13_w1_1080P_param
 2221              		.global	Mode13_w0_1080P_param
 2222              		.global	Mode12_w1_720P_param
 2223              		.global	Mode12_w0_720P_param
 2224              		.global	Mode6_w3_720P_param
 2225              		.global	Mode6_w2_720P_param
 2226              		.global	Mode6_w1_720P_param
 2227              		.global	Mode6_w0_720P_param
 2228              		.global	Mode2_w3_720P_param
 2229              		.global	Mode2_w2_720P_param
 2230              		.global	Mode2_w1_720P_param
 2231              		.global	Mode2_w0_720P_param
 2232              		.global	Mode1_w3_720P_param
 2233              		.global	Mode1_w2_720P_param
 2234              		.global	Mode1_w1_720P_param
 2235              		.global	Mode1_w0_720P_param
 2236              		.global	Mode0_720P_param
 2237              		.global	Mode12_w1_1080P_param
 2238              		.global	Mode12_w0_1080P_param
 2239              		.global	Mode6_w3_1080P_param
 2240              		.global	Mode6_w2_1080P_param
 2241              		.global	Mode6_w1_1080P_param
 2242              		.global	Mode6_w0_1080P_param
 2243              		.global	Mode2_w3_1080P_param
 2244              		.global	Mode2_w2_1080P_param
 2245              		.global	Mode2_w1_1080P_param
 2246              		.global	Mode2_w0_1080P_param
 2247              		.global	Mode1_w3_1080P_param
 2248              		.global	Mode1_w2_1080P_param
 2249              		.global	Mode1_w1_1080P_param
 2250              		.global	Mode1_w0_1080P_param
 2251              		.global	Mode0_1080P_param
ARM GAS  /tmp/ccCN3Dsv.s 			page 63


 2252              		.global	OSD_CH3_param
 2253              		.global	OSD_CH2_param
 2254              		.global	OSD_CH1_param
 2255              		.global	OSD_CH0_param
 2256              		.global	OSD_No_Signal_param
 2257              		.global	OSD_1920X1200P_param
 2258              		.global	OSD_1600X1200P_param
 2259              		.global	OSD_1680X1050P_param
 2260              		.global	OSD_1400X1050P_param
 2261              		.global	OSD_1280X1024P_param
 2262              		.global	OSD_1440X900P_param
 2263              		.global	OSD_1280X800P_param
 2264              		.global	OSD_1366X768P_param
 2265              		.global	OSD_1360X768P_param
 2266              		.global	OSD_1280X768P_param
 2267              		.global	OSD_1024X768P_param
 2268              		.global	OSD_800X600P_param
 2269              		.global	OSD_640X480P_param
 2270              		.global	OSD_1920x1080I_param
 2271              		.global	OSD_1920x1080P_param
 2272              		.global	OSD_1280x720P_param
 2273              		.global	OSD_720x576P50_param
 2274              		.global	OSD_720x576I50_param
 2275              		.global	OSD_720x480P60_param
 2276              		.global	OSD_720x480I60_param
 2277              		.comm	ptcOSDbar,4,4
 2278              		.comm	OSDx2Flg,1,1
 2279              		.global	bVloss_Flag
 2280              		.comm	MenuOSDonFlg,1,1
 2281              		.section	.bss.bVloss_Flag,"aw",%nobits
 2284              	bVloss_Flag:
 2285 0000 00       		.space	1
 2286              		.section	.rodata.Mode0_1080P_param,"a",%progbits
 2287              		.align	2
 2290              	Mode0_1080P_param:
 2291 0000 B400     		.short	180
 2292 0002 3D00     		.short	61
 2293              		.section	.rodata.Mode0_720P_param,"a",%progbits
 2294              		.align	2
 2297              	Mode0_720P_param:
 2298 0000 F400     		.short	244
 2299 0002 2500     		.short	37
 2300              		.section	.rodata.Mode12_w0_1080P_param,"a",%progbits
 2301              		.align	2
 2304              	Mode12_w0_1080P_param:
 2305 0000 B400     		.short	180
 2306 0002 3D00     		.short	61
 2307              		.section	.rodata.Mode12_w0_720P_param,"a",%progbits
 2308              		.align	2
 2311              	Mode12_w0_720P_param:
 2312 0000 F400     		.short	244
 2313 0002 2500     		.short	37
 2314              		.section	.rodata.Mode12_w1_1080P_param,"a",%progbits
 2315              		.align	2
 2318              	Mode12_w1_1080P_param:
 2319 0000 7404     		.short	1140
 2320 0002 3D00     		.short	61
ARM GAS  /tmp/ccCN3Dsv.s 			page 64


 2321              		.section	.rodata.Mode12_w1_720P_param,"a",%progbits
 2322              		.align	2
 2325              	Mode12_w1_720P_param:
 2326 0000 7603     		.short	886
 2327 0002 2500     		.short	37
 2328              		.section	.rodata.Mode13_w0_1080P_param,"a",%progbits
 2329              		.align	2
 2332              	Mode13_w0_1080P_param:
 2333 0000 B400     		.short	180
 2334 0002 3D00     		.short	61
 2335              		.section	.rodata.Mode13_w0_720P_param,"a",%progbits
 2336              		.align	2
 2339              	Mode13_w0_720P_param:
 2340 0000 F400     		.short	244
 2341 0002 2500     		.short	37
 2342              		.section	.rodata.Mode13_w1_1080P_param,"a",%progbits
 2343              		.align	2
 2346              	Mode13_w1_1080P_param:
 2347 0000 B400     		.short	180
 2348 0002 5B02     		.short	603
 2349              		.section	.rodata.Mode13_w1_720P_param,"a",%progbits
 2350              		.align	2
 2353              	Mode13_w1_720P_param:
 2354 0000 F400     		.short	244
 2355 0002 9101     		.short	401
 2356              		.section	.rodata.Mode1_w0_1080P_param,"a",%progbits
 2357              		.align	2
 2360              	Mode1_w0_1080P_param:
 2361 0000 B400     		.short	180
 2362 0002 3D00     		.short	61
 2363              		.section	.rodata.Mode1_w0_720P_param,"a",%progbits
 2364              		.align	2
 2367              	Mode1_w0_720P_param:
 2368 0000 F400     		.short	244
 2369 0002 2500     		.short	37
 2370              		.section	.rodata.Mode1_w1_1080P_param,"a",%progbits
 2371              		.align	2
 2374              	Mode1_w1_1080P_param:
 2375 0000 7404     		.short	1140
 2376 0002 3D00     		.short	61
 2377              		.section	.rodata.Mode1_w1_720P_param,"a",%progbits
 2378              		.align	2
 2381              	Mode1_w1_720P_param:
 2382 0000 7603     		.short	886
 2383 0002 2500     		.short	37
 2384              		.section	.rodata.Mode1_w2_1080P_param,"a",%progbits
 2385              		.align	2
 2388              	Mode1_w2_1080P_param:
 2389 0000 B400     		.short	180
 2390 0002 5B02     		.short	603
 2391              		.section	.rodata.Mode1_w2_720P_param,"a",%progbits
 2392              		.align	2
 2395              	Mode1_w2_720P_param:
 2396 0000 F400     		.short	244
 2397 0002 9101     		.short	401
 2398              		.section	.rodata.Mode1_w3_1080P_param,"a",%progbits
 2399              		.align	2
ARM GAS  /tmp/ccCN3Dsv.s 			page 65


 2402              	Mode1_w3_1080P_param:
 2403 0000 7404     		.short	1140
 2404 0002 5B02     		.short	603
 2405              		.section	.rodata.Mode1_w3_720P_param,"a",%progbits
 2406              		.align	2
 2409              	Mode1_w3_720P_param:
 2410 0000 7603     		.short	886
 2411 0002 9101     		.short	401
 2412              		.section	.rodata.Mode24_w0_1080P_param,"a",%progbits
 2413              		.align	2
 2416              	Mode24_w0_1080P_param:
 2417 0000 B400     		.short	180
 2418 0002 3D00     		.short	61
 2419              		.section	.rodata.Mode24_w0_720P_param,"a",%progbits
 2420              		.align	2
 2423              	Mode24_w0_720P_param:
 2424 0000 F400     		.short	244
 2425 0002 2500     		.short	37
 2426              		.section	.rodata.Mode24_w1_1080P_param,"a",%progbits
 2427              		.align	2
 2430              	Mode24_w1_1080P_param:
 2431 0000 B405     		.short	1460
 2432 0002 0D03     		.short	781
 2433              		.section	.rodata.Mode24_w1_720P_param,"a",%progbits
 2434              		.align	2
 2437              	Mode24_w1_720P_param:
 2438 0000 4A04     		.short	1098
 2439 0002 0502     		.short	517
 2440              		.section	.rodata.Mode2_w0_1080P_param,"a",%progbits
 2441              		.align	2
 2444              	Mode2_w0_1080P_param:
 2445 0000 B400     		.short	180
 2446 0002 3D00     		.short	61
 2447              		.section	.rodata.Mode2_w0_720P_param,"a",%progbits
 2448              		.align	2
 2451              	Mode2_w0_720P_param:
 2452 0000 F400     		.short	244
 2453 0002 2500     		.short	37
 2454              		.section	.rodata.Mode2_w1_1080P_param,"a",%progbits
 2455              		.align	2
 2458              	Mode2_w1_1080P_param:
 2459 0000 9802     		.short	664
 2460 0002 3D00     		.short	61
 2461              		.section	.rodata.Mode2_w1_720P_param,"a",%progbits
 2462              		.align	2
 2465              	Mode2_w1_720P_param:
 2466 0000 3602     		.short	566
 2467 0002 2500     		.short	37
 2468              		.section	.rodata.Mode2_w2_1080P_param,"a",%progbits
 2469              		.align	2
 2472              	Mode2_w2_1080P_param:
 2473 0000 9802     		.short	664
 2474 0002 5B02     		.short	603
 2475              		.section	.rodata.Mode2_w2_720P_param,"a",%progbits
 2476              		.align	2
 2479              	Mode2_w2_720P_param:
 2480 0000 3602     		.short	566
ARM GAS  /tmp/ccCN3Dsv.s 			page 66


 2481 0002 9101     		.short	401
 2482              		.section	.rodata.Mode2_w3_1080P_param,"a",%progbits
 2483              		.align	2
 2486              	Mode2_w3_1080P_param:
 2487 0000 5806     		.short	1624
 2488 0002 3D00     		.short	61
 2489              		.section	.rodata.Mode2_w3_720P_param,"a",%progbits
 2490              		.align	2
 2493              	Mode2_w3_720P_param:
 2494 0000 B604     		.short	1206
 2495 0002 2500     		.short	37
 2496              		.section	.rodata.Mode6_w0_1080P_param,"a",%progbits
 2497              		.align	2
 2500              	Mode6_w0_1080P_param:
 2501 0000 B400     		.short	180
 2502 0002 3D00     		.short	61
 2503              		.section	.rodata.Mode6_w0_720P_param,"a",%progbits
 2504              		.align	2
 2507              	Mode6_w0_720P_param:
 2508 0000 F400     		.short	244
 2509 0002 2500     		.short	37
 2510              		.section	.rodata.Mode6_w1_1080P_param,"a",%progbits
 2511              		.align	2
 2514              	Mode6_w1_1080P_param:
 2515 0000 B405     		.short	1460
 2516 0002 3D00     		.short	61
 2517              		.section	.rodata.Mode6_w1_720P_param,"a",%progbits
 2518              		.align	2
 2521              	Mode6_w1_720P_param:
 2522 0000 4A04     		.short	1098
 2523 0002 2500     		.short	37
 2524              		.section	.rodata.Mode6_w2_1080P_param,"a",%progbits
 2525              		.align	2
 2528              	Mode6_w2_1080P_param:
 2529 0000 B405     		.short	1460
 2530 0002 A601     		.short	422
 2531              		.section	.rodata.Mode6_w2_720P_param,"a",%progbits
 2532              		.align	2
 2535              	Mode6_w2_720P_param:
 2536 0000 4A04     		.short	1098
 2537 0002 1801     		.short	280
 2538              		.section	.rodata.Mode6_w3_1080P_param,"a",%progbits
 2539              		.align	2
 2542              	Mode6_w3_1080P_param:
 2543 0000 B405     		.short	1460
 2544 0002 0F03     		.short	783
 2545              		.section	.rodata.Mode6_w3_720P_param,"a",%progbits
 2546              		.align	2
 2549              	Mode6_w3_720P_param:
 2550 0000 4A04     		.short	1098
 2551 0002 0802     		.short	520
 2552              		.section	.rodata.OSD_1024X768P_param,"a",%progbits
 2553              		.align	2
 2554              		.set	.LANCHOR9,. + 0
 2557              	OSD_1024X768P_param:
 2558 0000 0A       		.byte	10
 2559 0001 63       		.byte	99
ARM GAS  /tmp/ccCN3Dsv.s 			page 67


 2560 0002 62       		.byte	98
 2561 0003 64       		.byte	100
 2562 0004 66       		.byte	102
 2563 0005 17       		.byte	23
 2564 0006 69       		.byte	105
 2565 0007 68       		.byte	104
 2566 0008 6A       		.byte	106
 2567 0009 0F       		.byte	15
 2568 000a 6D       		.byte	109
 2569              		.section	.rodata.OSD_1280X1024P_param,"a",%progbits
 2570              		.align	2
 2571              		.set	.LANCHOR14,. + 0
 2574              	OSD_1280X1024P_param:
 2575 0000 0A       		.byte	10
 2576 0001 63       		.byte	99
 2577 0002 64       		.byte	100
 2578 0003 6A       		.byte	106
 2579 0004 62       		.byte	98
 2580 0005 17       		.byte	23
 2581 0006 63       		.byte	99
 2582 0007 62       		.byte	98
 2583 0008 64       		.byte	100
 2584 0009 66       		.byte	102
 2585 000a 0F       		.byte	15
 2586              		.section	.rodata.OSD_1280X768P_param,"a",%progbits
 2587              		.align	2
 2588              		.set	.LANCHOR10,. + 0
 2591              	OSD_1280X768P_param:
 2592 0000 0A       		.byte	10
 2593 0001 63       		.byte	99
 2594 0002 64       		.byte	100
 2595 0003 6A       		.byte	106
 2596 0004 62       		.byte	98
 2597 0005 17       		.byte	23
 2598 0006 69       		.byte	105
 2599 0007 68       		.byte	104
 2600 0008 6A       		.byte	106
 2601 0009 0F       		.byte	15
 2602 000a 6D       		.byte	109
 2603              		.section	.rodata.OSD_1280X800P_param,"a",%progbits
 2604              		.align	2
 2605              		.set	.LANCHOR12,. + 0
 2608              	OSD_1280X800P_param:
 2609 0000 0A       		.byte	10
 2610 0001 63       		.byte	99
 2611 0002 64       		.byte	100
 2612 0003 6A       		.byte	106
 2613 0004 62       		.byte	98
 2614 0005 17       		.byte	23
 2615 0006 6A       		.byte	106
 2616 0007 62       		.byte	98
 2617 0008 62       		.byte	98
 2618 0009 0F       		.byte	15
 2619 000a 6D       		.byte	109
 2620              		.section	.rodata.OSD_1280x720P_param,"a",%progbits
 2621              		.align	2
 2622              		.set	.LANCHOR5,. + 0
ARM GAS  /tmp/ccCN3Dsv.s 			page 68


 2625              	OSD_1280x720P_param:
 2626 0000 0A       		.byte	10
 2627 0001 63       		.byte	99
 2628 0002 64       		.byte	100
 2629 0003 6A       		.byte	106
 2630 0004 62       		.byte	98
 2631 0005 17       		.byte	23
 2632 0006 69       		.byte	105
 2633 0007 64       		.byte	100
 2634 0008 62       		.byte	98
 2635 0009 0F       		.byte	15
 2636 000a 6D       		.byte	109
 2637              		.section	.rodata.OSD_1360X768P_param,"a",%progbits
 2638              		.align	2
 2641              	OSD_1360X768P_param:
 2642 0000 0A       		.byte	10
 2643 0001 63       		.byte	99
 2644 0002 65       		.byte	101
 2645 0003 68       		.byte	104
 2646 0004 62       		.byte	98
 2647 0005 17       		.byte	23
 2648 0006 69       		.byte	105
 2649 0007 68       		.byte	104
 2650 0008 6A       		.byte	106
 2651 0009 0F       		.byte	15
 2652 000a 6D       		.byte	109
 2653              		.section	.rodata.OSD_1366X768P_param,"a",%progbits
 2654              		.align	2
 2655              		.set	.LANCHOR11,. + 0
 2658              	OSD_1366X768P_param:
 2659 0000 0A       		.byte	10
 2660 0001 63       		.byte	99
 2661 0002 65       		.byte	101
 2662 0003 68       		.byte	104
 2663 0004 68       		.byte	104
 2664 0005 17       		.byte	23
 2665 0006 69       		.byte	105
 2666 0007 68       		.byte	104
 2667 0008 6A       		.byte	106
 2668 0009 0F       		.byte	15
 2669 000a 6D       		.byte	109
 2670              		.section	.rodata.OSD_1400X1050P_param,"a",%progbits
 2671              		.align	2
 2672              		.set	.LANCHOR15,. + 0
 2675              	OSD_1400X1050P_param:
 2676 0000 0A       		.byte	10
 2677 0001 63       		.byte	99
 2678 0002 66       		.byte	102
 2679 0003 62       		.byte	98
 2680 0004 62       		.byte	98
 2681 0005 17       		.byte	23
 2682 0006 63       		.byte	99
 2683 0007 62       		.byte	98
 2684 0008 67       		.byte	103
 2685 0009 62       		.byte	98
 2686 000a 0F       		.byte	15
 2687              		.section	.rodata.OSD_1440X900P_param,"a",%progbits
ARM GAS  /tmp/ccCN3Dsv.s 			page 69


 2688              		.align	2
 2689              		.set	.LANCHOR13,. + 0
 2692              	OSD_1440X900P_param:
 2693 0000 0A       		.byte	10
 2694 0001 63       		.byte	99
 2695 0002 66       		.byte	102
 2696 0003 66       		.byte	102
 2697 0004 62       		.byte	98
 2698 0005 17       		.byte	23
 2699 0006 6B       		.byte	107
 2700 0007 62       		.byte	98
 2701 0008 62       		.byte	98
 2702 0009 0F       		.byte	15
 2703 000a 6D       		.byte	109
 2704              		.section	.rodata.OSD_1600X1200P_param,"a",%progbits
 2705              		.align	2
 2706              		.set	.LANCHOR17,. + 0
 2709              	OSD_1600X1200P_param:
 2710 0000 0A       		.byte	10
 2711 0001 63       		.byte	99
 2712 0002 68       		.byte	104
 2713 0003 62       		.byte	98
 2714 0004 62       		.byte	98
 2715 0005 17       		.byte	23
 2716 0006 63       		.byte	99
 2717 0007 64       		.byte	100
 2718 0008 62       		.byte	98
 2719 0009 62       		.byte	98
 2720 000a 0F       		.byte	15
 2721              		.section	.rodata.OSD_1680X1050P_param,"a",%progbits
 2722              		.align	2
 2723              		.set	.LANCHOR16,. + 0
 2726              	OSD_1680X1050P_param:
 2727 0000 0A       		.byte	10
 2728 0001 63       		.byte	99
 2729 0002 68       		.byte	104
 2730 0003 6A       		.byte	106
 2731 0004 62       		.byte	98
 2732 0005 17       		.byte	23
 2733 0006 63       		.byte	99
 2734 0007 62       		.byte	98
 2735 0008 67       		.byte	103
 2736 0009 62       		.byte	98
 2737 000a 0F       		.byte	15
 2738              		.section	.rodata.OSD_1920X1200P_param,"a",%progbits
 2739              		.align	2
 2740              		.set	.LANCHOR18,. + 0
 2743              	OSD_1920X1200P_param:
 2744 0000 0A       		.byte	10
 2745 0001 63       		.byte	99
 2746 0002 6B       		.byte	107
 2747 0003 64       		.byte	100
 2748 0004 62       		.byte	98
 2749 0005 17       		.byte	23
 2750 0006 63       		.byte	99
 2751 0007 64       		.byte	100
 2752 0008 62       		.byte	98
ARM GAS  /tmp/ccCN3Dsv.s 			page 70


 2753 0009 62       		.byte	98
 2754 000a 0F       		.byte	15
 2755              		.section	.rodata.OSD_1920x1080I_param,"a",%progbits
 2756              		.align	2
 2757              		.set	.LANCHOR4,. + 0
 2760              	OSD_1920x1080I_param:
 2761 0000 0A       		.byte	10
 2762 0001 63       		.byte	99
 2763 0002 6B       		.byte	107
 2764 0003 64       		.byte	100
 2765 0004 62       		.byte	98
 2766 0005 17       		.byte	23
 2767 0006 63       		.byte	99
 2768 0007 62       		.byte	98
 2769 0008 6A       		.byte	106
 2770 0009 62       		.byte	98
 2771 000a 08       		.byte	8
 2772              		.section	.rodata.OSD_1920x1080P_param,"a",%progbits
 2773              		.align	2
 2774              		.set	.LANCHOR6,. + 0
 2777              	OSD_1920x1080P_param:
 2778 0000 0A       		.byte	10
 2779 0001 63       		.byte	99
 2780 0002 6B       		.byte	107
 2781 0003 64       		.byte	100
 2782 0004 62       		.byte	98
 2783 0005 17       		.byte	23
 2784 0006 63       		.byte	99
 2785 0007 62       		.byte	98
 2786 0008 6A       		.byte	106
 2787 0009 62       		.byte	98
 2788 000a 0F       		.byte	15
 2789              		.section	.rodata.OSD_640X480P_param,"a",%progbits
 2790              		.align	2
 2791              		.set	.LANCHOR7,. + 0
 2794              	OSD_640X480P_param:
 2795 0000 0A       		.byte	10
 2796 0001 68       		.byte	104
 2797 0002 66       		.byte	102
 2798 0003 62       		.byte	98
 2799 0004 17       		.byte	23
 2800 0005 66       		.byte	102
 2801 0006 6A       		.byte	106
 2802 0007 62       		.byte	98
 2803 0008 0F       		.byte	15
 2804 0009 6D       		.byte	109
 2805 000a 6D       		.byte	109
 2806              		.section	.rodata.OSD_720x480I60_param,"a",%progbits
 2807              		.align	2
 2808              		.set	.LANCHOR0,. + 0
 2811              	OSD_720x480I60_param:
 2812 0000 0A       		.byte	10
 2813 0001 69       		.byte	105
 2814 0002 64       		.byte	100
 2815 0003 62       		.byte	98
 2816 0004 17       		.byte	23
 2817 0005 66       		.byte	102
ARM GAS  /tmp/ccCN3Dsv.s 			page 71


 2818 0006 6A       		.byte	106
 2819 0007 62       		.byte	98
 2820 0008 08       		.byte	8
 2821 0009 6D       		.byte	109
 2822 000a 6D       		.byte	109
 2823              		.section	.rodata.OSD_720x480P60_param,"a",%progbits
 2824              		.align	2
 2825              		.set	.LANCHOR2,. + 0
 2828              	OSD_720x480P60_param:
 2829 0000 0A       		.byte	10
 2830 0001 69       		.byte	105
 2831 0002 64       		.byte	100
 2832 0003 62       		.byte	98
 2833 0004 17       		.byte	23
 2834 0005 66       		.byte	102
 2835 0006 6A       		.byte	106
 2836 0007 62       		.byte	98
 2837 0008 0F       		.byte	15
 2838 0009 6D       		.byte	109
 2839 000a 6D       		.byte	109
 2840              		.section	.rodata.OSD_720x576I50_param,"a",%progbits
 2841              		.align	2
 2842              		.set	.LANCHOR1,. + 0
 2845              	OSD_720x576I50_param:
 2846 0000 0A       		.byte	10
 2847 0001 69       		.byte	105
 2848 0002 64       		.byte	100
 2849 0003 62       		.byte	98
 2850 0004 17       		.byte	23
 2851 0005 67       		.byte	103
 2852 0006 69       		.byte	105
 2853 0007 68       		.byte	104
 2854 0008 08       		.byte	8
 2855 0009 6D       		.byte	109
 2856 000a 6D       		.byte	109
 2857              		.section	.rodata.OSD_720x576P50_param,"a",%progbits
 2858              		.align	2
 2859              		.set	.LANCHOR3,. + 0
 2862              	OSD_720x576P50_param:
 2863 0000 0A       		.byte	10
 2864 0001 69       		.byte	105
 2865 0002 64       		.byte	100
 2866 0003 62       		.byte	98
 2867 0004 17       		.byte	23
 2868 0005 67       		.byte	103
 2869 0006 69       		.byte	105
 2870 0007 68       		.byte	104
 2871 0008 0F       		.byte	15
 2872 0009 6D       		.byte	109
 2873 000a 6D       		.byte	109
 2874              		.section	.rodata.OSD_800X600P_param,"a",%progbits
 2875              		.align	2
 2876              		.set	.LANCHOR8,. + 0
 2879              	OSD_800X600P_param:
 2880 0000 0A       		.byte	10
 2881 0001 6A       		.byte	106
 2882 0002 62       		.byte	98
ARM GAS  /tmp/ccCN3Dsv.s 			page 72


 2883 0003 62       		.byte	98
 2884 0004 17       		.byte	23
 2885 0005 68       		.byte	104
 2886 0006 62       		.byte	98
 2887 0007 62       		.byte	98
 2888 0008 0F       		.byte	15
 2889 0009 6D       		.byte	109
 2890 000a 6D       		.byte	109
 2891              		.section	.rodata.OSD_CH0_param,"a",%progbits
 2892              		.align	2
 2893              		.set	.LANCHOR23,. + 0
 2896              	OSD_CH0_param:
 2897 0000 06       		.byte	6
 2898 0001 02       		.byte	2
 2899 0002 07       		.byte	7
 2900 0003 6D       		.byte	109
 2901 0004 63       		.byte	99
 2902 0005 6D       		.byte	109
 2903 0006 6D       		.byte	109
 2904              		.section	.rodata.OSD_CH1_param,"a",%progbits
 2905              		.align	2
 2906              		.set	.LANCHOR20,. + 0
 2909              	OSD_CH1_param:
 2910 0000 06       		.byte	6
 2911 0001 02       		.byte	2
 2912 0002 07       		.byte	7
 2913 0003 6D       		.byte	109
 2914 0004 64       		.byte	100
 2915 0005 6D       		.byte	109
 2916 0006 6D       		.byte	109
 2917              		.section	.rodata.OSD_CH2_param,"a",%progbits
 2918              		.align	2
 2919              		.set	.LANCHOR21,. + 0
 2922              	OSD_CH2_param:
 2923 0000 06       		.byte	6
 2924 0001 02       		.byte	2
 2925 0002 07       		.byte	7
 2926 0003 6D       		.byte	109
 2927 0004 65       		.byte	101
 2928 0005 6D       		.byte	109
 2929 0006 6D       		.byte	109
 2930              		.section	.rodata.OSD_CH3_param,"a",%progbits
 2931              		.align	2
 2932              		.set	.LANCHOR22,. + 0
 2935              	OSD_CH3_param:
 2936 0000 06       		.byte	6
 2937 0001 02       		.byte	2
 2938 0002 07       		.byte	7
 2939 0003 6D       		.byte	109
 2940 0004 66       		.byte	102
 2941 0005 6D       		.byte	109
 2942 0006 6D       		.byte	109
 2943              		.section	.rodata.OSD_No_Signal_param,"a",%progbits
 2944              		.align	2
 2945              		.set	.LANCHOR19,. + 0
 2948              	OSD_No_Signal_param:
 2949 0000 0A       		.byte	10
ARM GAS  /tmp/ccCN3Dsv.s 			page 73


 2950 0001 0D       		.byte	13
 2951 0002 28       		.byte	40
 2952 0003 6D       		.byte	109
 2953 0004 12       		.byte	18
 2954 0005 22       		.byte	34
 2955 0006 20       		.byte	32
 2956 0007 27       		.byte	39
 2957 0008 1A       		.byte	26
 2958 0009 25       		.byte	37
 2959 000a 6D       		.byte	109
 2960              		.section	.rodata.Set_Video_Loss_OSD.str1.4,"aMS",%progbits,1
 2961              		.align	2
 2962              	.LC0:
 2963 0000 28534554 		.ascii	"(SET_VIDEO_VLOSS ch=%d set=%d)\000"
 2963      5F564944 
 2963      454F5F56 
 2963      4C4F5353 
 2963      2063683D 
 2964              		.section	.rodata.aLineMode1080PMode12Lin1,"a",%progbits
 2965              		.align	2
 2968              	aLineMode1080PMode12Lin1:
 2969 0000 01       		.byte	1
 2970 0001 04       		.byte	4
 2971 0002 25       		.byte	37
 2972 0003 5C       		.byte	92
 2973 0004 04       		.byte	4
 2974 0005 51       		.byte	81
 2975 0006 83       		.byte	-125
 2976              		.section	.rodata.aLineMode1080PMode1Lin1,"a",%progbits
 2977              		.align	2
 2980              	aLineMode1080PMode1Lin1:
 2981 0000 01       		.byte	1
 2982 0001 04       		.byte	4
 2983 0002 25       		.byte	37
 2984 0003 5C       		.byte	92
 2985 0004 04       		.byte	4
 2986 0005 51       		.byte	81
 2987 0006 83       		.byte	-125
 2988              		.section	.rodata.aLineMode1080PMode1Lin2,"a",%progbits
 2989              		.align	2
 2992              	aLineMode1080PMode1Lin2:
 2993 0000 02       		.byte	2
 2994 0001 08       		.byte	8
 2995 0002 94       		.byte	-108
 2996 0003 13       		.byte	19
 2997 0004 82       		.byte	-126
 2998 0005 41       		.byte	65
 2999 0006 83       		.byte	-125
 3000              		.section	.rodata.aLineMode1080PMode2Lin1,"a",%progbits
 3001              		.align	2
 3004              	aLineMode1080PMode2Lin1:
 3005 0000 01       		.byte	1
 3006 0001 04       		.byte	4
 3007 0002 25       		.byte	37
 3008 0003 5C       		.byte	92
 3009 0004 02       		.byte	2
 3010 0005 72       		.byte	114
ARM GAS  /tmp/ccCN3Dsv.s 			page 74


 3011 0006 83       		.byte	-125
 3012              		.section	.rodata.aLineMode1080PMode2Lin2,"a",%progbits
 3013              		.align	2
 3016              	aLineMode1080PMode2Lin2:
 3017 0000 02       		.byte	2
 3018 0001 04       		.byte	4
 3019 0002 25       		.byte	37
 3020 0003 5C       		.byte	92
 3021 0004 06       		.byte	6
 3022 0005 32       		.byte	50
 3023 0006 83       		.byte	-125
 3024              		.section	.rodata.aLineMode1080PMode2Lin3,"a",%progbits
 3025              		.align	2
 3028              	aLineMode1080PMode2Lin3:
 3029 0000 03       		.byte	3
 3030 0001 26       		.byte	38
 3031 0002 74       		.byte	116
 3032 0003 33       		.byte	51
 3033 0004 82       		.byte	-126
 3034 0005 41       		.byte	65
 3035 0006 83       		.byte	-125
 3036              		.section	.rodata.aLineMode1080PMode6Lin1,"a",%progbits
 3037              		.align	2
 3040              	aLineMode1080PMode6Lin1:
 3041 0000 01       		.byte	1
 3042 0001 04       		.byte	4
 3043 0002 25       		.byte	37
 3044 0003 5C       		.byte	92
 3045 0004 05       		.byte	5
 3046 0005 90       		.byte	-112
 3047 0006 83       		.byte	-125
 3048              		.section	.rodata.aLineMode1080PMode6Lin2,"a",%progbits
 3049              		.align	2
 3052              	aLineMode1080PMode6Lin2:
 3053 0000 02       		.byte	2
 3054 0001 58       		.byte	88
 3055 0002 92       		.byte	-110
 3056 0003 13       		.byte	19
 3057 0004 81       		.byte	-127
 3058 0005 8C       		.byte	-116
 3059 0006 83       		.byte	-125
 3060              		.section	.rodata.aLineMode1080PMode6Lin3,"a",%progbits
 3061              		.align	2
 3064              	aLineMode1080PMode6Lin3:
 3065 0000 03       		.byte	3
 3066 0001 58       		.byte	88
 3067 0002 92       		.byte	-110
 3068 0003 13       		.byte	19
 3069 0004 82       		.byte	-126
 3070 0005 F5       		.byte	-11
 3071 0006 83       		.byte	-125
 3072              		.section	.rodata.aLineMode720PMode12Lin1,"a",%progbits
 3073              		.align	2
 3076              	aLineMode720PMode12Lin1:
 3077 0000 01       		.byte	1
 3078 0001 02       		.byte	2
 3079 0002 15       		.byte	21
ARM GAS  /tmp/ccCN3Dsv.s 			page 75


 3080 0003 E4       		.byte	-28
 3081 0004 03       		.byte	3
 3082 0005 5A       		.byte	90
 3083 0006 83       		.byte	-125
 3084              		.section	.rodata.aLineMode720PMode1Lin1,"a",%progbits
 3085              		.align	2
 3088              	aLineMode720PMode1Lin1:
 3089 0000 01       		.byte	1
 3090 0001 02       		.byte	2
 3091 0002 15       		.byte	21
 3092 0003 E4       		.byte	-28
 3093 0004 03       		.byte	3
 3094 0005 5A       		.byte	90
 3095 0006 83       		.byte	-125
 3096              		.section	.rodata.aLineMode720PMode1Lin2,"a",%progbits
 3097              		.align	2
 3100              	aLineMode720PMode1Lin2:
 3101 0000 02       		.byte	2
 3102 0001 05       		.byte	5
 3103 0002 DC       		.byte	-36
 3104 0003 DB       		.byte	-37
 3105 0004 81       		.byte	-127
 3106 0005 7D       		.byte	125
 3107 0006 83       		.byte	-125
 3108              		.section	.rodata.aLineMode720PMode2Lin1,"a",%progbits
 3109              		.align	2
 3112              	aLineMode720PMode2Lin1:
 3113 0000 01       		.byte	1
 3114 0001 02       		.byte	2
 3115 0002 15       		.byte	21
 3116 0003 E4       		.byte	-28
 3117 0004 02       		.byte	2
 3118 0005 1A       		.byte	26
 3119 0006 83       		.byte	-125
 3120              		.section	.rodata.aLineMode720PMode2Lin2,"a",%progbits
 3121              		.align	2
 3124              	aLineMode720PMode2Lin2:
 3125 0000 02       		.byte	2
 3126 0001 02       		.byte	2
 3127 0002 15       		.byte	21
 3128 0003 E4       		.byte	-28
 3129 0004 04       		.byte	4
 3130 0005 9A       		.byte	-102
 3131 0006 83       		.byte	-125
 3132              		.section	.rodata.aLineMode720PMode2Lin3,"a",%progbits
 3133              		.align	2
 3136              	aLineMode720PMode2Lin3:
 3137 0000 03       		.byte	3
 3138 0001 24       		.byte	36
 3139 0002 1B       		.byte	27
 3140 0003 9B       		.byte	-101
 3141 0004 81       		.byte	-127
 3142 0005 7D       		.byte	125
 3143 0006 83       		.byte	-125
 3144              		.section	.rodata.aLineMode720PMode6Lin1,"a",%progbits
 3145              		.align	2
 3148              	aLineMode720PMode6Lin1:
ARM GAS  /tmp/ccCN3Dsv.s 			page 76


 3149 0000 01       		.byte	1
 3150 0001 02       		.byte	2
 3151 0002 15       		.byte	21
 3152 0003 E4       		.byte	-28
 3153 0004 04       		.byte	4
 3154 0005 2E       		.byte	46
 3155 0006 83       		.byte	-125
 3156              		.section	.rodata.aLineMode720PMode6Lin2,"a",%progbits
 3157              		.align	2
 3160              	aLineMode720PMode6Lin2:
 3161 0000 02       		.byte	2
 3162 0001 45       		.byte	69
 3163 0002 30       		.byte	48
 3164 0003 DB       		.byte	-37
 3165 0004 81       		.byte	-127
 3166 0005 04       		.byte	4
 3167 0006 83       		.byte	-125
 3168              		.section	.rodata.aLineMode720PMode6Lin3,"a",%progbits
 3169              		.align	2
 3172              	aLineMode720PMode6Lin3:
 3173 0000 03       		.byte	3
 3174 0001 45       		.byte	69
 3175 0002 30       		.byte	48
 3176 0003 DB       		.byte	-37
 3177 0004 81       		.byte	-127
 3178 0005 F5       		.byte	-11
 3179 0006 83       		.byte	-125
 3180              		.section	.rodata.aLineModeReg,"a",%progbits
 3181              		.align	2
 3184              	aLineModeReg:
 3185 0000 B8       		.byte	-72
 3186 0001 BA       		.byte	-70
 3187 0002 BB       		.byte	-69
 3188 0003 BC       		.byte	-68
 3189 0004 BD       		.byte	-67
 3190 0005 BE       		.byte	-66
 3191 0006 B9       		.byte	-71
 3192              		.text
 3193              	.Letext0:
 3194              		.file 2 "/home/ryan/xun/gcc-arm-none-eabi-7-2018-q2-update/arm-none-eabi/include/machine/_default_
 3195              		.file 3 "/home/ryan/xun/gcc-arm-none-eabi-7-2018-q2-update/arm-none-eabi/include/sys/lock.h"
 3196              		.file 4 "/home/ryan/xun/gcc-arm-none-eabi-7-2018-q2-update/arm-none-eabi/include/sys/_types.h"
 3197              		.file 5 "/home/ryan/xun/gcc-arm-none-eabi-7-2018-q2-update/lib/gcc/arm-none-eabi/7.3.1/include/std
 3198              		.file 6 "/home/ryan/xun/gcc-arm-none-eabi-7-2018-q2-update/arm-none-eabi/include/sys/reent.h"
 3199              		.file 7 "/home/ryan/xun/gcc-arm-none-eabi-7-2018-q2-update/arm-none-eabi/include/sys/_stdint.h"
 3200              		.file 8 "VS4210/VXIS_Extern_Define.h"
 3201              		.file 9 "sw_i2c/VX_swi2c.h"
 3202              		.file 10 "Drivers/CMSIS/Include/core_cm3.h"
 3203              		.file 11 "Drivers/CMSIS/Device/ST/STM32F1xx/Include/system_stm32f1xx.h"
 3204              		.file 12 "Drivers/CMSIS/Device/ST/STM32F1xx/Include/stm32f103xb.h"
 3205              		.file 13 "Drivers/STM32F1xx_HAL_Driver/Inc/stm32f1xx_hal.h"
 3206              		.file 14 "Drivers/STM32F1xx_HAL_Driver/Inc/stm32f1xx_hal_gpio.h"
 3207              		.file 15 "VS4210/Printf.h"
 3208              		.file 16 "VS4210/VX_OSD.h"
 3209              		.file 17 "Inc/main.h"
 3210              		.file 18 "<built-in>"
ARM GAS  /tmp/ccCN3Dsv.s 			page 77


DEFINED SYMBOLS
                            *ABS*:0000000000000000 VX_OSD_Simple.c
     /tmp/ccCN3Dsv.s:16     .text.GetconvertBarStr:0000000000000000 $t
     /tmp/ccCN3Dsv.s:22     .text.GetconvertBarStr:0000000000000000 GetconvertBarStr
     /tmp/ccCN3Dsv.s:36     .text.GetconvertBarStr:0000000000000008 $d
     /tmp/ccCN3Dsv.s:215    .text.GetconvertBarStr:00000000000000d0 $d
                            *COM*:0000000000000004 ptcOSDbar
     /tmp/ccCN3Dsv.s:240    .text.VX_Write_OSD_In_OutString:0000000000000000 $t
     /tmp/ccCN3Dsv.s:246    .text.VX_Write_OSD_In_OutString:0000000000000000 VX_Write_OSD_In_OutString
     /tmp/ccCN3Dsv.s:724    .text.VX_Write_OSD_In_OutString:00000000000002e4 $d
                            *COM*:0000000000000001 MenuOSDonFlg
     /tmp/ccCN3Dsv.s:729    .text.VX_Write_OSD_In_OutString:00000000000002f0 $t
     /tmp/ccCN3Dsv.s:1150   .text.VX_Write_OSD_In_OutString:0000000000000584 $d
                            *COM*:0000000000000001 OSDx2Flg
     /tmp/ccCN3Dsv.s:1157   .text.VXIS_fShowInOutMode:0000000000000000 $t
     /tmp/ccCN3Dsv.s:1164   .text.VXIS_fShowInOutMode:0000000000000000 VXIS_fShowInOutMode
     /tmp/ccCN3Dsv.s:1332   .text.VXIS_fShowInOutMode:00000000000000b4 $d
     /tmp/ccCN3Dsv.s:1343   .text.VXIS_fShowInOutMode0Fast:0000000000000000 $t
     /tmp/ccCN3Dsv.s:1350   .text.VXIS_fShowInOutMode0Fast:0000000000000000 VXIS_fShowInOutMode0Fast
     /tmp/ccCN3Dsv.s:1437   .text.VXIS_fShowInOutMode0Fast:000000000000005c $d
     /tmp/ccCN3Dsv.s:1446   .text.OSD_Clear:0000000000000000 $t
     /tmp/ccCN3Dsv.s:1453   .text.OSD_Clear:0000000000000000 OSD_Clear
     /tmp/ccCN3Dsv.s:1587   .text.OSD_Clear:00000000000000a4 $d
     /tmp/ccCN3Dsv.s:1592   .text.OSD_Clear_4:0000000000000000 $t
     /tmp/ccCN3Dsv.s:1599   .text.OSD_Clear_4:0000000000000000 OSD_Clear_4
     /tmp/ccCN3Dsv.s:1620   .text.OSD_Clear_34:0000000000000000 $t
     /tmp/ccCN3Dsv.s:1627   .text.OSD_Clear_34:0000000000000000 OSD_Clear_34
     /tmp/ccCN3Dsv.s:1663   .text.OSD_Clear_234:0000000000000000 $t
     /tmp/ccCN3Dsv.s:1670   .text.OSD_Clear_234:0000000000000000 OSD_Clear_234
     /tmp/ccCN3Dsv.s:1706   .text.OSD_Clear_All:0000000000000000 $t
     /tmp/ccCN3Dsv.s:1713   .text.OSD_Clear_All:0000000000000000 OSD_Clear_All
     /tmp/ccCN3Dsv.s:1749   .text.osd_cont_write:0000000000000000 $t
     /tmp/ccCN3Dsv.s:1756   .text.osd_cont_write:0000000000000000 osd_cont_write
     /tmp/ccCN3Dsv.s:1801   .text.osd_cont_write:000000000000002c $d
     /tmp/ccCN3Dsv.s:1806   .text.VXOSD_UseFont_init:0000000000000000 $t
     /tmp/ccCN3Dsv.s:1813   .text.VXOSD_UseFont_init:0000000000000000 VXOSD_UseFont_init
     /tmp/ccCN3Dsv.s:1894   .text.VXOSD_ShowExContent:0000000000000000 $t
     /tmp/ccCN3Dsv.s:1901   .text.VXOSD_ShowExContent:0000000000000000 VXOSD_ShowExContent
     /tmp/ccCN3Dsv.s:2010   .text.VXOSD_ShowExContent:0000000000000084 $d
     /tmp/ccCN3Dsv.s:2015   .text.VXOSD_SelectExContent:0000000000000000 $t
     /tmp/ccCN3Dsv.s:2022   .text.VXOSD_SelectExContent:0000000000000000 VXOSD_SelectExContent
     /tmp/ccCN3Dsv.s:2077   .text.Set_Video_Loss_OSD:0000000000000000 $t
     /tmp/ccCN3Dsv.s:2084   .text.Set_Video_Loss_OSD:0000000000000000 Set_Video_Loss_OSD
     /tmp/ccCN3Dsv.s:2190   .text.Set_Video_Loss_OSD:0000000000000084 $d
     /tmp/ccCN3Dsv.s:3076   .rodata.aLineMode720PMode12Lin1:0000000000000000 aLineMode720PMode12Lin1
     /tmp/ccCN3Dsv.s:2968   .rodata.aLineMode1080PMode12Lin1:0000000000000000 aLineMode1080PMode12Lin1
     /tmp/ccCN3Dsv.s:3172   .rodata.aLineMode720PMode6Lin3:0000000000000000 aLineMode720PMode6Lin3
     /tmp/ccCN3Dsv.s:3160   .rodata.aLineMode720PMode6Lin2:0000000000000000 aLineMode720PMode6Lin2
     /tmp/ccCN3Dsv.s:3148   .rodata.aLineMode720PMode6Lin1:0000000000000000 aLineMode720PMode6Lin1
     /tmp/ccCN3Dsv.s:3136   .rodata.aLineMode720PMode2Lin3:0000000000000000 aLineMode720PMode2Lin3
     /tmp/ccCN3Dsv.s:3124   .rodata.aLineMode720PMode2Lin2:0000000000000000 aLineMode720PMode2Lin2
     /tmp/ccCN3Dsv.s:3112   .rodata.aLineMode720PMode2Lin1:0000000000000000 aLineMode720PMode2Lin1
     /tmp/ccCN3Dsv.s:3100   .rodata.aLineMode720PMode1Lin2:0000000000000000 aLineMode720PMode1Lin2
     /tmp/ccCN3Dsv.s:3088   .rodata.aLineMode720PMode1Lin1:0000000000000000 aLineMode720PMode1Lin1
     /tmp/ccCN3Dsv.s:3064   .rodata.aLineMode1080PMode6Lin3:0000000000000000 aLineMode1080PMode6Lin3
     /tmp/ccCN3Dsv.s:3052   .rodata.aLineMode1080PMode6Lin2:0000000000000000 aLineMode1080PMode6Lin2
     /tmp/ccCN3Dsv.s:3040   .rodata.aLineMode1080PMode6Lin1:0000000000000000 aLineMode1080PMode6Lin1
ARM GAS  /tmp/ccCN3Dsv.s 			page 78


     /tmp/ccCN3Dsv.s:3028   .rodata.aLineMode1080PMode2Lin3:0000000000000000 aLineMode1080PMode2Lin3
     /tmp/ccCN3Dsv.s:3016   .rodata.aLineMode1080PMode2Lin2:0000000000000000 aLineMode1080PMode2Lin2
     /tmp/ccCN3Dsv.s:3004   .rodata.aLineMode1080PMode2Lin1:0000000000000000 aLineMode1080PMode2Lin1
     /tmp/ccCN3Dsv.s:2992   .rodata.aLineMode1080PMode1Lin2:0000000000000000 aLineMode1080PMode1Lin2
     /tmp/ccCN3Dsv.s:2980   .rodata.aLineMode1080PMode1Lin1:0000000000000000 aLineMode1080PMode1Lin1
     /tmp/ccCN3Dsv.s:3184   .rodata.aLineModeReg:0000000000000000 aLineModeReg
     /tmp/ccCN3Dsv.s:2437   .rodata.Mode24_w1_720P_param:0000000000000000 Mode24_w1_720P_param
     /tmp/ccCN3Dsv.s:2423   .rodata.Mode24_w0_720P_param:0000000000000000 Mode24_w0_720P_param
     /tmp/ccCN3Dsv.s:2353   .rodata.Mode13_w1_720P_param:0000000000000000 Mode13_w1_720P_param
     /tmp/ccCN3Dsv.s:2339   .rodata.Mode13_w0_720P_param:0000000000000000 Mode13_w0_720P_param
     /tmp/ccCN3Dsv.s:2430   .rodata.Mode24_w1_1080P_param:0000000000000000 Mode24_w1_1080P_param
     /tmp/ccCN3Dsv.s:2416   .rodata.Mode24_w0_1080P_param:0000000000000000 Mode24_w0_1080P_param
     /tmp/ccCN3Dsv.s:2346   .rodata.Mode13_w1_1080P_param:0000000000000000 Mode13_w1_1080P_param
     /tmp/ccCN3Dsv.s:2332   .rodata.Mode13_w0_1080P_param:0000000000000000 Mode13_w0_1080P_param
     /tmp/ccCN3Dsv.s:2325   .rodata.Mode12_w1_720P_param:0000000000000000 Mode12_w1_720P_param
     /tmp/ccCN3Dsv.s:2311   .rodata.Mode12_w0_720P_param:0000000000000000 Mode12_w0_720P_param
     /tmp/ccCN3Dsv.s:2549   .rodata.Mode6_w3_720P_param:0000000000000000 Mode6_w3_720P_param
     /tmp/ccCN3Dsv.s:2535   .rodata.Mode6_w2_720P_param:0000000000000000 Mode6_w2_720P_param
     /tmp/ccCN3Dsv.s:2521   .rodata.Mode6_w1_720P_param:0000000000000000 Mode6_w1_720P_param
     /tmp/ccCN3Dsv.s:2507   .rodata.Mode6_w0_720P_param:0000000000000000 Mode6_w0_720P_param
     /tmp/ccCN3Dsv.s:2493   .rodata.Mode2_w3_720P_param:0000000000000000 Mode2_w3_720P_param
     /tmp/ccCN3Dsv.s:2479   .rodata.Mode2_w2_720P_param:0000000000000000 Mode2_w2_720P_param
     /tmp/ccCN3Dsv.s:2465   .rodata.Mode2_w1_720P_param:0000000000000000 Mode2_w1_720P_param
     /tmp/ccCN3Dsv.s:2451   .rodata.Mode2_w0_720P_param:0000000000000000 Mode2_w0_720P_param
     /tmp/ccCN3Dsv.s:2409   .rodata.Mode1_w3_720P_param:0000000000000000 Mode1_w3_720P_param
     /tmp/ccCN3Dsv.s:2395   .rodata.Mode1_w2_720P_param:0000000000000000 Mode1_w2_720P_param
     /tmp/ccCN3Dsv.s:2381   .rodata.Mode1_w1_720P_param:0000000000000000 Mode1_w1_720P_param
     /tmp/ccCN3Dsv.s:2367   .rodata.Mode1_w0_720P_param:0000000000000000 Mode1_w0_720P_param
     /tmp/ccCN3Dsv.s:2297   .rodata.Mode0_720P_param:0000000000000000 Mode0_720P_param
     /tmp/ccCN3Dsv.s:2318   .rodata.Mode12_w1_1080P_param:0000000000000000 Mode12_w1_1080P_param
     /tmp/ccCN3Dsv.s:2304   .rodata.Mode12_w0_1080P_param:0000000000000000 Mode12_w0_1080P_param
     /tmp/ccCN3Dsv.s:2542   .rodata.Mode6_w3_1080P_param:0000000000000000 Mode6_w3_1080P_param
     /tmp/ccCN3Dsv.s:2528   .rodata.Mode6_w2_1080P_param:0000000000000000 Mode6_w2_1080P_param
     /tmp/ccCN3Dsv.s:2514   .rodata.Mode6_w1_1080P_param:0000000000000000 Mode6_w1_1080P_param
     /tmp/ccCN3Dsv.s:2500   .rodata.Mode6_w0_1080P_param:0000000000000000 Mode6_w0_1080P_param
     /tmp/ccCN3Dsv.s:2486   .rodata.Mode2_w3_1080P_param:0000000000000000 Mode2_w3_1080P_param
     /tmp/ccCN3Dsv.s:2472   .rodata.Mode2_w2_1080P_param:0000000000000000 Mode2_w2_1080P_param
     /tmp/ccCN3Dsv.s:2458   .rodata.Mode2_w1_1080P_param:0000000000000000 Mode2_w1_1080P_param
     /tmp/ccCN3Dsv.s:2444   .rodata.Mode2_w0_1080P_param:0000000000000000 Mode2_w0_1080P_param
     /tmp/ccCN3Dsv.s:2402   .rodata.Mode1_w3_1080P_param:0000000000000000 Mode1_w3_1080P_param
     /tmp/ccCN3Dsv.s:2388   .rodata.Mode1_w2_1080P_param:0000000000000000 Mode1_w2_1080P_param
     /tmp/ccCN3Dsv.s:2374   .rodata.Mode1_w1_1080P_param:0000000000000000 Mode1_w1_1080P_param
     /tmp/ccCN3Dsv.s:2360   .rodata.Mode1_w0_1080P_param:0000000000000000 Mode1_w0_1080P_param
     /tmp/ccCN3Dsv.s:2290   .rodata.Mode0_1080P_param:0000000000000000 Mode0_1080P_param
     /tmp/ccCN3Dsv.s:2935   .rodata.OSD_CH3_param:0000000000000000 OSD_CH3_param
     /tmp/ccCN3Dsv.s:2922   .rodata.OSD_CH2_param:0000000000000000 OSD_CH2_param
     /tmp/ccCN3Dsv.s:2909   .rodata.OSD_CH1_param:0000000000000000 OSD_CH1_param
     /tmp/ccCN3Dsv.s:2896   .rodata.OSD_CH0_param:0000000000000000 OSD_CH0_param
     /tmp/ccCN3Dsv.s:2948   .rodata.OSD_No_Signal_param:0000000000000000 OSD_No_Signal_param
     /tmp/ccCN3Dsv.s:2743   .rodata.OSD_1920X1200P_param:0000000000000000 OSD_1920X1200P_param
     /tmp/ccCN3Dsv.s:2709   .rodata.OSD_1600X1200P_param:0000000000000000 OSD_1600X1200P_param
     /tmp/ccCN3Dsv.s:2726   .rodata.OSD_1680X1050P_param:0000000000000000 OSD_1680X1050P_param
     /tmp/ccCN3Dsv.s:2675   .rodata.OSD_1400X1050P_param:0000000000000000 OSD_1400X1050P_param
     /tmp/ccCN3Dsv.s:2574   .rodata.OSD_1280X1024P_param:0000000000000000 OSD_1280X1024P_param
     /tmp/ccCN3Dsv.s:2692   .rodata.OSD_1440X900P_param:0000000000000000 OSD_1440X900P_param
     /tmp/ccCN3Dsv.s:2608   .rodata.OSD_1280X800P_param:0000000000000000 OSD_1280X800P_param
     /tmp/ccCN3Dsv.s:2658   .rodata.OSD_1366X768P_param:0000000000000000 OSD_1366X768P_param
ARM GAS  /tmp/ccCN3Dsv.s 			page 79


     /tmp/ccCN3Dsv.s:2641   .rodata.OSD_1360X768P_param:0000000000000000 OSD_1360X768P_param
     /tmp/ccCN3Dsv.s:2591   .rodata.OSD_1280X768P_param:0000000000000000 OSD_1280X768P_param
     /tmp/ccCN3Dsv.s:2557   .rodata.OSD_1024X768P_param:0000000000000000 OSD_1024X768P_param
     /tmp/ccCN3Dsv.s:2879   .rodata.OSD_800X600P_param:0000000000000000 OSD_800X600P_param
     /tmp/ccCN3Dsv.s:2794   .rodata.OSD_640X480P_param:0000000000000000 OSD_640X480P_param
     /tmp/ccCN3Dsv.s:2760   .rodata.OSD_1920x1080I_param:0000000000000000 OSD_1920x1080I_param
     /tmp/ccCN3Dsv.s:2777   .rodata.OSD_1920x1080P_param:0000000000000000 OSD_1920x1080P_param
     /tmp/ccCN3Dsv.s:2625   .rodata.OSD_1280x720P_param:0000000000000000 OSD_1280x720P_param
     /tmp/ccCN3Dsv.s:2862   .rodata.OSD_720x576P50_param:0000000000000000 OSD_720x576P50_param
     /tmp/ccCN3Dsv.s:2845   .rodata.OSD_720x576I50_param:0000000000000000 OSD_720x576I50_param
     /tmp/ccCN3Dsv.s:2828   .rodata.OSD_720x480P60_param:0000000000000000 OSD_720x480P60_param
     /tmp/ccCN3Dsv.s:2811   .rodata.OSD_720x480I60_param:0000000000000000 OSD_720x480I60_param
     /tmp/ccCN3Dsv.s:2284   .bss.bVloss_Flag:0000000000000000 bVloss_Flag
     /tmp/ccCN3Dsv.s:2285   .bss.bVloss_Flag:0000000000000000 $d
     /tmp/ccCN3Dsv.s:2287   .rodata.Mode0_1080P_param:0000000000000000 $d
     /tmp/ccCN3Dsv.s:2294   .rodata.Mode0_720P_param:0000000000000000 $d
     /tmp/ccCN3Dsv.s:2301   .rodata.Mode12_w0_1080P_param:0000000000000000 $d
     /tmp/ccCN3Dsv.s:2308   .rodata.Mode12_w0_720P_param:0000000000000000 $d
     /tmp/ccCN3Dsv.s:2315   .rodata.Mode12_w1_1080P_param:0000000000000000 $d
     /tmp/ccCN3Dsv.s:2322   .rodata.Mode12_w1_720P_param:0000000000000000 $d
     /tmp/ccCN3Dsv.s:2329   .rodata.Mode13_w0_1080P_param:0000000000000000 $d
     /tmp/ccCN3Dsv.s:2336   .rodata.Mode13_w0_720P_param:0000000000000000 $d
     /tmp/ccCN3Dsv.s:2343   .rodata.Mode13_w1_1080P_param:0000000000000000 $d
     /tmp/ccCN3Dsv.s:2350   .rodata.Mode13_w1_720P_param:0000000000000000 $d
     /tmp/ccCN3Dsv.s:2357   .rodata.Mode1_w0_1080P_param:0000000000000000 $d
     /tmp/ccCN3Dsv.s:2364   .rodata.Mode1_w0_720P_param:0000000000000000 $d
     /tmp/ccCN3Dsv.s:2371   .rodata.Mode1_w1_1080P_param:0000000000000000 $d
     /tmp/ccCN3Dsv.s:2378   .rodata.Mode1_w1_720P_param:0000000000000000 $d
     /tmp/ccCN3Dsv.s:2385   .rodata.Mode1_w2_1080P_param:0000000000000000 $d
     /tmp/ccCN3Dsv.s:2392   .rodata.Mode1_w2_720P_param:0000000000000000 $d
     /tmp/ccCN3Dsv.s:2399   .rodata.Mode1_w3_1080P_param:0000000000000000 $d
     /tmp/ccCN3Dsv.s:2406   .rodata.Mode1_w3_720P_param:0000000000000000 $d
     /tmp/ccCN3Dsv.s:2413   .rodata.Mode24_w0_1080P_param:0000000000000000 $d
     /tmp/ccCN3Dsv.s:2420   .rodata.Mode24_w0_720P_param:0000000000000000 $d
     /tmp/ccCN3Dsv.s:2427   .rodata.Mode24_w1_1080P_param:0000000000000000 $d
     /tmp/ccCN3Dsv.s:2434   .rodata.Mode24_w1_720P_param:0000000000000000 $d
     /tmp/ccCN3Dsv.s:2441   .rodata.Mode2_w0_1080P_param:0000000000000000 $d
     /tmp/ccCN3Dsv.s:2448   .rodata.Mode2_w0_720P_param:0000000000000000 $d
     /tmp/ccCN3Dsv.s:2455   .rodata.Mode2_w1_1080P_param:0000000000000000 $d
     /tmp/ccCN3Dsv.s:2462   .rodata.Mode2_w1_720P_param:0000000000000000 $d
     /tmp/ccCN3Dsv.s:2469   .rodata.Mode2_w2_1080P_param:0000000000000000 $d
     /tmp/ccCN3Dsv.s:2476   .rodata.Mode2_w2_720P_param:0000000000000000 $d
     /tmp/ccCN3Dsv.s:2483   .rodata.Mode2_w3_1080P_param:0000000000000000 $d
     /tmp/ccCN3Dsv.s:2490   .rodata.Mode2_w3_720P_param:0000000000000000 $d
     /tmp/ccCN3Dsv.s:2497   .rodata.Mode6_w0_1080P_param:0000000000000000 $d
     /tmp/ccCN3Dsv.s:2504   .rodata.Mode6_w0_720P_param:0000000000000000 $d
     /tmp/ccCN3Dsv.s:2511   .rodata.Mode6_w1_1080P_param:0000000000000000 $d
     /tmp/ccCN3Dsv.s:2518   .rodata.Mode6_w1_720P_param:0000000000000000 $d
     /tmp/ccCN3Dsv.s:2525   .rodata.Mode6_w2_1080P_param:0000000000000000 $d
     /tmp/ccCN3Dsv.s:2532   .rodata.Mode6_w2_720P_param:0000000000000000 $d
     /tmp/ccCN3Dsv.s:2539   .rodata.Mode6_w3_1080P_param:0000000000000000 $d
     /tmp/ccCN3Dsv.s:2546   .rodata.Mode6_w3_720P_param:0000000000000000 $d
     /tmp/ccCN3Dsv.s:2553   .rodata.OSD_1024X768P_param:0000000000000000 $d
     /tmp/ccCN3Dsv.s:2570   .rodata.OSD_1280X1024P_param:0000000000000000 $d
     /tmp/ccCN3Dsv.s:2587   .rodata.OSD_1280X768P_param:0000000000000000 $d
     /tmp/ccCN3Dsv.s:2604   .rodata.OSD_1280X800P_param:0000000000000000 $d
     /tmp/ccCN3Dsv.s:2621   .rodata.OSD_1280x720P_param:0000000000000000 $d
ARM GAS  /tmp/ccCN3Dsv.s 			page 80


     /tmp/ccCN3Dsv.s:2638   .rodata.OSD_1360X768P_param:0000000000000000 $d
     /tmp/ccCN3Dsv.s:2654   .rodata.OSD_1366X768P_param:0000000000000000 $d
     /tmp/ccCN3Dsv.s:2671   .rodata.OSD_1400X1050P_param:0000000000000000 $d
     /tmp/ccCN3Dsv.s:2688   .rodata.OSD_1440X900P_param:0000000000000000 $d
     /tmp/ccCN3Dsv.s:2705   .rodata.OSD_1600X1200P_param:0000000000000000 $d
     /tmp/ccCN3Dsv.s:2722   .rodata.OSD_1680X1050P_param:0000000000000000 $d
     /tmp/ccCN3Dsv.s:2739   .rodata.OSD_1920X1200P_param:0000000000000000 $d
     /tmp/ccCN3Dsv.s:2756   .rodata.OSD_1920x1080I_param:0000000000000000 $d
     /tmp/ccCN3Dsv.s:2773   .rodata.OSD_1920x1080P_param:0000000000000000 $d
     /tmp/ccCN3Dsv.s:2790   .rodata.OSD_640X480P_param:0000000000000000 $d
     /tmp/ccCN3Dsv.s:2807   .rodata.OSD_720x480I60_param:0000000000000000 $d
     /tmp/ccCN3Dsv.s:2824   .rodata.OSD_720x480P60_param:0000000000000000 $d
     /tmp/ccCN3Dsv.s:2841   .rodata.OSD_720x576I50_param:0000000000000000 $d
     /tmp/ccCN3Dsv.s:2858   .rodata.OSD_720x576P50_param:0000000000000000 $d
     /tmp/ccCN3Dsv.s:2875   .rodata.OSD_800X600P_param:0000000000000000 $d
     /tmp/ccCN3Dsv.s:2892   .rodata.OSD_CH0_param:0000000000000000 $d
     /tmp/ccCN3Dsv.s:2905   .rodata.OSD_CH1_param:0000000000000000 $d
     /tmp/ccCN3Dsv.s:2918   .rodata.OSD_CH2_param:0000000000000000 $d
     /tmp/ccCN3Dsv.s:2931   .rodata.OSD_CH3_param:0000000000000000 $d
     /tmp/ccCN3Dsv.s:2944   .rodata.OSD_No_Signal_param:0000000000000000 $d
     /tmp/ccCN3Dsv.s:2961   .rodata.Set_Video_Loss_OSD.str1.4:0000000000000000 $d
     /tmp/ccCN3Dsv.s:2965   .rodata.aLineMode1080PMode12Lin1:0000000000000000 $d
     /tmp/ccCN3Dsv.s:2977   .rodata.aLineMode1080PMode1Lin1:0000000000000000 $d
     /tmp/ccCN3Dsv.s:2989   .rodata.aLineMode1080PMode1Lin2:0000000000000000 $d
     /tmp/ccCN3Dsv.s:3001   .rodata.aLineMode1080PMode2Lin1:0000000000000000 $d
     /tmp/ccCN3Dsv.s:3013   .rodata.aLineMode1080PMode2Lin2:0000000000000000 $d
     /tmp/ccCN3Dsv.s:3025   .rodata.aLineMode1080PMode2Lin3:0000000000000000 $d
     /tmp/ccCN3Dsv.s:3037   .rodata.aLineMode1080PMode6Lin1:0000000000000000 $d
     /tmp/ccCN3Dsv.s:3049   .rodata.aLineMode1080PMode6Lin2:0000000000000000 $d
     /tmp/ccCN3Dsv.s:3061   .rodata.aLineMode1080PMode6Lin3:0000000000000000 $d
     /tmp/ccCN3Dsv.s:3073   .rodata.aLineMode720PMode12Lin1:0000000000000000 $d
     /tmp/ccCN3Dsv.s:3085   .rodata.aLineMode720PMode1Lin1:0000000000000000 $d
     /tmp/ccCN3Dsv.s:3097   .rodata.aLineMode720PMode1Lin2:0000000000000000 $d
     /tmp/ccCN3Dsv.s:3109   .rodata.aLineMode720PMode2Lin1:0000000000000000 $d
     /tmp/ccCN3Dsv.s:3121   .rodata.aLineMode720PMode2Lin2:0000000000000000 $d
     /tmp/ccCN3Dsv.s:3133   .rodata.aLineMode720PMode2Lin3:0000000000000000 $d
     /tmp/ccCN3Dsv.s:3145   .rodata.aLineMode720PMode6Lin1:0000000000000000 $d
     /tmp/ccCN3Dsv.s:3157   .rodata.aLineMode720PMode6Lin2:0000000000000000 $d
     /tmp/ccCN3Dsv.s:3169   .rodata.aLineMode720PMode6Lin3:0000000000000000 $d
     /tmp/ccCN3Dsv.s:3181   .rodata.aLineModeReg:0000000000000000 $d
     /tmp/ccCN3Dsv.s:57     .text.GetconvertBarStr:000000000000001d $d
     /tmp/ccCN3Dsv.s:57     .text.GetconvertBarStr:000000000000001e $t

UNDEFINED SYMBOLS
setTransParentIndex
VXIS_fSetOsdOnOff
u8gDrawOSDFlg
gbVXIS_OuputSize
SetOsdSize
SetOsdStartAddress
OsdDumpString
OsdDumpAttribute
SetOsdPosition
gaHDMI_MapWindowIndex
gu8AudioMode
VXISI2CRead
VXISI2CWrite
ARM GAS  /tmp/ccCN3Dsv.s 			page 81


memcpy
I2CMultiWrite
VS4210_ADDR
VXIS_fSetOsdx2
HAL_GPIO_WritePin
GraphicsPrint
