ARM GAS  /tmp/ccxioO8H.s 			page 1


   1              		.cpu cortex-m3
   2              		.eabi_attribute 20, 1
   3              		.eabi_attribute 21, 1
   4              		.eabi_attribute 23, 3
   5              		.eabi_attribute 24, 1
   6              		.eabi_attribute 25, 1
   7              		.eabi_attribute 26, 1
   8              		.eabi_attribute 30, 1
   9              		.eabi_attribute 34, 1
  10              		.eabi_attribute 18, 4
  11              		.file	"VX_OSD_Simple.c"
  12              		.text
  13              	.Ltext0:
  14              		.cfi_sections	.debug_frame
  15              		.section	.text.GetconvertBarStr,"ax",%progbits
  16              		.align	1
  17              		.syntax unified
  18              		.thumb
  19              		.thumb_func
  20              		.fpu softvfp
  22              	GetconvertBarStr:
  23              	.LFB69:
  24              		.file 1 "VS4210/VX_OSD_Simple.c"
   1:VS4210/VX_OSD_Simple.c **** /** @file VX_OSD_Simple.c
   2:VS4210/VX_OSD_Simple.c ****   * @brief OSD subtitle display program
   3:VS4210/VX_OSD_Simple.c ****   *
   4:VS4210/VX_OSD_Simple.c ****   * Message is displayed on the screen.
   5:VS4210/VX_OSD_Simple.c ****   *
   6:VS4210/VX_OSD_Simple.c ****   * @author Cunu-Yu
   7:VS4210/VX_OSD_Simple.c ****   * @date 2018/06/20
   8:VS4210/VX_OSD_Simple.c ****   */
   9:VS4210/VX_OSD_Simple.c **** 
  10:VS4210/VX_OSD_Simple.c **** #include <string.h>
  11:VS4210/VX_OSD_Simple.c **** #include "VXIS_Extern_Define.h"
  12:VS4210/VX_OSD_Simple.c **** #include "VX_OSD.h"
  13:VS4210/VX_OSD_Simple.c **** #include "VX_swi2c.h"
  14:VS4210/VX_OSD_Simple.c **** 
  15:VS4210/VX_OSD_Simple.c **** #include "main.h"
  16:VS4210/VX_OSD_Simple.c **** #include "Printf.h"
  17:VS4210/VX_OSD_Simple.c **** 
  18:VS4210/VX_OSD_Simple.c **** tByte MenuOSDonFlg ;
  19:VS4210/VX_OSD_Simple.c **** tByte bVloss_Flag=0;
  20:VS4210/VX_OSD_Simple.c **** 
  21:VS4210/VX_OSD_Simple.c **** extern  tByte u8gDrawOSDFlg ;
  22:VS4210/VX_OSD_Simple.c **** extern  tByte gbVXIS_OuputSize  ;
  23:VS4210/VX_OSD_Simple.c **** extern  tByte gbVXIS_OuputModeflg ;
  24:VS4210/VX_OSD_Simple.c **** extern  tByte gbVXIS_InputMode[4]  ;
  25:VS4210/VX_OSD_Simple.c **** extern  tByte gaHDMI_MapWindowIndex[4] ;
  26:VS4210/VX_OSD_Simple.c **** extern  tByte gu8AudioMode  ;
  27:VS4210/VX_OSD_Simple.c **** extern BYTE SelectInputMode;///0=HDMI , 1=AHD
  28:VS4210/VX_OSD_Simple.c **** extern tByte bSignal[4];
  29:VS4210/VX_OSD_Simple.c **** 
  30:VS4210/VX_OSD_Simple.c **** tByte OSDx2Flg ;
  31:VS4210/VX_OSD_Simple.c **** #define _TransParentColor  8
  32:VS4210/VX_OSD_Simple.c **** #define _Color 0x07
  33:VS4210/VX_OSD_Simple.c **** #define _MenuColor 0x17 // _Blue (bg) + _White
  34:VS4210/VX_OSD_Simple.c **** #define _MenuSelColor ((_RoyalBlue & 0x07) << 4 ) | _Orange
ARM GAS  /tmp/ccxioO8H.s 			page 2


  35:VS4210/VX_OSD_Simple.c **** 
  36:VS4210/VX_OSD_Simple.c **** tcByte *ptcOSDbar ;    
  37:VS4210/VX_OSD_Simple.c **** tcByte OSD_720x480I60_param[]=  {10 ,_7,_2,_0,_X,_4,_8,_0,_I,_spc,_spc};
  38:VS4210/VX_OSD_Simple.c **** tcByte OSD_720x480P60_param[]=  {10 ,_7,_2,_0,_X,_4,_8,_0,_P,_spc,_spc};
  39:VS4210/VX_OSD_Simple.c **** tcByte OSD_720x576I50_param[]=  {10 ,_7,_2,_0,_X,_5,_7,_6,_I,_spc,_spc};
  40:VS4210/VX_OSD_Simple.c **** tcByte OSD_720x576P50_param[]=  {10 ,_7,_2,_0,_X,_5,_7,_6,_P,_spc,_spc};
  41:VS4210/VX_OSD_Simple.c **** tcByte OSD_1280x720P_param[] =  {10 ,_1,_2,_8,_0,_X,_7,_2,_0,_P  ,_spc};
  42:VS4210/VX_OSD_Simple.c **** tcByte OSD_1920x1080P_param[]=  {10 ,_1,_9,_2,_0,_X,_1,_0,_8,_0  ,_P  };
  43:VS4210/VX_OSD_Simple.c **** tcByte OSD_1920x1080I_param[]=  {10 ,_1,_9,_2,_0,_X,_1,_0,_8,_0  ,_I  };
  44:VS4210/VX_OSD_Simple.c **** //DVI
  45:VS4210/VX_OSD_Simple.c **** tcByte OSD_640X480P_param[]=   {10 ,_6,_4,_0,_X,_4,_8,_0,_P,_spc,_spc};
  46:VS4210/VX_OSD_Simple.c **** tcByte OSD_800X600P_param[]=  {10 ,_8,_0,_0,_X,_6,_0,_0,_P,_spc,_spc};
  47:VS4210/VX_OSD_Simple.c **** tcByte OSD_1024X768P_param[]=  {10 ,_1,_0,_2,_4,_X,_7,_6,_8,_P  ,_spc};
  48:VS4210/VX_OSD_Simple.c **** tcByte OSD_1280X768P_param[]=  {10 ,_1,_2,_8,_0,_X,_7,_6,_8,_P  ,_spc};
  49:VS4210/VX_OSD_Simple.c **** tcByte OSD_1360X768P_param[]=  {10 ,_1,_3,_6,_0,_X,_7,_6,_8,_P  ,_spc};
  50:VS4210/VX_OSD_Simple.c **** tcByte OSD_1366X768P_param[]=  {10 ,_1,_3,_6,_6,_X,_7,_6,_8,_P  ,_spc};
  51:VS4210/VX_OSD_Simple.c **** tcByte OSD_1280X800P_param[]=  {10 ,_1,_2,_8,_0,_X,_8,_0,_0,_P  ,_spc};
  52:VS4210/VX_OSD_Simple.c **** tcByte OSD_1440X900P_param[]=  {10 ,_1,_4,_4,_0,_X,_9,_0,_0,_P  ,_spc};
  53:VS4210/VX_OSD_Simple.c **** tcByte OSD_1280X1024P_param[]= {10 ,_1,_2,_8,_0,_X,_1,_0,_2,_4  ,_P  };
  54:VS4210/VX_OSD_Simple.c **** tcByte OSD_1400X1050P_param[]= {10 ,_1,_4,_0,_0,_X,_1,_0,_5,_0  ,_P  };
  55:VS4210/VX_OSD_Simple.c **** tcByte OSD_1680X1050P_param[]= {10 ,_1,_6,_8,_0,_X,_1,_0,_5,_0  ,_P  };
  56:VS4210/VX_OSD_Simple.c **** tcByte OSD_1600X1200P_param[]= {10 ,_1,_6,_0,_0,_X,_1,_2,_0,_0  ,_P  };
  57:VS4210/VX_OSD_Simple.c **** tcByte OSD_1920X1200P_param[]= {10 ,_1,_9,_2,_0,_X,_1,_2,_0,_0  ,_P  };
  58:VS4210/VX_OSD_Simple.c **** 
  59:VS4210/VX_OSD_Simple.c **** tcByte OSD_No_Signal_param[]=   {10 ,_N,_o,_spc,_S,_i,_g,_n,_a,_l,_spc};
  60:VS4210/VX_OSD_Simple.c **** 
  61:VS4210/VX_OSD_Simple.c **** tcByte OSD_CH0_param[]= {6,_C,_H,_spc,_1,_spc,_spc};
  62:VS4210/VX_OSD_Simple.c **** tcByte OSD_CH1_param[]= {6,_C,_H,_spc,_2,_spc,_spc};
  63:VS4210/VX_OSD_Simple.c **** tcByte OSD_CH2_param[]= {6,_C,_H,_spc,_3,_spc,_spc};
  64:VS4210/VX_OSD_Simple.c **** tcByte OSD_CH3_param[]= {6,_C,_H,_spc,_4,_spc,_spc};
  65:VS4210/VX_OSD_Simple.c **** 
  66:VS4210/VX_OSD_Simple.c **** //tByte  OSD_CHx_param[7] ;
  67:VS4210/VX_OSD_Simple.c **** 
  68:VS4210/VX_OSD_Simple.c **** 
  69:VS4210/VX_OSD_Simple.c **** tcWord Mode0_1080P_param[]   = {180,61} ;
  70:VS4210/VX_OSD_Simple.c **** tcWord Mode1_w0_1080P_param[]= {180,61} ;
  71:VS4210/VX_OSD_Simple.c **** tcWord Mode1_w1_1080P_param[]= {1140,61} ;
  72:VS4210/VX_OSD_Simple.c **** tcWord Mode1_w2_1080P_param[]= {180,603} ;
  73:VS4210/VX_OSD_Simple.c **** tcWord Mode1_w3_1080P_param[]= {1140,603} ;
  74:VS4210/VX_OSD_Simple.c **** tcWord Mode2_w0_1080P_param[]= {180,61} ;
  75:VS4210/VX_OSD_Simple.c **** tcWord Mode2_w1_1080P_param[]= {664,61} ;
  76:VS4210/VX_OSD_Simple.c **** tcWord Mode2_w2_1080P_param[]= {664,603} ;
  77:VS4210/VX_OSD_Simple.c **** tcWord Mode2_w3_1080P_param[]= {1624,61} ;
  78:VS4210/VX_OSD_Simple.c **** tcWord Mode6_w0_1080P_param[]= {180,61} ;
  79:VS4210/VX_OSD_Simple.c **** tcWord Mode6_w1_1080P_param[]= {1460,61} ;
  80:VS4210/VX_OSD_Simple.c **** tcWord Mode6_w2_1080P_param[]= {1460,422} ;
  81:VS4210/VX_OSD_Simple.c **** tcWord Mode6_w3_1080P_param[]= {1460,783} ;
  82:VS4210/VX_OSD_Simple.c **** tcWord Mode12_w0_1080P_param[]= {180,61} ;
  83:VS4210/VX_OSD_Simple.c **** tcWord Mode12_w1_1080P_param[]= {1140,61} ;
  84:VS4210/VX_OSD_Simple.c **** 
  85:VS4210/VX_OSD_Simple.c **** tcWord Mode0_720P_param[]   = {244,37} ;
  86:VS4210/VX_OSD_Simple.c **** tcWord Mode1_w0_720P_param[]= {244,37} ;
  87:VS4210/VX_OSD_Simple.c **** tcWord Mode1_w1_720P_param[]= {886,37} ;
  88:VS4210/VX_OSD_Simple.c **** tcWord Mode1_w2_720P_param[]= {244,401} ;
  89:VS4210/VX_OSD_Simple.c **** tcWord Mode1_w3_720P_param[]= {886,401} ;
  90:VS4210/VX_OSD_Simple.c **** tcWord Mode2_w0_720P_param[]= {244,37} ;
  91:VS4210/VX_OSD_Simple.c **** tcWord Mode2_w1_720P_param[]= {566,37} ;
ARM GAS  /tmp/ccxioO8H.s 			page 3


  92:VS4210/VX_OSD_Simple.c **** tcWord Mode2_w2_720P_param[]= {566,401} ;
  93:VS4210/VX_OSD_Simple.c **** tcWord Mode2_w3_720P_param[]= {1206,37} ;
  94:VS4210/VX_OSD_Simple.c **** 
  95:VS4210/VX_OSD_Simple.c **** tcWord Mode6_w0_720P_param[]= {244,37} ;
  96:VS4210/VX_OSD_Simple.c **** tcWord Mode6_w1_720P_param[]= {1098,37} ;
  97:VS4210/VX_OSD_Simple.c **** tcWord Mode6_w2_720P_param[]= {1098,280} ;
  98:VS4210/VX_OSD_Simple.c **** tcWord Mode6_w3_720P_param[]= {1098,520} ;
  99:VS4210/VX_OSD_Simple.c **** 
 100:VS4210/VX_OSD_Simple.c **** tcWord Mode12_w0_720P_param[]= {244,37} ;
 101:VS4210/VX_OSD_Simple.c **** tcWord Mode12_w1_720P_param[]= {886,37} ;
 102:VS4210/VX_OSD_Simple.c **** 
 103:VS4210/VX_OSD_Simple.c **** 
 104:VS4210/VX_OSD_Simple.c **** tcWord Mode13_w0_1080P_param[]= {180,61} ;
 105:VS4210/VX_OSD_Simple.c **** tcWord Mode13_w1_1080P_param[]= {180,603} ;
 106:VS4210/VX_OSD_Simple.c **** tcWord Mode24_w0_1080P_param[]= {180,61} ;
 107:VS4210/VX_OSD_Simple.c **** tcWord Mode24_w1_1080P_param[]= {1460,781} ;
 108:VS4210/VX_OSD_Simple.c **** 
 109:VS4210/VX_OSD_Simple.c **** tcWord Mode13_w0_720P_param[]= {244,37} ;
 110:VS4210/VX_OSD_Simple.c **** tcWord Mode13_w1_720P_param[]= {244,401} ;
 111:VS4210/VX_OSD_Simple.c **** tcWord Mode24_w0_720P_param[]= {244,37} ;
 112:VS4210/VX_OSD_Simple.c **** tcWord Mode24_w1_720P_param[]= {1098,517} ;
 113:VS4210/VX_OSD_Simple.c **** 
 114:VS4210/VX_OSD_Simple.c **** 
 115:VS4210/VX_OSD_Simple.c **** //LINE
 116:VS4210/VX_OSD_Simple.c **** tcByte aLineModeReg[] = {0xB8,0xBA,0xBB,0xBC,0xBD,0xBE ,0xB9} ;
 117:VS4210/VX_OSD_Simple.c **** tcByte aLineMode1080PMode1Lin1[]= {0x01,0x04,0x25,0x5c,0x04,0x51 ,0x83} ;
 118:VS4210/VX_OSD_Simple.c **** tcByte aLineMode1080PMode1Lin2[]= {0x02,0x08,0x94,0x13,0x82,0x41 ,0x83} ;
 119:VS4210/VX_OSD_Simple.c **** tcByte aLineMode1080PMode2Lin1[]= {0x01,0x04,0x25,0x5C,0x02,0x72 ,0x83} ;
 120:VS4210/VX_OSD_Simple.c **** tcByte aLineMode1080PMode2Lin2[]= {0x02,0x04,0x25,0x5C,0x06,0x32 ,0x83} ;
 121:VS4210/VX_OSD_Simple.c **** tcByte aLineMode1080PMode2Lin3[]= {0x03,0x26,0x74,0x33,0x82,0x41 ,0x83} ;
 122:VS4210/VX_OSD_Simple.c **** tcByte aLineMode1080PMode6Lin1[]= {0x01,0x04,0x25,0x5C,0x05,0x90 ,0x83} ;
 123:VS4210/VX_OSD_Simple.c **** tcByte aLineMode1080PMode6Lin2[]= {0x02,0x58,0x92,0x13,0x81,0x8C ,0x83} ;
 124:VS4210/VX_OSD_Simple.c **** tcByte aLineMode1080PMode6Lin3[]= {0x03,0x58,0x92,0x13,0x82,0xF5 ,0x83} ;
 125:VS4210/VX_OSD_Simple.c **** 
 126:VS4210/VX_OSD_Simple.c **** tcByte aLineMode720PMode1Lin1[]= {0x01,0x02,0x15,0xE4,0x03,0x5A ,0x83} ;
 127:VS4210/VX_OSD_Simple.c **** tcByte aLineMode720PMode1Lin2[]= {0x02,0x05,0xDC,0xDB,0x81,0x7D ,0x83} ;
 128:VS4210/VX_OSD_Simple.c **** tcByte aLineMode720PMode2Lin1[]= {0x01,0x02,0x15,0xE4,0x02,0x1A ,0x83} ;
 129:VS4210/VX_OSD_Simple.c **** tcByte aLineMode720PMode2Lin2[]= {0x02,0x02,0x15,0xE4,0x04,0x9A ,0x83} ;
 130:VS4210/VX_OSD_Simple.c **** tcByte aLineMode720PMode2Lin3[]= {0x03,0x24,0x1B,0x9B,0x81,0x7D ,0x83} ;
 131:VS4210/VX_OSD_Simple.c **** tcByte aLineMode720PMode6Lin1[]= {0x01,0x02,0x15,0xE4,0x04,0x2E ,0x83} ;
 132:VS4210/VX_OSD_Simple.c **** tcByte aLineMode720PMode6Lin2[]= {0x02,0x45,0x30,0xDB,0x81,0x04 ,0x83} ;
 133:VS4210/VX_OSD_Simple.c **** tcByte aLineMode720PMode6Lin3[]= {0x03,0x45,0x30,0xDB,0x81,0xF5 ,0x83} ;
 134:VS4210/VX_OSD_Simple.c **** 
 135:VS4210/VX_OSD_Simple.c **** tcByte aLineMode1080PMode12Lin1[]= {0x01,0x04,0x25,0x5C,0x04,0x51 ,0x83} ;
 136:VS4210/VX_OSD_Simple.c **** tcByte aLineMode720PMode12Lin1[]= {0x01,0x02,0x15,0xE4,0x03,0x5A ,0x83} ;
 137:VS4210/VX_OSD_Simple.c **** 
 138:VS4210/VX_OSD_Simple.c **** ///////////////////////////////////////////////////////////////////////////////////////
 139:VS4210/VX_OSD_Simple.c **** static void VX_Write_OSD_In_OutString(tByte ch , tByte *Str1,tByte *Str2, int out_mode)
 140:VS4210/VX_OSD_Simple.c **** {
 141:VS4210/VX_OSD_Simple.c ****     tWord ix,iy ;
 142:VS4210/VX_OSD_Simple.c ****     tByte TitleFlg ;
 143:VS4210/VX_OSD_Simple.c ****     tByte BarFlg ;
 144:VS4210/VX_OSD_Simple.c **** 
 145:VS4210/VX_OSD_Simple.c ****     TitleFlg = (u8gDrawOSDFlg & 0x02 ) >> 1 ;
 146:VS4210/VX_OSD_Simple.c ****     BarFlg   = u8gDrawOSDFlg & 0x01 ;
 147:VS4210/VX_OSD_Simple.c **** 
 148:VS4210/VX_OSD_Simple.c ****     if (out_mode == VS4210_1080P_MODE0_w0 )
ARM GAS  /tmp/ccxioO8H.s 			page 4


 149:VS4210/VX_OSD_Simple.c ****     {
 150:VS4210/VX_OSD_Simple.c ****         if(gbVXIS_OuputSize == _OUTPUT_1080P60)
 151:VS4210/VX_OSD_Simple.c ****         {
 152:VS4210/VX_OSD_Simple.c ****             ix = Mode0_1080P_param[0] ;
 153:VS4210/VX_OSD_Simple.c ****             iy = Mode0_1080P_param[1] ;
 154:VS4210/VX_OSD_Simple.c ****         }
 155:VS4210/VX_OSD_Simple.c ****         else
 156:VS4210/VX_OSD_Simple.c ****         {
 157:VS4210/VX_OSD_Simple.c ****             ix = Mode0_720P_param[0] ;
 158:VS4210/VX_OSD_Simple.c ****             iy = Mode0_720P_param[1] ;
 159:VS4210/VX_OSD_Simple.c ****         }
 160:VS4210/VX_OSD_Simple.c ****     }
 161:VS4210/VX_OSD_Simple.c ****     else if (out_mode == VS4210_1080P_MODE0_w1  )
 162:VS4210/VX_OSD_Simple.c ****     {
 163:VS4210/VX_OSD_Simple.c ****         if(gbVXIS_OuputSize == _OUTPUT_1080P60)
 164:VS4210/VX_OSD_Simple.c ****         {
 165:VS4210/VX_OSD_Simple.c ****             ix = Mode0_1080P_param[0] ;
 166:VS4210/VX_OSD_Simple.c ****             iy = Mode0_1080P_param[1] ;
 167:VS4210/VX_OSD_Simple.c ****         }
 168:VS4210/VX_OSD_Simple.c ****         else
 169:VS4210/VX_OSD_Simple.c ****         {
 170:VS4210/VX_OSD_Simple.c ****             ix = Mode0_720P_param[0] ;
 171:VS4210/VX_OSD_Simple.c ****             iy = Mode0_720P_param[1] ;
 172:VS4210/VX_OSD_Simple.c ****         }
 173:VS4210/VX_OSD_Simple.c ****     }
 174:VS4210/VX_OSD_Simple.c ****     else if (out_mode == VS4210_1080P_MODE0_w2  )
 175:VS4210/VX_OSD_Simple.c ****     {
 176:VS4210/VX_OSD_Simple.c ****         if(gbVXIS_OuputSize == _OUTPUT_1080P60)
 177:VS4210/VX_OSD_Simple.c ****         {
 178:VS4210/VX_OSD_Simple.c ****             ix = Mode0_1080P_param[0] ;
 179:VS4210/VX_OSD_Simple.c ****             iy = Mode0_1080P_param[1] ;
 180:VS4210/VX_OSD_Simple.c ****         }
 181:VS4210/VX_OSD_Simple.c ****         else
 182:VS4210/VX_OSD_Simple.c ****         {
 183:VS4210/VX_OSD_Simple.c ****             ix = Mode0_720P_param[0] ;
 184:VS4210/VX_OSD_Simple.c ****             iy = Mode0_720P_param[1] ;
 185:VS4210/VX_OSD_Simple.c ****         }
 186:VS4210/VX_OSD_Simple.c ****     }
 187:VS4210/VX_OSD_Simple.c ****     else if (out_mode == VS4210_1080P_MODE0_w3  )
 188:VS4210/VX_OSD_Simple.c ****     {
 189:VS4210/VX_OSD_Simple.c ****         if(gbVXIS_OuputSize == _OUTPUT_1080P60)
 190:VS4210/VX_OSD_Simple.c ****         {
 191:VS4210/VX_OSD_Simple.c ****             ix = Mode0_1080P_param[0] ;
 192:VS4210/VX_OSD_Simple.c ****             iy = Mode0_1080P_param[1] ;
 193:VS4210/VX_OSD_Simple.c ****         }
 194:VS4210/VX_OSD_Simple.c ****         else
 195:VS4210/VX_OSD_Simple.c ****         {
 196:VS4210/VX_OSD_Simple.c ****             ix = Mode0_720P_param[0] ;
 197:VS4210/VX_OSD_Simple.c ****             iy = Mode0_720P_param[1] ;
 198:VS4210/VX_OSD_Simple.c ****         }
 199:VS4210/VX_OSD_Simple.c ****     }
 200:VS4210/VX_OSD_Simple.c ****     else if (out_mode == VS4210_1080P_MODE1  )
 201:VS4210/VX_OSD_Simple.c ****     {
 202:VS4210/VX_OSD_Simple.c ****         if (ch == 0 )
 203:VS4210/VX_OSD_Simple.c ****         {
 204:VS4210/VX_OSD_Simple.c ****             if(gbVXIS_OuputSize == _OUTPUT_1080P60)
 205:VS4210/VX_OSD_Simple.c ****             {
ARM GAS  /tmp/ccxioO8H.s 			page 5


 206:VS4210/VX_OSD_Simple.c ****                 ix = Mode1_w0_1080P_param[0] ;
 207:VS4210/VX_OSD_Simple.c ****                 iy = Mode1_w0_1080P_param[1] ;
 208:VS4210/VX_OSD_Simple.c ****             }
 209:VS4210/VX_OSD_Simple.c ****             else
 210:VS4210/VX_OSD_Simple.c ****             {
 211:VS4210/VX_OSD_Simple.c ****                 ix = Mode1_w0_720P_param[0] ;
 212:VS4210/VX_OSD_Simple.c ****                 iy = Mode1_w0_720P_param[1] ;
 213:VS4210/VX_OSD_Simple.c ****             }
 214:VS4210/VX_OSD_Simple.c ****         }
 215:VS4210/VX_OSD_Simple.c ****         else if (ch == 1 )
 216:VS4210/VX_OSD_Simple.c ****         {
 217:VS4210/VX_OSD_Simple.c ****             if(gbVXIS_OuputSize == _OUTPUT_1080P60)
 218:VS4210/VX_OSD_Simple.c ****             {
 219:VS4210/VX_OSD_Simple.c ****                 ix = Mode1_w1_1080P_param[0] ;
 220:VS4210/VX_OSD_Simple.c ****                 iy = Mode1_w1_1080P_param[1] ;
 221:VS4210/VX_OSD_Simple.c ****             }
 222:VS4210/VX_OSD_Simple.c ****             else
 223:VS4210/VX_OSD_Simple.c ****             {
 224:VS4210/VX_OSD_Simple.c ****                 ix = Mode1_w1_720P_param[0] ;
 225:VS4210/VX_OSD_Simple.c ****                 iy = Mode1_w1_720P_param[1] ;
 226:VS4210/VX_OSD_Simple.c ****             }
 227:VS4210/VX_OSD_Simple.c ****         }
 228:VS4210/VX_OSD_Simple.c ****         else if (ch == 2 )
 229:VS4210/VX_OSD_Simple.c ****         {
 230:VS4210/VX_OSD_Simple.c ****             if(gbVXIS_OuputSize == _OUTPUT_1080P60)
 231:VS4210/VX_OSD_Simple.c ****             {
 232:VS4210/VX_OSD_Simple.c ****                 ix = Mode1_w2_1080P_param[0] ;
 233:VS4210/VX_OSD_Simple.c ****                 iy = Mode1_w2_1080P_param[1] ;
 234:VS4210/VX_OSD_Simple.c ****             }
 235:VS4210/VX_OSD_Simple.c ****             else
 236:VS4210/VX_OSD_Simple.c ****             {
 237:VS4210/VX_OSD_Simple.c ****                 ix = Mode1_w2_720P_param[0] ;
 238:VS4210/VX_OSD_Simple.c ****                 iy = Mode1_w2_720P_param[1] ;
 239:VS4210/VX_OSD_Simple.c ****             }
 240:VS4210/VX_OSD_Simple.c ****         }
 241:VS4210/VX_OSD_Simple.c ****         else //if (ch == 3 )
 242:VS4210/VX_OSD_Simple.c ****         {
 243:VS4210/VX_OSD_Simple.c ****             if(gbVXIS_OuputSize == _OUTPUT_1080P60)
 244:VS4210/VX_OSD_Simple.c ****             {
 245:VS4210/VX_OSD_Simple.c ****                 ix = Mode1_w3_1080P_param[0] ;
 246:VS4210/VX_OSD_Simple.c ****                 iy = Mode1_w3_1080P_param[1] ;
 247:VS4210/VX_OSD_Simple.c ****             }
 248:VS4210/VX_OSD_Simple.c ****             else
 249:VS4210/VX_OSD_Simple.c ****             {
 250:VS4210/VX_OSD_Simple.c ****                 ix = Mode1_w3_720P_param[0] ;
 251:VS4210/VX_OSD_Simple.c ****                 iy = Mode1_w3_720P_param[1] ;
 252:VS4210/VX_OSD_Simple.c ****             }
 253:VS4210/VX_OSD_Simple.c ****         }
 254:VS4210/VX_OSD_Simple.c ****     }
 255:VS4210/VX_OSD_Simple.c ****     else if (out_mode == VS4210_1080P_MODE2 )
 256:VS4210/VX_OSD_Simple.c ****     {
 257:VS4210/VX_OSD_Simple.c ****         if (ch == 0 )
 258:VS4210/VX_OSD_Simple.c ****         {
 259:VS4210/VX_OSD_Simple.c ****             if(gbVXIS_OuputSize == _OUTPUT_1080P60)
 260:VS4210/VX_OSD_Simple.c ****             {
 261:VS4210/VX_OSD_Simple.c ****                 ix = Mode2_w0_1080P_param[0] ;
 262:VS4210/VX_OSD_Simple.c ****                 iy = Mode2_w0_1080P_param[1] ;
ARM GAS  /tmp/ccxioO8H.s 			page 6


 263:VS4210/VX_OSD_Simple.c ****             }
 264:VS4210/VX_OSD_Simple.c ****             else
 265:VS4210/VX_OSD_Simple.c ****             {
 266:VS4210/VX_OSD_Simple.c ****                 ix = Mode2_w0_720P_param[0] ;
 267:VS4210/VX_OSD_Simple.c ****                 iy = Mode2_w0_720P_param[1] ;
 268:VS4210/VX_OSD_Simple.c ****             }
 269:VS4210/VX_OSD_Simple.c ****         }
 270:VS4210/VX_OSD_Simple.c ****         else if (ch == 1 )
 271:VS4210/VX_OSD_Simple.c ****         {
 272:VS4210/VX_OSD_Simple.c ****             if(gbVXIS_OuputSize == _OUTPUT_1080P60)
 273:VS4210/VX_OSD_Simple.c ****             {
 274:VS4210/VX_OSD_Simple.c ****                 ix = Mode2_w1_1080P_param[0] ;
 275:VS4210/VX_OSD_Simple.c ****                 iy = Mode2_w1_1080P_param[1] ;
 276:VS4210/VX_OSD_Simple.c ****             }
 277:VS4210/VX_OSD_Simple.c ****             else
 278:VS4210/VX_OSD_Simple.c ****             {
 279:VS4210/VX_OSD_Simple.c ****                 ix = Mode2_w1_720P_param[0] ;
 280:VS4210/VX_OSD_Simple.c ****                 iy = Mode2_w1_720P_param[1] ;
 281:VS4210/VX_OSD_Simple.c ****             }
 282:VS4210/VX_OSD_Simple.c ****         }
 283:VS4210/VX_OSD_Simple.c ****         else if (ch == 2 )
 284:VS4210/VX_OSD_Simple.c ****         {
 285:VS4210/VX_OSD_Simple.c ****             if(gbVXIS_OuputSize == _OUTPUT_1080P60)
 286:VS4210/VX_OSD_Simple.c ****             {
 287:VS4210/VX_OSD_Simple.c ****                 ix = Mode2_w2_1080P_param[0] ;
 288:VS4210/VX_OSD_Simple.c ****                 iy = Mode2_w2_1080P_param[1] ;
 289:VS4210/VX_OSD_Simple.c ****             }
 290:VS4210/VX_OSD_Simple.c ****             else
 291:VS4210/VX_OSD_Simple.c ****             {
 292:VS4210/VX_OSD_Simple.c ****                 ix = Mode2_w2_720P_param[0] ;
 293:VS4210/VX_OSD_Simple.c ****                 iy = Mode2_w2_720P_param[1] ;
 294:VS4210/VX_OSD_Simple.c ****             }
 295:VS4210/VX_OSD_Simple.c ****         }
 296:VS4210/VX_OSD_Simple.c ****         else //if (ch == 3 )
 297:VS4210/VX_OSD_Simple.c ****         {
 298:VS4210/VX_OSD_Simple.c ****             if(gbVXIS_OuputSize == _OUTPUT_1080P60)
 299:VS4210/VX_OSD_Simple.c ****             {
 300:VS4210/VX_OSD_Simple.c ****                 ix = Mode2_w3_1080P_param[0] ;
 301:VS4210/VX_OSD_Simple.c ****                 iy = Mode2_w3_1080P_param[1] ;
 302:VS4210/VX_OSD_Simple.c ****             }
 303:VS4210/VX_OSD_Simple.c ****             else
 304:VS4210/VX_OSD_Simple.c ****             {
 305:VS4210/VX_OSD_Simple.c ****                 ix = Mode2_w3_720P_param[0] ;
 306:VS4210/VX_OSD_Simple.c ****                 iy = Mode2_w3_720P_param[1] ;
 307:VS4210/VX_OSD_Simple.c ****             }
 308:VS4210/VX_OSD_Simple.c ****         }
 309:VS4210/VX_OSD_Simple.c ****     }
 310:VS4210/VX_OSD_Simple.c ****     else if ((out_mode == VS4210_1080P_MODE12 ) )
 311:VS4210/VX_OSD_Simple.c ****     {
 312:VS4210/VX_OSD_Simple.c ****         if (ch == 0 )
 313:VS4210/VX_OSD_Simple.c ****         {
 314:VS4210/VX_OSD_Simple.c ****             if(gbVXIS_OuputSize == _OUTPUT_1080P60)
 315:VS4210/VX_OSD_Simple.c ****             {
 316:VS4210/VX_OSD_Simple.c ****                 ix = Mode12_w0_1080P_param[0] ;
 317:VS4210/VX_OSD_Simple.c ****                 iy = Mode12_w0_1080P_param[1] ;
 318:VS4210/VX_OSD_Simple.c ****             }
 319:VS4210/VX_OSD_Simple.c ****             else
ARM GAS  /tmp/ccxioO8H.s 			page 7


 320:VS4210/VX_OSD_Simple.c ****             {
 321:VS4210/VX_OSD_Simple.c ****                 ix = Mode12_w0_720P_param[0] ;
 322:VS4210/VX_OSD_Simple.c ****                 iy = Mode12_w0_720P_param[1] ;
 323:VS4210/VX_OSD_Simple.c ****             }
 324:VS4210/VX_OSD_Simple.c ****         }
 325:VS4210/VX_OSD_Simple.c ****         else
 326:VS4210/VX_OSD_Simple.c ****         {
 327:VS4210/VX_OSD_Simple.c ****             if(gbVXIS_OuputSize == _OUTPUT_1080P60)
 328:VS4210/VX_OSD_Simple.c ****             {
 329:VS4210/VX_OSD_Simple.c ****                 ix = Mode12_w1_1080P_param[0] ;
 330:VS4210/VX_OSD_Simple.c ****                 iy = Mode12_w1_1080P_param[1] ;
 331:VS4210/VX_OSD_Simple.c ****             }
 332:VS4210/VX_OSD_Simple.c ****             else
 333:VS4210/VX_OSD_Simple.c ****             {
 334:VS4210/VX_OSD_Simple.c ****                 ix = Mode12_w1_720P_param[0] ;
 335:VS4210/VX_OSD_Simple.c ****                 iy = Mode12_w1_720P_param[1] ;
 336:VS4210/VX_OSD_Simple.c ****             }
 337:VS4210/VX_OSD_Simple.c ****         }
 338:VS4210/VX_OSD_Simple.c ****     }
 339:VS4210/VX_OSD_Simple.c ****     else if ((out_mode == VS4210_1080P_MODE13 ) )
 340:VS4210/VX_OSD_Simple.c ****     {
 341:VS4210/VX_OSD_Simple.c ****         if (ch == 0 )
 342:VS4210/VX_OSD_Simple.c ****         {
 343:VS4210/VX_OSD_Simple.c ****             if(gbVXIS_OuputSize == _OUTPUT_1080P60)
 344:VS4210/VX_OSD_Simple.c ****             {
 345:VS4210/VX_OSD_Simple.c ****                 ix = Mode13_w0_1080P_param[0] ;
 346:VS4210/VX_OSD_Simple.c ****                 iy = Mode13_w0_1080P_param[1] ;
 347:VS4210/VX_OSD_Simple.c ****             }
 348:VS4210/VX_OSD_Simple.c ****             else
 349:VS4210/VX_OSD_Simple.c ****             {
 350:VS4210/VX_OSD_Simple.c ****                 ix = Mode13_w0_720P_param[0] ;
 351:VS4210/VX_OSD_Simple.c ****                 iy = Mode13_w0_720P_param[1] ;
 352:VS4210/VX_OSD_Simple.c ****             }
 353:VS4210/VX_OSD_Simple.c ****         }
 354:VS4210/VX_OSD_Simple.c ****         else
 355:VS4210/VX_OSD_Simple.c ****         {
 356:VS4210/VX_OSD_Simple.c ****             if(gbVXIS_OuputSize == _OUTPUT_1080P60)
 357:VS4210/VX_OSD_Simple.c ****             {
 358:VS4210/VX_OSD_Simple.c ****                 ix = Mode13_w1_1080P_param[0] ;
 359:VS4210/VX_OSD_Simple.c ****                 iy = Mode13_w1_1080P_param[1] ;
 360:VS4210/VX_OSD_Simple.c ****             }
 361:VS4210/VX_OSD_Simple.c ****             else
 362:VS4210/VX_OSD_Simple.c ****             {
 363:VS4210/VX_OSD_Simple.c ****                 ix = Mode13_w1_720P_param[0] ;
 364:VS4210/VX_OSD_Simple.c ****                 iy = Mode13_w1_720P_param[1] ;
 365:VS4210/VX_OSD_Simple.c ****             }
 366:VS4210/VX_OSD_Simple.c ****         }
 367:VS4210/VX_OSD_Simple.c ****     }
 368:VS4210/VX_OSD_Simple.c ****     else if ((out_mode >= VS4210_1080P_MODE6  ) && (out_mode < VS4210_1080P_MODE12))
 369:VS4210/VX_OSD_Simple.c ****     {
 370:VS4210/VX_OSD_Simple.c ****         if (ch == 0 )
 371:VS4210/VX_OSD_Simple.c ****         {
 372:VS4210/VX_OSD_Simple.c ****             if(gbVXIS_OuputSize == _OUTPUT_1080P60)
 373:VS4210/VX_OSD_Simple.c ****             {
 374:VS4210/VX_OSD_Simple.c ****                 ix = Mode6_w0_1080P_param[0] ;
 375:VS4210/VX_OSD_Simple.c ****                 iy = Mode6_w0_1080P_param[1] ;
 376:VS4210/VX_OSD_Simple.c ****             }
ARM GAS  /tmp/ccxioO8H.s 			page 8


 377:VS4210/VX_OSD_Simple.c ****             else
 378:VS4210/VX_OSD_Simple.c ****             {
 379:VS4210/VX_OSD_Simple.c ****                 ix = Mode6_w0_720P_param[0] ;
 380:VS4210/VX_OSD_Simple.c ****                 iy = Mode6_w0_720P_param[1] ;
 381:VS4210/VX_OSD_Simple.c ****             }
 382:VS4210/VX_OSD_Simple.c ****         }
 383:VS4210/VX_OSD_Simple.c ****         else  if (ch == 1 )
 384:VS4210/VX_OSD_Simple.c ****         {
 385:VS4210/VX_OSD_Simple.c ****             if(gbVXIS_OuputSize == _OUTPUT_1080P60)
 386:VS4210/VX_OSD_Simple.c ****             {
 387:VS4210/VX_OSD_Simple.c ****                 ix = Mode6_w1_1080P_param[0] ;
 388:VS4210/VX_OSD_Simple.c ****                 iy = Mode6_w1_1080P_param[1] ;
 389:VS4210/VX_OSD_Simple.c ****             }
 390:VS4210/VX_OSD_Simple.c ****             else
 391:VS4210/VX_OSD_Simple.c ****             {
 392:VS4210/VX_OSD_Simple.c ****                 ix = Mode6_w1_720P_param[0] ;
 393:VS4210/VX_OSD_Simple.c ****                 iy = Mode6_w1_720P_param[1] ;
 394:VS4210/VX_OSD_Simple.c ****             }
 395:VS4210/VX_OSD_Simple.c ****         }
 396:VS4210/VX_OSD_Simple.c ****         else  if (ch == 2 )
 397:VS4210/VX_OSD_Simple.c ****         {
 398:VS4210/VX_OSD_Simple.c ****             if(gbVXIS_OuputSize == _OUTPUT_1080P60)
 399:VS4210/VX_OSD_Simple.c ****             {
 400:VS4210/VX_OSD_Simple.c ****                 ix = Mode6_w2_1080P_param[0] ;
 401:VS4210/VX_OSD_Simple.c ****                 iy = Mode6_w2_1080P_param[1] ;
 402:VS4210/VX_OSD_Simple.c ****             }
 403:VS4210/VX_OSD_Simple.c ****             else
 404:VS4210/VX_OSD_Simple.c ****             {
 405:VS4210/VX_OSD_Simple.c ****                 ix = Mode6_w2_720P_param[0] ;
 406:VS4210/VX_OSD_Simple.c ****                 iy = Mode6_w2_720P_param[1] ;
 407:VS4210/VX_OSD_Simple.c ****             }
 408:VS4210/VX_OSD_Simple.c ****         }
 409:VS4210/VX_OSD_Simple.c ****         else
 410:VS4210/VX_OSD_Simple.c ****         {
 411:VS4210/VX_OSD_Simple.c ****             if(gbVXIS_OuputSize == _OUTPUT_1080P60)
 412:VS4210/VX_OSD_Simple.c ****             {
 413:VS4210/VX_OSD_Simple.c ****                 ix = Mode6_w3_1080P_param[0] ;
 414:VS4210/VX_OSD_Simple.c ****                 iy = Mode6_w3_1080P_param[1] ;
 415:VS4210/VX_OSD_Simple.c ****             }
 416:VS4210/VX_OSD_Simple.c ****             else
 417:VS4210/VX_OSD_Simple.c ****             {
 418:VS4210/VX_OSD_Simple.c ****                 ix = Mode6_w3_720P_param[0] ;
 419:VS4210/VX_OSD_Simple.c ****                 iy = Mode6_w3_720P_param[1] ;
 420:VS4210/VX_OSD_Simple.c ****             }
 421:VS4210/VX_OSD_Simple.c ****         }
 422:VS4210/VX_OSD_Simple.c ****     }
 423:VS4210/VX_OSD_Simple.c ****     else if (out_mode == VS4210_1080P_MODE24  )
 424:VS4210/VX_OSD_Simple.c ****     {
 425:VS4210/VX_OSD_Simple.c ****         if (ch == 0 )
 426:VS4210/VX_OSD_Simple.c ****         {
 427:VS4210/VX_OSD_Simple.c ****             if(gbVXIS_OuputSize == _OUTPUT_1080P60)
 428:VS4210/VX_OSD_Simple.c ****             {
 429:VS4210/VX_OSD_Simple.c ****                 ix = Mode24_w0_1080P_param[0] ;
 430:VS4210/VX_OSD_Simple.c ****                 iy = Mode24_w0_1080P_param[1] ;
 431:VS4210/VX_OSD_Simple.c ****             }
 432:VS4210/VX_OSD_Simple.c ****             else
 433:VS4210/VX_OSD_Simple.c ****             {
ARM GAS  /tmp/ccxioO8H.s 			page 9


 434:VS4210/VX_OSD_Simple.c ****                 ix = Mode24_w0_720P_param[0] ;
 435:VS4210/VX_OSD_Simple.c ****                 iy = Mode24_w0_720P_param[1] ;
 436:VS4210/VX_OSD_Simple.c ****             }
 437:VS4210/VX_OSD_Simple.c ****         }
 438:VS4210/VX_OSD_Simple.c ****         else if (ch == 1 )
 439:VS4210/VX_OSD_Simple.c ****         {
 440:VS4210/VX_OSD_Simple.c ****             if(gbVXIS_OuputSize == _OUTPUT_1080P60)
 441:VS4210/VX_OSD_Simple.c ****             {
 442:VS4210/VX_OSD_Simple.c ****                 ix = Mode24_w1_1080P_param[0] ;
 443:VS4210/VX_OSD_Simple.c ****                 iy = Mode24_w1_1080P_param[1] ;
 444:VS4210/VX_OSD_Simple.c ****             }
 445:VS4210/VX_OSD_Simple.c ****             else
 446:VS4210/VX_OSD_Simple.c ****             {
 447:VS4210/VX_OSD_Simple.c ****                 ix = Mode24_w1_720P_param[0] ;
 448:VS4210/VX_OSD_Simple.c ****                 iy = Mode24_w1_720P_param[1] ;
 449:VS4210/VX_OSD_Simple.c ****             }
 450:VS4210/VX_OSD_Simple.c ****         }
 451:VS4210/VX_OSD_Simple.c ****     }
 452:VS4210/VX_OSD_Simple.c ****     else
 453:VS4210/VX_OSD_Simple.c ****     {
 454:VS4210/VX_OSD_Simple.c ****         ix = 224 ;
 455:VS4210/VX_OSD_Simple.c ****         iy = 64 ;
 456:VS4210/VX_OSD_Simple.c ****     }
 457:VS4210/VX_OSD_Simple.c **** 
 458:VS4210/VX_OSD_Simple.c ****     if (ch == 0  )
 459:VS4210/VX_OSD_Simple.c ****     {
 460:VS4210/VX_OSD_Simple.c ****     	#if (DisplayOSDEnable==ON)
 461:VS4210/VX_OSD_Simple.c ****         if (TitleFlg == 1 )
 462:VS4210/VX_OSD_Simple.c ****         {
 463:VS4210/VX_OSD_Simple.c ****             SetOsdSize(_Title0,Str1[0],1);
 464:VS4210/VX_OSD_Simple.c ****             SetOsdStartAddress(_Title0,0x00);
 465:VS4210/VX_OSD_Simple.c ****             OsdDumpString(0x00,Str1);
 466:VS4210/VX_OSD_Simple.c ****             OsdDumpAttribute(0x00,Str1,_Color);
 467:VS4210/VX_OSD_Simple.c ****             SetOsdPosition(_Title0,ix,iy);
 468:VS4210/VX_OSD_Simple.c ****         }
 469:VS4210/VX_OSD_Simple.c **** 
 470:VS4210/VX_OSD_Simple.c ****         if (BarFlg == 1 )
 471:VS4210/VX_OSD_Simple.c ****         {
 472:VS4210/VX_OSD_Simple.c ****             SetOsdSize(_Bar0,Str2[0],1);
 473:VS4210/VX_OSD_Simple.c ****             SetOsdStartAddress(_Bar0,0x40);
 474:VS4210/VX_OSD_Simple.c ****             OsdDumpString(0x40,Str2);
 475:VS4210/VX_OSD_Simple.c ****             OsdDumpAttribute(0x40,Str2,_Color);
 476:VS4210/VX_OSD_Simple.c ****             SetOsdPosition(_Bar0,ix,iy + 20 + OSDx2Flg*20);
 477:VS4210/VX_OSD_Simple.c ****         }
 478:VS4210/VX_OSD_Simple.c **** 		#endif
 479:VS4210/VX_OSD_Simple.c ****     }
 480:VS4210/VX_OSD_Simple.c ****     else if (ch == 1 )
 481:VS4210/VX_OSD_Simple.c ****     {
 482:VS4210/VX_OSD_Simple.c ****         if (TitleFlg == 1 )
 483:VS4210/VX_OSD_Simple.c ****         {
 484:VS4210/VX_OSD_Simple.c ****             SetOsdSize(_Title1,Str1[0],1);
 485:VS4210/VX_OSD_Simple.c ****             SetOsdStartAddress(_Title1,0x10);
 486:VS4210/VX_OSD_Simple.c ****             OsdDumpString(0x10,Str1);
 487:VS4210/VX_OSD_Simple.c ****             OsdDumpAttribute(0x10,Str1,_Color);
 488:VS4210/VX_OSD_Simple.c ****             SetOsdPosition(_Title1,ix,iy);
 489:VS4210/VX_OSD_Simple.c ****         }
 490:VS4210/VX_OSD_Simple.c **** 
ARM GAS  /tmp/ccxioO8H.s 			page 10


 491:VS4210/VX_OSD_Simple.c ****         if (BarFlg == 1 )
 492:VS4210/VX_OSD_Simple.c ****         {
 493:VS4210/VX_OSD_Simple.c ****             SetOsdSize(_Bar1,Str2[0],1);
 494:VS4210/VX_OSD_Simple.c ****             SetOsdStartAddress(_Bar1,0x50);
 495:VS4210/VX_OSD_Simple.c ****             OsdDumpString(0x50,Str2);
 496:VS4210/VX_OSD_Simple.c ****             OsdDumpAttribute(0x50,Str2,_Color);
 497:VS4210/VX_OSD_Simple.c ****             SetOsdPosition(_Bar1,ix,iy + 20 + OSDx2Flg*20 );
 498:VS4210/VX_OSD_Simple.c ****         }
 499:VS4210/VX_OSD_Simple.c ****     }
 500:VS4210/VX_OSD_Simple.c ****     else if (ch == 2 )
 501:VS4210/VX_OSD_Simple.c ****     {
 502:VS4210/VX_OSD_Simple.c ****         if (TitleFlg == 1 )
 503:VS4210/VX_OSD_Simple.c ****         {
 504:VS4210/VX_OSD_Simple.c ****             SetOsdSize(_Title2,Str1[0],1);
 505:VS4210/VX_OSD_Simple.c ****             SetOsdStartAddress(_Title1,0x20);
 506:VS4210/VX_OSD_Simple.c ****             OsdDumpString(0x20,Str1);
 507:VS4210/VX_OSD_Simple.c ****             OsdDumpAttribute(0x20,Str1,_Color);
 508:VS4210/VX_OSD_Simple.c ****             SetOsdPosition(_Title2,ix,iy);
 509:VS4210/VX_OSD_Simple.c ****         }
 510:VS4210/VX_OSD_Simple.c **** 
 511:VS4210/VX_OSD_Simple.c ****         if (BarFlg == 1 )
 512:VS4210/VX_OSD_Simple.c ****         {
 513:VS4210/VX_OSD_Simple.c ****             SetOsdSize(_Bar2,Str2[0],1);
 514:VS4210/VX_OSD_Simple.c ****             SetOsdStartAddress(_Bar2,0x60);
 515:VS4210/VX_OSD_Simple.c ****             OsdDumpString(0x60,Str2);
 516:VS4210/VX_OSD_Simple.c ****             OsdDumpAttribute(0x60,Str2,_Color);
 517:VS4210/VX_OSD_Simple.c ****             SetOsdPosition(_Bar2,ix,iy + 20 + OSDx2Flg*20);
 518:VS4210/VX_OSD_Simple.c ****         }
 519:VS4210/VX_OSD_Simple.c ****     }
 520:VS4210/VX_OSD_Simple.c ****     else if (ch == 3 )
 521:VS4210/VX_OSD_Simple.c ****     {
 522:VS4210/VX_OSD_Simple.c ****         if (TitleFlg == 1 )
 523:VS4210/VX_OSD_Simple.c ****         {
 524:VS4210/VX_OSD_Simple.c ****             SetOsdSize(_Title3,Str1[0],1);
 525:VS4210/VX_OSD_Simple.c ****             SetOsdStartAddress(_Title3,0x30);
 526:VS4210/VX_OSD_Simple.c ****             OsdDumpString(0x30,Str1);
 527:VS4210/VX_OSD_Simple.c ****             OsdDumpAttribute(0x30,Str1,_Color);
 528:VS4210/VX_OSD_Simple.c ****             SetOsdPosition(_Title3,ix,iy);
 529:VS4210/VX_OSD_Simple.c ****         }
 530:VS4210/VX_OSD_Simple.c **** 
 531:VS4210/VX_OSD_Simple.c ****         if (BarFlg == 1 )
 532:VS4210/VX_OSD_Simple.c ****         {
 533:VS4210/VX_OSD_Simple.c ****             SetOsdSize(_Bar3,Str2[0],1);
 534:VS4210/VX_OSD_Simple.c ****             SetOsdStartAddress(_Bar3,0x70);
 535:VS4210/VX_OSD_Simple.c ****             OsdDumpString(0x70,Str2);
 536:VS4210/VX_OSD_Simple.c ****             OsdDumpAttribute(0x70,Str2,_Color);
 537:VS4210/VX_OSD_Simple.c ****             SetOsdPosition(_Bar3,ix,iy + 20 + OSDx2Flg*20);
 538:VS4210/VX_OSD_Simple.c ****         }
 539:VS4210/VX_OSD_Simple.c ****     }
 540:VS4210/VX_OSD_Simple.c **** 
 541:VS4210/VX_OSD_Simple.c ****     setTransParentIndex(_TransParentColor);
 542:VS4210/VX_OSD_Simple.c **** 
 543:VS4210/VX_OSD_Simple.c ****         if (u8gDrawOSDFlg == 3 )
 544:VS4210/VX_OSD_Simple.c ****         {
 545:VS4210/VX_OSD_Simple.c ****             if ( MenuOSDonFlg == 0 )
 546:VS4210/VX_OSD_Simple.c ****                 VXIS_fSetOsdOnOff(ch , _TitleOn | _BottomOn );
 547:VS4210/VX_OSD_Simple.c ****             else
ARM GAS  /tmp/ccxioO8H.s 			page 11


 548:VS4210/VX_OSD_Simple.c ****                 VXIS_fSetOsdOnOff(ch , _TitleOn | _BottomOn | _ContentOn );
 549:VS4210/VX_OSD_Simple.c ****                 //VXIS_fSetOsdOnOff(ch , _ContentOn );
 550:VS4210/VX_OSD_Simple.c ****         }
 551:VS4210/VX_OSD_Simple.c ****         else if (TitleFlg == 1 )
 552:VS4210/VX_OSD_Simple.c ****         {
 553:VS4210/VX_OSD_Simple.c ****             if ( MenuOSDonFlg == 0 )
 554:VS4210/VX_OSD_Simple.c ****             {
 555:VS4210/VX_OSD_Simple.c ****                 VXIS_fSetOsdOnOff(ch , _TitleOn  );
 556:VS4210/VX_OSD_Simple.c ****             }
 557:VS4210/VX_OSD_Simple.c ****             else {
 558:VS4210/VX_OSD_Simple.c ****                 //VXIS_fSetOsdOnOff(ch , _TitleOn | _ContentOn );
 559:VS4210/VX_OSD_Simple.c ****                 VXIS_fSetOsdOnOff(ch , _ContentOn );
 560:VS4210/VX_OSD_Simple.c ****             }
 561:VS4210/VX_OSD_Simple.c ****         }
 562:VS4210/VX_OSD_Simple.c ****         else if (BarFlg == 1 )
 563:VS4210/VX_OSD_Simple.c ****         {
 564:VS4210/VX_OSD_Simple.c ****             if ( MenuOSDonFlg == 0 )
 565:VS4210/VX_OSD_Simple.c ****             {
 566:VS4210/VX_OSD_Simple.c ****                 VXIS_fSetOsdOnOff(ch , _BottomOn  );
 567:VS4210/VX_OSD_Simple.c ****             }
 568:VS4210/VX_OSD_Simple.c ****             else {
 569:VS4210/VX_OSD_Simple.c ****                 //VXIS_fSetOsdOnOff(ch , _BottomOn | _ContentOn );
 570:VS4210/VX_OSD_Simple.c ****                 VXIS_fSetOsdOnOff(ch ,  _ContentOn );
 571:VS4210/VX_OSD_Simple.c ****             }
 572:VS4210/VX_OSD_Simple.c ****         }
 573:VS4210/VX_OSD_Simple.c ****         else
 574:VS4210/VX_OSD_Simple.c ****         {
 575:VS4210/VX_OSD_Simple.c ****             if ( MenuOSDonFlg == 0 )
 576:VS4210/VX_OSD_Simple.c ****             {
 577:VS4210/VX_OSD_Simple.c ****                 VXIS_fSetOsdOnOff(ch , _TurnoffAll   );
 578:VS4210/VX_OSD_Simple.c ****             }
 579:VS4210/VX_OSD_Simple.c ****             else {
 580:VS4210/VX_OSD_Simple.c ****                 VXIS_fSetOsdOnOff(ch ,  _ContentOn );
 581:VS4210/VX_OSD_Simple.c ****             }
 582:VS4210/VX_OSD_Simple.c ****         }
 583:VS4210/VX_OSD_Simple.c **** 
 584:VS4210/VX_OSD_Simple.c **** }
 585:VS4210/VX_OSD_Simple.c **** 
 586:VS4210/VX_OSD_Simple.c **** static void GetconvertBarStr( tByte in_mode)
 587:VS4210/VX_OSD_Simple.c **** {
  25              		.loc 1 587 0
  26              		.cfi_startproc
  27              		@ args = 0, pretend = 0, frame = 0
  28              		@ frame_needed = 0, uses_anonymous_args = 0
  29              		@ link register save eliminated.
  30              	.LVL0:
 588:VS4210/VX_OSD_Simple.c ****     switch(in_mode)
  31              		.loc 1 588 0
  32 0000 1428     		cmp	r0, #20
  33 0002 60D8     		bhi	.L2
  34 0004 DFE800F0 		tbb	[pc, r0]
  35              	.L4:
  36 0008 0B       		.byte	(.L3-.L4)/2
  37 0009 0F       		.byte	(.L5-.L4)/2
  38 000a 13       		.byte	(.L6-.L4)/2
  39 000b 17       		.byte	(.L7-.L4)/2
  40 000c 1B       		.byte	(.L8-.L4)/2
ARM GAS  /tmp/ccxioO8H.s 			page 12


  41 000d 1F       		.byte	(.L9-.L4)/2
  42 000e 23       		.byte	(.L10-.L4)/2
  43 000f 27       		.byte	(.L11-.L4)/2
  44 0010 2B       		.byte	(.L12-.L4)/2
  45 0011 2F       		.byte	(.L13-.L4)/2
  46 0012 33       		.byte	(.L14-.L4)/2
  47 0013 37       		.byte	(.L15-.L4)/2
  48 0014 3B       		.byte	(.L16-.L4)/2
  49 0015 3F       		.byte	(.L17-.L4)/2
  50 0016 43       		.byte	(.L18-.L4)/2
  51 0017 47       		.byte	(.L19-.L4)/2
  52 0018 4B       		.byte	(.L20-.L4)/2
  53 0019 4F       		.byte	(.L21-.L4)/2
  54 001a 53       		.byte	(.L22-.L4)/2
  55 001b 57       		.byte	(.L23-.L4)/2
  56 001c 5B       		.byte	(.L24-.L4)/2
  57 001d 00       		.p2align 1
  58              	.L3:
 589:VS4210/VX_OSD_Simple.c ****     {
 590:VS4210/VX_OSD_Simple.c **** //HDMI
 591:VS4210/VX_OSD_Simple.c ****     case _OSD_720X480I60:
 592:VS4210/VX_OSD_Simple.c ****         ptcOSDbar = &OSD_720x480I60_param[0] ; 
  59              		.loc 1 592 0
  60 001e 2C4B     		ldr	r3, .L26
  61 0020 2C4A     		ldr	r2, .L26+4
  62 0022 1A60     		str	r2, [r3]
 593:VS4210/VX_OSD_Simple.c ****         break ;
  63              		.loc 1 593 0
  64 0024 7047     		bx	lr
  65              	.L5:
 594:VS4210/VX_OSD_Simple.c ****     case _OSD_720X576I50:
 595:VS4210/VX_OSD_Simple.c ****         ptcOSDbar = &OSD_720x576I50_param[0] ; 
  66              		.loc 1 595 0
  67 0026 2A4B     		ldr	r3, .L26
  68 0028 2B4A     		ldr	r2, .L26+8
  69 002a 1A60     		str	r2, [r3]
 596:VS4210/VX_OSD_Simple.c ****         break ;
  70              		.loc 1 596 0
  71 002c 7047     		bx	lr
  72              	.L6:
 597:VS4210/VX_OSD_Simple.c ****     case _OSD_720X480P60:
 598:VS4210/VX_OSD_Simple.c ****         ptcOSDbar = &OSD_720x480P60_param[0] ; 
  73              		.loc 1 598 0
  74 002e 284B     		ldr	r3, .L26
  75 0030 2A4A     		ldr	r2, .L26+12
  76 0032 1A60     		str	r2, [r3]
 599:VS4210/VX_OSD_Simple.c ****         break ;
  77              		.loc 1 599 0
  78 0034 7047     		bx	lr
  79              	.L7:
 600:VS4210/VX_OSD_Simple.c ****     case _OSD_720X576P50:
 601:VS4210/VX_OSD_Simple.c ****         ptcOSDbar = &OSD_720x576P50_param[0] ; 
  80              		.loc 1 601 0
  81 0036 264B     		ldr	r3, .L26
  82 0038 294A     		ldr	r2, .L26+16
  83 003a 1A60     		str	r2, [r3]
 602:VS4210/VX_OSD_Simple.c ****         break ;
ARM GAS  /tmp/ccxioO8H.s 			page 13


  84              		.loc 1 602 0
  85 003c 7047     		bx	lr
  86              	.L8:
 603:VS4210/VX_OSD_Simple.c ****     case _OSD_1920X1080I:
 604:VS4210/VX_OSD_Simple.c ****         ptcOSDbar = &OSD_1920x1080I_param[0] ; 
  87              		.loc 1 604 0
  88 003e 244B     		ldr	r3, .L26
  89 0040 284A     		ldr	r2, .L26+20
  90 0042 1A60     		str	r2, [r3]
 605:VS4210/VX_OSD_Simple.c ****         break;
  91              		.loc 1 605 0
  92 0044 7047     		bx	lr
  93              	.L9:
 606:VS4210/VX_OSD_Simple.c ****     case _OSD_1280X720P :
 607:VS4210/VX_OSD_Simple.c ****         ptcOSDbar = &OSD_1280x720P_param[0] ; 
  94              		.loc 1 607 0
  95 0046 224B     		ldr	r3, .L26
  96 0048 274A     		ldr	r2, .L26+24
  97 004a 1A60     		str	r2, [r3]
 608:VS4210/VX_OSD_Simple.c ****         break;
  98              		.loc 1 608 0
  99 004c 7047     		bx	lr
 100              	.L10:
 609:VS4210/VX_OSD_Simple.c ****     case _OSD_1920X1080P:
 610:VS4210/VX_OSD_Simple.c ****         ptcOSDbar = &OSD_1920x1080P_param[0] ; 
 101              		.loc 1 610 0
 102 004e 204B     		ldr	r3, .L26
 103 0050 264A     		ldr	r2, .L26+28
 104 0052 1A60     		str	r2, [r3]
 611:VS4210/VX_OSD_Simple.c ****         break;
 105              		.loc 1 611 0
 106 0054 7047     		bx	lr
 107              	.L11:
 612:VS4210/VX_OSD_Simple.c **** //DVI
 613:VS4210/VX_OSD_Simple.c ****     case _OSD_640X480P  :
 614:VS4210/VX_OSD_Simple.c ****         ptcOSDbar = &OSD_640X480P_param[0] ; 
 108              		.loc 1 614 0
 109 0056 1E4B     		ldr	r3, .L26
 110 0058 254A     		ldr	r2, .L26+32
 111 005a 1A60     		str	r2, [r3]
 615:VS4210/VX_OSD_Simple.c ****         break;
 112              		.loc 1 615 0
 113 005c 7047     		bx	lr
 114              	.L12:
 616:VS4210/VX_OSD_Simple.c ****     case _OSD_800X600P  :
 617:VS4210/VX_OSD_Simple.c ****         ptcOSDbar = &OSD_800X600P_param[0] ; 
 115              		.loc 1 617 0
 116 005e 1C4B     		ldr	r3, .L26
 117 0060 244A     		ldr	r2, .L26+36
 118 0062 1A60     		str	r2, [r3]
 618:VS4210/VX_OSD_Simple.c ****         break;
 119              		.loc 1 618 0
 120 0064 7047     		bx	lr
 121              	.L13:
 619:VS4210/VX_OSD_Simple.c ****     case _OSD_1024X768P :
 620:VS4210/VX_OSD_Simple.c ****         ptcOSDbar = &OSD_1024X768P_param[0] ; 
 122              		.loc 1 620 0
ARM GAS  /tmp/ccxioO8H.s 			page 14


 123 0066 1A4B     		ldr	r3, .L26
 124 0068 234A     		ldr	r2, .L26+40
 125 006a 1A60     		str	r2, [r3]
 621:VS4210/VX_OSD_Simple.c ****         break;
 126              		.loc 1 621 0
 127 006c 7047     		bx	lr
 128              	.L14:
 622:VS4210/VX_OSD_Simple.c ****     case _OSD_1280X768P :
 623:VS4210/VX_OSD_Simple.c ****         ptcOSDbar = &OSD_720x480P60_param[0] ; 
 129              		.loc 1 623 0
 130 006e 184B     		ldr	r3, .L26
 131 0070 1A4A     		ldr	r2, .L26+12
 132 0072 1A60     		str	r2, [r3]
 624:VS4210/VX_OSD_Simple.c ****         break;
 133              		.loc 1 624 0
 134 0074 7047     		bx	lr
 135              	.L15:
 625:VS4210/VX_OSD_Simple.c ****     case _OSD_1360X768P :
 626:VS4210/VX_OSD_Simple.c ****         ptcOSDbar = &OSD_1280X768P_param[0] ; 
 136              		.loc 1 626 0
 137 0076 164B     		ldr	r3, .L26
 138 0078 204A     		ldr	r2, .L26+44
 139 007a 1A60     		str	r2, [r3]
 627:VS4210/VX_OSD_Simple.c ****         break;
 140              		.loc 1 627 0
 141 007c 7047     		bx	lr
 142              	.L16:
 628:VS4210/VX_OSD_Simple.c ****     case _OSD_1366X768P :
 629:VS4210/VX_OSD_Simple.c ****         ptcOSDbar = &OSD_1366X768P_param[0] ; 
 143              		.loc 1 629 0
 144 007e 144B     		ldr	r3, .L26
 145 0080 1F4A     		ldr	r2, .L26+48
 146 0082 1A60     		str	r2, [r3]
 630:VS4210/VX_OSD_Simple.c ****         break;
 147              		.loc 1 630 0
 148 0084 7047     		bx	lr
 149              	.L17:
 631:VS4210/VX_OSD_Simple.c ****     case _OSD_1280X800P :
 632:VS4210/VX_OSD_Simple.c ****         ptcOSDbar = &OSD_1280X800P_param[0] ; 
 150              		.loc 1 632 0
 151 0086 124B     		ldr	r3, .L26
 152 0088 1E4A     		ldr	r2, .L26+52
 153 008a 1A60     		str	r2, [r3]
 633:VS4210/VX_OSD_Simple.c ****         break;
 154              		.loc 1 633 0
 155 008c 7047     		bx	lr
 156              	.L18:
 634:VS4210/VX_OSD_Simple.c ****     case _OSD_1440X900P :
 635:VS4210/VX_OSD_Simple.c ****         ptcOSDbar = &OSD_1440X900P_param[0] ; 
 157              		.loc 1 635 0
 158 008e 104B     		ldr	r3, .L26
 159 0090 1D4A     		ldr	r2, .L26+56
 160 0092 1A60     		str	r2, [r3]
 636:VS4210/VX_OSD_Simple.c ****         break;
 161              		.loc 1 636 0
 162 0094 7047     		bx	lr
 163              	.L19:
ARM GAS  /tmp/ccxioO8H.s 			page 15


 637:VS4210/VX_OSD_Simple.c ****     case _OSD_1280X1024P:
 638:VS4210/VX_OSD_Simple.c ****         ptcOSDbar = &OSD_1280X1024P_param[0] ; 
 164              		.loc 1 638 0
 165 0096 0E4B     		ldr	r3, .L26
 166 0098 1C4A     		ldr	r2, .L26+60
 167 009a 1A60     		str	r2, [r3]
 639:VS4210/VX_OSD_Simple.c ****         break;
 168              		.loc 1 639 0
 169 009c 7047     		bx	lr
 170              	.L20:
 640:VS4210/VX_OSD_Simple.c ****     case _OSD_1400X1050P:
 641:VS4210/VX_OSD_Simple.c ****         ptcOSDbar = &OSD_1400X1050P_param[0] ; 
 171              		.loc 1 641 0
 172 009e 0C4B     		ldr	r3, .L26
 173 00a0 1B4A     		ldr	r2, .L26+64
 174 00a2 1A60     		str	r2, [r3]
 642:VS4210/VX_OSD_Simple.c ****         break;
 175              		.loc 1 642 0
 176 00a4 7047     		bx	lr
 177              	.L21:
 643:VS4210/VX_OSD_Simple.c ****     case _OSD_1680X1050P:
 644:VS4210/VX_OSD_Simple.c ****         ptcOSDbar = &OSD_1680X1050P_param[0] ; 
 178              		.loc 1 644 0
 179 00a6 0A4B     		ldr	r3, .L26
 180 00a8 1A4A     		ldr	r2, .L26+68
 181 00aa 1A60     		str	r2, [r3]
 645:VS4210/VX_OSD_Simple.c ****         break;
 182              		.loc 1 645 0
 183 00ac 7047     		bx	lr
 184              	.L22:
 646:VS4210/VX_OSD_Simple.c ****     case _OSD_1600X1200P:
 647:VS4210/VX_OSD_Simple.c ****         ptcOSDbar = &OSD_1600X1200P_param[0] ; 
 185              		.loc 1 647 0
 186 00ae 084B     		ldr	r3, .L26
 187 00b0 194A     		ldr	r2, .L26+72
 188 00b2 1A60     		str	r2, [r3]
 648:VS4210/VX_OSD_Simple.c ****         break;
 189              		.loc 1 648 0
 190 00b4 7047     		bx	lr
 191              	.L23:
 649:VS4210/VX_OSD_Simple.c ****     case _OSD_1920X1200P:
 650:VS4210/VX_OSD_Simple.c ****         ptcOSDbar = &OSD_1920X1200P_param[0] ; 
 192              		.loc 1 650 0
 193 00b6 064B     		ldr	r3, .L26
 194 00b8 184A     		ldr	r2, .L26+76
 195 00ba 1A60     		str	r2, [r3]
 651:VS4210/VX_OSD_Simple.c ****         break;
 196              		.loc 1 651 0
 197 00bc 7047     		bx	lr
 198              	.L24:
 652:VS4210/VX_OSD_Simple.c ****     case _OSD_No_Signal :
 653:VS4210/VX_OSD_Simple.c ****         ptcOSDbar = &OSD_No_Signal_param[0] ; 
 199              		.loc 1 653 0
 200 00be 044B     		ldr	r3, .L26
 201 00c0 174A     		ldr	r2, .L26+80
 202 00c2 1A60     		str	r2, [r3]
 654:VS4210/VX_OSD_Simple.c ****         break;
ARM GAS  /tmp/ccxioO8H.s 			page 16


 203              		.loc 1 654 0
 204 00c4 7047     		bx	lr
 205              	.L2:
 655:VS4210/VX_OSD_Simple.c **** 
 656:VS4210/VX_OSD_Simple.c ****     default :
 657:VS4210/VX_OSD_Simple.c ****         ptcOSDbar = &OSD_No_Signal_param[0] ; 
 206              		.loc 1 657 0
 207 00c6 024B     		ldr	r3, .L26
 208 00c8 154A     		ldr	r2, .L26+80
 209 00ca 1A60     		str	r2, [r3]
 658:VS4210/VX_OSD_Simple.c ****         break;
 659:VS4210/VX_OSD_Simple.c ****     }    
 660:VS4210/VX_OSD_Simple.c **** }
 210              		.loc 1 660 0
 211 00cc 7047     		bx	lr
 212              	.L27:
 213 00ce 00BF     		.align	2
 214              	.L26:
 215 00d0 00000000 		.word	ptcOSDbar
 216 00d4 00000000 		.word	.LANCHOR0
 217 00d8 00000000 		.word	.LANCHOR1
 218 00dc 00000000 		.word	.LANCHOR2
 219 00e0 00000000 		.word	.LANCHOR3
 220 00e4 00000000 		.word	.LANCHOR4
 221 00e8 00000000 		.word	.LANCHOR5
 222 00ec 00000000 		.word	.LANCHOR6
 223 00f0 00000000 		.word	.LANCHOR7
 224 00f4 00000000 		.word	.LANCHOR8
 225 00f8 00000000 		.word	.LANCHOR9
 226 00fc 00000000 		.word	.LANCHOR10
 227 0100 00000000 		.word	.LANCHOR11
 228 0104 00000000 		.word	.LANCHOR12
 229 0108 00000000 		.word	.LANCHOR13
 230 010c 00000000 		.word	.LANCHOR14
 231 0110 00000000 		.word	.LANCHOR15
 232 0114 00000000 		.word	.LANCHOR16
 233 0118 00000000 		.word	.LANCHOR17
 234 011c 00000000 		.word	.LANCHOR18
 235 0120 00000000 		.word	.LANCHOR19
 236              		.cfi_endproc
 237              	.LFE69:
 239              		.section	.text.VX_Write_OSD_In_OutString,"ax",%progbits
 240              		.align	1
 241              		.syntax unified
 242              		.thumb
 243              		.thumb_func
 244              		.fpu softvfp
 246              	VX_Write_OSD_In_OutString:
 247              	.LFB68:
 140:VS4210/VX_OSD_Simple.c ****     tWord ix,iy ;
 248              		.loc 1 140 0
 249              		.cfi_startproc
 250              		@ args = 0, pretend = 0, frame = 0
 251              		@ frame_needed = 0, uses_anonymous_args = 0
 252              	.LVL1:
 253 0000 2DE9F047 		push	{r4, r5, r6, r7, r8, r9, r10, lr}
 254              	.LCFI0:
ARM GAS  /tmp/ccxioO8H.s 			page 17


 255              		.cfi_def_cfa_offset 32
 256              		.cfi_offset 4, -32
 257              		.cfi_offset 5, -28
 258              		.cfi_offset 6, -24
 259              		.cfi_offset 7, -20
 260              		.cfi_offset 8, -16
 261              		.cfi_offset 9, -12
 262              		.cfi_offset 10, -8
 263              		.cfi_offset 14, -4
 264 0004 0546     		mov	r5, r0
 265 0006 8946     		mov	r9, r1
 266 0008 9046     		mov	r8, r2
 145:VS4210/VX_OSD_Simple.c ****     BarFlg   = u8gDrawOSDFlg & 0x01 ;
 267              		.loc 1 145 0
 268 000a AE4A     		ldr	r2, .L133
 269              	.LVL2:
 270 000c 1278     		ldrb	r2, [r2]	@ zero_extendqisi2
 271 000e C2F34006 		ubfx	r6, r2, #1, #1
 272              	.LVL3:
 146:VS4210/VX_OSD_Simple.c **** 
 273              		.loc 1 146 0
 274 0012 02F00104 		and	r4, r2, #1
 275              	.LVL4:
 148:VS4210/VX_OSD_Simple.c ****     {
 276              		.loc 1 148 0
 277 0016 4BBB     		cbnz	r3, .L29
 150:VS4210/VX_OSD_Simple.c ****         {
 278              		.loc 1 150 0
 279 0018 AB4B     		ldr	r3, .L133+4
 280              	.LVL5:
 281 001a 1B78     		ldrb	r3, [r3]	@ zero_extendqisi2
 282 001c 012B     		cmp	r3, #1
 283 001e 21D0     		beq	.L89
 158:VS4210/VX_OSD_Simple.c ****         }
 284              		.loc 1 158 0
 285 0020 2527     		movs	r7, #37
 157:VS4210/VX_OSD_Simple.c ****             iy = Mode0_720P_param[1] ;
 286              		.loc 1 157 0
 287 0022 4FF0F40A 		mov	r10, #244
 288              	.L30:
 289              	.LVL6:
 458:VS4210/VX_OSD_Simple.c ****     {
 290              		.loc 1 458 0
 291 0026 45B1     		cbz	r5, .L51
 480:VS4210/VX_OSD_Simple.c ****     {
 292              		.loc 1 480 0
 293 0028 012D     		cmp	r5, #1
 294 002a 00F06281 		beq	.L90
 500:VS4210/VX_OSD_Simple.c ****     {
 295              		.loc 1 500 0
 296 002e 022D     		cmp	r5, #2
 297 0030 00F09D81 		beq	.L91
 520:VS4210/VX_OSD_Simple.c ****     {
 298              		.loc 1 520 0
 299 0034 032D     		cmp	r5, #3
 300 0036 00F0D881 		beq	.L92
 301              	.LVL7:
ARM GAS  /tmp/ccxioO8H.s 			page 18


 302              	.L51:
 541:VS4210/VX_OSD_Simple.c **** 
 303              		.loc 1 541 0
 304 003a 0820     		movs	r0, #8
 305 003c FFF7FEFF 		bl	setTransParentIndex
 306              	.LVL8:
 543:VS4210/VX_OSD_Simple.c ****         {
 307              		.loc 1 543 0
 308 0040 A04B     		ldr	r3, .L133
 309 0042 1B78     		ldrb	r3, [r3]	@ zero_extendqisi2
 310 0044 032B     		cmp	r3, #3
 311 0046 00F00E82 		beq	.L93
 551:VS4210/VX_OSD_Simple.c ****         {
 312              		.loc 1 551 0
 313 004a 002E     		cmp	r6, #0
 314 004c 00F01E82 		beq	.L60
 553:VS4210/VX_OSD_Simple.c ****             {
 315              		.loc 1 553 0
 316 0050 9E4B     		ldr	r3, .L133+8
 317 0052 1B78     		ldrb	r3, [r3]	@ zero_extendqisi2
 318 0054 002B     		cmp	r3, #0
 319 0056 40F01482 		bne	.L61
 555:VS4210/VX_OSD_Simple.c ****             }
 320              		.loc 1 555 0
 321 005a 0421     		movs	r1, #4
 322 005c 2846     		mov	r0, r5
 323 005e FFF7FEFF 		bl	VXIS_fSetOsdOnOff
 324              	.LVL9:
 325 0062 07E2     		b	.L28
 326              	.LVL10:
 327              	.L89:
 153:VS4210/VX_OSD_Simple.c ****         }
 328              		.loc 1 153 0
 329 0064 3D27     		movs	r7, #61
 152:VS4210/VX_OSD_Simple.c ****             iy = Mode0_1080P_param[1] ;
 330              		.loc 1 152 0
 331 0066 4FF0B40A 		mov	r10, #180
 332 006a DCE7     		b	.L30
 333              	.LVL11:
 334              	.L29:
 335 006c 1A46     		mov	r2, r3
 161:VS4210/VX_OSD_Simple.c ****     {
 336              		.loc 1 161 0
 337 006e 012B     		cmp	r3, #1
 338 0070 1DD0     		beq	.L94
 339              	.LVL12:
 174:VS4210/VX_OSD_Simple.c ****     {
 340              		.loc 1 174 0
 341 0072 022B     		cmp	r3, #2
 342 0074 27D0     		beq	.L95
 187:VS4210/VX_OSD_Simple.c ****     {
 343              		.loc 1 187 0
 344 0076 032B     		cmp	r3, #3
 345 0078 31D0     		beq	.L96
 200:VS4210/VX_OSD_Simple.c ****     {
 346              		.loc 1 200 0
 347 007a 102B     		cmp	r3, #16
ARM GAS  /tmp/ccxioO8H.s 			page 19


 348 007c 3BD0     		beq	.L97
 255:VS4210/VX_OSD_Simple.c ****     {
 349              		.loc 1 255 0
 350 007e 202B     		cmp	r3, #32
 351 0080 72D0     		beq	.L98
 310:VS4210/VX_OSD_Simple.c ****     {
 352              		.loc 1 310 0
 353 0082 402B     		cmp	r3, #64
 354 0084 00F0A780 		beq	.L99
 339:VS4210/VX_OSD_Simple.c ****     {
 355              		.loc 1 339 0
 356 0088 502B     		cmp	r3, #80
 357 008a 00F0BD80 		beq	.L100
 368:VS4210/VX_OSD_Simple.c ****     {
 358              		.loc 1 368 0
 359 008e 303B     		subs	r3, r3, #48
 360 0090 0F2B     		cmp	r3, #15
 361 0092 00F20481 		bhi	.L46
 370:VS4210/VX_OSD_Simple.c ****         {
 362              		.loc 1 370 0
 363 0096 0028     		cmp	r0, #0
 364 0098 40F0D580 		bne	.L47
 372:VS4210/VX_OSD_Simple.c ****             {
 365              		.loc 1 372 0
 366 009c 8A4B     		ldr	r3, .L133+4
 367 009e 1B78     		ldrb	r3, [r3]	@ zero_extendqisi2
 368 00a0 012B     		cmp	r3, #1
 369 00a2 00F0CC80 		beq	.L101
 380:VS4210/VX_OSD_Simple.c ****             }
 370              		.loc 1 380 0
 371 00a6 2527     		movs	r7, #37
 379:VS4210/VX_OSD_Simple.c ****                 iy = Mode6_w0_720P_param[1] ;
 372              		.loc 1 379 0
 373 00a8 4FF0F40A 		mov	r10, #244
 374 00ac BBE7     		b	.L30
 375              	.L94:
 163:VS4210/VX_OSD_Simple.c ****         {
 376              		.loc 1 163 0
 377 00ae 864B     		ldr	r3, .L133+4
 378 00b0 1B78     		ldrb	r3, [r3]	@ zero_extendqisi2
 379 00b2 012B     		cmp	r3, #1
 380 00b4 03D0     		beq	.L102
 171:VS4210/VX_OSD_Simple.c ****         }
 381              		.loc 1 171 0
 382 00b6 2527     		movs	r7, #37
 170:VS4210/VX_OSD_Simple.c ****             iy = Mode0_720P_param[1] ;
 383              		.loc 1 170 0
 384 00b8 4FF0F40A 		mov	r10, #244
 385 00bc B3E7     		b	.L30
 386              	.L102:
 166:VS4210/VX_OSD_Simple.c ****         }
 387              		.loc 1 166 0
 388 00be 3D27     		movs	r7, #61
 165:VS4210/VX_OSD_Simple.c ****             iy = Mode0_1080P_param[1] ;
 389              		.loc 1 165 0
 390 00c0 4FF0B40A 		mov	r10, #180
 391 00c4 AFE7     		b	.L30
ARM GAS  /tmp/ccxioO8H.s 			page 20


 392              	.L95:
 176:VS4210/VX_OSD_Simple.c ****         {
 393              		.loc 1 176 0
 394 00c6 804B     		ldr	r3, .L133+4
 395 00c8 1B78     		ldrb	r3, [r3]	@ zero_extendqisi2
 396 00ca 012B     		cmp	r3, #1
 397 00cc 03D0     		beq	.L103
 184:VS4210/VX_OSD_Simple.c ****         }
 398              		.loc 1 184 0
 399 00ce 2527     		movs	r7, #37
 183:VS4210/VX_OSD_Simple.c ****             iy = Mode0_720P_param[1] ;
 400              		.loc 1 183 0
 401 00d0 4FF0F40A 		mov	r10, #244
 402 00d4 A7E7     		b	.L30
 403              	.L103:
 179:VS4210/VX_OSD_Simple.c ****         }
 404              		.loc 1 179 0
 405 00d6 3D27     		movs	r7, #61
 178:VS4210/VX_OSD_Simple.c ****             iy = Mode0_1080P_param[1] ;
 406              		.loc 1 178 0
 407 00d8 4FF0B40A 		mov	r10, #180
 408 00dc A3E7     		b	.L30
 409              	.L96:
 189:VS4210/VX_OSD_Simple.c ****         {
 410              		.loc 1 189 0
 411 00de 7A4B     		ldr	r3, .L133+4
 412 00e0 1B78     		ldrb	r3, [r3]	@ zero_extendqisi2
 413 00e2 012B     		cmp	r3, #1
 414 00e4 03D0     		beq	.L104
 197:VS4210/VX_OSD_Simple.c ****         }
 415              		.loc 1 197 0
 416 00e6 2527     		movs	r7, #37
 196:VS4210/VX_OSD_Simple.c ****             iy = Mode0_720P_param[1] ;
 417              		.loc 1 196 0
 418 00e8 4FF0F40A 		mov	r10, #244
 419 00ec 9BE7     		b	.L30
 420              	.L104:
 192:VS4210/VX_OSD_Simple.c ****         }
 421              		.loc 1 192 0
 422 00ee 3D27     		movs	r7, #61
 191:VS4210/VX_OSD_Simple.c ****             iy = Mode0_1080P_param[1] ;
 423              		.loc 1 191 0
 424 00f0 4FF0B40A 		mov	r10, #180
 425 00f4 97E7     		b	.L30
 426              	.L97:
 202:VS4210/VX_OSD_Simple.c ****         {
 427              		.loc 1 202 0
 428 00f6 58B9     		cbnz	r0, .L35
 204:VS4210/VX_OSD_Simple.c ****             {
 429              		.loc 1 204 0
 430 00f8 734B     		ldr	r3, .L133+4
 431 00fa 1B78     		ldrb	r3, [r3]	@ zero_extendqisi2
 432 00fc 012B     		cmp	r3, #1
 433 00fe 03D0     		beq	.L105
 212:VS4210/VX_OSD_Simple.c ****             }
 434              		.loc 1 212 0
 435 0100 2527     		movs	r7, #37
ARM GAS  /tmp/ccxioO8H.s 			page 21


 211:VS4210/VX_OSD_Simple.c ****                 iy = Mode1_w0_720P_param[1] ;
 436              		.loc 1 211 0
 437 0102 4FF0F40A 		mov	r10, #244
 438 0106 8EE7     		b	.L30
 439              	.L105:
 207:VS4210/VX_OSD_Simple.c ****             }
 440              		.loc 1 207 0
 441 0108 3D27     		movs	r7, #61
 206:VS4210/VX_OSD_Simple.c ****                 iy = Mode1_w0_1080P_param[1] ;
 442              		.loc 1 206 0
 443 010a 4FF0B40A 		mov	r10, #180
 444 010e 8AE7     		b	.L30
 445              	.L35:
 215:VS4210/VX_OSD_Simple.c ****         {
 446              		.loc 1 215 0
 447 0110 0128     		cmp	r0, #1
 448 0112 0AD0     		beq	.L106
 228:VS4210/VX_OSD_Simple.c ****         {
 449              		.loc 1 228 0
 450 0114 0228     		cmp	r0, #2
 451 0116 14D0     		beq	.L107
 243:VS4210/VX_OSD_Simple.c ****             {
 452              		.loc 1 243 0
 453 0118 6B4B     		ldr	r3, .L133+4
 454 011a 1B78     		ldrb	r3, [r3]	@ zero_extendqisi2
 455 011c 012B     		cmp	r3, #1
 456 011e 1ED0     		beq	.L108
 251:VS4210/VX_OSD_Simple.c ****             }
 457              		.loc 1 251 0
 458 0120 40F29117 		movw	r7, #401
 250:VS4210/VX_OSD_Simple.c ****                 iy = Mode1_w3_720P_param[1] ;
 459              		.loc 1 250 0
 460 0124 40F2763A 		movw	r10, #886
 461 0128 7DE7     		b	.L30
 462              	.L106:
 217:VS4210/VX_OSD_Simple.c ****             {
 463              		.loc 1 217 0
 464 012a 674B     		ldr	r3, .L133+4
 465 012c 1B78     		ldrb	r3, [r3]	@ zero_extendqisi2
 466 012e 012B     		cmp	r3, #1
 467 0130 03D0     		beq	.L109
 225:VS4210/VX_OSD_Simple.c ****             }
 468              		.loc 1 225 0
 469 0132 2527     		movs	r7, #37
 224:VS4210/VX_OSD_Simple.c ****                 iy = Mode1_w1_720P_param[1] ;
 470              		.loc 1 224 0
 471 0134 40F2763A 		movw	r10, #886
 472 0138 75E7     		b	.L30
 473              	.L109:
 220:VS4210/VX_OSD_Simple.c ****             }
 474              		.loc 1 220 0
 475 013a 3D27     		movs	r7, #61
 219:VS4210/VX_OSD_Simple.c ****                 iy = Mode1_w1_1080P_param[1] ;
 476              		.loc 1 219 0
 477 013c 40F2744A 		movw	r10, #1140
 478 0140 71E7     		b	.L30
 479              	.L107:
ARM GAS  /tmp/ccxioO8H.s 			page 22


 230:VS4210/VX_OSD_Simple.c ****             {
 480              		.loc 1 230 0
 481 0142 614B     		ldr	r3, .L133+4
 482 0144 1B78     		ldrb	r3, [r3]	@ zero_extendqisi2
 483 0146 012B     		cmp	r3, #1
 484 0148 04D0     		beq	.L110
 238:VS4210/VX_OSD_Simple.c ****             }
 485              		.loc 1 238 0
 486 014a 40F29117 		movw	r7, #401
 237:VS4210/VX_OSD_Simple.c ****                 iy = Mode1_w2_720P_param[1] ;
 487              		.loc 1 237 0
 488 014e 4FF0F40A 		mov	r10, #244
 489 0152 68E7     		b	.L30
 490              	.L110:
 233:VS4210/VX_OSD_Simple.c ****             }
 491              		.loc 1 233 0
 492 0154 40F25B27 		movw	r7, #603
 232:VS4210/VX_OSD_Simple.c ****                 iy = Mode1_w2_1080P_param[1] ;
 493              		.loc 1 232 0
 494 0158 4FF0B40A 		mov	r10, #180
 495 015c 63E7     		b	.L30
 496              	.L108:
 246:VS4210/VX_OSD_Simple.c ****             }
 497              		.loc 1 246 0
 498 015e 40F25B27 		movw	r7, #603
 245:VS4210/VX_OSD_Simple.c ****                 iy = Mode1_w3_1080P_param[1] ;
 499              		.loc 1 245 0
 500 0162 40F2744A 		movw	r10, #1140
 501 0166 5EE7     		b	.L30
 502              	.L98:
 257:VS4210/VX_OSD_Simple.c ****         {
 503              		.loc 1 257 0
 504 0168 58B9     		cbnz	r0, .L39
 259:VS4210/VX_OSD_Simple.c ****             {
 505              		.loc 1 259 0
 506 016a 574B     		ldr	r3, .L133+4
 507 016c 1B78     		ldrb	r3, [r3]	@ zero_extendqisi2
 508 016e 012B     		cmp	r3, #1
 509 0170 03D0     		beq	.L111
 267:VS4210/VX_OSD_Simple.c ****             }
 510              		.loc 1 267 0
 511 0172 2527     		movs	r7, #37
 266:VS4210/VX_OSD_Simple.c ****                 iy = Mode2_w0_720P_param[1] ;
 512              		.loc 1 266 0
 513 0174 4FF0F40A 		mov	r10, #244
 514 0178 55E7     		b	.L30
 515              	.L111:
 262:VS4210/VX_OSD_Simple.c ****             }
 516              		.loc 1 262 0
 517 017a 3D27     		movs	r7, #61
 261:VS4210/VX_OSD_Simple.c ****                 iy = Mode2_w0_1080P_param[1] ;
 518              		.loc 1 261 0
 519 017c 4FF0B40A 		mov	r10, #180
 520 0180 51E7     		b	.L30
 521              	.L39:
 270:VS4210/VX_OSD_Simple.c ****         {
 522              		.loc 1 270 0
ARM GAS  /tmp/ccxioO8H.s 			page 23


 523 0182 0128     		cmp	r0, #1
 524 0184 09D0     		beq	.L112
 283:VS4210/VX_OSD_Simple.c ****         {
 525              		.loc 1 283 0
 526 0186 0228     		cmp	r0, #2
 527 0188 13D0     		beq	.L113
 298:VS4210/VX_OSD_Simple.c ****             {
 528              		.loc 1 298 0
 529 018a 4F4B     		ldr	r3, .L133+4
 530 018c 1B78     		ldrb	r3, [r3]	@ zero_extendqisi2
 531 018e 012B     		cmp	r3, #1
 532 0190 1DD0     		beq	.L114
 306:VS4210/VX_OSD_Simple.c ****             }
 533              		.loc 1 306 0
 534 0192 2527     		movs	r7, #37
 305:VS4210/VX_OSD_Simple.c ****                 iy = Mode2_w3_720P_param[1] ;
 535              		.loc 1 305 0
 536 0194 40F2B64A 		movw	r10, #1206
 537 0198 45E7     		b	.L30
 538              	.L112:
 272:VS4210/VX_OSD_Simple.c ****             {
 539              		.loc 1 272 0
 540 019a 4B4B     		ldr	r3, .L133+4
 541 019c 1B78     		ldrb	r3, [r3]	@ zero_extendqisi2
 542 019e 012B     		cmp	r3, #1
 543 01a0 03D0     		beq	.L115
 280:VS4210/VX_OSD_Simple.c ****             }
 544              		.loc 1 280 0
 545 01a2 2527     		movs	r7, #37
 279:VS4210/VX_OSD_Simple.c ****                 iy = Mode2_w1_720P_param[1] ;
 546              		.loc 1 279 0
 547 01a4 40F2362A 		movw	r10, #566
 548 01a8 3DE7     		b	.L30
 549              	.L115:
 275:VS4210/VX_OSD_Simple.c ****             }
 550              		.loc 1 275 0
 551 01aa 3D27     		movs	r7, #61
 274:VS4210/VX_OSD_Simple.c ****                 iy = Mode2_w1_1080P_param[1] ;
 552              		.loc 1 274 0
 553 01ac 4FF4267A 		mov	r10, #664
 554 01b0 39E7     		b	.L30
 555              	.L113:
 285:VS4210/VX_OSD_Simple.c ****             {
 556              		.loc 1 285 0
 557 01b2 454B     		ldr	r3, .L133+4
 558 01b4 1B78     		ldrb	r3, [r3]	@ zero_extendqisi2
 559 01b6 012B     		cmp	r3, #1
 560 01b8 04D0     		beq	.L116
 293:VS4210/VX_OSD_Simple.c ****             }
 561              		.loc 1 293 0
 562 01ba 40F29117 		movw	r7, #401
 292:VS4210/VX_OSD_Simple.c ****                 iy = Mode2_w2_720P_param[1] ;
 563              		.loc 1 292 0
 564 01be 40F2362A 		movw	r10, #566
 565 01c2 30E7     		b	.L30
 566              	.L116:
 288:VS4210/VX_OSD_Simple.c ****             }
ARM GAS  /tmp/ccxioO8H.s 			page 24


 567              		.loc 1 288 0
 568 01c4 40F25B27 		movw	r7, #603
 287:VS4210/VX_OSD_Simple.c ****                 iy = Mode2_w2_1080P_param[1] ;
 569              		.loc 1 287 0
 570 01c8 4FF4267A 		mov	r10, #664
 571 01cc 2BE7     		b	.L30
 572              	.L114:
 301:VS4210/VX_OSD_Simple.c ****             }
 573              		.loc 1 301 0
 574 01ce 3D27     		movs	r7, #61
 300:VS4210/VX_OSD_Simple.c ****                 iy = Mode2_w3_1080P_param[1] ;
 575              		.loc 1 300 0
 576 01d0 4FF4CB6A 		mov	r10, #1624
 577 01d4 27E7     		b	.L30
 578              	.L99:
 312:VS4210/VX_OSD_Simple.c ****         {
 579              		.loc 1 312 0
 580 01d6 58B9     		cbnz	r0, .L43
 314:VS4210/VX_OSD_Simple.c ****             {
 581              		.loc 1 314 0
 582 01d8 3B4B     		ldr	r3, .L133+4
 583 01da 1B78     		ldrb	r3, [r3]	@ zero_extendqisi2
 584 01dc 012B     		cmp	r3, #1
 585 01de 03D0     		beq	.L117
 322:VS4210/VX_OSD_Simple.c ****             }
 586              		.loc 1 322 0
 587 01e0 2527     		movs	r7, #37
 321:VS4210/VX_OSD_Simple.c ****                 iy = Mode12_w0_720P_param[1] ;
 588              		.loc 1 321 0
 589 01e2 4FF0F40A 		mov	r10, #244
 590 01e6 1EE7     		b	.L30
 591              	.L117:
 317:VS4210/VX_OSD_Simple.c ****             }
 592              		.loc 1 317 0
 593 01e8 3D27     		movs	r7, #61
 316:VS4210/VX_OSD_Simple.c ****                 iy = Mode12_w0_1080P_param[1] ;
 594              		.loc 1 316 0
 595 01ea 4FF0B40A 		mov	r10, #180
 596 01ee 1AE7     		b	.L30
 597              	.L43:
 327:VS4210/VX_OSD_Simple.c ****             {
 598              		.loc 1 327 0
 599 01f0 354B     		ldr	r3, .L133+4
 600 01f2 1B78     		ldrb	r3, [r3]	@ zero_extendqisi2
 601 01f4 012B     		cmp	r3, #1
 602 01f6 03D0     		beq	.L118
 335:VS4210/VX_OSD_Simple.c ****             }
 603              		.loc 1 335 0
 604 01f8 2527     		movs	r7, #37
 334:VS4210/VX_OSD_Simple.c ****                 iy = Mode12_w1_720P_param[1] ;
 605              		.loc 1 334 0
 606 01fa 40F2763A 		movw	r10, #886
 607 01fe 12E7     		b	.L30
 608              	.L118:
 330:VS4210/VX_OSD_Simple.c ****             }
 609              		.loc 1 330 0
 610 0200 3D27     		movs	r7, #61
ARM GAS  /tmp/ccxioO8H.s 			page 25


 329:VS4210/VX_OSD_Simple.c ****                 iy = Mode12_w1_1080P_param[1] ;
 611              		.loc 1 329 0
 612 0202 40F2744A 		movw	r10, #1140
 613 0206 0EE7     		b	.L30
 614              	.L100:
 341:VS4210/VX_OSD_Simple.c ****         {
 615              		.loc 1 341 0
 616 0208 58B9     		cbnz	r0, .L45
 343:VS4210/VX_OSD_Simple.c ****             {
 617              		.loc 1 343 0
 618 020a 2F4B     		ldr	r3, .L133+4
 619 020c 1B78     		ldrb	r3, [r3]	@ zero_extendqisi2
 620 020e 012B     		cmp	r3, #1
 621 0210 03D0     		beq	.L119
 351:VS4210/VX_OSD_Simple.c ****             }
 622              		.loc 1 351 0
 623 0212 2527     		movs	r7, #37
 350:VS4210/VX_OSD_Simple.c ****                 iy = Mode13_w0_720P_param[1] ;
 624              		.loc 1 350 0
 625 0214 4FF0F40A 		mov	r10, #244
 626 0218 05E7     		b	.L30
 627              	.L119:
 346:VS4210/VX_OSD_Simple.c ****             }
 628              		.loc 1 346 0
 629 021a 3D27     		movs	r7, #61
 345:VS4210/VX_OSD_Simple.c ****                 iy = Mode13_w0_1080P_param[1] ;
 630              		.loc 1 345 0
 631 021c 4FF0B40A 		mov	r10, #180
 632 0220 01E7     		b	.L30
 633              	.L45:
 356:VS4210/VX_OSD_Simple.c ****             {
 634              		.loc 1 356 0
 635 0222 294B     		ldr	r3, .L133+4
 636 0224 1B78     		ldrb	r3, [r3]	@ zero_extendqisi2
 637 0226 012B     		cmp	r3, #1
 638 0228 04D0     		beq	.L120
 364:VS4210/VX_OSD_Simple.c ****             }
 639              		.loc 1 364 0
 640 022a 40F29117 		movw	r7, #401
 363:VS4210/VX_OSD_Simple.c ****                 iy = Mode13_w1_720P_param[1] ;
 641              		.loc 1 363 0
 642 022e 4FF0F40A 		mov	r10, #244
 643 0232 F8E6     		b	.L30
 644              	.L120:
 359:VS4210/VX_OSD_Simple.c ****             }
 645              		.loc 1 359 0
 646 0234 40F25B27 		movw	r7, #603
 358:VS4210/VX_OSD_Simple.c ****                 iy = Mode13_w1_1080P_param[1] ;
 647              		.loc 1 358 0
 648 0238 4FF0B40A 		mov	r10, #180
 649 023c F3E6     		b	.L30
 650              	.L101:
 375:VS4210/VX_OSD_Simple.c ****             }
 651              		.loc 1 375 0
 652 023e 3D27     		movs	r7, #61
 374:VS4210/VX_OSD_Simple.c ****                 iy = Mode6_w0_1080P_param[1] ;
 653              		.loc 1 374 0
ARM GAS  /tmp/ccxioO8H.s 			page 26


 654 0240 4FF0B40A 		mov	r10, #180
 655 0244 EFE6     		b	.L30
 656              	.L47:
 383:VS4210/VX_OSD_Simple.c ****         {
 657              		.loc 1 383 0
 658 0246 0128     		cmp	r0, #1
 659 0248 0AD0     		beq	.L121
 396:VS4210/VX_OSD_Simple.c ****         {
 660              		.loc 1 396 0
 661 024a 0228     		cmp	r0, #2
 662 024c 14D0     		beq	.L122
 411:VS4210/VX_OSD_Simple.c ****             {
 663              		.loc 1 411 0
 664 024e 1E4B     		ldr	r3, .L133+4
 665 0250 1B78     		ldrb	r3, [r3]	@ zero_extendqisi2
 666 0252 012B     		cmp	r3, #1
 667 0254 1ED0     		beq	.L123
 419:VS4210/VX_OSD_Simple.c ****             }
 668              		.loc 1 419 0
 669 0256 4FF40277 		mov	r7, #520
 418:VS4210/VX_OSD_Simple.c ****                 iy = Mode6_w3_720P_param[1] ;
 670              		.loc 1 418 0
 671 025a 40F24A4A 		movw	r10, #1098
 672 025e E2E6     		b	.L30
 673              	.L121:
 385:VS4210/VX_OSD_Simple.c ****             {
 674              		.loc 1 385 0
 675 0260 194B     		ldr	r3, .L133+4
 676 0262 1B78     		ldrb	r3, [r3]	@ zero_extendqisi2
 677 0264 012B     		cmp	r3, #1
 678 0266 03D0     		beq	.L124
 393:VS4210/VX_OSD_Simple.c ****             }
 679              		.loc 1 393 0
 680 0268 2527     		movs	r7, #37
 392:VS4210/VX_OSD_Simple.c ****                 iy = Mode6_w1_720P_param[1] ;
 681              		.loc 1 392 0
 682 026a 40F24A4A 		movw	r10, #1098
 683 026e DAE6     		b	.L30
 684              	.L124:
 388:VS4210/VX_OSD_Simple.c ****             }
 685              		.loc 1 388 0
 686 0270 3D27     		movs	r7, #61
 387:VS4210/VX_OSD_Simple.c ****                 iy = Mode6_w1_1080P_param[1] ;
 687              		.loc 1 387 0
 688 0272 40F2B45A 		movw	r10, #1460
 689 0276 D6E6     		b	.L30
 690              	.L122:
 398:VS4210/VX_OSD_Simple.c ****             {
 691              		.loc 1 398 0
 692 0278 134B     		ldr	r3, .L133+4
 693 027a 1B78     		ldrb	r3, [r3]	@ zero_extendqisi2
 694 027c 012B     		cmp	r3, #1
 695 027e 04D0     		beq	.L125
 406:VS4210/VX_OSD_Simple.c ****             }
 696              		.loc 1 406 0
 697 0280 4FF48C77 		mov	r7, #280
 405:VS4210/VX_OSD_Simple.c ****                 iy = Mode6_w2_720P_param[1] ;
ARM GAS  /tmp/ccxioO8H.s 			page 27


 698              		.loc 1 405 0
 699 0284 40F24A4A 		movw	r10, #1098
 700 0288 CDE6     		b	.L30
 701              	.L125:
 401:VS4210/VX_OSD_Simple.c ****             }
 702              		.loc 1 401 0
 703 028a 4FF4D377 		mov	r7, #422
 400:VS4210/VX_OSD_Simple.c ****                 iy = Mode6_w2_1080P_param[1] ;
 704              		.loc 1 400 0
 705 028e 40F2B45A 		movw	r10, #1460
 706 0292 C8E6     		b	.L30
 707              	.L123:
 414:VS4210/VX_OSD_Simple.c ****             }
 708              		.loc 1 414 0
 709 0294 40F20F37 		movw	r7, #783
 413:VS4210/VX_OSD_Simple.c ****                 iy = Mode6_w3_1080P_param[1] ;
 710              		.loc 1 413 0
 711 0298 40F2B45A 		movw	r10, #1460
 712 029c C3E6     		b	.L30
 713              	.L46:
 423:VS4210/VX_OSD_Simple.c ****     {
 714              		.loc 1 423 0
 715 029e 602A     		cmp	r2, #96
 716 02a0 03D0     		beq	.L126
 455:VS4210/VX_OSD_Simple.c ****     }
 717              		.loc 1 455 0
 718 02a2 4027     		movs	r7, #64
 454:VS4210/VX_OSD_Simple.c ****         iy = 64 ;
 719              		.loc 1 454 0
 720 02a4 4FF0E00A 		mov	r10, #224
 721 02a8 BDE6     		b	.L30
 722              	.L126:
 425:VS4210/VX_OSD_Simple.c ****         {
 723              		.loc 1 425 0
 724 02aa 88B9     		cbnz	r0, .L50
 427:VS4210/VX_OSD_Simple.c ****             {
 725              		.loc 1 427 0
 726 02ac 064B     		ldr	r3, .L133+4
 727 02ae 1B78     		ldrb	r3, [r3]	@ zero_extendqisi2
 728 02b0 012B     		cmp	r3, #1
 729 02b2 03D0     		beq	.L127
 435:VS4210/VX_OSD_Simple.c ****             }
 730              		.loc 1 435 0
 731 02b4 2527     		movs	r7, #37
 434:VS4210/VX_OSD_Simple.c ****                 iy = Mode24_w0_720P_param[1] ;
 732              		.loc 1 434 0
 733 02b6 4FF0F40A 		mov	r10, #244
 734 02ba B4E6     		b	.L30
 735              	.L127:
 430:VS4210/VX_OSD_Simple.c ****             }
 736              		.loc 1 430 0
 737 02bc 3D27     		movs	r7, #61
 429:VS4210/VX_OSD_Simple.c ****                 iy = Mode24_w0_1080P_param[1] ;
 738              		.loc 1 429 0
 739 02be 4FF0B40A 		mov	r10, #180
 740 02c2 B0E6     		b	.L30
 741              	.L134:
ARM GAS  /tmp/ccxioO8H.s 			page 28


 742              		.align	2
 743              	.L133:
 744 02c4 00000000 		.word	u8gDrawOSDFlg
 745 02c8 00000000 		.word	gbVXIS_OuputSize
 746 02cc 00000000 		.word	MenuOSDonFlg
 747              	.L50:
 438:VS4210/VX_OSD_Simple.c ****         {
 748              		.loc 1 438 0
 749 02d0 0128     		cmp	r0, #1
 750 02d2 7FF4A8AE 		bne	.L30
 440:VS4210/VX_OSD_Simple.c ****             {
 751              		.loc 1 440 0
 752 02d6 7B4B     		ldr	r3, .L135
 753 02d8 1B78     		ldrb	r3, [r3]	@ zero_extendqisi2
 754 02da 012B     		cmp	r3, #1
 755 02dc 04D0     		beq	.L128
 448:VS4210/VX_OSD_Simple.c ****             }
 756              		.loc 1 448 0
 757 02de 40F20527 		movw	r7, #517
 447:VS4210/VX_OSD_Simple.c ****                 iy = Mode24_w1_720P_param[1] ;
 758              		.loc 1 447 0
 759 02e2 40F24A4A 		movw	r10, #1098
 760 02e6 9EE6     		b	.L30
 761              	.L128:
 443:VS4210/VX_OSD_Simple.c ****             }
 762              		.loc 1 443 0
 763 02e8 40F20D37 		movw	r7, #781
 442:VS4210/VX_OSD_Simple.c ****                 iy = Mode24_w1_1080P_param[1] ;
 764              		.loc 1 442 0
 765 02ec 40F2B45A 		movw	r10, #1460
 766 02f0 99E6     		b	.L30
 767              	.LVL13:
 768              	.L90:
 482:VS4210/VX_OSD_Simple.c ****         {
 769              		.loc 1 482 0
 770 02f2 1EBB     		cbnz	r6, .L129
 771              	.LVL14:
 772              	.L53:
 491:VS4210/VX_OSD_Simple.c ****         {
 773              		.loc 1 491 0
 774 02f4 002C     		cmp	r4, #0
 775 02f6 3FF4A0AE 		beq	.L51
 493:VS4210/VX_OSD_Simple.c ****             SetOsdStartAddress(_Bar1,0x50);
 776              		.loc 1 493 0
 777 02fa 0122     		movs	r2, #1
 778 02fc 98F80010 		ldrb	r1, [r8]	@ zero_extendqisi2
 779 0300 0520     		movs	r0, #5
 780 0302 FFF7FEFF 		bl	SetOsdSize
 781              	.LVL15:
 494:VS4210/VX_OSD_Simple.c ****             OsdDumpString(0x50,Str2);
 782              		.loc 1 494 0
 783 0306 5021     		movs	r1, #80
 784 0308 0520     		movs	r0, #5
 785 030a FFF7FEFF 		bl	SetOsdStartAddress
 786              	.LVL16:
 495:VS4210/VX_OSD_Simple.c ****             OsdDumpAttribute(0x50,Str2,_Color);
 787              		.loc 1 495 0
ARM GAS  /tmp/ccxioO8H.s 			page 29


 788 030e 4146     		mov	r1, r8
 789 0310 5020     		movs	r0, #80
 790 0312 FFF7FEFF 		bl	OsdDumpString
 791              	.LVL17:
 496:VS4210/VX_OSD_Simple.c ****             SetOsdPosition(_Bar1,ix,iy + 20 + OSDx2Flg*20 );
 792              		.loc 1 496 0
 793 0316 0722     		movs	r2, #7
 794 0318 4146     		mov	r1, r8
 795 031a 5020     		movs	r0, #80
 796 031c FFF7FEFF 		bl	OsdDumpAttribute
 797              	.LVL18:
 497:VS4210/VX_OSD_Simple.c ****         }
 798              		.loc 1 497 0
 799 0320 694B     		ldr	r3, .L135+4
 800 0322 1A78     		ldrb	r2, [r3]	@ zero_extendqisi2
 801 0324 02EB8202 		add	r2, r2, r2, lsl #2
 802 0328 9300     		lsls	r3, r2, #2
 803 032a FA18     		adds	r2, r7, r3
 804 032c 92B2     		uxth	r2, r2
 805 032e 1432     		adds	r2, r2, #20
 806 0330 92B2     		uxth	r2, r2
 807 0332 5146     		mov	r1, r10
 808 0334 0520     		movs	r0, #5
 809 0336 FFF7FEFF 		bl	SetOsdPosition
 810              	.LVL19:
 811 033a 7EE6     		b	.L51
 812              	.LVL20:
 813              	.L129:
 484:VS4210/VX_OSD_Simple.c ****             SetOsdStartAddress(_Title1,0x10);
 814              		.loc 1 484 0
 815 033c 0122     		movs	r2, #1
 816 033e 99F80010 		ldrb	r1, [r9]	@ zero_extendqisi2
 817              	.LVL21:
 818 0342 1046     		mov	r0, r2
 819              	.LVL22:
 820 0344 FFF7FEFF 		bl	SetOsdSize
 821              	.LVL23:
 485:VS4210/VX_OSD_Simple.c ****             OsdDumpString(0x10,Str1);
 822              		.loc 1 485 0
 823 0348 1021     		movs	r1, #16
 824 034a 0120     		movs	r0, #1
 825 034c FFF7FEFF 		bl	SetOsdStartAddress
 826              	.LVL24:
 486:VS4210/VX_OSD_Simple.c ****             OsdDumpAttribute(0x10,Str1,_Color);
 827              		.loc 1 486 0
 828 0350 4946     		mov	r1, r9
 829 0352 1020     		movs	r0, #16
 830 0354 FFF7FEFF 		bl	OsdDumpString
 831              	.LVL25:
 487:VS4210/VX_OSD_Simple.c ****             SetOsdPosition(_Title1,ix,iy);
 832              		.loc 1 487 0
 833 0358 0722     		movs	r2, #7
 834 035a 4946     		mov	r1, r9
 835 035c 1020     		movs	r0, #16
 836 035e FFF7FEFF 		bl	OsdDumpAttribute
 837              	.LVL26:
 488:VS4210/VX_OSD_Simple.c ****         }
ARM GAS  /tmp/ccxioO8H.s 			page 30


 838              		.loc 1 488 0
 839 0362 3A46     		mov	r2, r7
 840 0364 5146     		mov	r1, r10
 841 0366 0120     		movs	r0, #1
 842 0368 FFF7FEFF 		bl	SetOsdPosition
 843              	.LVL27:
 844 036c C2E7     		b	.L53
 845              	.LVL28:
 846              	.L91:
 502:VS4210/VX_OSD_Simple.c ****         {
 847              		.loc 1 502 0
 848 036e 1EBB     		cbnz	r6, .L130
 849              	.LVL29:
 850              	.L55:
 511:VS4210/VX_OSD_Simple.c ****         {
 851              		.loc 1 511 0
 852 0370 002C     		cmp	r4, #0
 853 0372 3FF462AE 		beq	.L51
 513:VS4210/VX_OSD_Simple.c ****             SetOsdStartAddress(_Bar2,0x60);
 854              		.loc 1 513 0
 855 0376 0122     		movs	r2, #1
 856 0378 98F80010 		ldrb	r1, [r8]	@ zero_extendqisi2
 857 037c 0620     		movs	r0, #6
 858 037e FFF7FEFF 		bl	SetOsdSize
 859              	.LVL30:
 514:VS4210/VX_OSD_Simple.c ****             OsdDumpString(0x60,Str2);
 860              		.loc 1 514 0
 861 0382 6021     		movs	r1, #96
 862 0384 0620     		movs	r0, #6
 863 0386 FFF7FEFF 		bl	SetOsdStartAddress
 864              	.LVL31:
 515:VS4210/VX_OSD_Simple.c ****             OsdDumpAttribute(0x60,Str2,_Color);
 865              		.loc 1 515 0
 866 038a 4146     		mov	r1, r8
 867 038c 6020     		movs	r0, #96
 868 038e FFF7FEFF 		bl	OsdDumpString
 869              	.LVL32:
 516:VS4210/VX_OSD_Simple.c ****             SetOsdPosition(_Bar2,ix,iy + 20 + OSDx2Flg*20);
 870              		.loc 1 516 0
 871 0392 0722     		movs	r2, #7
 872 0394 4146     		mov	r1, r8
 873 0396 6020     		movs	r0, #96
 874 0398 FFF7FEFF 		bl	OsdDumpAttribute
 875              	.LVL33:
 517:VS4210/VX_OSD_Simple.c ****         }
 876              		.loc 1 517 0
 877 039c 4A4B     		ldr	r3, .L135+4
 878 039e 1A78     		ldrb	r2, [r3]	@ zero_extendqisi2
 879 03a0 02EB8202 		add	r2, r2, r2, lsl #2
 880 03a4 9300     		lsls	r3, r2, #2
 881 03a6 FA18     		adds	r2, r7, r3
 882 03a8 92B2     		uxth	r2, r2
 883 03aa 1432     		adds	r2, r2, #20
 884 03ac 92B2     		uxth	r2, r2
 885 03ae 5146     		mov	r1, r10
 886 03b0 0620     		movs	r0, #6
 887 03b2 FFF7FEFF 		bl	SetOsdPosition
ARM GAS  /tmp/ccxioO8H.s 			page 31


 888              	.LVL34:
 889 03b6 40E6     		b	.L51
 890              	.LVL35:
 891              	.L130:
 504:VS4210/VX_OSD_Simple.c ****             SetOsdStartAddress(_Title1,0x20);
 892              		.loc 1 504 0
 893 03b8 0122     		movs	r2, #1
 894 03ba 99F80010 		ldrb	r1, [r9]	@ zero_extendqisi2
 895              	.LVL36:
 896 03be 0220     		movs	r0, #2
 897              	.LVL37:
 898 03c0 FFF7FEFF 		bl	SetOsdSize
 899              	.LVL38:
 505:VS4210/VX_OSD_Simple.c ****             OsdDumpString(0x20,Str1);
 900              		.loc 1 505 0
 901 03c4 2021     		movs	r1, #32
 902 03c6 0120     		movs	r0, #1
 903 03c8 FFF7FEFF 		bl	SetOsdStartAddress
 904              	.LVL39:
 506:VS4210/VX_OSD_Simple.c ****             OsdDumpAttribute(0x20,Str1,_Color);
 905              		.loc 1 506 0
 906 03cc 4946     		mov	r1, r9
 907 03ce 2020     		movs	r0, #32
 908 03d0 FFF7FEFF 		bl	OsdDumpString
 909              	.LVL40:
 507:VS4210/VX_OSD_Simple.c ****             SetOsdPosition(_Title2,ix,iy);
 910              		.loc 1 507 0
 911 03d4 0722     		movs	r2, #7
 912 03d6 4946     		mov	r1, r9
 913 03d8 2020     		movs	r0, #32
 914 03da FFF7FEFF 		bl	OsdDumpAttribute
 915              	.LVL41:
 508:VS4210/VX_OSD_Simple.c ****         }
 916              		.loc 1 508 0
 917 03de 3A46     		mov	r2, r7
 918 03e0 5146     		mov	r1, r10
 919 03e2 0220     		movs	r0, #2
 920 03e4 FFF7FEFF 		bl	SetOsdPosition
 921              	.LVL42:
 922 03e8 C2E7     		b	.L55
 923              	.LVL43:
 924              	.L92:
 522:VS4210/VX_OSD_Simple.c ****         {
 925              		.loc 1 522 0
 926 03ea 1EBB     		cbnz	r6, .L131
 927              	.LVL44:
 928              	.L56:
 531:VS4210/VX_OSD_Simple.c ****         {
 929              		.loc 1 531 0
 930 03ec 002C     		cmp	r4, #0
 931 03ee 3FF424AE 		beq	.L51
 533:VS4210/VX_OSD_Simple.c ****             SetOsdStartAddress(_Bar3,0x70);
 932              		.loc 1 533 0
 933 03f2 0122     		movs	r2, #1
 934 03f4 98F80010 		ldrb	r1, [r8]	@ zero_extendqisi2
 935 03f8 0720     		movs	r0, #7
 936 03fa FFF7FEFF 		bl	SetOsdSize
ARM GAS  /tmp/ccxioO8H.s 			page 32


 937              	.LVL45:
 534:VS4210/VX_OSD_Simple.c ****             OsdDumpString(0x70,Str2);
 938              		.loc 1 534 0
 939 03fe 7021     		movs	r1, #112
 940 0400 0720     		movs	r0, #7
 941 0402 FFF7FEFF 		bl	SetOsdStartAddress
 942              	.LVL46:
 535:VS4210/VX_OSD_Simple.c ****             OsdDumpAttribute(0x70,Str2,_Color);
 943              		.loc 1 535 0
 944 0406 4146     		mov	r1, r8
 945 0408 7020     		movs	r0, #112
 946 040a FFF7FEFF 		bl	OsdDumpString
 947              	.LVL47:
 536:VS4210/VX_OSD_Simple.c ****             SetOsdPosition(_Bar3,ix,iy + 20 + OSDx2Flg*20);
 948              		.loc 1 536 0
 949 040e 0722     		movs	r2, #7
 950 0410 4146     		mov	r1, r8
 951 0412 7020     		movs	r0, #112
 952 0414 FFF7FEFF 		bl	OsdDumpAttribute
 953              	.LVL48:
 537:VS4210/VX_OSD_Simple.c ****         }
 954              		.loc 1 537 0
 955 0418 2B4B     		ldr	r3, .L135+4
 956 041a 1B78     		ldrb	r3, [r3]	@ zero_extendqisi2
 957 041c 03EB8303 		add	r3, r3, r3, lsl #2
 958 0420 9A00     		lsls	r2, r3, #2
 959 0422 3A44     		add	r2, r2, r7
 960 0424 92B2     		uxth	r2, r2
 961 0426 1432     		adds	r2, r2, #20
 962 0428 92B2     		uxth	r2, r2
 963 042a 5146     		mov	r1, r10
 964 042c 0720     		movs	r0, #7
 965 042e FFF7FEFF 		bl	SetOsdPosition
 966              	.LVL49:
 967 0432 02E6     		b	.L51
 968              	.LVL50:
 969              	.L131:
 524:VS4210/VX_OSD_Simple.c ****             SetOsdStartAddress(_Title3,0x30);
 970              		.loc 1 524 0
 971 0434 0122     		movs	r2, #1
 972 0436 99F80010 		ldrb	r1, [r9]	@ zero_extendqisi2
 973              	.LVL51:
 974 043a 0320     		movs	r0, #3
 975              	.LVL52:
 976 043c FFF7FEFF 		bl	SetOsdSize
 977              	.LVL53:
 525:VS4210/VX_OSD_Simple.c ****             OsdDumpString(0x30,Str1);
 978              		.loc 1 525 0
 979 0440 3021     		movs	r1, #48
 980 0442 0320     		movs	r0, #3
 981 0444 FFF7FEFF 		bl	SetOsdStartAddress
 982              	.LVL54:
 526:VS4210/VX_OSD_Simple.c ****             OsdDumpAttribute(0x30,Str1,_Color);
 983              		.loc 1 526 0
 984 0448 4946     		mov	r1, r9
 985 044a 3020     		movs	r0, #48
 986 044c FFF7FEFF 		bl	OsdDumpString
ARM GAS  /tmp/ccxioO8H.s 			page 33


 987              	.LVL55:
 527:VS4210/VX_OSD_Simple.c ****             SetOsdPosition(_Title3,ix,iy);
 988              		.loc 1 527 0
 989 0450 0722     		movs	r2, #7
 990 0452 4946     		mov	r1, r9
 991 0454 3020     		movs	r0, #48
 992 0456 FFF7FEFF 		bl	OsdDumpAttribute
 993              	.LVL56:
 528:VS4210/VX_OSD_Simple.c ****         }
 994              		.loc 1 528 0
 995 045a 3A46     		mov	r2, r7
 996 045c 5146     		mov	r1, r10
 997 045e 0320     		movs	r0, #3
 998 0460 FFF7FEFF 		bl	SetOsdPosition
 999              	.LVL57:
 1000 0464 C2E7     		b	.L56
 1001              	.L93:
 545:VS4210/VX_OSD_Simple.c ****                 VXIS_fSetOsdOnOff(ch , _TitleOn | _BottomOn );
 1002              		.loc 1 545 0
 1003 0466 194B     		ldr	r3, .L135+8
 1004 0468 1B78     		ldrb	r3, [r3]	@ zero_extendqisi2
 1005 046a 2BB9     		cbnz	r3, .L58
 546:VS4210/VX_OSD_Simple.c ****             else
 1006              		.loc 1 546 0
 1007 046c 0521     		movs	r1, #5
 1008 046e 2846     		mov	r0, r5
 1009 0470 FFF7FEFF 		bl	VXIS_fSetOsdOnOff
 1010              	.LVL58:
 1011              	.L28:
 584:VS4210/VX_OSD_Simple.c **** 
 1012              		.loc 1 584 0
 1013 0474 BDE8F087 		pop	{r4, r5, r6, r7, r8, r9, r10, pc}
 1014              	.LVL59:
 1015              	.L58:
 548:VS4210/VX_OSD_Simple.c ****                 //VXIS_fSetOsdOnOff(ch , _ContentOn );
 1016              		.loc 1 548 0
 1017 0478 0721     		movs	r1, #7
 1018 047a 2846     		mov	r0, r5
 1019 047c FFF7FEFF 		bl	VXIS_fSetOsdOnOff
 1020              	.LVL60:
 1021 0480 F8E7     		b	.L28
 1022              	.L61:
 559:VS4210/VX_OSD_Simple.c ****             }
 1023              		.loc 1 559 0
 1024 0482 0221     		movs	r1, #2
 1025 0484 2846     		mov	r0, r5
 1026 0486 FFF7FEFF 		bl	VXIS_fSetOsdOnOff
 1027              	.LVL61:
 1028 048a F3E7     		b	.L28
 1029              	.L60:
 562:VS4210/VX_OSD_Simple.c ****         {
 1030              		.loc 1 562 0
 1031 048c 64B1     		cbz	r4, .L62
 564:VS4210/VX_OSD_Simple.c ****             {
 1032              		.loc 1 564 0
 1033 048e 0F4B     		ldr	r3, .L135+8
 1034 0490 1B78     		ldrb	r3, [r3]	@ zero_extendqisi2
ARM GAS  /tmp/ccxioO8H.s 			page 34


 1035 0492 23B9     		cbnz	r3, .L63
 566:VS4210/VX_OSD_Simple.c ****             }
 1036              		.loc 1 566 0
 1037 0494 0121     		movs	r1, #1
 1038 0496 2846     		mov	r0, r5
 1039 0498 FFF7FEFF 		bl	VXIS_fSetOsdOnOff
 1040              	.LVL62:
 1041 049c EAE7     		b	.L28
 1042              	.L63:
 570:VS4210/VX_OSD_Simple.c ****             }
 1043              		.loc 1 570 0
 1044 049e 0221     		movs	r1, #2
 1045 04a0 2846     		mov	r0, r5
 1046 04a2 FFF7FEFF 		bl	VXIS_fSetOsdOnOff
 1047              	.LVL63:
 1048 04a6 E5E7     		b	.L28
 1049              	.L62:
 575:VS4210/VX_OSD_Simple.c ****             {
 1050              		.loc 1 575 0
 1051 04a8 084B     		ldr	r3, .L135+8
 1052 04aa 1B78     		ldrb	r3, [r3]	@ zero_extendqisi2
 1053 04ac 23B1     		cbz	r3, .L132
 580:VS4210/VX_OSD_Simple.c ****             }
 1054              		.loc 1 580 0
 1055 04ae 0221     		movs	r1, #2
 1056 04b0 2846     		mov	r0, r5
 1057 04b2 FFF7FEFF 		bl	VXIS_fSetOsdOnOff
 1058              	.LVL64:
 584:VS4210/VX_OSD_Simple.c **** 
 1059              		.loc 1 584 0
 1060 04b6 DDE7     		b	.L28
 1061              	.L132:
 577:VS4210/VX_OSD_Simple.c ****             }
 1062              		.loc 1 577 0
 1063 04b8 0021     		movs	r1, #0
 1064 04ba 2846     		mov	r0, r5
 1065 04bc FFF7FEFF 		bl	VXIS_fSetOsdOnOff
 1066              	.LVL65:
 1067 04c0 D8E7     		b	.L28
 1068              	.L136:
 1069 04c2 00BF     		.align	2
 1070              	.L135:
 1071 04c4 00000000 		.word	gbVXIS_OuputSize
 1072 04c8 00000000 		.word	OSDx2Flg
 1073 04cc 00000000 		.word	MenuOSDonFlg
 1074              		.cfi_endproc
 1075              	.LFE68:
 1077              		.section	.text.VXIS_fShowInOutMode,"ax",%progbits
 1078              		.align	1
 1079              		.global	VXIS_fShowInOutMode
 1080              		.syntax unified
 1081              		.thumb
 1082              		.thumb_func
 1083              		.fpu softvfp
 1085              	VXIS_fShowInOutMode:
 1086              	.LFB70:
 661:VS4210/VX_OSD_Simple.c **** 
ARM GAS  /tmp/ccxioO8H.s 			page 35


 662:VS4210/VX_OSD_Simple.c **** /**
 663:VS4210/VX_OSD_Simple.c ****  * @brief Input resolution
 664:VS4210/VX_OSD_Simple.c ****  *
 665:VS4210/VX_OSD_Simple.c ****  * Input resolution on the screen display
 666:VS4210/VX_OSD_Simple.c ****  *
 667:VS4210/VX_OSD_Simple.c ****  * @param in_mode Input resolution
 668:VS4210/VX_OSD_Simple.c ****  * @param out_mode Output resolution
 669:VS4210/VX_OSD_Simple.c ****  * @return none
 670:VS4210/VX_OSD_Simple.c ****  */
 671:VS4210/VX_OSD_Simple.c **** void VXIS_fShowInOutMode( tByte ch ,  tByte in_mode,  tByte out_mode  )
 672:VS4210/VX_OSD_Simple.c **** {
 1087              		.loc 1 672 0
 1088              		.cfi_startproc
 1089              		@ args = 0, pretend = 0, frame = 24
 1090              		@ frame_needed = 0, uses_anonymous_args = 0
 1091              	.LVL66:
 1092 0000 70B5     		push	{r4, r5, r6, lr}
 1093              	.LCFI1:
 1094              		.cfi_def_cfa_offset 16
 1095              		.cfi_offset 4, -16
 1096              		.cfi_offset 5, -12
 1097              		.cfi_offset 6, -8
 1098              		.cfi_offset 14, -4
 1099 0002 86B0     		sub	sp, sp, #24
 1100              	.LCFI2:
 1101              		.cfi_def_cfa_offset 40
 1102 0004 0546     		mov	r5, r0
 1103 0006 0E46     		mov	r6, r1
 1104 0008 1446     		mov	r4, r2
 673:VS4210/VX_OSD_Simple.c ****     tcByte *ptr1 ;    
 674:VS4210/VX_OSD_Simple.c ****     tByte  OSD_CHx_param[7] ;
 675:VS4210/VX_OSD_Simple.c ****     tByte  pu8aOSDbar[11] ; 
 676:VS4210/VX_OSD_Simple.c ****     tByte chFix ;
 677:VS4210/VX_OSD_Simple.c **** 
 678:VS4210/VX_OSD_Simple.c ****     chFix = gaHDMI_MapWindowIndex[ch] ;
 1105              		.loc 1 678 0
 1106 000a 2A4B     		ldr	r3, .L156
 1107 000c 1A5C     		ldrb	r2, [r3, r0]	@ zero_extendqisi2
 1108              	.LVL67:
 679:VS4210/VX_OSD_Simple.c ****     ptr1 = &OSD_CH1_param[0] ;
 680:VS4210/VX_OSD_Simple.c **** 
 681:VS4210/VX_OSD_Simple.c ****     if (out_mode == VS4210_1080P_MODE0_w1 )
 1109              		.loc 1 681 0
 1110 000e 012C     		cmp	r4, #1
 1111 0010 0BD0     		beq	.L151
 682:VS4210/VX_OSD_Simple.c ****     {
 683:VS4210/VX_OSD_Simple.c ****         if (ch == 1 )
 684:VS4210/VX_OSD_Simple.c ****         {
 685:VS4210/VX_OSD_Simple.c ****             ptr1 = OSD_CH1_param ;
 686:VS4210/VX_OSD_Simple.c ****             chFix = 0 ;
 687:VS4210/VX_OSD_Simple.c ****         }
 688:VS4210/VX_OSD_Simple.c ****     }
 689:VS4210/VX_OSD_Simple.c ****     else if (out_mode == VS4210_1080P_MODE0_w2 )
 1112              		.loc 1 689 0
 1113 0012 022C     		cmp	r4, #2
 1114 0014 2DD0     		beq	.L152
 690:VS4210/VX_OSD_Simple.c ****     {
ARM GAS  /tmp/ccxioO8H.s 			page 36


 691:VS4210/VX_OSD_Simple.c ****         if (ch == 2 )
 692:VS4210/VX_OSD_Simple.c ****         {
 693:VS4210/VX_OSD_Simple.c ****             ptr1 = OSD_CH2_param ;
 694:VS4210/VX_OSD_Simple.c ****             chFix = 0 ;
 695:VS4210/VX_OSD_Simple.c ****         }
 696:VS4210/VX_OSD_Simple.c ****     }
 697:VS4210/VX_OSD_Simple.c ****     else if (out_mode == VS4210_1080P_MODE0_w3 )
 1115              		.loc 1 697 0
 1116 0016 032C     		cmp	r4, #3
 1117 0018 2FD0     		beq	.L153
 698:VS4210/VX_OSD_Simple.c ****     {
 699:VS4210/VX_OSD_Simple.c ****         if (ch == 3 )
 700:VS4210/VX_OSD_Simple.c ****         {
 701:VS4210/VX_OSD_Simple.c ****             ptr1 = OSD_CH3_param ;
 702:VS4210/VX_OSD_Simple.c ****             chFix = 0 ;
 703:VS4210/VX_OSD_Simple.c ****         }
 704:VS4210/VX_OSD_Simple.c ****     }
 705:VS4210/VX_OSD_Simple.c ****     else
 706:VS4210/VX_OSD_Simple.c ****     {
 707:VS4210/VX_OSD_Simple.c ****         if (chFix == 0 )
 1118              		.loc 1 707 0
 1119 001a 002A     		cmp	r2, #0
 1120 001c 3CD0     		beq	.L147
 708:VS4210/VX_OSD_Simple.c ****         {
 709:VS4210/VX_OSD_Simple.c ****             ptr1 = OSD_CH0_param ;
 710:VS4210/VX_OSD_Simple.c ****         }
 711:VS4210/VX_OSD_Simple.c ****         else  	if (chFix == 1 )
 1121              		.loc 1 711 0
 1122 001e 012A     		cmp	r2, #1
 1123 0020 3CD0     		beq	.L148
 712:VS4210/VX_OSD_Simple.c ****         {
 713:VS4210/VX_OSD_Simple.c ****             ptr1 = OSD_CH1_param ;
 714:VS4210/VX_OSD_Simple.c ****         }
 715:VS4210/VX_OSD_Simple.c ****         else  	if (chFix == 2 )
 1124              		.loc 1 715 0
 1125 0022 022A     		cmp	r2, #2
 1126 0024 2DD0     		beq	.L154
 716:VS4210/VX_OSD_Simple.c ****         {
 717:VS4210/VX_OSD_Simple.c ****             ptr1 = OSD_CH2_param ;
 718:VS4210/VX_OSD_Simple.c ****         }
 719:VS4210/VX_OSD_Simple.c ****         else
 720:VS4210/VX_OSD_Simple.c ****         {
 721:VS4210/VX_OSD_Simple.c ****             ptr1 = OSD_CH3_param ;
 1127              		.loc 1 721 0
 1128 0026 244B     		ldr	r3, .L156+4
 1129 0028 02E0     		b	.L139
 1130              	.L151:
 683:VS4210/VX_OSD_Simple.c ****         {
 1131              		.loc 1 683 0
 1132 002a 0128     		cmp	r0, #1
 1133 002c 2BD0     		beq	.L144
 679:VS4210/VX_OSD_Simple.c **** 
 1134              		.loc 1 679 0
 1135 002e 234B     		ldr	r3, .L156+8
 1136              	.LVL68:
 1137              	.L139:
 722:VS4210/VX_OSD_Simple.c ****         }
ARM GAS  /tmp/ccxioO8H.s 			page 37


 723:VS4210/VX_OSD_Simple.c ****     }
 724:VS4210/VX_OSD_Simple.c **** 
 725:VS4210/VX_OSD_Simple.c ****    if (gu8AudioMode == chFix  )
 1138              		.loc 1 725 0
 1139 0030 2349     		ldr	r1, .L156+12
 1140              	.LVL69:
 1141 0032 0978     		ldrb	r1, [r1]	@ zero_extendqisi2
 1142 0034 9142     		cmp	r1, r2
 1143 0036 33D0     		beq	.L155
 726:VS4210/VX_OSD_Simple.c ****     {
 727:VS4210/VX_OSD_Simple.c ****         memcpy(OSD_CHx_param , ptr1 , 6 ) ;
 728:VS4210/VX_OSD_Simple.c **** 	OSD_CHx_param[6] =	0x6C ;
 729:VS4210/VX_OSD_Simple.c ****     }
 730:VS4210/VX_OSD_Simple.c ****     else
 731:VS4210/VX_OSD_Simple.c ****     {
 732:VS4210/VX_OSD_Simple.c ****         memcpy(OSD_CHx_param , ptr1 , 7 ) ;
 1144              		.loc 1 732 0
 1145 0038 93E80300 		ldm	r3, {r0, r1}
 1146              	.LVL70:
 1147 003c 0490     		str	r0, [sp, #16]
 1148 003e ADF81410 		strh	r1, [sp, #20]	@ movhi
 1149 0042 090C     		lsrs	r1, r1, #16
 1150 0044 8DF81610 		strb	r1, [sp, #22]
 1151              	.LVL71:
 1152              	.L143:
 733:VS4210/VX_OSD_Simple.c ****     }
 734:VS4210/VX_OSD_Simple.c ****     
 735:VS4210/VX_OSD_Simple.c ****     GetconvertBarStr(in_mode ) ; 
 1153              		.loc 1 735 0
 1154 0048 3046     		mov	r0, r6
 1155 004a FFF7FEFF 		bl	GetconvertBarStr
 1156              	.LVL72:
 736:VS4210/VX_OSD_Simple.c ****     memcpy(pu8aOSDbar , ptcOSDbar , 11) ; 
 1157              		.loc 1 736 0
 1158 004e 1D4B     		ldr	r3, .L156+16
 1159 0050 1A68     		ldr	r2, [r3]
 1160 0052 01AB     		add	r3, sp, #4
 1161 0054 1068     		ldr	r0, [r2]	@ unaligned
 1162 0056 5168     		ldr	r1, [r2, #4]	@ unaligned
 1163 0058 03C3     		stmia	r3!, {r0, r1}
 1164 005a 1189     		ldrh	r1, [r2, #8]	@ unaligned
 1165 005c 927A     		ldrb	r2, [r2, #10]	@ zero_extendqisi2
 1166 005e 1980     		strh	r1, [r3]	@ unaligned
 1167 0060 9A70     		strb	r2, [r3, #2]
 737:VS4210/VX_OSD_Simple.c ****     VX_Write_OSD_In_OutString(ch , OSD_CHx_param, pu8aOSDbar ,out_mode) ;    
 1168              		.loc 1 737 0
 1169 0062 2346     		mov	r3, r4
 1170 0064 01AA     		add	r2, sp, #4
 1171 0066 04A9     		add	r1, sp, #16
 1172 0068 2846     		mov	r0, r5
 1173 006a FFF7FEFF 		bl	VX_Write_OSD_In_OutString
 1174              	.LVL73:
 738:VS4210/VX_OSD_Simple.c **** }
 1175              		.loc 1 738 0
 1176 006e 06B0     		add	sp, sp, #24
 1177              	.LCFI3:
 1178              		.cfi_remember_state
ARM GAS  /tmp/ccxioO8H.s 			page 38


 1179              		.cfi_def_cfa_offset 16
 1180              		@ sp needed
 1181 0070 70BD     		pop	{r4, r5, r6, pc}
 1182              	.LVL74:
 1183              	.L152:
 1184              	.LCFI4:
 1185              		.cfi_restore_state
 691:VS4210/VX_OSD_Simple.c ****         {
 1186              		.loc 1 691 0
 1187 0072 0228     		cmp	r0, #2
 1188 0074 0AD0     		beq	.L145
 679:VS4210/VX_OSD_Simple.c **** 
 1189              		.loc 1 679 0
 1190 0076 114B     		ldr	r3, .L156+8
 1191 0078 DAE7     		b	.L139
 1192              	.L153:
 699:VS4210/VX_OSD_Simple.c ****         {
 1193              		.loc 1 699 0
 1194 007a 0328     		cmp	r0, #3
 1195 007c 09D0     		beq	.L146
 679:VS4210/VX_OSD_Simple.c **** 
 1196              		.loc 1 679 0
 1197 007e 0F4B     		ldr	r3, .L156+8
 1198 0080 D6E7     		b	.L139
 1199              	.L154:
 717:VS4210/VX_OSD_Simple.c ****         }
 1200              		.loc 1 717 0
 1201 0082 114B     		ldr	r3, .L156+20
 1202 0084 D4E7     		b	.L139
 1203              	.L144:
 686:VS4210/VX_OSD_Simple.c ****         }
 1204              		.loc 1 686 0
 1205 0086 0022     		movs	r2, #0
 1206              	.LVL75:
 685:VS4210/VX_OSD_Simple.c ****             chFix = 0 ;
 1207              		.loc 1 685 0
 1208 0088 0C4B     		ldr	r3, .L156+8
 1209              	.LVL76:
 1210 008a D1E7     		b	.L139
 1211              	.LVL77:
 1212              	.L145:
 694:VS4210/VX_OSD_Simple.c ****         }
 1213              		.loc 1 694 0
 1214 008c 0022     		movs	r2, #0
 1215              	.LVL78:
 693:VS4210/VX_OSD_Simple.c ****             chFix = 0 ;
 1216              		.loc 1 693 0
 1217 008e 0E4B     		ldr	r3, .L156+20
 1218              	.LVL79:
 1219 0090 CEE7     		b	.L139
 1220              	.LVL80:
 1221              	.L146:
 702:VS4210/VX_OSD_Simple.c ****         }
 1222              		.loc 1 702 0
 1223 0092 0022     		movs	r2, #0
 1224              	.LVL81:
 701:VS4210/VX_OSD_Simple.c ****             chFix = 0 ;
ARM GAS  /tmp/ccxioO8H.s 			page 39


 1225              		.loc 1 701 0
 1226 0094 084B     		ldr	r3, .L156+4
 1227              	.LVL82:
 1228 0096 CBE7     		b	.L139
 1229              	.LVL83:
 1230              	.L147:
 709:VS4210/VX_OSD_Simple.c ****         }
 1231              		.loc 1 709 0
 1232 0098 0C4B     		ldr	r3, .L156+24
 1233 009a C9E7     		b	.L139
 1234              	.L148:
 713:VS4210/VX_OSD_Simple.c ****         }
 1235              		.loc 1 713 0
 1236 009c 074B     		ldr	r3, .L156+8
 1237 009e C7E7     		b	.L139
 1238              	.LVL84:
 1239              	.L155:
 727:VS4210/VX_OSD_Simple.c **** 	OSD_CHx_param[6] =	0x6C ;
 1240              		.loc 1 727 0
 1241 00a0 93E80300 		ldm	r3, {r0, r1}
 1242              	.LVL85:
 1243 00a4 0490     		str	r0, [sp, #16]
 1244 00a6 ADF81410 		strh	r1, [sp, #20]	@ movhi
 728:VS4210/VX_OSD_Simple.c ****     }
 1245              		.loc 1 728 0
 1246 00aa 6C23     		movs	r3, #108
 1247              	.LVL86:
 1248 00ac 8DF81630 		strb	r3, [sp, #22]
 1249 00b0 CAE7     		b	.L143
 1250              	.L157:
 1251 00b2 00BF     		.align	2
 1252              	.L156:
 1253 00b4 00000000 		.word	gaHDMI_MapWindowIndex
 1254 00b8 00000000 		.word	.LANCHOR22
 1255 00bc 00000000 		.word	.LANCHOR20
 1256 00c0 00000000 		.word	gu8AudioMode
 1257 00c4 00000000 		.word	ptcOSDbar
 1258 00c8 00000000 		.word	.LANCHOR21
 1259 00cc 00000000 		.word	.LANCHOR23
 1260              		.cfi_endproc
 1261              	.LFE70:
 1263              		.section	.text.VXIS_fShowInOutMode0Fast,"ax",%progbits
 1264              		.align	1
 1265              		.global	VXIS_fShowInOutMode0Fast
 1266              		.syntax unified
 1267              		.thumb
 1268              		.thumb_func
 1269              		.fpu softvfp
 1271              	VXIS_fShowInOutMode0Fast:
 1272              	.LFB71:
 739:VS4210/VX_OSD_Simple.c **** 
 740:VS4210/VX_OSD_Simple.c **** 
 741:VS4210/VX_OSD_Simple.c **** 
 742:VS4210/VX_OSD_Simple.c **** void VXIS_fShowInOutMode0Fast( tByte ch ,  tByte in_mode,  tByte out_mode  )
 743:VS4210/VX_OSD_Simple.c **** {
 1273              		.loc 1 743 0
 1274              		.cfi_startproc
ARM GAS  /tmp/ccxioO8H.s 			page 40


 1275              		@ args = 0, pretend = 0, frame = 24
 1276              		@ frame_needed = 0, uses_anonymous_args = 0
 1277              	.LVL87:
 1278 0000 30B5     		push	{r4, r5, lr}
 1279              	.LCFI5:
 1280              		.cfi_def_cfa_offset 12
 1281              		.cfi_offset 4, -12
 1282              		.cfi_offset 5, -8
 1283              		.cfi_offset 14, -4
 1284 0002 87B0     		sub	sp, sp, #28
 1285              	.LCFI6:
 1286              		.cfi_def_cfa_offset 40
 1287 0004 0D46     		mov	r5, r1
 1288 0006 1446     		mov	r4, r2
 744:VS4210/VX_OSD_Simple.c ****     tcByte *ptr1 ;
 745:VS4210/VX_OSD_Simple.c ****     tByte  OSD_CHx_param[7] ;
 746:VS4210/VX_OSD_Simple.c ****     tByte  pu8aOSDbar[11] ; 
 747:VS4210/VX_OSD_Simple.c ****     tByte  chFix ;
 748:VS4210/VX_OSD_Simple.c **** 
 749:VS4210/VX_OSD_Simple.c ****     if (ch == 0 )
 1289              		.loc 1 749 0
 1290 0008 38B1     		cbz	r0, .L160
 750:VS4210/VX_OSD_Simple.c ****     {
 751:VS4210/VX_OSD_Simple.c ****         ptr1 = OSD_CH0_param ;
 752:VS4210/VX_OSD_Simple.c ****     }
 753:VS4210/VX_OSD_Simple.c ****     else if (ch == 1 )
 1291              		.loc 1 753 0
 1292 000a 0128     		cmp	r0, #1
 1293 000c 23D0     		beq	.L161
 754:VS4210/VX_OSD_Simple.c ****     {
 755:VS4210/VX_OSD_Simple.c ****         ptr1 = OSD_CH1_param ;
 756:VS4210/VX_OSD_Simple.c ****     }
 757:VS4210/VX_OSD_Simple.c ****     else if (ch == 2 )
 1294              		.loc 1 757 0
 1295 000e 0228     		cmp	r0, #2
 1296 0010 01D0     		beq	.L164
 758:VS4210/VX_OSD_Simple.c ****     {
 759:VS4210/VX_OSD_Simple.c ****         ptr1 = OSD_CH2_param ;
 760:VS4210/VX_OSD_Simple.c ****     }
 761:VS4210/VX_OSD_Simple.c ****     else
 762:VS4210/VX_OSD_Simple.c ****     {
 763:VS4210/VX_OSD_Simple.c ****         ptr1 = OSD_CH3_param ;
 1297              		.loc 1 763 0
 1298 0012 124B     		ldr	r3, .L165
 1299 0014 02E0     		b	.L159
 1300              	.L164:
 759:VS4210/VX_OSD_Simple.c ****     }
 1301              		.loc 1 759 0
 1302 0016 124B     		ldr	r3, .L165+4
 1303 0018 00E0     		b	.L159
 1304              	.L160:
 751:VS4210/VX_OSD_Simple.c ****     }
 1305              		.loc 1 751 0
 1306 001a 124B     		ldr	r3, .L165+8
 1307              	.L159:
 1308              	.LVL88:
 764:VS4210/VX_OSD_Simple.c ****     }
ARM GAS  /tmp/ccxioO8H.s 			page 41


 765:VS4210/VX_OSD_Simple.c **** 
 766:VS4210/VX_OSD_Simple.c ****    if(1)//ryan@20201229   if (gu8AudioMode == ch )
 767:VS4210/VX_OSD_Simple.c ****     {
 768:VS4210/VX_OSD_Simple.c ****         memcpy(OSD_CHx_param , ptr1 , 6 ) ;        
 1309              		.loc 1 768 0
 1310 001c 93E80300 		ldm	r3, {r0, r1}
 1311              	.LVL89:
 1312 0020 0490     		str	r0, [sp, #16]
 1313 0022 ADF81410 		strh	r1, [sp, #20]	@ movhi
 769:VS4210/VX_OSD_Simple.c ****         OSD_CHx_param[6] =  0x6C ;
 1314              		.loc 1 769 0
 1315 0026 6C23     		movs	r3, #108
 1316              	.LVL90:
 1317 0028 8DF81630 		strb	r3, [sp, #22]
 1318              	.LVL91:
 770:VS4210/VX_OSD_Simple.c ****     }
 771:VS4210/VX_OSD_Simple.c ****     else
 772:VS4210/VX_OSD_Simple.c ****     {
 773:VS4210/VX_OSD_Simple.c ****         memcpy(OSD_CHx_param , ptr1 , 7 ) ;
 774:VS4210/VX_OSD_Simple.c ****     }
 775:VS4210/VX_OSD_Simple.c **** 
 776:VS4210/VX_OSD_Simple.c ****     chFix = 0  ;    
 777:VS4210/VX_OSD_Simple.c ****     GetconvertBarStr(in_mode ) ;     
 1319              		.loc 1 777 0
 1320 002c 2846     		mov	r0, r5
 1321 002e FFF7FEFF 		bl	GetconvertBarStr
 1322              	.LVL92:
 778:VS4210/VX_OSD_Simple.c ****     memcpy(pu8aOSDbar , ptcOSDbar , 11) ; 
 1323              		.loc 1 778 0
 1324 0032 0D4B     		ldr	r3, .L165+12
 1325 0034 1A68     		ldr	r2, [r3]
 1326 0036 01AB     		add	r3, sp, #4
 1327 0038 1068     		ldr	r0, [r2]	@ unaligned
 1328 003a 5168     		ldr	r1, [r2, #4]	@ unaligned
 1329 003c 03C3     		stmia	r3!, {r0, r1}
 1330 003e 1189     		ldrh	r1, [r2, #8]	@ unaligned
 1331 0040 927A     		ldrb	r2, [r2, #10]	@ zero_extendqisi2
 1332 0042 1980     		strh	r1, [r3]	@ unaligned
 1333 0044 9A70     		strb	r2, [r3, #2]
 779:VS4210/VX_OSD_Simple.c ****     VX_Write_OSD_In_OutString(chFix , OSD_CHx_param, pu8aOSDbar ,out_mode) ;
 1334              		.loc 1 779 0
 1335 0046 2346     		mov	r3, r4
 1336 0048 01AA     		add	r2, sp, #4
 1337 004a 04A9     		add	r1, sp, #16
 1338 004c 0020     		movs	r0, #0
 1339 004e FFF7FEFF 		bl	VX_Write_OSD_In_OutString
 1340              	.LVL93:
 780:VS4210/VX_OSD_Simple.c **** 
 781:VS4210/VX_OSD_Simple.c **** }
 1341              		.loc 1 781 0
 1342 0052 07B0     		add	sp, sp, #28
 1343              	.LCFI7:
 1344              		.cfi_remember_state
 1345              		.cfi_def_cfa_offset 12
 1346              		@ sp needed
 1347 0054 30BD     		pop	{r4, r5, pc}
 1348              	.LVL94:
ARM GAS  /tmp/ccxioO8H.s 			page 42


 1349              	.L161:
 1350              	.LCFI8:
 1351              		.cfi_restore_state
 755:VS4210/VX_OSD_Simple.c ****     }
 1352              		.loc 1 755 0
 1353 0056 054B     		ldr	r3, .L165+16
 1354 0058 E0E7     		b	.L159
 1355              	.L166:
 1356 005a 00BF     		.align	2
 1357              	.L165:
 1358 005c 00000000 		.word	.LANCHOR22
 1359 0060 00000000 		.word	.LANCHOR21
 1360 0064 00000000 		.word	.LANCHOR23
 1361 0068 00000000 		.word	ptcOSDbar
 1362 006c 00000000 		.word	.LANCHOR20
 1363              		.cfi_endproc
 1364              	.LFE71:
 1366              		.section	.text.OSD_Clear,"ax",%progbits
 1367              		.align	1
 1368              		.global	OSD_Clear
 1369              		.syntax unified
 1370              		.thumb
 1371              		.thumb_func
 1372              		.fpu softvfp
 1374              	OSD_Clear:
 1375              	.LFB72:
 782:VS4210/VX_OSD_Simple.c **** 
 783:VS4210/VX_OSD_Simple.c **** void OSD_Clear(tByte Win )
 784:VS4210/VX_OSD_Simple.c **** {
 1376              		.loc 1 784 0
 1377              		.cfi_startproc
 1378              		@ args = 0, pretend = 0, frame = 0
 1379              		@ frame_needed = 0, uses_anonymous_args = 0
 1380              	.LVL95:
 1381 0000 70B5     		push	{r4, r5, r6, lr}
 1382              	.LCFI9:
 1383              		.cfi_def_cfa_offset 16
 1384              		.cfi_offset 4, -16
 1385              		.cfi_offset 5, -12
 1386              		.cfi_offset 6, -8
 1387              		.cfi_offset 14, -4
 785:VS4210/VX_OSD_Simple.c ****     tByte temp53;
 786:VS4210/VX_OSD_Simple.c ****     tByte temp5E ;
 787:VS4210/VX_OSD_Simple.c ****     tByte temp2 ;
 788:VS4210/VX_OSD_Simple.c ****     tByte temp ;
 789:VS4210/VX_OSD_Simple.c **** 
 790:VS4210/VX_OSD_Simple.c ****     if (Win == 0 )
 1388              		.loc 1 790 0
 1389 0002 F0B1     		cbz	r0, .L175
 1390 0004 0446     		mov	r4, r0
 791:VS4210/VX_OSD_Simple.c ****     {
 792:VS4210/VX_OSD_Simple.c ****         SetOsdSize(_Title0,0,1);
 793:VS4210/VX_OSD_Simple.c ****         SetOsdSize(_Bar0,0,1);
 794:VS4210/VX_OSD_Simple.c ****     }
 795:VS4210/VX_OSD_Simple.c ****     else
 796:VS4210/VX_OSD_Simple.c ****     {
 797:VS4210/VX_OSD_Simple.c ****         temp2 = VXISI2CRead(0x53);
ARM GAS  /tmp/ccxioO8H.s 			page 43


 1391              		.loc 1 797 0
 1392 0006 5320     		movs	r0, #83
 1393              	.LVL96:
 1394 0008 FFF7FEFF 		bl	VXISI2CRead
 1395              	.LVL97:
 798:VS4210/VX_OSD_Simple.c ****         temp53 = temp2 & 0x3f ;
 1396              		.loc 1 798 0
 1397 000c 00F03F06 		and	r6, r0, #63
 1398              	.LVL98:
 799:VS4210/VX_OSD_Simple.c ****         temp2 = VXISI2CRead(0x5E);
 1399              		.loc 1 799 0
 1400 0010 5E20     		movs	r0, #94
 1401              	.LVL99:
 1402 0012 FFF7FEFF 		bl	VXISI2CRead
 1403              	.LVL100:
 800:VS4210/VX_OSD_Simple.c ****         temp5E = temp2 & 0x3f ;
 1404              		.loc 1 800 0
 1405 0016 00F03F05 		and	r5, r0, #63
 1406              	.LVL101:
 801:VS4210/VX_OSD_Simple.c **** 
 802:VS4210/VX_OSD_Simple.c ****         if (Win == 1 )
 1407              		.loc 1 802 0
 1408 001a 012C     		cmp	r4, #1
 1409 001c 1CD0     		beq	.L176
 803:VS4210/VX_OSD_Simple.c ****         {
 804:VS4210/VX_OSD_Simple.c ****             VXISI2CWrite(0x53,0x40|temp53 );
 805:VS4210/VX_OSD_Simple.c ****             VXISI2CWrite(0x5E,0x40|temp5E );
 806:VS4210/VX_OSD_Simple.c ****         }
 807:VS4210/VX_OSD_Simple.c ****         else if (Win == 2 )
 1410              		.loc 1 807 0
 1411 001e 022C     		cmp	r4, #2
 1412 0020 25D0     		beq	.L177
 808:VS4210/VX_OSD_Simple.c ****         {
 809:VS4210/VX_OSD_Simple.c ****             VXISI2CWrite(0x53,0x80|temp53 );
 810:VS4210/VX_OSD_Simple.c ****             VXISI2CWrite(0x5E,0x80|temp5E );
 811:VS4210/VX_OSD_Simple.c ****         }
 812:VS4210/VX_OSD_Simple.c ****         else if (Win == 3 )
 1413              		.loc 1 812 0
 1414 0022 032C     		cmp	r4, #3
 1415 0024 2ED0     		beq	.L178
 1416              	.LVL102:
 1417              	.L171:
 813:VS4210/VX_OSD_Simple.c ****         {
 814:VS4210/VX_OSD_Simple.c ****             VXISI2CWrite(0x53,0xC0|temp53 );
 815:VS4210/VX_OSD_Simple.c ****             VXISI2CWrite(0x5E,0xC0|temp5E );
 816:VS4210/VX_OSD_Simple.c ****         }
 817:VS4210/VX_OSD_Simple.c **** 
 818:VS4210/VX_OSD_Simple.c ****         temp=VXISI2CRead(0x51);
 1418              		.loc 1 818 0
 1419 0026 5120     		movs	r0, #81
 1420 0028 FFF7FEFF 		bl	VXISI2CRead
 1421              	.LVL103:
 819:VS4210/VX_OSD_Simple.c ****         temp=temp& 0x8 ;
 1422              		.loc 1 819 0
 1423 002c 00F00801 		and	r1, r0, #8
 1424              	.LVL104:
 820:VS4210/VX_OSD_Simple.c **** 
ARM GAS  /tmp/ccxioO8H.s 			page 44


 821:VS4210/VX_OSD_Simple.c ****         if (MenuOSDonFlg == 0 )
 1425              		.loc 1 821 0
 1426 0030 1C4B     		ldr	r3, .L180
 1427 0032 1B78     		ldrb	r3, [r3]	@ zero_extendqisi2
 1428 0034 8BB3     		cbz	r3, .L179
 822:VS4210/VX_OSD_Simple.c ****         {
 823:VS4210/VX_OSD_Simple.c ****             VXISI2CWrite(0x51,0x00 | temp );
 824:VS4210/VX_OSD_Simple.c ****         }
 825:VS4210/VX_OSD_Simple.c ****         else
 826:VS4210/VX_OSD_Simple.c ****         {
 827:VS4210/VX_OSD_Simple.c ****             VXISI2CWrite(0x51,_ContentOn | temp );
 1429              		.loc 1 827 0
 1430 0036 41F00201 		orr	r1, r1, #2
 1431              	.LVL105:
 1432 003a 5120     		movs	r0, #81
 1433              	.LVL106:
 1434 003c FFF7FEFF 		bl	VXISI2CWrite
 1435              	.LVL107:
 828:VS4210/VX_OSD_Simple.c ****         }
 829:VS4210/VX_OSD_Simple.c ****     }
 830:VS4210/VX_OSD_Simple.c **** }
 1436              		.loc 1 830 0
 1437 0040 09E0     		b	.L167
 1438              	.LVL108:
 1439              	.L175:
 792:VS4210/VX_OSD_Simple.c ****         SetOsdSize(_Bar0,0,1);
 1440              		.loc 1 792 0
 1441 0042 0122     		movs	r2, #1
 1442 0044 0021     		movs	r1, #0
 1443 0046 0846     		mov	r0, r1
 1444              	.LVL109:
 1445 0048 FFF7FEFF 		bl	SetOsdSize
 1446              	.LVL110:
 793:VS4210/VX_OSD_Simple.c ****     }
 1447              		.loc 1 793 0
 1448 004c 0122     		movs	r2, #1
 1449 004e 0021     		movs	r1, #0
 1450 0050 0420     		movs	r0, #4
 1451 0052 FFF7FEFF 		bl	SetOsdSize
 1452              	.LVL111:
 1453              	.L167:
 1454              		.loc 1 830 0
 1455 0056 70BD     		pop	{r4, r5, r6, pc}
 1456              	.LVL112:
 1457              	.L176:
 804:VS4210/VX_OSD_Simple.c ****             VXISI2CWrite(0x5E,0x40|temp5E );
 1458              		.loc 1 804 0
 1459 0058 46F04001 		orr	r1, r6, #64
 1460 005c 5320     		movs	r0, #83
 1461              	.LVL113:
 1462 005e FFF7FEFF 		bl	VXISI2CWrite
 1463              	.LVL114:
 805:VS4210/VX_OSD_Simple.c ****         }
 1464              		.loc 1 805 0
 1465 0062 45F04001 		orr	r1, r5, #64
 1466 0066 5E20     		movs	r0, #94
 1467 0068 FFF7FEFF 		bl	VXISI2CWrite
ARM GAS  /tmp/ccxioO8H.s 			page 45


 1468              	.LVL115:
 1469 006c DBE7     		b	.L171
 1470              	.LVL116:
 1471              	.L177:
 809:VS4210/VX_OSD_Simple.c ****             VXISI2CWrite(0x5E,0x80|temp5E );
 1472              		.loc 1 809 0
 1473 006e 46F08001 		orr	r1, r6, #128
 1474 0072 5320     		movs	r0, #83
 1475              	.LVL117:
 1476 0074 FFF7FEFF 		bl	VXISI2CWrite
 1477              	.LVL118:
 810:VS4210/VX_OSD_Simple.c ****         }
 1478              		.loc 1 810 0
 1479 0078 45F08001 		orr	r1, r5, #128
 1480 007c 5E20     		movs	r0, #94
 1481 007e FFF7FEFF 		bl	VXISI2CWrite
 1482              	.LVL119:
 1483 0082 D0E7     		b	.L171
 1484              	.LVL120:
 1485              	.L178:
 814:VS4210/VX_OSD_Simple.c ****             VXISI2CWrite(0x5E,0xC0|temp5E );
 1486              		.loc 1 814 0
 1487 0084 46F0C001 		orr	r1, r6, #192
 1488 0088 5320     		movs	r0, #83
 1489              	.LVL121:
 1490 008a FFF7FEFF 		bl	VXISI2CWrite
 1491              	.LVL122:
 815:VS4210/VX_OSD_Simple.c ****         }
 1492              		.loc 1 815 0
 1493 008e 45F0C001 		orr	r1, r5, #192
 1494 0092 5E20     		movs	r0, #94
 1495 0094 FFF7FEFF 		bl	VXISI2CWrite
 1496              	.LVL123:
 1497 0098 C5E7     		b	.L171
 1498              	.LVL124:
 1499              	.L179:
 823:VS4210/VX_OSD_Simple.c ****         }
 1500              		.loc 1 823 0
 1501 009a 5120     		movs	r0, #81
 1502 009c FFF7FEFF 		bl	VXISI2CWrite
 1503              	.LVL125:
 1504 00a0 D9E7     		b	.L167
 1505              	.L181:
 1506 00a2 00BF     		.align	2
 1507              	.L180:
 1508 00a4 00000000 		.word	MenuOSDonFlg
 1509              		.cfi_endproc
 1510              	.LFE72:
 1512              		.section	.text.OSD_Clear_4,"ax",%progbits
 1513              		.align	1
 1514              		.global	OSD_Clear_4
 1515              		.syntax unified
 1516              		.thumb
 1517              		.thumb_func
 1518              		.fpu softvfp
 1520              	OSD_Clear_4:
 1521              	.LFB73:
ARM GAS  /tmp/ccxioO8H.s 			page 46


 831:VS4210/VX_OSD_Simple.c **** 
 832:VS4210/VX_OSD_Simple.c **** void OSD_Clear_4(void )
 833:VS4210/VX_OSD_Simple.c **** {
 1522              		.loc 1 833 0
 1523              		.cfi_startproc
 1524              		@ args = 0, pretend = 0, frame = 0
 1525              		@ frame_needed = 0, uses_anonymous_args = 0
 1526 0000 08B5     		push	{r3, lr}
 1527              	.LCFI10:
 1528              		.cfi_def_cfa_offset 8
 1529              		.cfi_offset 3, -8
 1530              		.cfi_offset 14, -4
 834:VS4210/VX_OSD_Simple.c ****     OSD_Clear(3) ;
 1531              		.loc 1 834 0
 1532 0002 0320     		movs	r0, #3
 1533 0004 FFF7FEFF 		bl	OSD_Clear
 1534              	.LVL126:
 835:VS4210/VX_OSD_Simple.c **** }
 1535              		.loc 1 835 0
 1536 0008 08BD     		pop	{r3, pc}
 1537              		.cfi_endproc
 1538              	.LFE73:
 1540              		.section	.text.OSD_Clear_34,"ax",%progbits
 1541              		.align	1
 1542              		.global	OSD_Clear_34
 1543              		.syntax unified
 1544              		.thumb
 1545              		.thumb_func
 1546              		.fpu softvfp
 1548              	OSD_Clear_34:
 1549              	.LFB74:
 836:VS4210/VX_OSD_Simple.c **** 
 837:VS4210/VX_OSD_Simple.c **** void OSD_Clear_34(void )
 838:VS4210/VX_OSD_Simple.c **** {
 1550              		.loc 1 838 0
 1551              		.cfi_startproc
 1552              		@ args = 0, pretend = 0, frame = 0
 1553              		@ frame_needed = 0, uses_anonymous_args = 0
 1554 0000 10B5     		push	{r4, lr}
 1555              	.LCFI11:
 1556              		.cfi_def_cfa_offset 8
 1557              		.cfi_offset 4, -8
 1558              		.cfi_offset 14, -4
 1559              	.LVL127:
 839:VS4210/VX_OSD_Simple.c ****     tByte i ;
 840:VS4210/VX_OSD_Simple.c ****     for (i = 2 ; i < 4 ;i++)
 1560              		.loc 1 840 0
 1561 0002 0224     		movs	r4, #2
 1562 0004 04E0     		b	.L185
 1563              	.LVL128:
 1564              	.L186:
 841:VS4210/VX_OSD_Simple.c ****     {
 842:VS4210/VX_OSD_Simple.c ****         OSD_Clear(i) ;
 1565              		.loc 1 842 0 discriminator 3
 1566 0006 2046     		mov	r0, r4
 1567 0008 FFF7FEFF 		bl	OSD_Clear
 1568              	.LVL129:
ARM GAS  /tmp/ccxioO8H.s 			page 47


 840:VS4210/VX_OSD_Simple.c ****     {
 1569              		.loc 1 840 0 discriminator 3
 1570 000c 0134     		adds	r4, r4, #1
 1571              	.LVL130:
 1572 000e E4B2     		uxtb	r4, r4
 1573              	.LVL131:
 1574              	.L185:
 840:VS4210/VX_OSD_Simple.c ****     {
 1575              		.loc 1 840 0 is_stmt 0 discriminator 1
 1576 0010 032C     		cmp	r4, #3
 1577 0012 F8D9     		bls	.L186
 843:VS4210/VX_OSD_Simple.c ****     }
 844:VS4210/VX_OSD_Simple.c **** }
 1578              		.loc 1 844 0 is_stmt 1
 1579 0014 10BD     		pop	{r4, pc}
 1580              		.cfi_endproc
 1581              	.LFE74:
 1583              		.section	.text.OSD_Clear_234,"ax",%progbits
 1584              		.align	1
 1585              		.global	OSD_Clear_234
 1586              		.syntax unified
 1587              		.thumb
 1588              		.thumb_func
 1589              		.fpu softvfp
 1591              	OSD_Clear_234:
 1592              	.LFB75:
 845:VS4210/VX_OSD_Simple.c **** 
 846:VS4210/VX_OSD_Simple.c **** void OSD_Clear_234(void )
 847:VS4210/VX_OSD_Simple.c **** {
 1593              		.loc 1 847 0
 1594              		.cfi_startproc
 1595              		@ args = 0, pretend = 0, frame = 0
 1596              		@ frame_needed = 0, uses_anonymous_args = 0
 1597 0000 10B5     		push	{r4, lr}
 1598              	.LCFI12:
 1599              		.cfi_def_cfa_offset 8
 1600              		.cfi_offset 4, -8
 1601              		.cfi_offset 14, -4
 1602              	.LVL132:
 848:VS4210/VX_OSD_Simple.c ****     tByte i ;
 849:VS4210/VX_OSD_Simple.c ****     for (i = 1 ; i < 4 ;i++)
 1603              		.loc 1 849 0
 1604 0002 0124     		movs	r4, #1
 1605 0004 04E0     		b	.L189
 1606              	.LVL133:
 1607              	.L190:
 850:VS4210/VX_OSD_Simple.c ****     {
 851:VS4210/VX_OSD_Simple.c ****         OSD_Clear(i) ;
 1608              		.loc 1 851 0 discriminator 3
 1609 0006 2046     		mov	r0, r4
 1610 0008 FFF7FEFF 		bl	OSD_Clear
 1611              	.LVL134:
 849:VS4210/VX_OSD_Simple.c ****     {
 1612              		.loc 1 849 0 discriminator 3
 1613 000c 0134     		adds	r4, r4, #1
 1614              	.LVL135:
 1615 000e E4B2     		uxtb	r4, r4
ARM GAS  /tmp/ccxioO8H.s 			page 48


 1616              	.LVL136:
 1617              	.L189:
 849:VS4210/VX_OSD_Simple.c ****     {
 1618              		.loc 1 849 0 is_stmt 0 discriminator 1
 1619 0010 032C     		cmp	r4, #3
 1620 0012 F8D9     		bls	.L190
 852:VS4210/VX_OSD_Simple.c ****     }
 853:VS4210/VX_OSD_Simple.c **** }
 1621              		.loc 1 853 0 is_stmt 1
 1622 0014 10BD     		pop	{r4, pc}
 1623              		.cfi_endproc
 1624              	.LFE75:
 1626              		.section	.text.OSD_Clear_All,"ax",%progbits
 1627              		.align	1
 1628              		.global	OSD_Clear_All
 1629              		.syntax unified
 1630              		.thumb
 1631              		.thumb_func
 1632              		.fpu softvfp
 1634              	OSD_Clear_All:
 1635              	.LFB76:
 854:VS4210/VX_OSD_Simple.c **** 
 855:VS4210/VX_OSD_Simple.c **** void OSD_Clear_All(void )
 856:VS4210/VX_OSD_Simple.c **** {
 1636              		.loc 1 856 0
 1637              		.cfi_startproc
 1638              		@ args = 0, pretend = 0, frame = 0
 1639              		@ frame_needed = 0, uses_anonymous_args = 0
 1640 0000 10B5     		push	{r4, lr}
 1641              	.LCFI13:
 1642              		.cfi_def_cfa_offset 8
 1643              		.cfi_offset 4, -8
 1644              		.cfi_offset 14, -4
 1645              	.LVL137:
 857:VS4210/VX_OSD_Simple.c ****     tByte i ;
 858:VS4210/VX_OSD_Simple.c ****     for (i = 0 ; i < 4 ;i++)
 1646              		.loc 1 858 0
 1647 0002 0024     		movs	r4, #0
 1648 0004 04E0     		b	.L193
 1649              	.LVL138:
 1650              	.L194:
 859:VS4210/VX_OSD_Simple.c ****     {
 860:VS4210/VX_OSD_Simple.c ****         OSD_Clear(i) ;
 1651              		.loc 1 860 0 discriminator 3
 1652 0006 2046     		mov	r0, r4
 1653 0008 FFF7FEFF 		bl	OSD_Clear
 1654              	.LVL139:
 858:VS4210/VX_OSD_Simple.c ****     {
 1655              		.loc 1 858 0 discriminator 3
 1656 000c 0134     		adds	r4, r4, #1
 1657              	.LVL140:
 1658 000e E4B2     		uxtb	r4, r4
 1659              	.LVL141:
 1660              	.L193:
 858:VS4210/VX_OSD_Simple.c ****     {
 1661              		.loc 1 858 0 is_stmt 0 discriminator 1
 1662 0010 032C     		cmp	r4, #3
ARM GAS  /tmp/ccxioO8H.s 			page 49


 1663 0012 F8D9     		bls	.L194
 861:VS4210/VX_OSD_Simple.c ****     }
 862:VS4210/VX_OSD_Simple.c **** }
 1664              		.loc 1 862 0 is_stmt 1
 1665 0014 10BD     		pop	{r4, pc}
 1666              		.cfi_endproc
 1667              	.LFE76:
 1669              		.section	.text.osd_cont_write,"ax",%progbits
 1670              		.align	1
 1671              		.global	osd_cont_write
 1672              		.syntax unified
 1673              		.thumb
 1674              		.thumb_func
 1675              		.fpu softvfp
 1677              	osd_cont_write:
 1678              	.LFB77:
 863:VS4210/VX_OSD_Simple.c **** 
 864:VS4210/VX_OSD_Simple.c **** /*
 865:VS4210/VX_OSD_Simple.c **** void ClearAudioOSD(void)
 866:VS4210/VX_OSD_Simple.c **** {
 867:VS4210/VX_OSD_Simple.c ****     tByte i ;
 868:VS4210/VX_OSD_Simple.c ****     for (i = 0  ; i < HDMI_IN_NUMBER ; i++ )
 869:VS4210/VX_OSD_Simple.c ****     {
 870:VS4210/VX_OSD_Simple.c ****         VXIS_fShowInOutMode(gaHDMI_MapWindowIndex[i]  ,  gbVXIS_InputMode[i] , gbVXIS_OuputModeflg 
 871:VS4210/VX_OSD_Simple.c ****     }
 872:VS4210/VX_OSD_Simple.c **** }
 873:VS4210/VX_OSD_Simple.c **** 
 874:VS4210/VX_OSD_Simple.c **** void Clear1ChAudioOSD(tByte ch )
 875:VS4210/VX_OSD_Simple.c **** {
 876:VS4210/VX_OSD_Simple.c ****     VXIS_fShowInOutMode(gaHDMI_MapWindowIndex[ch]  ,  gbVXIS_InputMode[ch] , gbVXIS_OuputModeflg ) 
 877:VS4210/VX_OSD_Simple.c **** }
 878:VS4210/VX_OSD_Simple.c **** */
 879:VS4210/VX_OSD_Simple.c **** 
 880:VS4210/VX_OSD_Simple.c **** void osd_cont_write(unsigned char cw_dest, unsigned char init_addr, unsigned char num_of_data, cons
 881:VS4210/VX_OSD_Simple.c **** {////Extern OSD
 1679              		.loc 1 881 0
 1680              		.cfi_startproc
 1681              		@ args = 0, pretend = 0, frame = 256
 1682              		@ frame_needed = 0, uses_anonymous_args = 0
 1683              	.LVL142:
 1684 0000 10B5     		push	{r4, lr}
 1685              	.LCFI14:
 1686              		.cfi_def_cfa_offset 8
 1687              		.cfi_offset 4, -8
 1688              		.cfi_offset 14, -4
 1689 0002 C0B0     		sub	sp, sp, #256
 1690              	.LCFI15:
 1691              		.cfi_def_cfa_offset 264
 1692 0004 1446     		mov	r4, r2
 882:VS4210/VX_OSD_Simple.c ****     unsigned char wbuf[255] ;
 883:VS4210/VX_OSD_Simple.c ****     wbuf[0] = cw_dest ;
 1693              		.loc 1 883 0
 1694 0006 8DF80000 		strb	r0, [sp]
 884:VS4210/VX_OSD_Simple.c ****     wbuf[1] = init_addr ;
 1695              		.loc 1 884 0
 1696 000a 8DF80110 		strb	r1, [sp, #1]
 885:VS4210/VX_OSD_Simple.c ****     memcpy(&wbuf[2],buf_data ,num_of_data )  ;
ARM GAS  /tmp/ccxioO8H.s 			page 50


 1697              		.loc 1 885 0
 1698 000e 1946     		mov	r1, r3
 1699              	.LVL143:
 1700 0010 0DF10200 		add	r0, sp, #2
 1701              	.LVL144:
 1702 0014 FFF7FEFF 		bl	memcpy
 1703              	.LVL145:
 886:VS4210/VX_OSD_Simple.c ****     I2CMultiWrite(VS4210_ADDR, 0xFD, num_of_data +2, &wbuf[0]) ;
 1704              		.loc 1 886 0
 1705 0018 044B     		ldr	r3, .L198
 1706 001a 1878     		ldrb	r0, [r3]	@ zero_extendqisi2
 1707 001c A21C     		adds	r2, r4, #2
 1708 001e 6B46     		mov	r3, sp
 1709 0020 D2B2     		uxtb	r2, r2
 1710 0022 FD21     		movs	r1, #253
 1711 0024 FFF7FEFF 		bl	I2CMultiWrite
 1712              	.LVL146:
 887:VS4210/VX_OSD_Simple.c **** }
 1713              		.loc 1 887 0
 1714 0028 40B0     		add	sp, sp, #256
 1715              	.LCFI16:
 1716              		.cfi_def_cfa_offset 8
 1717              		@ sp needed
 1718 002a 10BD     		pop	{r4, pc}
 1719              	.L199:
 1720              		.align	2
 1721              	.L198:
 1722 002c 00000000 		.word	VS4210_ADDR
 1723              		.cfi_endproc
 1724              	.LFE77:
 1726              		.section	.text.VXOSD_UseFont_init,"ax",%progbits
 1727              		.align	1
 1728              		.global	VXOSD_UseFont_init
 1729              		.syntax unified
 1730              		.thumb
 1731              		.thumb_func
 1732              		.fpu softvfp
 1734              	VXOSD_UseFont_init:
 1735              	.LFB78:
 888:VS4210/VX_OSD_Simple.c **** 
 889:VS4210/VX_OSD_Simple.c **** //---------------------------------------------------------------------------
 890:VS4210/VX_OSD_Simple.c **** /**
 891:VS4210/VX_OSD_Simple.c ****  * @brief Initialize the custom font function
 892:VS4210/VX_OSD_Simple.c ****  *
 893:VS4210/VX_OSD_Simple.c ****  * Initialize the custom font data.
 894:VS4210/VX_OSD_Simple.c ****  *
 895:VS4210/VX_OSD_Simple.c ****  * @param Size, Number of custom fonts.
 896:VS4210/VX_OSD_Simple.c ****  * @param *UserDefineFont, Font data start position.
 897:VS4210/VX_OSD_Simple.c ****  * @return none
 898:VS4210/VX_OSD_Simple.c ****  */
 899:VS4210/VX_OSD_Simple.c **** void VXOSD_UseFont_init(tByte Size, tcByte *UserDefineFontPtr)
 900:VS4210/VX_OSD_Simple.c **** {//Extern OSD
 1736              		.loc 1 900 0
 1737              		.cfi_startproc
 1738              		@ args = 0, pretend = 0, frame = 0
 1739              		@ frame_needed = 0, uses_anonymous_args = 0
 1740              	.LVL147:
ARM GAS  /tmp/ccxioO8H.s 			page 51


 901:VS4210/VX_OSD_Simple.c ****     //16*20
 902:VS4210/VX_OSD_Simple.c ****     uint16_t FontIndex ;
 903:VS4210/VX_OSD_Simple.c ****     uint8_t  bytecommand, Haddr,Laddr ;
 904:VS4210/VX_OSD_Simple.c ****     uint16_t i  ;
 905:VS4210/VX_OSD_Simple.c ****     uint16_t FontAddr  ;
 906:VS4210/VX_OSD_Simple.c ****     uint8_t Size2 ;
 907:VS4210/VX_OSD_Simple.c **** 
 908:VS4210/VX_OSD_Simple.c ****     Size2 = Size * 2   ;
 909:VS4210/VX_OSD_Simple.c ****     if (Size < 64 )
 1741              		.loc 1 909 0
 1742 0000 3F28     		cmp	r0, #63
 1743 0002 05D8     		bhi	.L208
 900:VS4210/VX_OSD_Simple.c ****     //16*20
 1744              		.loc 1 900 0
 1745 0004 70B5     		push	{r4, r5, r6, lr}
 1746              	.LCFI17:
 1747              		.cfi_def_cfa_offset 16
 1748              		.cfi_offset 4, -16
 1749              		.cfi_offset 5, -12
 1750              		.cfi_offset 6, -8
 1751              		.cfi_offset 14, -4
 1752 0006 4500     		lsls	r5, r0, #1
 1753 0008 EDB2     		uxtb	r5, r5
 1754 000a 0E46     		mov	r6, r1
 910:VS4210/VX_OSD_Simple.c ****     {
 911:VS4210/VX_OSD_Simple.c ****         for ( i = 0 ; i< Size2 ; i++)   //
 1755              		.loc 1 911 0
 1756 000c 0024     		movs	r4, #0
 1757 000e 13E0     		b	.L201
 1758              	.L208:
 1759              	.LCFI18:
 1760              		.cfi_def_cfa_offset 0
 1761              		.cfi_restore 4
 1762              		.cfi_restore 5
 1763              		.cfi_restore 6
 1764              		.cfi_restore 14
 1765 0010 7047     		bx	lr
 1766              	.LVL148:
 1767              	.L203:
 1768              	.LCFI19:
 1769              		.cfi_def_cfa_offset 16
 1770              		.cfi_offset 4, -16
 1771              		.cfi_offset 5, -12
 1772              		.cfi_offset 6, -8
 1773              		.cfi_offset 14, -4
 912:VS4210/VX_OSD_Simple.c ****         {
 913:VS4210/VX_OSD_Simple.c ****             FontAddr = i * 10 ;  //WORD
 1774              		.loc 1 913 0 discriminator 3
 1775 0012 A200     		lsls	r2, r4, #2
 1776 0014 A318     		adds	r3, r4, r2
 1777 0016 5900     		lsls	r1, r3, #1
 1778 0018 89B2     		uxth	r1, r1
 1779              	.LVL149:
 914:VS4210/VX_OSD_Simple.c ****             FontIndex = i * 20 ; //BYTE
 1780              		.loc 1 914 0 discriminator 3
 1781 001a 2244     		add	r2, r2, r4
 1782 001c 9300     		lsls	r3, r2, #2
ARM GAS  /tmp/ccxioO8H.s 			page 52


 1783 001e 9BB2     		uxth	r3, r3
 1784              	.LVL150:
 915:VS4210/VX_OSD_Simple.c ****             Haddr = (uint8_t) ((FontAddr & 0x0F00) >> 8)  ;
 1785              		.loc 1 915 0 discriminator 3
 1786 0020 C1F30320 		ubfx	r0, r1, #8, #4
 1787              	.LVL151:
 916:VS4210/VX_OSD_Simple.c ****             Laddr = (uint8_t) (FontAddr & 0x00FF) ;
 917:VS4210/VX_OSD_Simple.c ****             bytecommand = 0x20 | Haddr ;
 918:VS4210/VX_OSD_Simple.c ****             osd_cont_write(bytecommand, Laddr, 20, &UserDefineFontPtr[FontIndex] );   // user defin
 1788              		.loc 1 918 0 discriminator 3
 1789 0024 3344     		add	r3, r3, r6
 1790              	.LVL152:
 1791 0026 1422     		movs	r2, #20
 1792              	.LVL153:
 1793 0028 01F0FE01 		and	r1, r1, #254
 1794              	.LVL154:
 1795 002c 40F02000 		orr	r0, r0, #32
 1796              	.LVL155:
 1797 0030 FFF7FEFF 		bl	osd_cont_write
 1798              	.LVL156:
 911:VS4210/VX_OSD_Simple.c ****         {
 1799              		.loc 1 911 0 discriminator 3
 1800 0034 0134     		adds	r4, r4, #1
 1801              	.LVL157:
 1802 0036 A4B2     		uxth	r4, r4
 1803              	.LVL158:
 1804              	.L201:
 911:VS4210/VX_OSD_Simple.c ****         {
 1805              		.loc 1 911 0 is_stmt 0 discriminator 1
 1806 0038 ABB2     		uxth	r3, r5
 1807 003a A342     		cmp	r3, r4
 1808 003c E9D8     		bhi	.L203
 919:VS4210/VX_OSD_Simple.c ****         }
 920:VS4210/VX_OSD_Simple.c ****     }
 921:VS4210/VX_OSD_Simple.c ****     else {
 922:VS4210/VX_OSD_Simple.c ****         //printf("Error ,  Size >64\r\n" ) ;
 923:VS4210/VX_OSD_Simple.c ****     }
 924:VS4210/VX_OSD_Simple.c **** }
 1809              		.loc 1 924 0 is_stmt 1
 1810 003e 70BD     		pop	{r4, r5, r6, pc}
 1811              		.cfi_endproc
 1812              	.LFE78:
 1814              		.section	.text.VXOSD_ShowExContent,"ax",%progbits
 1815              		.align	1
 1816              		.global	VXOSD_ShowExContent
 1817              		.syntax unified
 1818              		.thumb
 1819              		.thumb_func
 1820              		.fpu softvfp
 1822              	VXOSD_ShowExContent:
 1823              	.LFB79:
 925:VS4210/VX_OSD_Simple.c **** 
 926:VS4210/VX_OSD_Simple.c **** void VXOSD_ShowExContent(tByte *ptrExOsdContent, tByte index )
 927:VS4210/VX_OSD_Simple.c **** {
 1824              		.loc 1 927 0
 1825              		.cfi_startproc
 1826              		@ args = 0, pretend = 0, frame = 8
ARM GAS  /tmp/ccxioO8H.s 			page 53


 1827              		@ frame_needed = 0, uses_anonymous_args = 0
 1828              	.LVL159:
 1829 0000 30B5     		push	{r4, r5, lr}
 1830              	.LCFI20:
 1831              		.cfi_def_cfa_offset 12
 1832              		.cfi_offset 4, -12
 1833              		.cfi_offset 5, -8
 1834              		.cfi_offset 14, -4
 1835 0002 83B0     		sub	sp, sp, #12
 1836              	.LCFI21:
 1837              		.cfi_def_cfa_offset 24
 1838 0004 0546     		mov	r5, r0
 1839 0006 0C46     		mov	r4, r1
 1840              	.LVL160:
 928:VS4210/VX_OSD_Simple.c ****     tByte len ;
 929:VS4210/VX_OSD_Simple.c ****     tByte Indexoffset ;
 930:VS4210/VX_OSD_Simple.c ****     tByte FontLenx2 ;
 931:VS4210/VX_OSD_Simple.c ****     FontLenx2 = 2*EXTERNOSDNUMBER ;
 932:VS4210/VX_OSD_Simple.c **** /*
 933:VS4210/VX_OSD_Simple.c ****     //SetOsdSize(_Content,FontLenx2 ,1);
 934:VS4210/VX_OSD_Simple.c ****     SetOsdSize(_Content, 3 , FontLenx2 );
 935:VS4210/VX_OSD_Simple.c ****     SetOsdStartAddress(_Content,0x80);
 936:VS4210/VX_OSD_Simple.c ****     OsdDumpString(0x80, ptrExOsdContent );
 937:VS4210/VX_OSD_Simple.c ****     len = ptrExOsdContent[0] ;
 938:VS4210/VX_OSD_Simple.c ****     OsdDumpAttribute(0x80, &len, _MenuColor );
 939:VS4210/VX_OSD_Simple.c ****     if (index > 0 )
 940:VS4210/VX_OSD_Simple.c ****     {
 941:VS4210/VX_OSD_Simple.c ****         len = 1;
 942:VS4210/VX_OSD_Simple.c ****         Indexoffset = index *2 ;
 943:VS4210/VX_OSD_Simple.c ****         OsdDumpAttribute(0x80 + Indexoffset + FontLenx2 , &len, _MenuSelColor  );
 944:VS4210/VX_OSD_Simple.c ****         //OsdDumpAttribute(0x80 + FontLenx2 , &len, _MenuSelColor  );
 945:VS4210/VX_OSD_Simple.c ****     }
 946:VS4210/VX_OSD_Simple.c **** */
 947:VS4210/VX_OSD_Simple.c **** 
 948:VS4210/VX_OSD_Simple.c ****     SetOsdSize(_Content,FontLenx2 +1 ,3);
 1841              		.loc 1 948 0
 1842 0008 0322     		movs	r2, #3
 1843 000a 1F21     		movs	r1, #31
 1844              	.LVL161:
 1845 000c 0820     		movs	r0, #8
 1846              	.LVL162:
 1847 000e FFF7FEFF 		bl	SetOsdSize
 1848              	.LVL163:
 949:VS4210/VX_OSD_Simple.c ****     SetOsdStartAddress(_Content,0x80);
 1849              		.loc 1 949 0
 1850 0012 8021     		movs	r1, #128
 1851 0014 0820     		movs	r0, #8
 1852 0016 FFF7FEFF 		bl	SetOsdStartAddress
 1853              	.LVL164:
 950:VS4210/VX_OSD_Simple.c ****     OsdDumpString(0x80, ptrExOsdContent );
 1854              		.loc 1 950 0
 1855 001a 2946     		mov	r1, r5
 1856 001c 8020     		movs	r0, #128
 1857 001e FFF7FEFF 		bl	OsdDumpString
 1858              	.LVL165:
 951:VS4210/VX_OSD_Simple.c ****     len = ptrExOsdContent[0] ;
 1859              		.loc 1 951 0
ARM GAS  /tmp/ccxioO8H.s 			page 54


 1860 0022 2B78     		ldrb	r3, [r5]	@ zero_extendqisi2
 1861 0024 02A9     		add	r1, sp, #8
 1862 0026 01F8013D 		strb	r3, [r1, #-1]!
 952:VS4210/VX_OSD_Simple.c ****     OsdDumpAttribute(0x80, &len, _MenuColor );
 1863              		.loc 1 952 0
 1864 002a 1722     		movs	r2, #23
 1865 002c 8020     		movs	r0, #128
 1866 002e FFF7FEFF 		bl	OsdDumpAttribute
 1867              	.LVL166:
 953:VS4210/VX_OSD_Simple.c ****     if (index > 0 )
 1868              		.loc 1 953 0
 1869 0032 74B9     		cbnz	r4, .L214
 1870              	.L210:
 954:VS4210/VX_OSD_Simple.c ****     {
 955:VS4210/VX_OSD_Simple.c ****         len = 1;
 956:VS4210/VX_OSD_Simple.c ****         Indexoffset = index *2 ;
 957:VS4210/VX_OSD_Simple.c ****         OsdDumpAttribute(0x80 + Indexoffset + FontLenx2 , &len, _MenuSelColor  );
 958:VS4210/VX_OSD_Simple.c ****     }
 959:VS4210/VX_OSD_Simple.c **** 
 960:VS4210/VX_OSD_Simple.c ****     //OSD_Clear_All();
 961:VS4210/VX_OSD_Simple.c ****   //  VXIS_fSetContentOsdOnOff(_ContentOn) ;
 962:VS4210/VX_OSD_Simple.c **** 
 963:VS4210/VX_OSD_Simple.c ****     if(gbVXIS_OuputSize == _OUTPUT_1080P60)
 1871              		.loc 1 963 0
 1872 0034 134B     		ldr	r3, .L216
 1873 0036 1B78     		ldrb	r3, [r3]	@ zero_extendqisi2
 1874 0038 012B     		cmp	r3, #1
 1875 003a 18D0     		beq	.L215
 964:VS4210/VX_OSD_Simple.c ****     {
 965:VS4210/VX_OSD_Simple.c ****         //SetOsdPosition(_Content,600,420);
 966:VS4210/VX_OSD_Simple.c ****         SetOsdPosition(_Content,600,270);
 967:VS4210/VX_OSD_Simple.c ****         VXIS_fSetOsdx2(1) ;
 968:VS4210/VX_OSD_Simple.c ****     }
 969:VS4210/VX_OSD_Simple.c ****     else
 970:VS4210/VX_OSD_Simple.c ****     {
 971:VS4210/VX_OSD_Simple.c ****         //SetOsdPosition(_Content,614,300);
 972:VS4210/VX_OSD_Simple.c ****         SetOsdPosition(_Content,614,200);
 1876              		.loc 1 972 0
 1877 003c C822     		movs	r2, #200
 1878 003e 40F26621 		movw	r1, #614
 1879 0042 0820     		movs	r0, #8
 1880 0044 FFF7FEFF 		bl	SetOsdPosition
 1881              	.LVL167:
 973:VS4210/VX_OSD_Simple.c ****         VXIS_fSetOsdx2(0) ;
 1882              		.loc 1 973 0
 1883 0048 0020     		movs	r0, #0
 1884 004a FFF7FEFF 		bl	VXIS_fSetOsdx2
 1885              	.LVL168:
 1886              	.L209:
 974:VS4210/VX_OSD_Simple.c ****     }
 975:VS4210/VX_OSD_Simple.c **** }
 1887              		.loc 1 975 0
 1888 004e 03B0     		add	sp, sp, #12
 1889              	.LCFI22:
 1890              		.cfi_remember_state
 1891              		.cfi_def_cfa_offset 12
 1892              		@ sp needed
ARM GAS  /tmp/ccxioO8H.s 			page 55


 1893 0050 30BD     		pop	{r4, r5, pc}
 1894              	.LVL169:
 1895              	.L214:
 1896              	.LCFI23:
 1897              		.cfi_restore_state
 955:VS4210/VX_OSD_Simple.c ****         Indexoffset = index *2 ;
 1898              		.loc 1 955 0
 1899 0052 02A9     		add	r1, sp, #8
 1900 0054 0123     		movs	r3, #1
 1901 0056 01F8013D 		strb	r3, [r1, #-1]!
 956:VS4210/VX_OSD_Simple.c ****         OsdDumpAttribute(0x80 + Indexoffset + FontLenx2 , &len, _MenuSelColor  );
 1902              		.loc 1 956 0
 1903 005a 04FA03F0 		lsl	r0, r4, r3
 1904 005e C0B2     		uxtb	r0, r0
 1905              	.LVL170:
 957:VS4210/VX_OSD_Simple.c ****     }
 1906              		.loc 1 957 0
 1907 0060 6238     		subs	r0, r0, #98
 1908              	.LVL171:
 1909 0062 1C22     		movs	r2, #28
 1910 0064 00F0FE00 		and	r0, r0, #254
 1911              	.LVL172:
 1912 0068 FFF7FEFF 		bl	OsdDumpAttribute
 1913              	.LVL173:
 1914 006c E2E7     		b	.L210
 1915              	.LVL174:
 1916              	.L215:
 966:VS4210/VX_OSD_Simple.c ****         VXIS_fSetOsdx2(1) ;
 1917              		.loc 1 966 0
 1918 006e 4FF48772 		mov	r2, #270
 1919 0072 4FF41671 		mov	r1, #600
 1920 0076 0820     		movs	r0, #8
 1921 0078 FFF7FEFF 		bl	SetOsdPosition
 1922              	.LVL175:
 967:VS4210/VX_OSD_Simple.c ****     }
 1923              		.loc 1 967 0
 1924 007c 0120     		movs	r0, #1
 1925 007e FFF7FEFF 		bl	VXIS_fSetOsdx2
 1926              	.LVL176:
 1927 0082 E4E7     		b	.L209
 1928              	.L217:
 1929              		.align	2
 1930              	.L216:
 1931 0084 00000000 		.word	gbVXIS_OuputSize
 1932              		.cfi_endproc
 1933              	.LFE79:
 1935              		.section	.text.VXOSD_SelectExContent,"ax",%progbits
 1936              		.align	1
 1937              		.global	VXOSD_SelectExContent
 1938              		.syntax unified
 1939              		.thumb
 1940              		.thumb_func
 1941              		.fpu softvfp
 1943              	VXOSD_SelectExContent:
 1944              	.LFB80:
 976:VS4210/VX_OSD_Simple.c **** 
 977:VS4210/VX_OSD_Simple.c **** void VXOSD_SelectExContent(tByte index )
ARM GAS  /tmp/ccxioO8H.s 			page 56


 978:VS4210/VX_OSD_Simple.c **** {
 1945              		.loc 1 978 0
 1946              		.cfi_startproc
 1947              		@ args = 0, pretend = 0, frame = 8
 1948              		@ frame_needed = 0, uses_anonymous_args = 0
 1949              	.LVL177:
 1950 0000 30B5     		push	{r4, r5, lr}
 1951              	.LCFI24:
 1952              		.cfi_def_cfa_offset 12
 1953              		.cfi_offset 4, -12
 1954              		.cfi_offset 5, -8
 1955              		.cfi_offset 14, -4
 1956 0002 83B0     		sub	sp, sp, #12
 1957              	.LCFI25:
 1958              		.cfi_def_cfa_offset 24
 1959 0004 0446     		mov	r4, r0
 1960              	.LVL178:
 979:VS4210/VX_OSD_Simple.c ****     tByte len ;
 980:VS4210/VX_OSD_Simple.c ****     tByte Indexoffset ;
 981:VS4210/VX_OSD_Simple.c **** 
 982:VS4210/VX_OSD_Simple.c ****     tByte FontLenx2 ;
 983:VS4210/VX_OSD_Simple.c **** 
 984:VS4210/VX_OSD_Simple.c ****     FontLenx2 = 2*EXTERNOSDNUMBER ;
 985:VS4210/VX_OSD_Simple.c ****     len = FontLenx2 +1  ;
 1961              		.loc 1 985 0
 1962 0006 02AD     		add	r5, sp, #8
 1963 0008 1F23     		movs	r3, #31
 1964 000a 05F8013D 		strb	r3, [r5, #-1]!
 986:VS4210/VX_OSD_Simple.c ****     //len = FontLenx2 ;
 987:VS4210/VX_OSD_Simple.c **** 
 988:VS4210/VX_OSD_Simple.c **** //    OsdDumpAttribute(0x80 , &len, _MenuColor );
 989:VS4210/VX_OSD_Simple.c **** //    len = 1;
 990:VS4210/VX_OSD_Simple.c **** //    Indexoffset = index *2 ;
 991:VS4210/VX_OSD_Simple.c **** //    OsdDumpAttribute(0x80 + Indexoffset , &len, _MenuSelColor  );
 992:VS4210/VX_OSD_Simple.c **** 
 993:VS4210/VX_OSD_Simple.c **** 
 994:VS4210/VX_OSD_Simple.c ****     OsdDumpAttribute(0x80+ (FontLenx2 +2), &len, _MenuColor );
 1965              		.loc 1 994 0
 1966 000e 1722     		movs	r2, #23
 1967 0010 2946     		mov	r1, r5
 1968 0012 A020     		movs	r0, #160
 1969              	.LVL179:
 1970 0014 FFF7FEFF 		bl	OsdDumpAttribute
 1971              	.LVL180:
 995:VS4210/VX_OSD_Simple.c ****     len = 1;
 1972              		.loc 1 995 0
 1973 0018 0123     		movs	r3, #1
 1974 001a 8DF80730 		strb	r3, [sp, #7]
 996:VS4210/VX_OSD_Simple.c ****     Indexoffset = index *2 ;
 1975              		.loc 1 996 0
 1976 001e 04FA03F0 		lsl	r0, r4, r3
 1977 0022 C0B2     		uxtb	r0, r0
 1978              	.LVL181:
 997:VS4210/VX_OSD_Simple.c ****     OsdDumpAttribute(0x80 + Indexoffset +FontLenx2 , &len, _MenuSelColor  );
 1979              		.loc 1 997 0
 1980 0024 6238     		subs	r0, r0, #98
 1981              	.LVL182:
ARM GAS  /tmp/ccxioO8H.s 			page 57


 1982 0026 1C22     		movs	r2, #28
 1983 0028 2946     		mov	r1, r5
 1984 002a 00F0FE00 		and	r0, r0, #254
 1985              	.LVL183:
 1986 002e FFF7FEFF 		bl	OsdDumpAttribute
 1987              	.LVL184:
 998:VS4210/VX_OSD_Simple.c **** 
 999:VS4210/VX_OSD_Simple.c **** 
1000:VS4210/VX_OSD_Simple.c **** //    if (OSDx2Flg == 0 )
1001:VS4210/VX_OSD_Simple.c **** //    {
1002:VS4210/VX_OSD_Simple.c **** //        OSD_Clear_All();
1003:VS4210/VX_OSD_Simple.c **** //        VXIS_fSetOsdx2(1) ;
1004:VS4210/VX_OSD_Simple.c **** //        OSDx2Flg = 1 ;
1005:VS4210/VX_OSD_Simple.c **** //    }
1006:VS4210/VX_OSD_Simple.c **** 
1007:VS4210/VX_OSD_Simple.c **** //    VXIS_fSetContentOsdOnOff(_ContentOn) ;
1008:VS4210/VX_OSD_Simple.c **** }
 1988              		.loc 1 1008 0
 1989 0032 03B0     		add	sp, sp, #12
 1990              	.LCFI26:
 1991              		.cfi_def_cfa_offset 12
 1992              		@ sp needed
 1993 0034 30BD     		pop	{r4, r5, pc}
 1994              		.cfi_endproc
 1995              	.LFE80:
 1997              		.section	.text.Set_Video_Loss_OSD,"ax",%progbits
 1998              		.align	1
 1999              		.global	Set_Video_Loss_OSD
 2000              		.syntax unified
 2001              		.thumb
 2002              		.thumb_func
 2003              		.fpu softvfp
 2005              	Set_Video_Loss_OSD:
 2006              	.LFB81:
1009:VS4210/VX_OSD_Simple.c **** 
1010:VS4210/VX_OSD_Simple.c **** void Set_Video_Loss_OSD(BYTE ch, BYTE set)	
1011:VS4210/VX_OSD_Simple.c **** {
 2007              		.loc 1 1011 0
 2008              		.cfi_startproc
 2009              		@ args = 0, pretend = 0, frame = 0
 2010              		@ frame_needed = 0, uses_anonymous_args = 0
 2011              	.LVL185:
 2012 0000 38B5     		push	{r3, r4, r5, lr}
 2013              	.LCFI27:
 2014              		.cfi_def_cfa_offset 16
 2015              		.cfi_offset 3, -16
 2016              		.cfi_offset 4, -12
 2017              		.cfi_offset 5, -8
 2018              		.cfi_offset 14, -4
 2019 0002 0546     		mov	r5, r0
1012:VS4210/VX_OSD_Simple.c **** 	//VXISI2CWrite(0x32,0x00);
1013:VS4210/VX_OSD_Simple.c **** 
1014:VS4210/VX_OSD_Simple.c **** //bVloss_Flag=set;
1015:VS4210/VX_OSD_Simple.c **** 
1016:VS4210/VX_OSD_Simple.c **** #if 1
1017:VS4210/VX_OSD_Simple.c **** switch(set)
 2020              		.loc 1 1017 0
ARM GAS  /tmp/ccxioO8H.s 			page 58


 2021 0004 0C46     		mov	r4, r1
 2022 0006 A1B1     		cbz	r1, .L222
 2023 0008 0129     		cmp	r1, #1
 2024 000a 20D1     		bne	.L221
1018:VS4210/VX_OSD_Simple.c **** {
1019:VS4210/VX_OSD_Simple.c **** 	case ON:
1020:VS4210/VX_OSD_Simple.c **** 			if(ch==_HDMI_Input)
 2025              		.loc 1 1020 0
 2026 000c 40B9     		cbnz	r0, .L224
1021:VS4210/VX_OSD_Simple.c **** 				{
1022:VS4210/VX_OSD_Simple.c **** 				VXISI2CWrite(0x10,0x00);
 2027              		.loc 1 1022 0
 2028 000e 0021     		movs	r1, #0
 2029              	.LVL186:
 2030 0010 1020     		movs	r0, #16
 2031              	.LVL187:
 2032 0012 FFF7FEFF 		bl	VXISI2CWrite
 2033              	.LVL188:
1023:VS4210/VX_OSD_Simple.c **** 				VXISI2CWrite(0x9C,0x0A);	
 2034              		.loc 1 1023 0
 2035 0016 0A21     		movs	r1, #10
 2036 0018 9C20     		movs	r0, #156
 2037 001a FFF7FEFF 		bl	VXISI2CWrite
 2038              	.LVL189:
 2039 001e 16E0     		b	.L221
 2040              	.LVL190:
 2041              	.L224:
1024:VS4210/VX_OSD_Simple.c **** 				}		
1025:VS4210/VX_OSD_Simple.c **** 			else 
1026:VS4210/VX_OSD_Simple.c **** 				{
1027:VS4210/VX_OSD_Simple.c **** 				VXISI2CWrite(0x10,0x01);
 2042              		.loc 1 1027 0
 2043 0020 0121     		movs	r1, #1
 2044              	.LVL191:
 2045 0022 1020     		movs	r0, #16
 2046              	.LVL192:
 2047 0024 FFF7FEFF 		bl	VXISI2CWrite
 2048              	.LVL193:
1028:VS4210/VX_OSD_Simple.c **** 				VXISI2CWrite(0x9C,0x0A);	
 2049              		.loc 1 1028 0
 2050 0028 0A21     		movs	r1, #10
 2051 002a 9C20     		movs	r0, #156
 2052 002c FFF7FEFF 		bl	VXISI2CWrite
 2053              	.LVL194:
 2054 0030 0DE0     		b	.L221
 2055              	.LVL195:
 2056              	.L222:
1029:VS4210/VX_OSD_Simple.c **** 				}
1030:VS4210/VX_OSD_Simple.c **** 			break;
1031:VS4210/VX_OSD_Simple.c **** 
1032:VS4210/VX_OSD_Simple.c **** 	case OFF:
1033:VS4210/VX_OSD_Simple.c **** 				if(ch==_HDMI_Input)
 2057              		.loc 1 1033 0
 2058 0032 C0B1     		cbz	r0, .L227
1034:VS4210/VX_OSD_Simple.c **** 				{
1035:VS4210/VX_OSD_Simple.c **** 				VXISI2CWrite(0x10,(VXISI2CRead(0x10)|0x80));
1036:VS4210/VX_OSD_Simple.c **** 				VXISI2CWrite(0x9C,0x00);
ARM GAS  /tmp/ccxioO8H.s 			page 59


1037:VS4210/VX_OSD_Simple.c **** 				//SET_HDMI_SYNC_PARA();
1038:VS4210/VX_OSD_Simple.c **** 				}		
1039:VS4210/VX_OSD_Simple.c **** 			else
1040:VS4210/VX_OSD_Simple.c **** 				{
1041:VS4210/VX_OSD_Simple.c **** 				VXISI2CWrite(0x10,(VXISI2CRead(0x10)|0x81));
 2059              		.loc 1 1041 0
 2060 0034 1020     		movs	r0, #16
 2061              	.LVL196:
 2062 0036 FFF7FEFF 		bl	VXISI2CRead
 2063              	.LVL197:
 2064 003a 60F07E01 		orn	r1, r0, #126
 2065 003e C9B2     		uxtb	r1, r1
 2066 0040 1020     		movs	r0, #16
 2067 0042 FFF7FEFF 		bl	VXISI2CWrite
 2068              	.LVL198:
1042:VS4210/VX_OSD_Simple.c **** 				VXISI2CWrite(0x9C,0x00);
 2069              		.loc 1 1042 0
 2070 0046 0021     		movs	r1, #0
 2071 0048 9C20     		movs	r0, #156
 2072 004a FFF7FEFF 		bl	VXISI2CWrite
 2073              	.LVL199:
 2074              	.L221:
1043:VS4210/VX_OSD_Simple.c **** 				}
1044:VS4210/VX_OSD_Simple.c **** 	
1045:VS4210/VX_OSD_Simple.c **** 			break;
1046:VS4210/VX_OSD_Simple.c **** 	
1047:VS4210/VX_OSD_Simple.c **** 
1048:VS4210/VX_OSD_Simple.c **** }
1049:VS4210/VX_OSD_Simple.c **** #endif
1050:VS4210/VX_OSD_Simple.c **** 	SET_VIDEO_VLOSS(set);	
 2075              		.loc 1 1050 0
 2076 004e 2246     		mov	r2, r4
 2077 0050 2021     		movs	r1, #32
 2078 0052 0C48     		ldr	r0, .L228
 2079 0054 FFF7FEFF 		bl	HAL_GPIO_WritePin
 2080              	.LVL200:
1051:VS4210/VX_OSD_Simple.c **** 	//MCUTimerCancelTimerEvent( _SYSTEM_TIMER_EVENT_SET_VIDEO_LOSS);	
1052:VS4210/VX_OSD_Simple.c **** 	//MCUTimerActiveTimerEvent(SEC(1), _SYSTEM_TIMER_EVENT_SET_VIDEO_LOSS);	
1053:VS4210/VX_OSD_Simple.c **** 	
1054:VS4210/VX_OSD_Simple.c **** 	#if (_DEBUG_OSD==ON)	
1055:VS4210/VX_OSD_Simple.c **** 	GraphicsPrint(RED,"(SET_VIDEO_VLOSS ch=%d set=%d)",(WORD)ch,(WORD)set);	
 2081              		.loc 1 1055 0
 2082 0058 2346     		mov	r3, r4
 2083 005a 2A46     		mov	r2, r5
 2084 005c 0A49     		ldr	r1, .L228+4
 2085 005e 0120     		movs	r0, #1
 2086 0060 FFF7FEFF 		bl	GraphicsPrint
 2087              	.LVL201:
1056:VS4210/VX_OSD_Simple.c **** 	#endif	
1057:VS4210/VX_OSD_Simple.c **** 
1058:VS4210/VX_OSD_Simple.c **** 	//MCUTimerActiveTimerEvent( SEC(2),_SYSTEM_TIMER_EVENT_SET_EMBEDDED_SYNC);	
1059:VS4210/VX_OSD_Simple.c **** 
1060:VS4210/VX_OSD_Simple.c **** }
 2088              		.loc 1 1060 0
 2089 0064 38BD     		pop	{r3, r4, r5, pc}
 2090              	.LVL202:
 2091              	.L227:
ARM GAS  /tmp/ccxioO8H.s 			page 60


1035:VS4210/VX_OSD_Simple.c **** 				VXISI2CWrite(0x10,(VXISI2CRead(0x10)|0x80));
 2092              		.loc 1 1035 0
 2093 0066 1020     		movs	r0, #16
 2094              	.LVL203:
 2095 0068 FFF7FEFF 		bl	VXISI2CRead
 2096              	.LVL204:
 2097 006c 60F07F01 		orn	r1, r0, #127
 2098 0070 C9B2     		uxtb	r1, r1
 2099 0072 1020     		movs	r0, #16
 2100 0074 FFF7FEFF 		bl	VXISI2CWrite
 2101              	.LVL205:
1036:VS4210/VX_OSD_Simple.c **** 				VXISI2CWrite(0x9C,0x00);
 2102              		.loc 1 1036 0
 2103 0078 0021     		movs	r1, #0
 2104 007a 9C20     		movs	r0, #156
 2105 007c FFF7FEFF 		bl	VXISI2CWrite
 2106              	.LVL206:
 2107 0080 E5E7     		b	.L221
 2108              	.L229:
 2109 0082 00BF     		.align	2
 2110              	.L228:
 2111 0084 00080140 		.word	1073809408
 2112 0088 00000000 		.word	.LC0
 2113              		.cfi_endproc
 2114              	.LFE81:
 2116              		.global	aLineMode720PMode12Lin1
 2117              		.global	aLineMode1080PMode12Lin1
 2118              		.global	aLineMode720PMode6Lin3
 2119              		.global	aLineMode720PMode6Lin2
 2120              		.global	aLineMode720PMode6Lin1
 2121              		.global	aLineMode720PMode2Lin3
 2122              		.global	aLineMode720PMode2Lin2
 2123              		.global	aLineMode720PMode2Lin1
 2124              		.global	aLineMode720PMode1Lin2
 2125              		.global	aLineMode720PMode1Lin1
 2126              		.global	aLineMode1080PMode6Lin3
 2127              		.global	aLineMode1080PMode6Lin2
 2128              		.global	aLineMode1080PMode6Lin1
 2129              		.global	aLineMode1080PMode2Lin3
 2130              		.global	aLineMode1080PMode2Lin2
 2131              		.global	aLineMode1080PMode2Lin1
 2132              		.global	aLineMode1080PMode1Lin2
 2133              		.global	aLineMode1080PMode1Lin1
 2134              		.global	aLineModeReg
 2135              		.global	Mode24_w1_720P_param
 2136              		.global	Mode24_w0_720P_param
 2137              		.global	Mode13_w1_720P_param
 2138              		.global	Mode13_w0_720P_param
 2139              		.global	Mode24_w1_1080P_param
 2140              		.global	Mode24_w0_1080P_param
 2141              		.global	Mode13_w1_1080P_param
 2142              		.global	Mode13_w0_1080P_param
 2143              		.global	Mode12_w1_720P_param
 2144              		.global	Mode12_w0_720P_param
 2145              		.global	Mode6_w3_720P_param
 2146              		.global	Mode6_w2_720P_param
 2147              		.global	Mode6_w1_720P_param
ARM GAS  /tmp/ccxioO8H.s 			page 61


 2148              		.global	Mode6_w0_720P_param
 2149              		.global	Mode2_w3_720P_param
 2150              		.global	Mode2_w2_720P_param
 2151              		.global	Mode2_w1_720P_param
 2152              		.global	Mode2_w0_720P_param
 2153              		.global	Mode1_w3_720P_param
 2154              		.global	Mode1_w2_720P_param
 2155              		.global	Mode1_w1_720P_param
 2156              		.global	Mode1_w0_720P_param
 2157              		.global	Mode0_720P_param
 2158              		.global	Mode12_w1_1080P_param
 2159              		.global	Mode12_w0_1080P_param
 2160              		.global	Mode6_w3_1080P_param
 2161              		.global	Mode6_w2_1080P_param
 2162              		.global	Mode6_w1_1080P_param
 2163              		.global	Mode6_w0_1080P_param
 2164              		.global	Mode2_w3_1080P_param
 2165              		.global	Mode2_w2_1080P_param
 2166              		.global	Mode2_w1_1080P_param
 2167              		.global	Mode2_w0_1080P_param
 2168              		.global	Mode1_w3_1080P_param
 2169              		.global	Mode1_w2_1080P_param
 2170              		.global	Mode1_w1_1080P_param
 2171              		.global	Mode1_w0_1080P_param
 2172              		.global	Mode0_1080P_param
 2173              		.global	OSD_CH3_param
 2174              		.global	OSD_CH2_param
 2175              		.global	OSD_CH1_param
 2176              		.global	OSD_CH0_param
 2177              		.global	OSD_No_Signal_param
 2178              		.global	OSD_1920X1200P_param
 2179              		.global	OSD_1600X1200P_param
 2180              		.global	OSD_1680X1050P_param
 2181              		.global	OSD_1400X1050P_param
 2182              		.global	OSD_1280X1024P_param
 2183              		.global	OSD_1440X900P_param
 2184              		.global	OSD_1280X800P_param
 2185              		.global	OSD_1366X768P_param
 2186              		.global	OSD_1360X768P_param
 2187              		.global	OSD_1280X768P_param
 2188              		.global	OSD_1024X768P_param
 2189              		.global	OSD_800X600P_param
 2190              		.global	OSD_640X480P_param
 2191              		.global	OSD_1920x1080I_param
 2192              		.global	OSD_1920x1080P_param
 2193              		.global	OSD_1280x720P_param
 2194              		.global	OSD_720x576P50_param
 2195              		.global	OSD_720x576I50_param
 2196              		.global	OSD_720x480P60_param
 2197              		.global	OSD_720x480I60_param
 2198              		.comm	ptcOSDbar,4,4
 2199              		.comm	OSDx2Flg,1,1
 2200              		.global	bVloss_Flag
 2201              		.comm	MenuOSDonFlg,1,1
 2202              		.section	.bss.bVloss_Flag,"aw",%nobits
 2205              	bVloss_Flag:
 2206 0000 00       		.space	1
ARM GAS  /tmp/ccxioO8H.s 			page 62


 2207              		.section	.rodata.Mode0_1080P_param,"a",%progbits
 2208              		.align	2
 2211              	Mode0_1080P_param:
 2212 0000 B400     		.short	180
 2213 0002 3D00     		.short	61
 2214              		.section	.rodata.Mode0_720P_param,"a",%progbits
 2215              		.align	2
 2218              	Mode0_720P_param:
 2219 0000 F400     		.short	244
 2220 0002 2500     		.short	37
 2221              		.section	.rodata.Mode12_w0_1080P_param,"a",%progbits
 2222              		.align	2
 2225              	Mode12_w0_1080P_param:
 2226 0000 B400     		.short	180
 2227 0002 3D00     		.short	61
 2228              		.section	.rodata.Mode12_w0_720P_param,"a",%progbits
 2229              		.align	2
 2232              	Mode12_w0_720P_param:
 2233 0000 F400     		.short	244
 2234 0002 2500     		.short	37
 2235              		.section	.rodata.Mode12_w1_1080P_param,"a",%progbits
 2236              		.align	2
 2239              	Mode12_w1_1080P_param:
 2240 0000 7404     		.short	1140
 2241 0002 3D00     		.short	61
 2242              		.section	.rodata.Mode12_w1_720P_param,"a",%progbits
 2243              		.align	2
 2246              	Mode12_w1_720P_param:
 2247 0000 7603     		.short	886
 2248 0002 2500     		.short	37
 2249              		.section	.rodata.Mode13_w0_1080P_param,"a",%progbits
 2250              		.align	2
 2253              	Mode13_w0_1080P_param:
 2254 0000 B400     		.short	180
 2255 0002 3D00     		.short	61
 2256              		.section	.rodata.Mode13_w0_720P_param,"a",%progbits
 2257              		.align	2
 2260              	Mode13_w0_720P_param:
 2261 0000 F400     		.short	244
 2262 0002 2500     		.short	37
 2263              		.section	.rodata.Mode13_w1_1080P_param,"a",%progbits
 2264              		.align	2
 2267              	Mode13_w1_1080P_param:
 2268 0000 B400     		.short	180
 2269 0002 5B02     		.short	603
 2270              		.section	.rodata.Mode13_w1_720P_param,"a",%progbits
 2271              		.align	2
 2274              	Mode13_w1_720P_param:
 2275 0000 F400     		.short	244
 2276 0002 9101     		.short	401
 2277              		.section	.rodata.Mode1_w0_1080P_param,"a",%progbits
 2278              		.align	2
 2281              	Mode1_w0_1080P_param:
 2282 0000 B400     		.short	180
 2283 0002 3D00     		.short	61
 2284              		.section	.rodata.Mode1_w0_720P_param,"a",%progbits
 2285              		.align	2
ARM GAS  /tmp/ccxioO8H.s 			page 63


 2288              	Mode1_w0_720P_param:
 2289 0000 F400     		.short	244
 2290 0002 2500     		.short	37
 2291              		.section	.rodata.Mode1_w1_1080P_param,"a",%progbits
 2292              		.align	2
 2295              	Mode1_w1_1080P_param:
 2296 0000 7404     		.short	1140
 2297 0002 3D00     		.short	61
 2298              		.section	.rodata.Mode1_w1_720P_param,"a",%progbits
 2299              		.align	2
 2302              	Mode1_w1_720P_param:
 2303 0000 7603     		.short	886
 2304 0002 2500     		.short	37
 2305              		.section	.rodata.Mode1_w2_1080P_param,"a",%progbits
 2306              		.align	2
 2309              	Mode1_w2_1080P_param:
 2310 0000 B400     		.short	180
 2311 0002 5B02     		.short	603
 2312              		.section	.rodata.Mode1_w2_720P_param,"a",%progbits
 2313              		.align	2
 2316              	Mode1_w2_720P_param:
 2317 0000 F400     		.short	244
 2318 0002 9101     		.short	401
 2319              		.section	.rodata.Mode1_w3_1080P_param,"a",%progbits
 2320              		.align	2
 2323              	Mode1_w3_1080P_param:
 2324 0000 7404     		.short	1140
 2325 0002 5B02     		.short	603
 2326              		.section	.rodata.Mode1_w3_720P_param,"a",%progbits
 2327              		.align	2
 2330              	Mode1_w3_720P_param:
 2331 0000 7603     		.short	886
 2332 0002 9101     		.short	401
 2333              		.section	.rodata.Mode24_w0_1080P_param,"a",%progbits
 2334              		.align	2
 2337              	Mode24_w0_1080P_param:
 2338 0000 B400     		.short	180
 2339 0002 3D00     		.short	61
 2340              		.section	.rodata.Mode24_w0_720P_param,"a",%progbits
 2341              		.align	2
 2344              	Mode24_w0_720P_param:
 2345 0000 F400     		.short	244
 2346 0002 2500     		.short	37
 2347              		.section	.rodata.Mode24_w1_1080P_param,"a",%progbits
 2348              		.align	2
 2351              	Mode24_w1_1080P_param:
 2352 0000 B405     		.short	1460
 2353 0002 0D03     		.short	781
 2354              		.section	.rodata.Mode24_w1_720P_param,"a",%progbits
 2355              		.align	2
 2358              	Mode24_w1_720P_param:
 2359 0000 4A04     		.short	1098
 2360 0002 0502     		.short	517
 2361              		.section	.rodata.Mode2_w0_1080P_param,"a",%progbits
 2362              		.align	2
 2365              	Mode2_w0_1080P_param:
 2366 0000 B400     		.short	180
ARM GAS  /tmp/ccxioO8H.s 			page 64


 2367 0002 3D00     		.short	61
 2368              		.section	.rodata.Mode2_w0_720P_param,"a",%progbits
 2369              		.align	2
 2372              	Mode2_w0_720P_param:
 2373 0000 F400     		.short	244
 2374 0002 2500     		.short	37
 2375              		.section	.rodata.Mode2_w1_1080P_param,"a",%progbits
 2376              		.align	2
 2379              	Mode2_w1_1080P_param:
 2380 0000 9802     		.short	664
 2381 0002 3D00     		.short	61
 2382              		.section	.rodata.Mode2_w1_720P_param,"a",%progbits
 2383              		.align	2
 2386              	Mode2_w1_720P_param:
 2387 0000 3602     		.short	566
 2388 0002 2500     		.short	37
 2389              		.section	.rodata.Mode2_w2_1080P_param,"a",%progbits
 2390              		.align	2
 2393              	Mode2_w2_1080P_param:
 2394 0000 9802     		.short	664
 2395 0002 5B02     		.short	603
 2396              		.section	.rodata.Mode2_w2_720P_param,"a",%progbits
 2397              		.align	2
 2400              	Mode2_w2_720P_param:
 2401 0000 3602     		.short	566
 2402 0002 9101     		.short	401
 2403              		.section	.rodata.Mode2_w3_1080P_param,"a",%progbits
 2404              		.align	2
 2407              	Mode2_w3_1080P_param:
 2408 0000 5806     		.short	1624
 2409 0002 3D00     		.short	61
 2410              		.section	.rodata.Mode2_w3_720P_param,"a",%progbits
 2411              		.align	2
 2414              	Mode2_w3_720P_param:
 2415 0000 B604     		.short	1206
 2416 0002 2500     		.short	37
 2417              		.section	.rodata.Mode6_w0_1080P_param,"a",%progbits
 2418              		.align	2
 2421              	Mode6_w0_1080P_param:
 2422 0000 B400     		.short	180
 2423 0002 3D00     		.short	61
 2424              		.section	.rodata.Mode6_w0_720P_param,"a",%progbits
 2425              		.align	2
 2428              	Mode6_w0_720P_param:
 2429 0000 F400     		.short	244
 2430 0002 2500     		.short	37
 2431              		.section	.rodata.Mode6_w1_1080P_param,"a",%progbits
 2432              		.align	2
 2435              	Mode6_w1_1080P_param:
 2436 0000 B405     		.short	1460
 2437 0002 3D00     		.short	61
 2438              		.section	.rodata.Mode6_w1_720P_param,"a",%progbits
 2439              		.align	2
 2442              	Mode6_w1_720P_param:
 2443 0000 4A04     		.short	1098
 2444 0002 2500     		.short	37
 2445              		.section	.rodata.Mode6_w2_1080P_param,"a",%progbits
ARM GAS  /tmp/ccxioO8H.s 			page 65


 2446              		.align	2
 2449              	Mode6_w2_1080P_param:
 2450 0000 B405     		.short	1460
 2451 0002 A601     		.short	422
 2452              		.section	.rodata.Mode6_w2_720P_param,"a",%progbits
 2453              		.align	2
 2456              	Mode6_w2_720P_param:
 2457 0000 4A04     		.short	1098
 2458 0002 1801     		.short	280
 2459              		.section	.rodata.Mode6_w3_1080P_param,"a",%progbits
 2460              		.align	2
 2463              	Mode6_w3_1080P_param:
 2464 0000 B405     		.short	1460
 2465 0002 0F03     		.short	783
 2466              		.section	.rodata.Mode6_w3_720P_param,"a",%progbits
 2467              		.align	2
 2470              	Mode6_w3_720P_param:
 2471 0000 4A04     		.short	1098
 2472 0002 0802     		.short	520
 2473              		.section	.rodata.OSD_1024X768P_param,"a",%progbits
 2474              		.align	2
 2475              		.set	.LANCHOR9,. + 0
 2478              	OSD_1024X768P_param:
 2479 0000 0A       		.byte	10
 2480 0001 63       		.byte	99
 2481 0002 62       		.byte	98
 2482 0003 64       		.byte	100
 2483 0004 66       		.byte	102
 2484 0005 17       		.byte	23
 2485 0006 69       		.byte	105
 2486 0007 68       		.byte	104
 2487 0008 6A       		.byte	106
 2488 0009 0F       		.byte	15
 2489 000a 6D       		.byte	109
 2490              		.section	.rodata.OSD_1280X1024P_param,"a",%progbits
 2491              		.align	2
 2492              		.set	.LANCHOR14,. + 0
 2495              	OSD_1280X1024P_param:
 2496 0000 0A       		.byte	10
 2497 0001 63       		.byte	99
 2498 0002 64       		.byte	100
 2499 0003 6A       		.byte	106
 2500 0004 62       		.byte	98
 2501 0005 17       		.byte	23
 2502 0006 63       		.byte	99
 2503 0007 62       		.byte	98
 2504 0008 64       		.byte	100
 2505 0009 66       		.byte	102
 2506 000a 0F       		.byte	15
 2507              		.section	.rodata.OSD_1280X768P_param,"a",%progbits
 2508              		.align	2
 2509              		.set	.LANCHOR10,. + 0
 2512              	OSD_1280X768P_param:
 2513 0000 0A       		.byte	10
 2514 0001 63       		.byte	99
 2515 0002 64       		.byte	100
 2516 0003 6A       		.byte	106
ARM GAS  /tmp/ccxioO8H.s 			page 66


 2517 0004 62       		.byte	98
 2518 0005 17       		.byte	23
 2519 0006 69       		.byte	105
 2520 0007 68       		.byte	104
 2521 0008 6A       		.byte	106
 2522 0009 0F       		.byte	15
 2523 000a 6D       		.byte	109
 2524              		.section	.rodata.OSD_1280X800P_param,"a",%progbits
 2525              		.align	2
 2526              		.set	.LANCHOR12,. + 0
 2529              	OSD_1280X800P_param:
 2530 0000 0A       		.byte	10
 2531 0001 63       		.byte	99
 2532 0002 64       		.byte	100
 2533 0003 6A       		.byte	106
 2534 0004 62       		.byte	98
 2535 0005 17       		.byte	23
 2536 0006 6A       		.byte	106
 2537 0007 62       		.byte	98
 2538 0008 62       		.byte	98
 2539 0009 0F       		.byte	15
 2540 000a 6D       		.byte	109
 2541              		.section	.rodata.OSD_1280x720P_param,"a",%progbits
 2542              		.align	2
 2543              		.set	.LANCHOR5,. + 0
 2546              	OSD_1280x720P_param:
 2547 0000 0A       		.byte	10
 2548 0001 63       		.byte	99
 2549 0002 64       		.byte	100
 2550 0003 6A       		.byte	106
 2551 0004 62       		.byte	98
 2552 0005 17       		.byte	23
 2553 0006 69       		.byte	105
 2554 0007 64       		.byte	100
 2555 0008 62       		.byte	98
 2556 0009 0F       		.byte	15
 2557 000a 6D       		.byte	109
 2558              		.section	.rodata.OSD_1360X768P_param,"a",%progbits
 2559              		.align	2
 2562              	OSD_1360X768P_param:
 2563 0000 0A       		.byte	10
 2564 0001 63       		.byte	99
 2565 0002 65       		.byte	101
 2566 0003 68       		.byte	104
 2567 0004 62       		.byte	98
 2568 0005 17       		.byte	23
 2569 0006 69       		.byte	105
 2570 0007 68       		.byte	104
 2571 0008 6A       		.byte	106
 2572 0009 0F       		.byte	15
 2573 000a 6D       		.byte	109
 2574              		.section	.rodata.OSD_1366X768P_param,"a",%progbits
 2575              		.align	2
 2576              		.set	.LANCHOR11,. + 0
 2579              	OSD_1366X768P_param:
 2580 0000 0A       		.byte	10
 2581 0001 63       		.byte	99
ARM GAS  /tmp/ccxioO8H.s 			page 67


 2582 0002 65       		.byte	101
 2583 0003 68       		.byte	104
 2584 0004 68       		.byte	104
 2585 0005 17       		.byte	23
 2586 0006 69       		.byte	105
 2587 0007 68       		.byte	104
 2588 0008 6A       		.byte	106
 2589 0009 0F       		.byte	15
 2590 000a 6D       		.byte	109
 2591              		.section	.rodata.OSD_1400X1050P_param,"a",%progbits
 2592              		.align	2
 2593              		.set	.LANCHOR15,. + 0
 2596              	OSD_1400X1050P_param:
 2597 0000 0A       		.byte	10
 2598 0001 63       		.byte	99
 2599 0002 66       		.byte	102
 2600 0003 62       		.byte	98
 2601 0004 62       		.byte	98
 2602 0005 17       		.byte	23
 2603 0006 63       		.byte	99
 2604 0007 62       		.byte	98
 2605 0008 67       		.byte	103
 2606 0009 62       		.byte	98
 2607 000a 0F       		.byte	15
 2608              		.section	.rodata.OSD_1440X900P_param,"a",%progbits
 2609              		.align	2
 2610              		.set	.LANCHOR13,. + 0
 2613              	OSD_1440X900P_param:
 2614 0000 0A       		.byte	10
 2615 0001 63       		.byte	99
 2616 0002 66       		.byte	102
 2617 0003 66       		.byte	102
 2618 0004 62       		.byte	98
 2619 0005 17       		.byte	23
 2620 0006 6B       		.byte	107
 2621 0007 62       		.byte	98
 2622 0008 62       		.byte	98
 2623 0009 0F       		.byte	15
 2624 000a 6D       		.byte	109
 2625              		.section	.rodata.OSD_1600X1200P_param,"a",%progbits
 2626              		.align	2
 2627              		.set	.LANCHOR17,. + 0
 2630              	OSD_1600X1200P_param:
 2631 0000 0A       		.byte	10
 2632 0001 63       		.byte	99
 2633 0002 68       		.byte	104
 2634 0003 62       		.byte	98
 2635 0004 62       		.byte	98
 2636 0005 17       		.byte	23
 2637 0006 63       		.byte	99
 2638 0007 64       		.byte	100
 2639 0008 62       		.byte	98
 2640 0009 62       		.byte	98
 2641 000a 0F       		.byte	15
 2642              		.section	.rodata.OSD_1680X1050P_param,"a",%progbits
 2643              		.align	2
 2644              		.set	.LANCHOR16,. + 0
ARM GAS  /tmp/ccxioO8H.s 			page 68


 2647              	OSD_1680X1050P_param:
 2648 0000 0A       		.byte	10
 2649 0001 63       		.byte	99
 2650 0002 68       		.byte	104
 2651 0003 6A       		.byte	106
 2652 0004 62       		.byte	98
 2653 0005 17       		.byte	23
 2654 0006 63       		.byte	99
 2655 0007 62       		.byte	98
 2656 0008 67       		.byte	103
 2657 0009 62       		.byte	98
 2658 000a 0F       		.byte	15
 2659              		.section	.rodata.OSD_1920X1200P_param,"a",%progbits
 2660              		.align	2
 2661              		.set	.LANCHOR18,. + 0
 2664              	OSD_1920X1200P_param:
 2665 0000 0A       		.byte	10
 2666 0001 63       		.byte	99
 2667 0002 6B       		.byte	107
 2668 0003 64       		.byte	100
 2669 0004 62       		.byte	98
 2670 0005 17       		.byte	23
 2671 0006 63       		.byte	99
 2672 0007 64       		.byte	100
 2673 0008 62       		.byte	98
 2674 0009 62       		.byte	98
 2675 000a 0F       		.byte	15
 2676              		.section	.rodata.OSD_1920x1080I_param,"a",%progbits
 2677              		.align	2
 2678              		.set	.LANCHOR4,. + 0
 2681              	OSD_1920x1080I_param:
 2682 0000 0A       		.byte	10
 2683 0001 63       		.byte	99
 2684 0002 6B       		.byte	107
 2685 0003 64       		.byte	100
 2686 0004 62       		.byte	98
 2687 0005 17       		.byte	23
 2688 0006 63       		.byte	99
 2689 0007 62       		.byte	98
 2690 0008 6A       		.byte	106
 2691 0009 62       		.byte	98
 2692 000a 08       		.byte	8
 2693              		.section	.rodata.OSD_1920x1080P_param,"a",%progbits
 2694              		.align	2
 2695              		.set	.LANCHOR6,. + 0
 2698              	OSD_1920x1080P_param:
 2699 0000 0A       		.byte	10
 2700 0001 63       		.byte	99
 2701 0002 6B       		.byte	107
 2702 0003 64       		.byte	100
 2703 0004 62       		.byte	98
 2704 0005 17       		.byte	23
 2705 0006 63       		.byte	99
 2706 0007 62       		.byte	98
 2707 0008 6A       		.byte	106
 2708 0009 62       		.byte	98
 2709 000a 0F       		.byte	15
ARM GAS  /tmp/ccxioO8H.s 			page 69


 2710              		.section	.rodata.OSD_640X480P_param,"a",%progbits
 2711              		.align	2
 2712              		.set	.LANCHOR7,. + 0
 2715              	OSD_640X480P_param:
 2716 0000 0A       		.byte	10
 2717 0001 68       		.byte	104
 2718 0002 66       		.byte	102
 2719 0003 62       		.byte	98
 2720 0004 17       		.byte	23
 2721 0005 66       		.byte	102
 2722 0006 6A       		.byte	106
 2723 0007 62       		.byte	98
 2724 0008 0F       		.byte	15
 2725 0009 6D       		.byte	109
 2726 000a 6D       		.byte	109
 2727              		.section	.rodata.OSD_720x480I60_param,"a",%progbits
 2728              		.align	2
 2729              		.set	.LANCHOR0,. + 0
 2732              	OSD_720x480I60_param:
 2733 0000 0A       		.byte	10
 2734 0001 69       		.byte	105
 2735 0002 64       		.byte	100
 2736 0003 62       		.byte	98
 2737 0004 17       		.byte	23
 2738 0005 66       		.byte	102
 2739 0006 6A       		.byte	106
 2740 0007 62       		.byte	98
 2741 0008 08       		.byte	8
 2742 0009 6D       		.byte	109
 2743 000a 6D       		.byte	109
 2744              		.section	.rodata.OSD_720x480P60_param,"a",%progbits
 2745              		.align	2
 2746              		.set	.LANCHOR2,. + 0
 2749              	OSD_720x480P60_param:
 2750 0000 0A       		.byte	10
 2751 0001 69       		.byte	105
 2752 0002 64       		.byte	100
 2753 0003 62       		.byte	98
 2754 0004 17       		.byte	23
 2755 0005 66       		.byte	102
 2756 0006 6A       		.byte	106
 2757 0007 62       		.byte	98
 2758 0008 0F       		.byte	15
 2759 0009 6D       		.byte	109
 2760 000a 6D       		.byte	109
 2761              		.section	.rodata.OSD_720x576I50_param,"a",%progbits
 2762              		.align	2
 2763              		.set	.LANCHOR1,. + 0
 2766              	OSD_720x576I50_param:
 2767 0000 0A       		.byte	10
 2768 0001 69       		.byte	105
 2769 0002 64       		.byte	100
 2770 0003 62       		.byte	98
 2771 0004 17       		.byte	23
 2772 0005 67       		.byte	103
 2773 0006 69       		.byte	105
 2774 0007 68       		.byte	104
ARM GAS  /tmp/ccxioO8H.s 			page 70


 2775 0008 08       		.byte	8
 2776 0009 6D       		.byte	109
 2777 000a 6D       		.byte	109
 2778              		.section	.rodata.OSD_720x576P50_param,"a",%progbits
 2779              		.align	2
 2780              		.set	.LANCHOR3,. + 0
 2783              	OSD_720x576P50_param:
 2784 0000 0A       		.byte	10
 2785 0001 69       		.byte	105
 2786 0002 64       		.byte	100
 2787 0003 62       		.byte	98
 2788 0004 17       		.byte	23
 2789 0005 67       		.byte	103
 2790 0006 69       		.byte	105
 2791 0007 68       		.byte	104
 2792 0008 0F       		.byte	15
 2793 0009 6D       		.byte	109
 2794 000a 6D       		.byte	109
 2795              		.section	.rodata.OSD_800X600P_param,"a",%progbits
 2796              		.align	2
 2797              		.set	.LANCHOR8,. + 0
 2800              	OSD_800X600P_param:
 2801 0000 0A       		.byte	10
 2802 0001 6A       		.byte	106
 2803 0002 62       		.byte	98
 2804 0003 62       		.byte	98
 2805 0004 17       		.byte	23
 2806 0005 68       		.byte	104
 2807 0006 62       		.byte	98
 2808 0007 62       		.byte	98
 2809 0008 0F       		.byte	15
 2810 0009 6D       		.byte	109
 2811 000a 6D       		.byte	109
 2812              		.section	.rodata.OSD_CH0_param,"a",%progbits
 2813              		.align	2
 2814              		.set	.LANCHOR23,. + 0
 2817              	OSD_CH0_param:
 2818 0000 06       		.byte	6
 2819 0001 02       		.byte	2
 2820 0002 07       		.byte	7
 2821 0003 6D       		.byte	109
 2822 0004 63       		.byte	99
 2823 0005 6D       		.byte	109
 2824 0006 6D       		.byte	109
 2825              		.section	.rodata.OSD_CH1_param,"a",%progbits
 2826              		.align	2
 2827              		.set	.LANCHOR20,. + 0
 2830              	OSD_CH1_param:
 2831 0000 06       		.byte	6
 2832 0001 02       		.byte	2
 2833 0002 07       		.byte	7
 2834 0003 6D       		.byte	109
 2835 0004 64       		.byte	100
 2836 0005 6D       		.byte	109
 2837 0006 6D       		.byte	109
 2838              		.section	.rodata.OSD_CH2_param,"a",%progbits
 2839              		.align	2
ARM GAS  /tmp/ccxioO8H.s 			page 71


 2840              		.set	.LANCHOR21,. + 0
 2843              	OSD_CH2_param:
 2844 0000 06       		.byte	6
 2845 0001 02       		.byte	2
 2846 0002 07       		.byte	7
 2847 0003 6D       		.byte	109
 2848 0004 65       		.byte	101
 2849 0005 6D       		.byte	109
 2850 0006 6D       		.byte	109
 2851              		.section	.rodata.OSD_CH3_param,"a",%progbits
 2852              		.align	2
 2853              		.set	.LANCHOR22,. + 0
 2856              	OSD_CH3_param:
 2857 0000 06       		.byte	6
 2858 0001 02       		.byte	2
 2859 0002 07       		.byte	7
 2860 0003 6D       		.byte	109
 2861 0004 66       		.byte	102
 2862 0005 6D       		.byte	109
 2863 0006 6D       		.byte	109
 2864              		.section	.rodata.OSD_No_Signal_param,"a",%progbits
 2865              		.align	2
 2866              		.set	.LANCHOR19,. + 0
 2869              	OSD_No_Signal_param:
 2870 0000 0A       		.byte	10
 2871 0001 0D       		.byte	13
 2872 0002 28       		.byte	40
 2873 0003 6D       		.byte	109
 2874 0004 12       		.byte	18
 2875 0005 22       		.byte	34
 2876 0006 20       		.byte	32
 2877 0007 27       		.byte	39
 2878 0008 1A       		.byte	26
 2879 0009 25       		.byte	37
 2880 000a 6D       		.byte	109
 2881              		.section	.rodata.Set_Video_Loss_OSD.str1.4,"aMS",%progbits,1
 2882              		.align	2
 2883              	.LC0:
 2884 0000 28534554 		.ascii	"(SET_VIDEO_VLOSS ch=%d set=%d)\000"
 2884      5F564944 
 2884      454F5F56 
 2884      4C4F5353 
 2884      2063683D 
 2885              		.section	.rodata.aLineMode1080PMode12Lin1,"a",%progbits
 2886              		.align	2
 2889              	aLineMode1080PMode12Lin1:
 2890 0000 01       		.byte	1
 2891 0001 04       		.byte	4
 2892 0002 25       		.byte	37
 2893 0003 5C       		.byte	92
 2894 0004 04       		.byte	4
 2895 0005 51       		.byte	81
 2896 0006 83       		.byte	-125
 2897              		.section	.rodata.aLineMode1080PMode1Lin1,"a",%progbits
 2898              		.align	2
 2901              	aLineMode1080PMode1Lin1:
 2902 0000 01       		.byte	1
ARM GAS  /tmp/ccxioO8H.s 			page 72


 2903 0001 04       		.byte	4
 2904 0002 25       		.byte	37
 2905 0003 5C       		.byte	92
 2906 0004 04       		.byte	4
 2907 0005 51       		.byte	81
 2908 0006 83       		.byte	-125
 2909              		.section	.rodata.aLineMode1080PMode1Lin2,"a",%progbits
 2910              		.align	2
 2913              	aLineMode1080PMode1Lin2:
 2914 0000 02       		.byte	2
 2915 0001 08       		.byte	8
 2916 0002 94       		.byte	-108
 2917 0003 13       		.byte	19
 2918 0004 82       		.byte	-126
 2919 0005 41       		.byte	65
 2920 0006 83       		.byte	-125
 2921              		.section	.rodata.aLineMode1080PMode2Lin1,"a",%progbits
 2922              		.align	2
 2925              	aLineMode1080PMode2Lin1:
 2926 0000 01       		.byte	1
 2927 0001 04       		.byte	4
 2928 0002 25       		.byte	37
 2929 0003 5C       		.byte	92
 2930 0004 02       		.byte	2
 2931 0005 72       		.byte	114
 2932 0006 83       		.byte	-125
 2933              		.section	.rodata.aLineMode1080PMode2Lin2,"a",%progbits
 2934              		.align	2
 2937              	aLineMode1080PMode2Lin2:
 2938 0000 02       		.byte	2
 2939 0001 04       		.byte	4
 2940 0002 25       		.byte	37
 2941 0003 5C       		.byte	92
 2942 0004 06       		.byte	6
 2943 0005 32       		.byte	50
 2944 0006 83       		.byte	-125
 2945              		.section	.rodata.aLineMode1080PMode2Lin3,"a",%progbits
 2946              		.align	2
 2949              	aLineMode1080PMode2Lin3:
 2950 0000 03       		.byte	3
 2951 0001 26       		.byte	38
 2952 0002 74       		.byte	116
 2953 0003 33       		.byte	51
 2954 0004 82       		.byte	-126
 2955 0005 41       		.byte	65
 2956 0006 83       		.byte	-125
 2957              		.section	.rodata.aLineMode1080PMode6Lin1,"a",%progbits
 2958              		.align	2
 2961              	aLineMode1080PMode6Lin1:
 2962 0000 01       		.byte	1
 2963 0001 04       		.byte	4
 2964 0002 25       		.byte	37
 2965 0003 5C       		.byte	92
 2966 0004 05       		.byte	5
 2967 0005 90       		.byte	-112
 2968 0006 83       		.byte	-125
 2969              		.section	.rodata.aLineMode1080PMode6Lin2,"a",%progbits
ARM GAS  /tmp/ccxioO8H.s 			page 73


 2970              		.align	2
 2973              	aLineMode1080PMode6Lin2:
 2974 0000 02       		.byte	2
 2975 0001 58       		.byte	88
 2976 0002 92       		.byte	-110
 2977 0003 13       		.byte	19
 2978 0004 81       		.byte	-127
 2979 0005 8C       		.byte	-116
 2980 0006 83       		.byte	-125
 2981              		.section	.rodata.aLineMode1080PMode6Lin3,"a",%progbits
 2982              		.align	2
 2985              	aLineMode1080PMode6Lin3:
 2986 0000 03       		.byte	3
 2987 0001 58       		.byte	88
 2988 0002 92       		.byte	-110
 2989 0003 13       		.byte	19
 2990 0004 82       		.byte	-126
 2991 0005 F5       		.byte	-11
 2992 0006 83       		.byte	-125
 2993              		.section	.rodata.aLineMode720PMode12Lin1,"a",%progbits
 2994              		.align	2
 2997              	aLineMode720PMode12Lin1:
 2998 0000 01       		.byte	1
 2999 0001 02       		.byte	2
 3000 0002 15       		.byte	21
 3001 0003 E4       		.byte	-28
 3002 0004 03       		.byte	3
 3003 0005 5A       		.byte	90
 3004 0006 83       		.byte	-125
 3005              		.section	.rodata.aLineMode720PMode1Lin1,"a",%progbits
 3006              		.align	2
 3009              	aLineMode720PMode1Lin1:
 3010 0000 01       		.byte	1
 3011 0001 02       		.byte	2
 3012 0002 15       		.byte	21
 3013 0003 E4       		.byte	-28
 3014 0004 03       		.byte	3
 3015 0005 5A       		.byte	90
 3016 0006 83       		.byte	-125
 3017              		.section	.rodata.aLineMode720PMode1Lin2,"a",%progbits
 3018              		.align	2
 3021              	aLineMode720PMode1Lin2:
 3022 0000 02       		.byte	2
 3023 0001 05       		.byte	5
 3024 0002 DC       		.byte	-36
 3025 0003 DB       		.byte	-37
 3026 0004 81       		.byte	-127
 3027 0005 7D       		.byte	125
 3028 0006 83       		.byte	-125
 3029              		.section	.rodata.aLineMode720PMode2Lin1,"a",%progbits
 3030              		.align	2
 3033              	aLineMode720PMode2Lin1:
 3034 0000 01       		.byte	1
 3035 0001 02       		.byte	2
 3036 0002 15       		.byte	21
 3037 0003 E4       		.byte	-28
 3038 0004 02       		.byte	2
ARM GAS  /tmp/ccxioO8H.s 			page 74


 3039 0005 1A       		.byte	26
 3040 0006 83       		.byte	-125
 3041              		.section	.rodata.aLineMode720PMode2Lin2,"a",%progbits
 3042              		.align	2
 3045              	aLineMode720PMode2Lin2:
 3046 0000 02       		.byte	2
 3047 0001 02       		.byte	2
 3048 0002 15       		.byte	21
 3049 0003 E4       		.byte	-28
 3050 0004 04       		.byte	4
 3051 0005 9A       		.byte	-102
 3052 0006 83       		.byte	-125
 3053              		.section	.rodata.aLineMode720PMode2Lin3,"a",%progbits
 3054              		.align	2
 3057              	aLineMode720PMode2Lin3:
 3058 0000 03       		.byte	3
 3059 0001 24       		.byte	36
 3060 0002 1B       		.byte	27
 3061 0003 9B       		.byte	-101
 3062 0004 81       		.byte	-127
 3063 0005 7D       		.byte	125
 3064 0006 83       		.byte	-125
 3065              		.section	.rodata.aLineMode720PMode6Lin1,"a",%progbits
 3066              		.align	2
 3069              	aLineMode720PMode6Lin1:
 3070 0000 01       		.byte	1
 3071 0001 02       		.byte	2
 3072 0002 15       		.byte	21
 3073 0003 E4       		.byte	-28
 3074 0004 04       		.byte	4
 3075 0005 2E       		.byte	46
 3076 0006 83       		.byte	-125
 3077              		.section	.rodata.aLineMode720PMode6Lin2,"a",%progbits
 3078              		.align	2
 3081              	aLineMode720PMode6Lin2:
 3082 0000 02       		.byte	2
 3083 0001 45       		.byte	69
 3084 0002 30       		.byte	48
 3085 0003 DB       		.byte	-37
 3086 0004 81       		.byte	-127
 3087 0005 04       		.byte	4
 3088 0006 83       		.byte	-125
 3089              		.section	.rodata.aLineMode720PMode6Lin3,"a",%progbits
 3090              		.align	2
 3093              	aLineMode720PMode6Lin3:
 3094 0000 03       		.byte	3
 3095 0001 45       		.byte	69
 3096 0002 30       		.byte	48
 3097 0003 DB       		.byte	-37
 3098 0004 81       		.byte	-127
 3099 0005 F5       		.byte	-11
 3100 0006 83       		.byte	-125
 3101              		.section	.rodata.aLineModeReg,"a",%progbits
 3102              		.align	2
 3105              	aLineModeReg:
 3106 0000 B8       		.byte	-72
 3107 0001 BA       		.byte	-70
ARM GAS  /tmp/ccxioO8H.s 			page 75


 3108 0002 BB       		.byte	-69
 3109 0003 BC       		.byte	-68
 3110 0004 BD       		.byte	-67
 3111 0005 BE       		.byte	-66
 3112 0006 B9       		.byte	-71
 3113              		.text
 3114              	.Letext0:
 3115              		.file 2 "/home/ryan/xun/gcc-arm-none-eabi-7-2018-q2-update/arm-none-eabi/include/machine/_default_
 3116              		.file 3 "/home/ryan/xun/gcc-arm-none-eabi-7-2018-q2-update/arm-none-eabi/include/sys/lock.h"
 3117              		.file 4 "/home/ryan/xun/gcc-arm-none-eabi-7-2018-q2-update/arm-none-eabi/include/sys/_types.h"
 3118              		.file 5 "/home/ryan/xun/gcc-arm-none-eabi-7-2018-q2-update/lib/gcc/arm-none-eabi/7.3.1/include/std
 3119              		.file 6 "/home/ryan/xun/gcc-arm-none-eabi-7-2018-q2-update/arm-none-eabi/include/sys/reent.h"
 3120              		.file 7 "/home/ryan/xun/gcc-arm-none-eabi-7-2018-q2-update/arm-none-eabi/include/sys/_stdint.h"
 3121              		.file 8 "VS4210/VXIS_Extern_Define.h"
 3122              		.file 9 "sw_i2c/VX_swi2c.h"
 3123              		.file 10 "Drivers/CMSIS/Include/core_cm3.h"
 3124              		.file 11 "Drivers/CMSIS/Device/ST/STM32F1xx/Include/system_stm32f1xx.h"
 3125              		.file 12 "Drivers/CMSIS/Device/ST/STM32F1xx/Include/stm32f103xb.h"
 3126              		.file 13 "Drivers/STM32F1xx_HAL_Driver/Inc/stm32f1xx_hal.h"
 3127              		.file 14 "Drivers/STM32F1xx_HAL_Driver/Inc/stm32f1xx_hal_gpio.h"
 3128              		.file 15 "VS4210/Printf.h"
 3129              		.file 16 "VS4210/VX_OSD.h"
 3130              		.file 17 "Inc/main.h"
 3131              		.file 18 "<built-in>"
ARM GAS  /tmp/ccxioO8H.s 			page 76


DEFINED SYMBOLS
                            *ABS*:0000000000000000 VX_OSD_Simple.c
     /tmp/ccxioO8H.s:16     .text.GetconvertBarStr:0000000000000000 $t
     /tmp/ccxioO8H.s:22     .text.GetconvertBarStr:0000000000000000 GetconvertBarStr
     /tmp/ccxioO8H.s:36     .text.GetconvertBarStr:0000000000000008 $d
     /tmp/ccxioO8H.s:215    .text.GetconvertBarStr:00000000000000d0 $d
                            *COM*:0000000000000004 ptcOSDbar
     /tmp/ccxioO8H.s:240    .text.VX_Write_OSD_In_OutString:0000000000000000 $t
     /tmp/ccxioO8H.s:246    .text.VX_Write_OSD_In_OutString:0000000000000000 VX_Write_OSD_In_OutString
     /tmp/ccxioO8H.s:744    .text.VX_Write_OSD_In_OutString:00000000000002c4 $d
                            *COM*:0000000000000001 MenuOSDonFlg
     /tmp/ccxioO8H.s:749    .text.VX_Write_OSD_In_OutString:00000000000002d0 $t
     /tmp/ccxioO8H.s:1071   .text.VX_Write_OSD_In_OutString:00000000000004c4 $d
                            *COM*:0000000000000001 OSDx2Flg
     /tmp/ccxioO8H.s:1078   .text.VXIS_fShowInOutMode:0000000000000000 $t
     /tmp/ccxioO8H.s:1085   .text.VXIS_fShowInOutMode:0000000000000000 VXIS_fShowInOutMode
     /tmp/ccxioO8H.s:1253   .text.VXIS_fShowInOutMode:00000000000000b4 $d
     /tmp/ccxioO8H.s:1264   .text.VXIS_fShowInOutMode0Fast:0000000000000000 $t
     /tmp/ccxioO8H.s:1271   .text.VXIS_fShowInOutMode0Fast:0000000000000000 VXIS_fShowInOutMode0Fast
     /tmp/ccxioO8H.s:1358   .text.VXIS_fShowInOutMode0Fast:000000000000005c $d
     /tmp/ccxioO8H.s:1367   .text.OSD_Clear:0000000000000000 $t
     /tmp/ccxioO8H.s:1374   .text.OSD_Clear:0000000000000000 OSD_Clear
     /tmp/ccxioO8H.s:1508   .text.OSD_Clear:00000000000000a4 $d
     /tmp/ccxioO8H.s:1513   .text.OSD_Clear_4:0000000000000000 $t
     /tmp/ccxioO8H.s:1520   .text.OSD_Clear_4:0000000000000000 OSD_Clear_4
     /tmp/ccxioO8H.s:1541   .text.OSD_Clear_34:0000000000000000 $t
     /tmp/ccxioO8H.s:1548   .text.OSD_Clear_34:0000000000000000 OSD_Clear_34
     /tmp/ccxioO8H.s:1584   .text.OSD_Clear_234:0000000000000000 $t
     /tmp/ccxioO8H.s:1591   .text.OSD_Clear_234:0000000000000000 OSD_Clear_234
     /tmp/ccxioO8H.s:1627   .text.OSD_Clear_All:0000000000000000 $t
     /tmp/ccxioO8H.s:1634   .text.OSD_Clear_All:0000000000000000 OSD_Clear_All
     /tmp/ccxioO8H.s:1670   .text.osd_cont_write:0000000000000000 $t
     /tmp/ccxioO8H.s:1677   .text.osd_cont_write:0000000000000000 osd_cont_write
     /tmp/ccxioO8H.s:1722   .text.osd_cont_write:000000000000002c $d
     /tmp/ccxioO8H.s:1727   .text.VXOSD_UseFont_init:0000000000000000 $t
     /tmp/ccxioO8H.s:1734   .text.VXOSD_UseFont_init:0000000000000000 VXOSD_UseFont_init
     /tmp/ccxioO8H.s:1815   .text.VXOSD_ShowExContent:0000000000000000 $t
     /tmp/ccxioO8H.s:1822   .text.VXOSD_ShowExContent:0000000000000000 VXOSD_ShowExContent
     /tmp/ccxioO8H.s:1931   .text.VXOSD_ShowExContent:0000000000000084 $d
     /tmp/ccxioO8H.s:1936   .text.VXOSD_SelectExContent:0000000000000000 $t
     /tmp/ccxioO8H.s:1943   .text.VXOSD_SelectExContent:0000000000000000 VXOSD_SelectExContent
     /tmp/ccxioO8H.s:1998   .text.Set_Video_Loss_OSD:0000000000000000 $t
     /tmp/ccxioO8H.s:2005   .text.Set_Video_Loss_OSD:0000000000000000 Set_Video_Loss_OSD
     /tmp/ccxioO8H.s:2111   .text.Set_Video_Loss_OSD:0000000000000084 $d
     /tmp/ccxioO8H.s:2997   .rodata.aLineMode720PMode12Lin1:0000000000000000 aLineMode720PMode12Lin1
     /tmp/ccxioO8H.s:2889   .rodata.aLineMode1080PMode12Lin1:0000000000000000 aLineMode1080PMode12Lin1
     /tmp/ccxioO8H.s:3093   .rodata.aLineMode720PMode6Lin3:0000000000000000 aLineMode720PMode6Lin3
     /tmp/ccxioO8H.s:3081   .rodata.aLineMode720PMode6Lin2:0000000000000000 aLineMode720PMode6Lin2
     /tmp/ccxioO8H.s:3069   .rodata.aLineMode720PMode6Lin1:0000000000000000 aLineMode720PMode6Lin1
     /tmp/ccxioO8H.s:3057   .rodata.aLineMode720PMode2Lin3:0000000000000000 aLineMode720PMode2Lin3
     /tmp/ccxioO8H.s:3045   .rodata.aLineMode720PMode2Lin2:0000000000000000 aLineMode720PMode2Lin2
     /tmp/ccxioO8H.s:3033   .rodata.aLineMode720PMode2Lin1:0000000000000000 aLineMode720PMode2Lin1
     /tmp/ccxioO8H.s:3021   .rodata.aLineMode720PMode1Lin2:0000000000000000 aLineMode720PMode1Lin2
     /tmp/ccxioO8H.s:3009   .rodata.aLineMode720PMode1Lin1:0000000000000000 aLineMode720PMode1Lin1
     /tmp/ccxioO8H.s:2985   .rodata.aLineMode1080PMode6Lin3:0000000000000000 aLineMode1080PMode6Lin3
     /tmp/ccxioO8H.s:2973   .rodata.aLineMode1080PMode6Lin2:0000000000000000 aLineMode1080PMode6Lin2
     /tmp/ccxioO8H.s:2961   .rodata.aLineMode1080PMode6Lin1:0000000000000000 aLineMode1080PMode6Lin1
ARM GAS  /tmp/ccxioO8H.s 			page 77


     /tmp/ccxioO8H.s:2949   .rodata.aLineMode1080PMode2Lin3:0000000000000000 aLineMode1080PMode2Lin3
     /tmp/ccxioO8H.s:2937   .rodata.aLineMode1080PMode2Lin2:0000000000000000 aLineMode1080PMode2Lin2
     /tmp/ccxioO8H.s:2925   .rodata.aLineMode1080PMode2Lin1:0000000000000000 aLineMode1080PMode2Lin1
     /tmp/ccxioO8H.s:2913   .rodata.aLineMode1080PMode1Lin2:0000000000000000 aLineMode1080PMode1Lin2
     /tmp/ccxioO8H.s:2901   .rodata.aLineMode1080PMode1Lin1:0000000000000000 aLineMode1080PMode1Lin1
     /tmp/ccxioO8H.s:3105   .rodata.aLineModeReg:0000000000000000 aLineModeReg
     /tmp/ccxioO8H.s:2358   .rodata.Mode24_w1_720P_param:0000000000000000 Mode24_w1_720P_param
     /tmp/ccxioO8H.s:2344   .rodata.Mode24_w0_720P_param:0000000000000000 Mode24_w0_720P_param
     /tmp/ccxioO8H.s:2274   .rodata.Mode13_w1_720P_param:0000000000000000 Mode13_w1_720P_param
     /tmp/ccxioO8H.s:2260   .rodata.Mode13_w0_720P_param:0000000000000000 Mode13_w0_720P_param
     /tmp/ccxioO8H.s:2351   .rodata.Mode24_w1_1080P_param:0000000000000000 Mode24_w1_1080P_param
     /tmp/ccxioO8H.s:2337   .rodata.Mode24_w0_1080P_param:0000000000000000 Mode24_w0_1080P_param
     /tmp/ccxioO8H.s:2267   .rodata.Mode13_w1_1080P_param:0000000000000000 Mode13_w1_1080P_param
     /tmp/ccxioO8H.s:2253   .rodata.Mode13_w0_1080P_param:0000000000000000 Mode13_w0_1080P_param
     /tmp/ccxioO8H.s:2246   .rodata.Mode12_w1_720P_param:0000000000000000 Mode12_w1_720P_param
     /tmp/ccxioO8H.s:2232   .rodata.Mode12_w0_720P_param:0000000000000000 Mode12_w0_720P_param
     /tmp/ccxioO8H.s:2470   .rodata.Mode6_w3_720P_param:0000000000000000 Mode6_w3_720P_param
     /tmp/ccxioO8H.s:2456   .rodata.Mode6_w2_720P_param:0000000000000000 Mode6_w2_720P_param
     /tmp/ccxioO8H.s:2442   .rodata.Mode6_w1_720P_param:0000000000000000 Mode6_w1_720P_param
     /tmp/ccxioO8H.s:2428   .rodata.Mode6_w0_720P_param:0000000000000000 Mode6_w0_720P_param
     /tmp/ccxioO8H.s:2414   .rodata.Mode2_w3_720P_param:0000000000000000 Mode2_w3_720P_param
     /tmp/ccxioO8H.s:2400   .rodata.Mode2_w2_720P_param:0000000000000000 Mode2_w2_720P_param
     /tmp/ccxioO8H.s:2386   .rodata.Mode2_w1_720P_param:0000000000000000 Mode2_w1_720P_param
     /tmp/ccxioO8H.s:2372   .rodata.Mode2_w0_720P_param:0000000000000000 Mode2_w0_720P_param
     /tmp/ccxioO8H.s:2330   .rodata.Mode1_w3_720P_param:0000000000000000 Mode1_w3_720P_param
     /tmp/ccxioO8H.s:2316   .rodata.Mode1_w2_720P_param:0000000000000000 Mode1_w2_720P_param
     /tmp/ccxioO8H.s:2302   .rodata.Mode1_w1_720P_param:0000000000000000 Mode1_w1_720P_param
     /tmp/ccxioO8H.s:2288   .rodata.Mode1_w0_720P_param:0000000000000000 Mode1_w0_720P_param
     /tmp/ccxioO8H.s:2218   .rodata.Mode0_720P_param:0000000000000000 Mode0_720P_param
     /tmp/ccxioO8H.s:2239   .rodata.Mode12_w1_1080P_param:0000000000000000 Mode12_w1_1080P_param
     /tmp/ccxioO8H.s:2225   .rodata.Mode12_w0_1080P_param:0000000000000000 Mode12_w0_1080P_param
     /tmp/ccxioO8H.s:2463   .rodata.Mode6_w3_1080P_param:0000000000000000 Mode6_w3_1080P_param
     /tmp/ccxioO8H.s:2449   .rodata.Mode6_w2_1080P_param:0000000000000000 Mode6_w2_1080P_param
     /tmp/ccxioO8H.s:2435   .rodata.Mode6_w1_1080P_param:0000000000000000 Mode6_w1_1080P_param
     /tmp/ccxioO8H.s:2421   .rodata.Mode6_w0_1080P_param:0000000000000000 Mode6_w0_1080P_param
     /tmp/ccxioO8H.s:2407   .rodata.Mode2_w3_1080P_param:0000000000000000 Mode2_w3_1080P_param
     /tmp/ccxioO8H.s:2393   .rodata.Mode2_w2_1080P_param:0000000000000000 Mode2_w2_1080P_param
     /tmp/ccxioO8H.s:2379   .rodata.Mode2_w1_1080P_param:0000000000000000 Mode2_w1_1080P_param
     /tmp/ccxioO8H.s:2365   .rodata.Mode2_w0_1080P_param:0000000000000000 Mode2_w0_1080P_param
     /tmp/ccxioO8H.s:2323   .rodata.Mode1_w3_1080P_param:0000000000000000 Mode1_w3_1080P_param
     /tmp/ccxioO8H.s:2309   .rodata.Mode1_w2_1080P_param:0000000000000000 Mode1_w2_1080P_param
     /tmp/ccxioO8H.s:2295   .rodata.Mode1_w1_1080P_param:0000000000000000 Mode1_w1_1080P_param
     /tmp/ccxioO8H.s:2281   .rodata.Mode1_w0_1080P_param:0000000000000000 Mode1_w0_1080P_param
     /tmp/ccxioO8H.s:2211   .rodata.Mode0_1080P_param:0000000000000000 Mode0_1080P_param
     /tmp/ccxioO8H.s:2856   .rodata.OSD_CH3_param:0000000000000000 OSD_CH3_param
     /tmp/ccxioO8H.s:2843   .rodata.OSD_CH2_param:0000000000000000 OSD_CH2_param
     /tmp/ccxioO8H.s:2830   .rodata.OSD_CH1_param:0000000000000000 OSD_CH1_param
     /tmp/ccxioO8H.s:2817   .rodata.OSD_CH0_param:0000000000000000 OSD_CH0_param
     /tmp/ccxioO8H.s:2869   .rodata.OSD_No_Signal_param:0000000000000000 OSD_No_Signal_param
     /tmp/ccxioO8H.s:2664   .rodata.OSD_1920X1200P_param:0000000000000000 OSD_1920X1200P_param
     /tmp/ccxioO8H.s:2630   .rodata.OSD_1600X1200P_param:0000000000000000 OSD_1600X1200P_param
     /tmp/ccxioO8H.s:2647   .rodata.OSD_1680X1050P_param:0000000000000000 OSD_1680X1050P_param
     /tmp/ccxioO8H.s:2596   .rodata.OSD_1400X1050P_param:0000000000000000 OSD_1400X1050P_param
     /tmp/ccxioO8H.s:2495   .rodata.OSD_1280X1024P_param:0000000000000000 OSD_1280X1024P_param
     /tmp/ccxioO8H.s:2613   .rodata.OSD_1440X900P_param:0000000000000000 OSD_1440X900P_param
     /tmp/ccxioO8H.s:2529   .rodata.OSD_1280X800P_param:0000000000000000 OSD_1280X800P_param
     /tmp/ccxioO8H.s:2579   .rodata.OSD_1366X768P_param:0000000000000000 OSD_1366X768P_param
ARM GAS  /tmp/ccxioO8H.s 			page 78


     /tmp/ccxioO8H.s:2562   .rodata.OSD_1360X768P_param:0000000000000000 OSD_1360X768P_param
     /tmp/ccxioO8H.s:2512   .rodata.OSD_1280X768P_param:0000000000000000 OSD_1280X768P_param
     /tmp/ccxioO8H.s:2478   .rodata.OSD_1024X768P_param:0000000000000000 OSD_1024X768P_param
     /tmp/ccxioO8H.s:2800   .rodata.OSD_800X600P_param:0000000000000000 OSD_800X600P_param
     /tmp/ccxioO8H.s:2715   .rodata.OSD_640X480P_param:0000000000000000 OSD_640X480P_param
     /tmp/ccxioO8H.s:2681   .rodata.OSD_1920x1080I_param:0000000000000000 OSD_1920x1080I_param
     /tmp/ccxioO8H.s:2698   .rodata.OSD_1920x1080P_param:0000000000000000 OSD_1920x1080P_param
     /tmp/ccxioO8H.s:2546   .rodata.OSD_1280x720P_param:0000000000000000 OSD_1280x720P_param
     /tmp/ccxioO8H.s:2783   .rodata.OSD_720x576P50_param:0000000000000000 OSD_720x576P50_param
     /tmp/ccxioO8H.s:2766   .rodata.OSD_720x576I50_param:0000000000000000 OSD_720x576I50_param
     /tmp/ccxioO8H.s:2749   .rodata.OSD_720x480P60_param:0000000000000000 OSD_720x480P60_param
     /tmp/ccxioO8H.s:2732   .rodata.OSD_720x480I60_param:0000000000000000 OSD_720x480I60_param
     /tmp/ccxioO8H.s:2205   .bss.bVloss_Flag:0000000000000000 bVloss_Flag
     /tmp/ccxioO8H.s:2206   .bss.bVloss_Flag:0000000000000000 $d
     /tmp/ccxioO8H.s:2208   .rodata.Mode0_1080P_param:0000000000000000 $d
     /tmp/ccxioO8H.s:2215   .rodata.Mode0_720P_param:0000000000000000 $d
     /tmp/ccxioO8H.s:2222   .rodata.Mode12_w0_1080P_param:0000000000000000 $d
     /tmp/ccxioO8H.s:2229   .rodata.Mode12_w0_720P_param:0000000000000000 $d
     /tmp/ccxioO8H.s:2236   .rodata.Mode12_w1_1080P_param:0000000000000000 $d
     /tmp/ccxioO8H.s:2243   .rodata.Mode12_w1_720P_param:0000000000000000 $d
     /tmp/ccxioO8H.s:2250   .rodata.Mode13_w0_1080P_param:0000000000000000 $d
     /tmp/ccxioO8H.s:2257   .rodata.Mode13_w0_720P_param:0000000000000000 $d
     /tmp/ccxioO8H.s:2264   .rodata.Mode13_w1_1080P_param:0000000000000000 $d
     /tmp/ccxioO8H.s:2271   .rodata.Mode13_w1_720P_param:0000000000000000 $d
     /tmp/ccxioO8H.s:2278   .rodata.Mode1_w0_1080P_param:0000000000000000 $d
     /tmp/ccxioO8H.s:2285   .rodata.Mode1_w0_720P_param:0000000000000000 $d
     /tmp/ccxioO8H.s:2292   .rodata.Mode1_w1_1080P_param:0000000000000000 $d
     /tmp/ccxioO8H.s:2299   .rodata.Mode1_w1_720P_param:0000000000000000 $d
     /tmp/ccxioO8H.s:2306   .rodata.Mode1_w2_1080P_param:0000000000000000 $d
     /tmp/ccxioO8H.s:2313   .rodata.Mode1_w2_720P_param:0000000000000000 $d
     /tmp/ccxioO8H.s:2320   .rodata.Mode1_w3_1080P_param:0000000000000000 $d
     /tmp/ccxioO8H.s:2327   .rodata.Mode1_w3_720P_param:0000000000000000 $d
     /tmp/ccxioO8H.s:2334   .rodata.Mode24_w0_1080P_param:0000000000000000 $d
     /tmp/ccxioO8H.s:2341   .rodata.Mode24_w0_720P_param:0000000000000000 $d
     /tmp/ccxioO8H.s:2348   .rodata.Mode24_w1_1080P_param:0000000000000000 $d
     /tmp/ccxioO8H.s:2355   .rodata.Mode24_w1_720P_param:0000000000000000 $d
     /tmp/ccxioO8H.s:2362   .rodata.Mode2_w0_1080P_param:0000000000000000 $d
     /tmp/ccxioO8H.s:2369   .rodata.Mode2_w0_720P_param:0000000000000000 $d
     /tmp/ccxioO8H.s:2376   .rodata.Mode2_w1_1080P_param:0000000000000000 $d
     /tmp/ccxioO8H.s:2383   .rodata.Mode2_w1_720P_param:0000000000000000 $d
     /tmp/ccxioO8H.s:2390   .rodata.Mode2_w2_1080P_param:0000000000000000 $d
     /tmp/ccxioO8H.s:2397   .rodata.Mode2_w2_720P_param:0000000000000000 $d
     /tmp/ccxioO8H.s:2404   .rodata.Mode2_w3_1080P_param:0000000000000000 $d
     /tmp/ccxioO8H.s:2411   .rodata.Mode2_w3_720P_param:0000000000000000 $d
     /tmp/ccxioO8H.s:2418   .rodata.Mode6_w0_1080P_param:0000000000000000 $d
     /tmp/ccxioO8H.s:2425   .rodata.Mode6_w0_720P_param:0000000000000000 $d
     /tmp/ccxioO8H.s:2432   .rodata.Mode6_w1_1080P_param:0000000000000000 $d
     /tmp/ccxioO8H.s:2439   .rodata.Mode6_w1_720P_param:0000000000000000 $d
     /tmp/ccxioO8H.s:2446   .rodata.Mode6_w2_1080P_param:0000000000000000 $d
     /tmp/ccxioO8H.s:2453   .rodata.Mode6_w2_720P_param:0000000000000000 $d
     /tmp/ccxioO8H.s:2460   .rodata.Mode6_w3_1080P_param:0000000000000000 $d
     /tmp/ccxioO8H.s:2467   .rodata.Mode6_w3_720P_param:0000000000000000 $d
     /tmp/ccxioO8H.s:2474   .rodata.OSD_1024X768P_param:0000000000000000 $d
     /tmp/ccxioO8H.s:2491   .rodata.OSD_1280X1024P_param:0000000000000000 $d
     /tmp/ccxioO8H.s:2508   .rodata.OSD_1280X768P_param:0000000000000000 $d
     /tmp/ccxioO8H.s:2525   .rodata.OSD_1280X800P_param:0000000000000000 $d
     /tmp/ccxioO8H.s:2542   .rodata.OSD_1280x720P_param:0000000000000000 $d
ARM GAS  /tmp/ccxioO8H.s 			page 79


     /tmp/ccxioO8H.s:2559   .rodata.OSD_1360X768P_param:0000000000000000 $d
     /tmp/ccxioO8H.s:2575   .rodata.OSD_1366X768P_param:0000000000000000 $d
     /tmp/ccxioO8H.s:2592   .rodata.OSD_1400X1050P_param:0000000000000000 $d
     /tmp/ccxioO8H.s:2609   .rodata.OSD_1440X900P_param:0000000000000000 $d
     /tmp/ccxioO8H.s:2626   .rodata.OSD_1600X1200P_param:0000000000000000 $d
     /tmp/ccxioO8H.s:2643   .rodata.OSD_1680X1050P_param:0000000000000000 $d
     /tmp/ccxioO8H.s:2660   .rodata.OSD_1920X1200P_param:0000000000000000 $d
     /tmp/ccxioO8H.s:2677   .rodata.OSD_1920x1080I_param:0000000000000000 $d
     /tmp/ccxioO8H.s:2694   .rodata.OSD_1920x1080P_param:0000000000000000 $d
     /tmp/ccxioO8H.s:2711   .rodata.OSD_640X480P_param:0000000000000000 $d
     /tmp/ccxioO8H.s:2728   .rodata.OSD_720x480I60_param:0000000000000000 $d
     /tmp/ccxioO8H.s:2745   .rodata.OSD_720x480P60_param:0000000000000000 $d
     /tmp/ccxioO8H.s:2762   .rodata.OSD_720x576I50_param:0000000000000000 $d
     /tmp/ccxioO8H.s:2779   .rodata.OSD_720x576P50_param:0000000000000000 $d
     /tmp/ccxioO8H.s:2796   .rodata.OSD_800X600P_param:0000000000000000 $d
     /tmp/ccxioO8H.s:2813   .rodata.OSD_CH0_param:0000000000000000 $d
     /tmp/ccxioO8H.s:2826   .rodata.OSD_CH1_param:0000000000000000 $d
     /tmp/ccxioO8H.s:2839   .rodata.OSD_CH2_param:0000000000000000 $d
     /tmp/ccxioO8H.s:2852   .rodata.OSD_CH3_param:0000000000000000 $d
     /tmp/ccxioO8H.s:2865   .rodata.OSD_No_Signal_param:0000000000000000 $d
     /tmp/ccxioO8H.s:2882   .rodata.Set_Video_Loss_OSD.str1.4:0000000000000000 $d
     /tmp/ccxioO8H.s:2886   .rodata.aLineMode1080PMode12Lin1:0000000000000000 $d
     /tmp/ccxioO8H.s:2898   .rodata.aLineMode1080PMode1Lin1:0000000000000000 $d
     /tmp/ccxioO8H.s:2910   .rodata.aLineMode1080PMode1Lin2:0000000000000000 $d
     /tmp/ccxioO8H.s:2922   .rodata.aLineMode1080PMode2Lin1:0000000000000000 $d
     /tmp/ccxioO8H.s:2934   .rodata.aLineMode1080PMode2Lin2:0000000000000000 $d
     /tmp/ccxioO8H.s:2946   .rodata.aLineMode1080PMode2Lin3:0000000000000000 $d
     /tmp/ccxioO8H.s:2958   .rodata.aLineMode1080PMode6Lin1:0000000000000000 $d
     /tmp/ccxioO8H.s:2970   .rodata.aLineMode1080PMode6Lin2:0000000000000000 $d
     /tmp/ccxioO8H.s:2982   .rodata.aLineMode1080PMode6Lin3:0000000000000000 $d
     /tmp/ccxioO8H.s:2994   .rodata.aLineMode720PMode12Lin1:0000000000000000 $d
     /tmp/ccxioO8H.s:3006   .rodata.aLineMode720PMode1Lin1:0000000000000000 $d
     /tmp/ccxioO8H.s:3018   .rodata.aLineMode720PMode1Lin2:0000000000000000 $d
     /tmp/ccxioO8H.s:3030   .rodata.aLineMode720PMode2Lin1:0000000000000000 $d
     /tmp/ccxioO8H.s:3042   .rodata.aLineMode720PMode2Lin2:0000000000000000 $d
     /tmp/ccxioO8H.s:3054   .rodata.aLineMode720PMode2Lin3:0000000000000000 $d
     /tmp/ccxioO8H.s:3066   .rodata.aLineMode720PMode6Lin1:0000000000000000 $d
     /tmp/ccxioO8H.s:3078   .rodata.aLineMode720PMode6Lin2:0000000000000000 $d
     /tmp/ccxioO8H.s:3090   .rodata.aLineMode720PMode6Lin3:0000000000000000 $d
     /tmp/ccxioO8H.s:3102   .rodata.aLineModeReg:0000000000000000 $d
     /tmp/ccxioO8H.s:57     .text.GetconvertBarStr:000000000000001d $d
     /tmp/ccxioO8H.s:57     .text.GetconvertBarStr:000000000000001e $t

UNDEFINED SYMBOLS
setTransParentIndex
VXIS_fSetOsdOnOff
u8gDrawOSDFlg
gbVXIS_OuputSize
SetOsdSize
SetOsdStartAddress
OsdDumpString
OsdDumpAttribute
SetOsdPosition
gaHDMI_MapWindowIndex
gu8AudioMode
VXISI2CRead
VXISI2CWrite
ARM GAS  /tmp/ccxioO8H.s 			page 80


memcpy
I2CMultiWrite
VS4210_ADDR
VXIS_fSetOsdx2
HAL_GPIO_WritePin
GraphicsPrint
