ARM GAS  /tmp/ccKygfrs.s 			page 1


   1              		.syntax unified
   2              		.cpu cortex-m3
   3              		.fpu softvfp
   4              		.eabi_attribute 20, 1
   5              		.eabi_attribute 21, 1
   6              		.eabi_attribute 23, 3
   7              		.eabi_attribute 24, 1
   8              		.eabi_attribute 25, 1
   9              		.eabi_attribute 26, 1
  10              		.eabi_attribute 30, 1
  11              		.eabi_attribute 34, 1
  12              		.eabi_attribute 18, 4
  13              		.thumb
  14              		.file	"VX_OSD.c"
  15              		.text
  16              	.Ltext0:
  17              		.cfi_sections	.debug_frame
  18              		.section	.text.ClearDisplayedOSD,"ax",%progbits
  19              		.align	2
  20              		.global	ClearDisplayedOSD
  21              		.thumb
  22              		.thumb_func
  24              	ClearDisplayedOSD:
  25              	.LFB0:
  26              		.file 1 "VS4210/VX_OSD.c"
   1:VS4210/VX_OSD.c **** /** @file VX_OSD.c
   2:VS4210/VX_OSD.c ****   * @brief OSD font utility
   3:VS4210/VX_OSD.c ****   *
   4:VS4210/VX_OSD.c ****   * Input source or resolution displayed on the screen.
   5:VS4210/VX_OSD.c ****   *
   6:VS4210/VX_OSD.c ****   * @author Cunu-Yu
   7:VS4210/VX_OSD.c ****   * @date 2018/06/19
   8:VS4210/VX_OSD.c ****   */
   9:VS4210/VX_OSD.c **** 
  10:VS4210/VX_OSD.c **** #include "VXIS_Extern_Define.h"
  11:VS4210/VX_OSD.c **** #include "VX_OSD.h"
  12:VS4210/VX_OSD.c **** #include "VX_swi2c.h"
  13:VS4210/VX_OSD.c **** 
  14:VS4210/VX_OSD.c **** tByte DisplayedOSD=0;
  15:VS4210/VX_OSD.c **** 
  16:VS4210/VX_OSD.c **** void ClearDisplayedOSD( BYTE newd )
  17:VS4210/VX_OSD.c **** {
  27              		.loc 1 17 0
  28              		.cfi_startproc
  29              		@ args = 0, pretend = 0, frame = 0
  30              		@ frame_needed = 0, uses_anonymous_args = 0
  31              		@ link register save eliminated.
  32              	.LVL0:
  18:VS4210/VX_OSD.c **** 	DisplayedOSD &= (~(newd));
  33              		.loc 1 18 0
  34 0000 024A     		ldr	r2, .L2
  35 0002 1378     		ldrb	r3, [r2]	@ zero_extendqisi2
  36 0004 23EA0000 		bic	r0, r3, r0
  37              	.LVL1:
  38 0008 1070     		strb	r0, [r2]
  39 000a 7047     		bx	lr
  40              	.L3:
ARM GAS  /tmp/ccKygfrs.s 			page 2


  41              		.align	2
  42              	.L2:
  43 000c 00000000 		.word	.LANCHOR0
  44              		.cfi_endproc
  45              	.LFE0:
  47              		.section	.text.SetDisplayedOSD,"ax",%progbits
  48              		.align	2
  49              		.global	SetDisplayedOSD
  50              		.thumb
  51              		.thumb_func
  53              	SetDisplayedOSD:
  54              	.LFB1:
  19:VS4210/VX_OSD.c **** }
  20:VS4210/VX_OSD.c **** 
  21:VS4210/VX_OSD.c **** void SetDisplayedOSD( BYTE newd )
  22:VS4210/VX_OSD.c **** {
  55              		.loc 1 22 0
  56              		.cfi_startproc
  57              		@ args = 0, pretend = 0, frame = 0
  58              		@ frame_needed = 0, uses_anonymous_args = 0
  59              		@ link register save eliminated.
  60              	.LVL2:
  23:VS4210/VX_OSD.c **** 	DisplayedOSD |= newd;
  61              		.loc 1 23 0
  62 0000 024A     		ldr	r2, .L5
  63 0002 1378     		ldrb	r3, [r2]	@ zero_extendqisi2
  64 0004 1843     		orrs	r0, r0, r3
  65              	.LVL3:
  66 0006 1070     		strb	r0, [r2]
  67 0008 7047     		bx	lr
  68              	.L6:
  69 000a 00BF     		.align	2
  70              	.L5:
  71 000c 00000000 		.word	.LANCHOR0
  72              		.cfi_endproc
  73              	.LFE1:
  75              		.section	.text.GetDisplayedOSD,"ax",%progbits
  76              		.align	2
  77              		.global	GetDisplayedOSD
  78              		.thumb
  79              		.thumb_func
  81              	GetDisplayedOSD:
  82              	.LFB2:
  24:VS4210/VX_OSD.c **** }
  25:VS4210/VX_OSD.c **** 
  26:VS4210/VX_OSD.c **** 
  27:VS4210/VX_OSD.c **** BYTE GetDisplayedOSD(void)
  28:VS4210/VX_OSD.c **** {
  83              		.loc 1 28 0
  84              		.cfi_startproc
  85              		@ args = 0, pretend = 0, frame = 0
  86              		@ frame_needed = 0, uses_anonymous_args = 0
  87              		@ link register save eliminated.
  29:VS4210/VX_OSD.c **** 	return DisplayedOSD;
  30:VS4210/VX_OSD.c **** }
  88              		.loc 1 30 0
  89 0000 014B     		ldr	r3, .L8
ARM GAS  /tmp/ccKygfrs.s 			page 3


  90 0002 1878     		ldrb	r0, [r3]	@ zero_extendqisi2
  91 0004 7047     		bx	lr
  92              	.L9:
  93 0006 00BF     		.align	2
  94              	.L8:
  95 0008 00000000 		.word	.LANCHOR0
  96              		.cfi_endproc
  97              	.LFE2:
  99              		.section	.text.SetOsdStartAddress,"ax",%progbits
 100              		.align	2
 101              		.global	SetOsdStartAddress
 102              		.thumb
 103              		.thumb_func
 105              	SetOsdStartAddress:
 106              	.LFB3:
  31:VS4210/VX_OSD.c **** 
  32:VS4210/VX_OSD.c **** void SetOsdStartAddress(tByte block,tByte addr)
  33:VS4210/VX_OSD.c **** {
 107              		.loc 1 33 0
 108              		.cfi_startproc
 109              		@ args = 0, pretend = 0, frame = 0
 110              		@ frame_needed = 0, uses_anonymous_args = 0
 111              	.LVL4:
 112 0000 08B5     		push	{r3, lr}
 113              	.LCFI0:
 114              		.cfi_def_cfa_offset 8
 115              		.cfi_offset 3, -8
 116              		.cfi_offset 14, -4
  34:VS4210/VX_OSD.c ****     switch(block)
 117              		.loc 1 34 0
 118 0002 0828     		cmp	r0, #8
 119 0004 11D8     		bhi	.L10
 120 0006 DFE800F0 		tbb	[pc, r0]
 121              	.L13:
 122 000a 05       		.byte	(.L12-.L13)/2
 123 000b 05       		.byte	(.L12-.L13)/2
 124 000c 05       		.byte	(.L12-.L13)/2
 125 000d 05       		.byte	(.L12-.L13)/2
 126 000e 0D       		.byte	(.L14-.L13)/2
 127 000f 0D       		.byte	(.L14-.L13)/2
 128 0010 0D       		.byte	(.L14-.L13)/2
 129 0011 0D       		.byte	(.L14-.L13)/2
 130 0012 09       		.byte	(.L15-.L13)/2
 131 0013 00       		.p2align 1
 132              	.L12:
  35:VS4210/VX_OSD.c ****     {
  36:VS4210/VX_OSD.c ****     case(_Title0):
  37:VS4210/VX_OSD.c ****     case(_Title1):
  38:VS4210/VX_OSD.c ****     case(_Title2):
  39:VS4210/VX_OSD.c ****     case(_Title3):
  40:VS4210/VX_OSD.c ****         VXISI2CWrite(0x52,addr);
 133              		.loc 1 40 0
 134 0014 5220     		movs	r0, #82
 135              	.LVL5:
 136 0016 FFF7FEFF 		bl	VXISI2CWrite
 137              	.LVL6:
  41:VS4210/VX_OSD.c ****         break;
ARM GAS  /tmp/ccKygfrs.s 			page 4


 138              		.loc 1 41 0
 139 001a 08BD     		pop	{r3, pc}
 140              	.LVL7:
 141              	.L15:
  42:VS4210/VX_OSD.c **** 
  43:VS4210/VX_OSD.c ****     case(_Content):
  44:VS4210/VX_OSD.c ****         VXISI2CWrite(0x57,addr);
 142              		.loc 1 44 0
 143 001c 5720     		movs	r0, #87
 144              	.LVL8:
 145 001e FFF7FEFF 		bl	VXISI2CWrite
 146              	.LVL9:
  45:VS4210/VX_OSD.c ****         break;
 147              		.loc 1 45 0
 148 0022 08BD     		pop	{r3, pc}
 149              	.LVL10:
 150              	.L14:
  46:VS4210/VX_OSD.c **** 
  47:VS4210/VX_OSD.c ****     case(_Bar0):
  48:VS4210/VX_OSD.c ****     case(_Bar1):
  49:VS4210/VX_OSD.c ****     case(_Bar2):
  50:VS4210/VX_OSD.c ****     case(_Bar3):
  51:VS4210/VX_OSD.c ****         VXISI2CWrite(0x5D,addr);
 151              		.loc 1 51 0
 152 0024 5D20     		movs	r0, #93
 153              	.LVL11:
 154 0026 FFF7FEFF 		bl	VXISI2CWrite
 155              	.LVL12:
 156              	.L10:
 157 002a 08BD     		pop	{r3, pc}
 158              		.cfi_endproc
 159              	.LFE3:
 161              		.section	.text.SetOsdSize,"ax",%progbits
 162              		.align	2
 163              		.global	SetOsdSize
 164              		.thumb
 165              		.thumb_func
 167              	SetOsdSize:
 168              	.LFB4:
  52:VS4210/VX_OSD.c ****         break;
  53:VS4210/VX_OSD.c **** 
  54:VS4210/VX_OSD.c ****     default:
  55:VS4210/VX_OSD.c ****         break;
  56:VS4210/VX_OSD.c ****     }
  57:VS4210/VX_OSD.c **** }
  58:VS4210/VX_OSD.c **** 
  59:VS4210/VX_OSD.c **** //---------------------------------------------------------------------------
  60:VS4210/VX_OSD.c **** void SetOsdSize(tByte block,tByte sizeX,tByte sizeY)
  61:VS4210/VX_OSD.c **** {
 169              		.loc 1 61 0
 170              		.cfi_startproc
 171              		@ args = 0, pretend = 0, frame = 0
 172              		@ frame_needed = 0, uses_anonymous_args = 0
 173              	.LVL13:
 174 0000 F8B5     		push	{r3, r4, r5, r6, r7, lr}
 175              	.LCFI1:
 176              		.cfi_def_cfa_offset 24
ARM GAS  /tmp/ccKygfrs.s 			page 5


 177              		.cfi_offset 3, -24
 178              		.cfi_offset 4, -20
 179              		.cfi_offset 5, -16
 180              		.cfi_offset 6, -12
 181              		.cfi_offset 7, -8
 182              		.cfi_offset 14, -4
 183 0002 0546     		mov	r5, r0
 184 0004 0C46     		mov	r4, r1
 185 0006 1746     		mov	r7, r2
  62:VS4210/VX_OSD.c ****     tByte temp;
  63:VS4210/VX_OSD.c ****     tByte tempBar;
  64:VS4210/VX_OSD.c ****     tByte sizeX3f ;
  65:VS4210/VX_OSD.c **** 
  66:VS4210/VX_OSD.c ****     temp=VXISI2CRead(0x53) & 0x3f ;
 186              		.loc 1 66 0
 187 0008 5320     		movs	r0, #83
 188              	.LVL14:
 189 000a FFF7FEFF 		bl	VXISI2CRead
 190              	.LVL15:
 191 000e 00F03F06 		and	r6, r0, #63
 192              	.LVL16:
  67:VS4210/VX_OSD.c ****     tempBar=VXISI2CRead(0x5E) & 0x3f ;
 193              		.loc 1 67 0
 194 0012 5E20     		movs	r0, #94
 195 0014 FFF7FEFF 		bl	VXISI2CRead
 196              	.LVL17:
 197 0018 00F03F01 		and	r1, r0, #63
 198              	.LVL18:
  68:VS4210/VX_OSD.c ****     sizeX3f = sizeX & 0x3f ;
 199              		.loc 1 68 0
 200 001c 04F03F04 		and	r4, r4, #63
 201              	.LVL19:
  69:VS4210/VX_OSD.c **** 
  70:VS4210/VX_OSD.c ****     switch(block)
 202              		.loc 1 70 0
 203 0020 082D     		cmp	r5, #8
 204 0022 62D8     		bhi	.L17
 205 0024 DFE805F0 		tbb	[pc, r5]
 206              	.L20:
 207 0028 05       		.byte	(.L19-.L20)/2
 208 0029 0E       		.byte	(.L21-.L20)/2
 209 002a 19       		.byte	(.L22-.L20)/2
 210 002b 24       		.byte	(.L23-.L20)/2
 211 002c 2F       		.byte	(.L24-.L20)/2
 212 002d 37       		.byte	(.L25-.L20)/2
 213 002e 42       		.byte	(.L26-.L20)/2
 214 002f 4D       		.byte	(.L27-.L20)/2
 215 0030 58       		.byte	(.L28-.L20)/2
 216 0031 00       		.p2align 1
 217              	.L19:
  71:VS4210/VX_OSD.c ****     {
  72:VS4210/VX_OSD.c ****     case _Title0 :        
  73:VS4210/VX_OSD.c ****         //VXISI2CWrite(0x53,temp&0x3f);
  74:VS4210/VX_OSD.c ****         //VXISI2CWrite(0x53,sizeX&0x3f);
  75:VS4210/VX_OSD.c ****         VXISI2CWrite(0x53,temp);
 218              		.loc 1 75 0
 219 0032 5320     		movs	r0, #83
ARM GAS  /tmp/ccKygfrs.s 			page 6


 220 0034 3146     		mov	r1, r6
 221              	.LVL20:
 222 0036 FFF7FEFF 		bl	VXISI2CWrite
 223              	.LVL21:
  76:VS4210/VX_OSD.c ****         VXISI2CWrite(0x53,sizeX3f);
 224              		.loc 1 76 0
 225 003a 5320     		movs	r0, #83
 226 003c 2146     		mov	r1, r4
 227 003e FFF7FEFF 		bl	VXISI2CWrite
 228              	.LVL22:
  77:VS4210/VX_OSD.c ****         break;
 229              		.loc 1 77 0
 230 0042 F8BD     		pop	{r3, r4, r5, r6, r7, pc}
 231              	.LVL23:
 232              	.L21:
  78:VS4210/VX_OSD.c ****     case _Title1 :
  79:VS4210/VX_OSD.c ****         VXISI2CWrite(0x53,temp | 0x40  ) ;
 233              		.loc 1 79 0
 234 0044 5320     		movs	r0, #83
 235 0046 46F04001 		orr	r1, r6, #64
 236              	.LVL24:
 237 004a FFF7FEFF 		bl	VXISI2CWrite
 238              	.LVL25:
  80:VS4210/VX_OSD.c ****         VXISI2CWrite(0x53,sizeX3f | 0x40  ) ;
 239              		.loc 1 80 0
 240 004e 5320     		movs	r0, #83
 241 0050 44F04001 		orr	r1, r4, #64
 242 0054 FFF7FEFF 		bl	VXISI2CWrite
 243              	.LVL26:
  81:VS4210/VX_OSD.c ****         break;
 244              		.loc 1 81 0
 245 0058 F8BD     		pop	{r3, r4, r5, r6, r7, pc}
 246              	.LVL27:
 247              	.L22:
  82:VS4210/VX_OSD.c ****     case _Title2 :
  83:VS4210/VX_OSD.c ****         VXISI2CWrite(0x53,temp | 0x80 )  ;
 248              		.loc 1 83 0
 249 005a 5320     		movs	r0, #83
 250 005c 46F08001 		orr	r1, r6, #128
 251              	.LVL28:
 252 0060 FFF7FEFF 		bl	VXISI2CWrite
 253              	.LVL29:
  84:VS4210/VX_OSD.c ****         VXISI2CWrite(0x53,sizeX3f | 0x80 )  ;
 254              		.loc 1 84 0
 255 0064 5320     		movs	r0, #83
 256 0066 44F08001 		orr	r1, r4, #128
 257 006a FFF7FEFF 		bl	VXISI2CWrite
 258              	.LVL30:
  85:VS4210/VX_OSD.c ****         break;
 259              		.loc 1 85 0
 260 006e F8BD     		pop	{r3, r4, r5, r6, r7, pc}
 261              	.LVL31:
 262              	.L23:
  86:VS4210/VX_OSD.c ****     case _Title3 :
  87:VS4210/VX_OSD.c ****         VXISI2CWrite(0x53,temp | 0xC0 )  ;
 263              		.loc 1 87 0
 264 0070 5320     		movs	r0, #83
ARM GAS  /tmp/ccKygfrs.s 			page 7


 265 0072 46F0C001 		orr	r1, r6, #192
 266              	.LVL32:
 267 0076 FFF7FEFF 		bl	VXISI2CWrite
 268              	.LVL33:
  88:VS4210/VX_OSD.c ****         VXISI2CWrite(0x53,sizeX3f | 0xC0 )  ;
 269              		.loc 1 88 0
 270 007a 5320     		movs	r0, #83
 271 007c 44F0C001 		orr	r1, r4, #192
 272 0080 FFF7FEFF 		bl	VXISI2CWrite
 273              	.LVL34:
  89:VS4210/VX_OSD.c ****         break;
 274              		.loc 1 89 0
 275 0084 F8BD     		pop	{r3, r4, r5, r6, r7, pc}
 276              	.LVL35:
 277              	.L24:
  90:VS4210/VX_OSD.c **** 
  91:VS4210/VX_OSD.c ****     case _Bar0:
  92:VS4210/VX_OSD.c ****         VXISI2CWrite(0x5E,tempBar) ;
 278              		.loc 1 92 0
 279 0086 5E20     		movs	r0, #94
 280 0088 FFF7FEFF 		bl	VXISI2CWrite
 281              	.LVL36:
  93:VS4210/VX_OSD.c ****         VXISI2CWrite(0x5E,sizeX3f) ;
 282              		.loc 1 93 0
 283 008c 5E20     		movs	r0, #94
 284 008e 2146     		mov	r1, r4
 285 0090 FFF7FEFF 		bl	VXISI2CWrite
 286              	.LVL37:
  94:VS4210/VX_OSD.c ****         break;
 287              		.loc 1 94 0
 288 0094 F8BD     		pop	{r3, r4, r5, r6, r7, pc}
 289              	.LVL38:
 290              	.L25:
  95:VS4210/VX_OSD.c ****     case _Bar1:
  96:VS4210/VX_OSD.c ****         VXISI2CWrite(0x5E,tempBar | 0x40)  ;
 291              		.loc 1 96 0
 292 0096 5E20     		movs	r0, #94
 293 0098 41F04001 		orr	r1, r1, #64
 294              	.LVL39:
 295 009c FFF7FEFF 		bl	VXISI2CWrite
 296              	.LVL40:
  97:VS4210/VX_OSD.c ****         VXISI2CWrite(0x5E,sizeX3f | 0x40)  ;
 297              		.loc 1 97 0
 298 00a0 5E20     		movs	r0, #94
 299 00a2 44F04001 		orr	r1, r4, #64
 300 00a6 FFF7FEFF 		bl	VXISI2CWrite
 301              	.LVL41:
  98:VS4210/VX_OSD.c ****         break;
 302              		.loc 1 98 0
 303 00aa F8BD     		pop	{r3, r4, r5, r6, r7, pc}
 304              	.LVL42:
 305              	.L26:
  99:VS4210/VX_OSD.c ****     case _Bar2:
 100:VS4210/VX_OSD.c ****         VXISI2CWrite(0x5E,tempBar | 0x80);
 306              		.loc 1 100 0
 307 00ac 5E20     		movs	r0, #94
 308 00ae 41F08001 		orr	r1, r1, #128
ARM GAS  /tmp/ccKygfrs.s 			page 8


 309              	.LVL43:
 310 00b2 FFF7FEFF 		bl	VXISI2CWrite
 311              	.LVL44:
 101:VS4210/VX_OSD.c ****         VXISI2CWrite(0x5E,sizeX3f | 0x80);
 312              		.loc 1 101 0
 313 00b6 5E20     		movs	r0, #94
 314 00b8 44F08001 		orr	r1, r4, #128
 315 00bc FFF7FEFF 		bl	VXISI2CWrite
 316              	.LVL45:
 102:VS4210/VX_OSD.c ****         break;
 317              		.loc 1 102 0
 318 00c0 F8BD     		pop	{r3, r4, r5, r6, r7, pc}
 319              	.LVL46:
 320              	.L27:
 103:VS4210/VX_OSD.c ****     case _Bar3:
 104:VS4210/VX_OSD.c ****         VXISI2CWrite(0x5E,tempBar | 0xC0);
 321              		.loc 1 104 0
 322 00c2 5E20     		movs	r0, #94
 323 00c4 41F0C001 		orr	r1, r1, #192
 324              	.LVL47:
 325 00c8 FFF7FEFF 		bl	VXISI2CWrite
 326              	.LVL48:
 105:VS4210/VX_OSD.c ****         VXISI2CWrite(0x5E,sizeX3f | 0xC0);
 327              		.loc 1 105 0
 328 00cc 5E20     		movs	r0, #94
 329 00ce 44F0C001 		orr	r1, r4, #192
 330 00d2 FFF7FEFF 		bl	VXISI2CWrite
 331              	.LVL49:
 106:VS4210/VX_OSD.c ****         break;
 332              		.loc 1 106 0
 333 00d6 F8BD     		pop	{r3, r4, r5, r6, r7, pc}
 334              	.LVL50:
 335              	.L28:
 107:VS4210/VX_OSD.c **** 
 108:VS4210/VX_OSD.c ****     case _Content:
 109:VS4210/VX_OSD.c ****         VXISI2CWrite(0x58,sizeX3f);
 336              		.loc 1 109 0
 337 00d8 5820     		movs	r0, #88
 338 00da 2146     		mov	r1, r4
 339              	.LVL51:
 340 00dc FFF7FEFF 		bl	VXISI2CWrite
 341              	.LVL52:
 110:VS4210/VX_OSD.c ****         VXISI2CWrite(0x59,sizeY&0x1f);
 342              		.loc 1 110 0
 343 00e0 5920     		movs	r0, #89
 344 00e2 07F01F01 		and	r1, r7, #31
 345 00e6 FFF7FEFF 		bl	VXISI2CWrite
 346              	.LVL53:
 347              	.L17:
 348 00ea F8BD     		pop	{r3, r4, r5, r6, r7, pc}
 349              		.cfi_endproc
 350              	.LFE4:
 352              		.section	.text.SetOsdPosition,"ax",%progbits
 353              		.align	2
 354              		.global	SetOsdPosition
 355              		.thumb
 356              		.thumb_func
ARM GAS  /tmp/ccKygfrs.s 			page 9


 358              	SetOsdPosition:
 359              	.LFB5:
 111:VS4210/VX_OSD.c ****         break;
 112:VS4210/VX_OSD.c ****     }
 113:VS4210/VX_OSD.c **** }
 114:VS4210/VX_OSD.c **** 
 115:VS4210/VX_OSD.c **** //---------------------------------------------------------------------------
 116:VS4210/VX_OSD.c **** void SetOsdPosition(tByte block,tWord X_Pos,tWord Y_Pos)
 117:VS4210/VX_OSD.c **** {
 360              		.loc 1 117 0
 361              		.cfi_startproc
 362              		@ args = 0, pretend = 0, frame = 0
 363              		@ frame_needed = 0, uses_anonymous_args = 0
 364              	.LVL54:
 365 0000 38B5     		push	{r3, r4, r5, lr}
 366              	.LCFI2:
 367              		.cfi_def_cfa_offset 16
 368              		.cfi_offset 3, -16
 369              		.cfi_offset 4, -12
 370              		.cfi_offset 5, -8
 371              		.cfi_offset 14, -4
 118:VS4210/VX_OSD.c ****     tByte XHighByte;
 119:VS4210/VX_OSD.c ****     tByte XLowByte;
 120:VS4210/VX_OSD.c ****     tByte YHighByte;
 121:VS4210/VX_OSD.c ****     tByte YLowByte;
 122:VS4210/VX_OSD.c **** 
 123:VS4210/VX_OSD.c ****     XLowByte = (tByte)(X_Pos&0x00FF);
 372              		.loc 1 123 0
 373 0002 CDB2     		uxtb	r5, r1
 374              	.LVL55:
 124:VS4210/VX_OSD.c ****     XHighByte = ((tByte)((X_Pos>>8)&0x07))<<4;
 375              		.loc 1 124 0
 376 0004 C1F30221 		ubfx	r1, r1, #8, #3
 377              	.LVL56:
 378 0008 0901     		lsls	r1, r1, #4
 379              	.LVL57:
 125:VS4210/VX_OSD.c **** 
 126:VS4210/VX_OSD.c ****     YLowByte = (tByte)(Y_Pos&0x00FF);
 380              		.loc 1 126 0
 381 000a D4B2     		uxtb	r4, r2
 382              	.LVL58:
 127:VS4210/VX_OSD.c ****     YHighByte = (tByte)((Y_Pos>>8)&0x07 );
 383              		.loc 1 127 0
 384 000c C2F30222 		ubfx	r2, r2, #8, #3
 385              	.LVL59:
 128:VS4210/VX_OSD.c **** 
 129:VS4210/VX_OSD.c ****     switch(block)
 386              		.loc 1 129 0
 387 0010 0828     		cmp	r0, #8
 388 0012 2CD8     		bhi	.L30
 389 0014 DFE800F0 		tbb	[pc, r0]
 390              	.L33:
 391 0018 05       		.byte	(.L32-.L33)/2
 392 0019 05       		.byte	(.L32-.L33)/2
 393 001a 05       		.byte	(.L32-.L33)/2
 394 001b 05       		.byte	(.L32-.L33)/2
 395 001c 1F       		.byte	(.L34-.L33)/2
ARM GAS  /tmp/ccKygfrs.s 			page 10


 396 001d 1F       		.byte	(.L34-.L33)/2
 397 001e 1F       		.byte	(.L34-.L33)/2
 398 001f 1F       		.byte	(.L34-.L33)/2
 399 0020 12       		.byte	(.L35-.L33)/2
 400 0021 00       		.p2align 1
 401              	.L32:
 130:VS4210/VX_OSD.c ****     {
 131:VS4210/VX_OSD.c ****     case(_Title0):
 132:VS4210/VX_OSD.c ****     case(_Title1):
 133:VS4210/VX_OSD.c ****     case(_Title2):
 134:VS4210/VX_OSD.c ****     case(_Title3):
 135:VS4210/VX_OSD.c ****         VXISI2CWrite(0x54,XHighByte|YHighByte);
 402              		.loc 1 135 0
 403 0022 5420     		movs	r0, #84
 404              	.LVL60:
 405 0024 1143     		orrs	r1, r1, r2
 406              	.LVL61:
 407 0026 FFF7FEFF 		bl	VXISI2CWrite
 408              	.LVL62:
 136:VS4210/VX_OSD.c ****         VXISI2CWrite(0x55,XLowByte);
 409              		.loc 1 136 0
 410 002a 5520     		movs	r0, #85
 411 002c 2946     		mov	r1, r5
 412 002e FFF7FEFF 		bl	VXISI2CWrite
 413              	.LVL63:
 137:VS4210/VX_OSD.c ****         VXISI2CWrite(0x56,YLowByte);
 414              		.loc 1 137 0
 415 0032 5620     		movs	r0, #86
 416 0034 2146     		mov	r1, r4
 417 0036 FFF7FEFF 		bl	VXISI2CWrite
 418              	.LVL64:
 138:VS4210/VX_OSD.c ****         break;
 419              		.loc 1 138 0
 420 003a 38BD     		pop	{r3, r4, r5, pc}
 421              	.LVL65:
 422              	.L35:
 139:VS4210/VX_OSD.c ****     case(_Content):
 140:VS4210/VX_OSD.c ****         VXISI2CWrite(0x5A,XHighByte|YHighByte);
 423              		.loc 1 140 0
 424 003c 5A20     		movs	r0, #90
 425              	.LVL66:
 426 003e 1143     		orrs	r1, r1, r2
 427              	.LVL67:
 428 0040 FFF7FEFF 		bl	VXISI2CWrite
 429              	.LVL68:
 141:VS4210/VX_OSD.c ****         VXISI2CWrite(0x5B,XLowByte);
 430              		.loc 1 141 0
 431 0044 5B20     		movs	r0, #91
 432 0046 2946     		mov	r1, r5
 433 0048 FFF7FEFF 		bl	VXISI2CWrite
 434              	.LVL69:
 142:VS4210/VX_OSD.c ****         VXISI2CWrite(0x5C,YLowByte);
 435              		.loc 1 142 0
 436 004c 5C20     		movs	r0, #92
 437 004e 2146     		mov	r1, r4
 438 0050 FFF7FEFF 		bl	VXISI2CWrite
 439              	.LVL70:
ARM GAS  /tmp/ccKygfrs.s 			page 11


 143:VS4210/VX_OSD.c ****         break;
 440              		.loc 1 143 0
 441 0054 38BD     		pop	{r3, r4, r5, pc}
 442              	.LVL71:
 443              	.L34:
 144:VS4210/VX_OSD.c ****     case(_Bar0):
 145:VS4210/VX_OSD.c ****     case(_Bar1):
 146:VS4210/VX_OSD.c ****     case(_Bar2):
 147:VS4210/VX_OSD.c ****     case(_Bar3):
 148:VS4210/VX_OSD.c ****         VXISI2CWrite(0x5F,XHighByte|YHighByte);
 444              		.loc 1 148 0
 445 0056 5F20     		movs	r0, #95
 446              	.LVL72:
 447 0058 1143     		orrs	r1, r1, r2
 448              	.LVL73:
 449 005a FFF7FEFF 		bl	VXISI2CWrite
 450              	.LVL74:
 149:VS4210/VX_OSD.c ****         VXISI2CWrite(0x60,XLowByte);
 451              		.loc 1 149 0
 452 005e 6020     		movs	r0, #96
 453 0060 2946     		mov	r1, r5
 454 0062 FFF7FEFF 		bl	VXISI2CWrite
 455              	.LVL75:
 150:VS4210/VX_OSD.c ****         VXISI2CWrite(0x61,YLowByte);
 456              		.loc 1 150 0
 457 0066 6120     		movs	r0, #97
 458 0068 2146     		mov	r1, r4
 459 006a FFF7FEFF 		bl	VXISI2CWrite
 460              	.LVL76:
 461              	.L30:
 462 006e 38BD     		pop	{r3, r4, r5, pc}
 463              		.cfi_endproc
 464              	.LFE5:
 466              		.section	.text.OsdDumpString,"ax",%progbits
 467              		.align	2
 468              		.global	OsdDumpString
 469              		.thumb
 470              		.thumb_func
 472              	OsdDumpString:
 473              	.LFB6:
 151:VS4210/VX_OSD.c ****         break;
 152:VS4210/VX_OSD.c ****     }
 153:VS4210/VX_OSD.c **** }
 154:VS4210/VX_OSD.c **** 
 155:VS4210/VX_OSD.c **** //---------------------------------------------------------------------------
 156:VS4210/VX_OSD.c **** void OsdDumpString(tByte OSDaddr, tByte *Strdata)
 157:VS4210/VX_OSD.c **** {
 474              		.loc 1 157 0
 475              		.cfi_startproc
 476              		@ args = 0, pretend = 0, frame = 0
 477              		@ frame_needed = 0, uses_anonymous_args = 0
 478              	.LVL77:
 479 0000 70B5     		push	{r4, r5, r6, lr}
 480              	.LCFI3:
 481              		.cfi_def_cfa_offset 16
 482              		.cfi_offset 4, -16
 483              		.cfi_offset 5, -12
ARM GAS  /tmp/ccKygfrs.s 			page 12


 484              		.cfi_offset 6, -8
 485              		.cfi_offset 14, -4
 486 0002 0646     		mov	r6, r0
 158:VS4210/VX_OSD.c ****     tByte Lan;
 159:VS4210/VX_OSD.c ****     Lan=Strdata[0];
 487              		.loc 1 159 0
 488 0004 0C46     		mov	r4, r1
 489 0006 14F8015B 		ldrb	r5, [r4], #1	@ zero_extendqisi2
 490              	.LVL78:
 160:VS4210/VX_OSD.c ****     VXISI2CWrite(0xfd,0x10);
 491              		.loc 1 160 0
 492 000a FD20     		movs	r0, #253
 493              	.LVL79:
 494 000c 1021     		movs	r1, #16
 495              	.LVL80:
 496 000e FFF7FEFF 		bl	VXISI2CWrite
 497              	.LVL81:
 161:VS4210/VX_OSD.c ****     VXISI2CWrite(0xfe,OSDaddr);
 498              		.loc 1 161 0
 499 0012 FE20     		movs	r0, #254
 500 0014 3146     		mov	r1, r6
 501 0016 FFF7FEFF 		bl	VXISI2CWrite
 502              	.LVL82:
 162:VS4210/VX_OSD.c ****     Strdata++;
 163:VS4210/VX_OSD.c ****     I2CMultiWrite(VS4210_ADDR,0xff,Lan,Strdata);
 503              		.loc 1 163 0
 504 001a 044B     		ldr	r3, .L39
 505 001c 1878     		ldrb	r0, [r3]	@ zero_extendqisi2
 506 001e FF21     		movs	r1, #255
 507 0020 2A46     		mov	r2, r5
 508 0022 2346     		mov	r3, r4
 509 0024 FFF7FEFF 		bl	I2CMultiWrite
 510              	.LVL83:
 511 0028 70BD     		pop	{r4, r5, r6, pc}
 512              	.LVL84:
 513              	.L40:
 514 002a 00BF     		.align	2
 515              	.L39:
 516 002c 00000000 		.word	VS4210_ADDR
 517              		.cfi_endproc
 518              	.LFE6:
 520              		.section	.text.OsdDumpAttribute,"ax",%progbits
 521              		.align	2
 522              		.global	OsdDumpAttribute
 523              		.thumb
 524              		.thumb_func
 526              	OsdDumpAttribute:
 527              	.LFB7:
 164:VS4210/VX_OSD.c **** }
 165:VS4210/VX_OSD.c **** 
 166:VS4210/VX_OSD.c **** //---------------------------------------------------------------------------
 167:VS4210/VX_OSD.c **** void OsdDumpAttribute(tByte OSDaddr,tByte *Strdata,tByte index)
 168:VS4210/VX_OSD.c **** {
 528              		.loc 1 168 0
 529              		.cfi_startproc
 530              		@ args = 0, pretend = 0, frame = 8
 531              		@ frame_needed = 0, uses_anonymous_args = 0
ARM GAS  /tmp/ccKygfrs.s 			page 13


 532              	.LVL85:
 533 0000 70B5     		push	{r4, r5, r6, lr}
 534              	.LCFI4:
 535              		.cfi_def_cfa_offset 16
 536              		.cfi_offset 4, -16
 537              		.cfi_offset 5, -12
 538              		.cfi_offset 6, -8
 539              		.cfi_offset 14, -4
 540 0002 82B0     		sub	sp, sp, #8
 541              	.LCFI5:
 542              		.cfi_def_cfa_offset 24
 543 0004 0646     		mov	r6, r0
 544 0006 02AC     		add	r4, sp, #8
 545 0008 04F8012D 		strb	r2, [r4, #-1]!
 169:VS4210/VX_OSD.c ****     tByte Lan;
 170:VS4210/VX_OSD.c ****     Lan=Strdata[0];
 546              		.loc 1 170 0
 547 000c 0D78     		ldrb	r5, [r1]	@ zero_extendqisi2
 548              	.LVL86:
 171:VS4210/VX_OSD.c ****     VXISI2CWrite(0xfd,0x70);
 549              		.loc 1 171 0
 550 000e FD20     		movs	r0, #253
 551              	.LVL87:
 552 0010 7021     		movs	r1, #112
 553              	.LVL88:
 554 0012 FFF7FEFF 		bl	VXISI2CWrite
 555              	.LVL89:
 172:VS4210/VX_OSD.c ****     VXISI2CWrite(0xfe,OSDaddr);	
 556              		.loc 1 172 0
 557 0016 FE20     		movs	r0, #254
 558 0018 3146     		mov	r1, r6
 559 001a FFF7FEFF 		bl	VXISI2CWrite
 560              	.LVL90:
 173:VS4210/VX_OSD.c ****     I2CMultiAttribute(VS4210_ADDR,0xff,Lan,&index);
 561              		.loc 1 173 0
 562 001e 044B     		ldr	r3, .L43
 563 0020 1878     		ldrb	r0, [r3]	@ zero_extendqisi2
 564 0022 FF21     		movs	r1, #255
 565 0024 2A46     		mov	r2, r5
 566 0026 2346     		mov	r3, r4
 567 0028 FFF7FEFF 		bl	I2CMultiAttribute
 568              	.LVL91:
 174:VS4210/VX_OSD.c **** }
 569              		.loc 1 174 0
 570 002c 02B0     		add	sp, sp, #8
 571              	.LCFI6:
 572              		.cfi_def_cfa_offset 16
 573              		@ sp needed
 574 002e 70BD     		pop	{r4, r5, r6, pc}
 575              	.LVL92:
 576              	.L44:
 577              		.align	2
 578              	.L43:
 579 0030 00000000 		.word	VS4210_ADDR
 580              		.cfi_endproc
 581              	.LFE7:
 583              		.section	.text.VXIS_fSetOsdOnOff,"ax",%progbits
ARM GAS  /tmp/ccKygfrs.s 			page 14


 584              		.align	2
 585              		.global	VXIS_fSetOsdOnOff
 586              		.thumb
 587              		.thumb_func
 589              	VXIS_fSetOsdOnOff:
 590              	.LFB8:
 175:VS4210/VX_OSD.c **** 
 176:VS4210/VX_OSD.c **** //---------------------------------------------------------------------------
 177:VS4210/VX_OSD.c **** void VXIS_fSetOsdOnOff(tByte ch, tByte block)
 178:VS4210/VX_OSD.c **** {
 591              		.loc 1 178 0
 592              		.cfi_startproc
 593              		@ args = 0, pretend = 0, frame = 0
 594              		@ frame_needed = 0, uses_anonymous_args = 0
 595              	.LVL93:
 596 0000 38B5     		push	{r3, r4, r5, lr}
 597              	.LCFI7:
 598              		.cfi_def_cfa_offset 16
 599              		.cfi_offset 3, -16
 600              		.cfi_offset 4, -12
 601              		.cfi_offset 5, -8
 602              		.cfi_offset 14, -4
 603 0002 0446     		mov	r4, r0
 604 0004 0D46     		mov	r5, r1
 179:VS4210/VX_OSD.c ****     tByte temp;
 180:VS4210/VX_OSD.c ****     temp=VXISI2CRead(0x53);
 605              		.loc 1 180 0
 606 0006 5320     		movs	r0, #83
 607              	.LVL94:
 608 0008 FFF7FEFF 		bl	VXISI2CRead
 609              	.LVL95:
 181:VS4210/VX_OSD.c ****     temp=(temp&0x3F) | (ch << 6) ;
 610              		.loc 1 181 0
 611 000c A401     		lsls	r4, r4, #6
 612 000e E4B2     		uxtb	r4, r4
 613 0010 00F03F01 		and	r1, r0, #63
 614              	.LVL96:
 182:VS4210/VX_OSD.c ****     VXISI2CWrite(0x53,temp);
 615              		.loc 1 182 0
 616 0014 5320     		movs	r0, #83
 617 0016 2143     		orrs	r1, r1, r4
 618              	.LVL97:
 619 0018 FFF7FEFF 		bl	VXISI2CWrite
 620              	.LVL98:
 183:VS4210/VX_OSD.c **** 
 184:VS4210/VX_OSD.c ****     temp=VXISI2CRead(0x5E);
 621              		.loc 1 184 0
 622 001c 5E20     		movs	r0, #94
 623 001e FFF7FEFF 		bl	VXISI2CRead
 624              	.LVL99:
 185:VS4210/VX_OSD.c ****     temp=(temp&0x3F) | (ch << 6) ;
 625              		.loc 1 185 0
 626 0022 00F03F01 		and	r1, r0, #63
 627              	.LVL100:
 186:VS4210/VX_OSD.c ****     VXISI2CWrite(0x5E,temp);
 628              		.loc 1 186 0
 629 0026 5E20     		movs	r0, #94
ARM GAS  /tmp/ccKygfrs.s 			page 15


 630 0028 2143     		orrs	r1, r1, r4
 631              	.LVL101:
 632 002a FFF7FEFF 		bl	VXISI2CWrite
 633              	.LVL102:
 187:VS4210/VX_OSD.c **** 
 188:VS4210/VX_OSD.c ****     temp=VXISI2CRead(0x51);
 634              		.loc 1 188 0
 635 002e 5120     		movs	r0, #81
 636 0030 FFF7FEFF 		bl	VXISI2CRead
 637              	.LVL103:
 189:VS4210/VX_OSD.c **** 	if((block&WINZOOMx2)==0)
 638              		.loc 1 189 0
 639 0034 15F0080F 		tst	r5, #8
 640 0038 01D1     		bne	.L46
 190:VS4210/VX_OSD.c **** 		temp&=0xf7;
 641              		.loc 1 190 0
 642 003a 00F0F700 		and	r0, r0, #247
 643              	.LVL104:
 644              	.L46:
 191:VS4210/VX_OSD.c **** //    temp=(temp&0xf8)|(block&0x07);//mask by ryan@20200523
 192:VS4210/VX_OSD.c **** 
 193:VS4210/VX_OSD.c ****     temp=(temp&0xf8)|(block&0x0F);
 645              		.loc 1 193 0
 646 003e 05F00F05 		and	r5, r5, #15
 647 0042 00F0F801 		and	r1, r0, #248
 648              	.LVL105:
 194:VS4210/VX_OSD.c ****     VXISI2CWrite(0x51,temp);
 649              		.loc 1 194 0
 650 0046 5120     		movs	r0, #81
 651 0048 2943     		orrs	r1, r1, r5
 652              	.LVL106:
 653 004a FFF7FEFF 		bl	VXISI2CWrite
 654              	.LVL107:
 655 004e 38BD     		pop	{r3, r4, r5, pc}
 656              		.cfi_endproc
 657              	.LFE8:
 659              		.section	.text.VXIS_fSetOsdx2,"ax",%progbits
 660              		.align	2
 661              		.global	VXIS_fSetOsdx2
 662              		.thumb
 663              		.thumb_func
 665              	VXIS_fSetOsdx2:
 666              	.LFB9:
 195:VS4210/VX_OSD.c **** }
 196:VS4210/VX_OSD.c **** 
 197:VS4210/VX_OSD.c **** 
 198:VS4210/VX_OSD.c **** //---------------------------------------------------------------------------
 199:VS4210/VX_OSD.c **** 
 200:VS4210/VX_OSD.c **** void VXIS_fSetOsdx2(bit OnOff)
 201:VS4210/VX_OSD.c **** {
 667              		.loc 1 201 0
 668              		.cfi_startproc
 669              		@ args = 0, pretend = 0, frame = 0
 670              		@ frame_needed = 0, uses_anonymous_args = 0
 671              	.LVL108:
 672 0000 10B5     		push	{r4, lr}
 673              	.LCFI8:
ARM GAS  /tmp/ccKygfrs.s 			page 16


 674              		.cfi_def_cfa_offset 8
 675              		.cfi_offset 4, -8
 676              		.cfi_offset 14, -4
 677 0002 0446     		mov	r4, r0
 678              	.LVL109:
 202:VS4210/VX_OSD.c **** 	tByte temp=0;
 203:VS4210/VX_OSD.c **** 	temp=VXISI2CRead(0x51);
 679              		.loc 1 203 0
 680 0004 5120     		movs	r0, #81
 681              	.LVL110:
 682 0006 FFF7FEFF 		bl	VXISI2CRead
 683              	.LVL111:
 204:VS4210/VX_OSD.c **** 	if (OnOff)
 684              		.loc 1 204 0
 685 000a 1CB1     		cbz	r4, .L49
 205:VS4210/VX_OSD.c **** 		temp=(temp&0xf7)|(0x08);
 686              		.loc 1 205 0
 687 000c 40F00801 		orr	r1, r0, #8
 688 0010 C9B2     		uxtb	r1, r1
 689              	.LVL112:
 690 0012 01E0     		b	.L50
 691              	.LVL113:
 692              	.L49:
 206:VS4210/VX_OSD.c **** 	else
 207:VS4210/VX_OSD.c **** 		temp=temp&0xf7;
 693              		.loc 1 207 0
 694 0014 00F0F701 		and	r1, r0, #247
 695              	.LVL114:
 696              	.L50:
 208:VS4210/VX_OSD.c **** 	VXISI2CWrite(0x51,temp);
 697              		.loc 1 208 0
 698 0018 5120     		movs	r0, #81
 699 001a FFF7FEFF 		bl	VXISI2CWrite
 700              	.LVL115:
 701 001e 10BD     		pop	{r4, pc}
 702              		.cfi_endproc
 703              	.LFE9:
 705              		.section	.text.setTransParentIndex,"ax",%progbits
 706              		.align	2
 707              		.global	setTransParentIndex
 708              		.thumb
 709              		.thumb_func
 711              	setTransParentIndex:
 712              	.LFB10:
 209:VS4210/VX_OSD.c **** }
 210:VS4210/VX_OSD.c **** 
 211:VS4210/VX_OSD.c **** //---------------------------------------------------------------------------
 212:VS4210/VX_OSD.c **** void setTransParentIndex(tByte index)
 213:VS4210/VX_OSD.c **** {
 713              		.loc 1 213 0
 714              		.cfi_startproc
 715              		@ args = 0, pretend = 0, frame = 0
 716              		@ frame_needed = 0, uses_anonymous_args = 0
 717              	.LVL116:
 718 0000 10B5     		push	{r4, lr}
 719              	.LCFI9:
 720              		.cfi_def_cfa_offset 8
ARM GAS  /tmp/ccKygfrs.s 			page 17


 721              		.cfi_offset 4, -8
 722              		.cfi_offset 14, -4
 723 0002 0446     		mov	r4, r0
 214:VS4210/VX_OSD.c ****     tByte temp;
 215:VS4210/VX_OSD.c ****     temp=VXISI2CRead(0x69);
 724              		.loc 1 215 0
 725 0004 6920     		movs	r0, #105
 726              	.LVL117:
 727 0006 FFF7FEFF 		bl	VXISI2CRead
 728              	.LVL118:
 216:VS4210/VX_OSD.c ****     temp=(temp&0x0f)|(index<<4);
 729              		.loc 1 216 0
 730 000a 00F00F00 		and	r0, r0, #15
 731              	.LVL119:
 732 000e 40EA0411 		orr	r1, r0, r4, lsl #4
 733              	.LVL120:
 217:VS4210/VX_OSD.c ****     VXISI2CWrite(0x69,temp);
 734              		.loc 1 217 0
 735 0012 6920     		movs	r0, #105
 736 0014 C9B2     		uxtb	r1, r1
 737 0016 FFF7FEFF 		bl	VXISI2CWrite
 738              	.LVL121:
 218:VS4210/VX_OSD.c ****     VXISI2CWrite(0x58,0x0);  // VS4210 //black content ryan@20200523
 739              		.loc 1 218 0
 740 001a 5820     		movs	r0, #88
 741 001c 0021     		movs	r1, #0
 742 001e FFF7FEFF 		bl	VXISI2CWrite
 743              	.LVL122:
 744 0022 10BD     		pop	{r4, pc}
 745              		.cfi_endproc
 746              	.LFE10:
 748              		.global	DisplayedOSD
 749              		.section	.bss.DisplayedOSD,"aw",%nobits
 750              		.set	.LANCHOR0,. + 0
 753              	DisplayedOSD:
 754 0000 00       		.space	1
 755              		.text
 756              	.Letext0:
 757              		.file 2 "/usr/include/newlib/machine/_default_types.h"
 758              		.file 3 "/usr/include/newlib/sys/_stdint.h"
 759              		.file 4 "VS4210/VXIS_Extern_Define.h"
 760              		.file 5 "sw_i2c/VX_swi2c.h"
ARM GAS  /tmp/ccKygfrs.s 			page 18

