ARM GAS  /tmp/ccx3CEVm.s 			page 1


   1              		.syntax unified
   2              		.cpu cortex-m3
   3              		.fpu softvfp
   4              		.eabi_attribute 20, 1
   5              		.eabi_attribute 21, 1
   6              		.eabi_attribute 23, 3
   7              		.eabi_attribute 24, 1
   8              		.eabi_attribute 25, 1
   9              		.eabi_attribute 26, 1
  10              		.eabi_attribute 30, 1
  11              		.eabi_attribute 34, 1
  12              		.eabi_attribute 18, 4
  13              		.thumb
  14              		.file	"VX_swi2c.c"
  15              		.text
  16              	.Ltext0:
  17              		.cfi_sections	.debug_frame
  18              		.section	.text.msleep,"ax",%progbits
  19              		.align	2
  20              		.global	msleep
  21              		.thumb
  22              		.thumb_func
  24              	msleep:
  25              	.LFB65:
  26              		.file 1 "sw_i2c/VX_swi2c.c"
   1:sw_i2c/VX_swi2c.c **** #include "stm32f1xx_hal.h"
   2:sw_i2c/VX_swi2c.c **** #include <stdio.h>
   3:sw_i2c/VX_swi2c.c **** #include <unistd.h>
   4:sw_i2c/VX_swi2c.c **** #include <string.h> /* memset */
   5:sw_i2c/VX_swi2c.c **** 
   6:sw_i2c/VX_swi2c.c **** #include <sw_i2c0.h>
   7:sw_i2c/VX_swi2c.c **** #include <sw_i2c1.h>
   8:sw_i2c/VX_swi2c.c **** #include <sw_i2c2.h>
   9:sw_i2c/VX_swi2c.c **** #include "VX_swi2c.h"
  10:sw_i2c/VX_swi2c.c **** 
  11:sw_i2c/VX_swi2c.c **** extern tByte TVII2CAddress ;
  12:sw_i2c/VX_swi2c.c **** tByte gskipsleepflg ;
  13:sw_i2c/VX_swi2c.c **** 
  14:sw_i2c/VX_swi2c.c **** #ifndef ITE66121_ADDR
  15:sw_i2c/VX_swi2c.c **** #define ITE66121_ADDR 0x98
  16:sw_i2c/VX_swi2c.c **** #endif
  17:sw_i2c/VX_swi2c.c **** 
  18:sw_i2c/VX_swi2c.c **** //Sleep
  19:sw_i2c/VX_swi2c.c **** void msleep(unsigned int i )
  20:sw_i2c/VX_swi2c.c **** {
  27              		.loc 1 20 0
  28              		.cfi_startproc
  29              		@ args = 0, pretend = 0, frame = 0
  30              		@ frame_needed = 0, uses_anonymous_args = 0
  31              	.LVL0:
  32 0000 08B5     		push	{r3, lr}
  33              	.LCFI0:
  34              		.cfi_def_cfa_offset 8
  35              		.cfi_offset 3, -8
  36              		.cfi_offset 14, -4
  21:sw_i2c/VX_swi2c.c ****     if (gskipsleepflg ==0 )
  37              		.loc 1 21 0
ARM GAS  /tmp/ccx3CEVm.s 			page 2


  38 0002 034B     		ldr	r3, .L4
  39 0004 1B78     		ldrb	r3, [r3]	@ zero_extendqisi2
  40 0006 0BB9     		cbnz	r3, .L1
  22:sw_i2c/VX_swi2c.c ****     {
  23:sw_i2c/VX_swi2c.c ****         HAL_Delay(i);
  41              		.loc 1 23 0
  42 0008 FFF7FEFF 		bl	HAL_Delay
  43              	.LVL1:
  44              	.L1:
  45 000c 08BD     		pop	{r3, pc}
  46              	.L5:
  47 000e 00BF     		.align	2
  48              	.L4:
  49 0010 00000000 		.word	gskipsleepflg
  50              		.cfi_endproc
  51              	.LFE65:
  53              		.section	.text.delayTX1ms,"ax",%progbits
  54              		.align	2
  55              		.global	delayTX1ms
  56              		.thumb
  57              		.thumb_func
  59              	delayTX1ms:
  60              	.LFB66:
  24:sw_i2c/VX_swi2c.c ****         //printf("VS4210_ADDR=0x%02x, msleep=%d\r\n",(int)VS4210_ADDR , i) ;
  25:sw_i2c/VX_swi2c.c ****         //usleep(i*1000);
  26:sw_i2c/VX_swi2c.c ****     }
  27:sw_i2c/VX_swi2c.c **** }
  28:sw_i2c/VX_swi2c.c **** 
  29:sw_i2c/VX_swi2c.c **** void delayTX1ms(unsigned int i )
  30:sw_i2c/VX_swi2c.c **** {
  61              		.loc 1 30 0
  62              		.cfi_startproc
  63              		@ args = 0, pretend = 0, frame = 0
  64              		@ frame_needed = 0, uses_anonymous_args = 0
  65              	.LVL2:
  66 0000 08B5     		push	{r3, lr}
  67              	.LCFI1:
  68              		.cfi_def_cfa_offset 8
  69              		.cfi_offset 3, -8
  70              		.cfi_offset 14, -4
  31:sw_i2c/VX_swi2c.c ****     HAL_Delay(i);
  71              		.loc 1 31 0
  72 0002 FFF7FEFF 		bl	HAL_Delay
  73              	.LVL3:
  74 0006 08BD     		pop	{r3, pc}
  75              		.cfi_endproc
  76              	.LFE66:
  78              		.section	.text.VXISI2CRead,"ax",%progbits
  79              		.align	2
  80              		.global	VXISI2CRead
  81              		.thumb
  82              		.thumb_func
  84              	VXISI2CRead:
  85              	.LFB67:
  32:sw_i2c/VX_swi2c.c **** }
  33:sw_i2c/VX_swi2c.c **** 
  34:sw_i2c/VX_swi2c.c **** uint8_t VXISI2CRead( uint8_t reg)
ARM GAS  /tmp/ccx3CEVm.s 			page 3


  35:sw_i2c/VX_swi2c.c **** {
  86              		.loc 1 35 0
  87              		.cfi_startproc
  88              		@ args = 0, pretend = 0, frame = 0
  89              		@ frame_needed = 0, uses_anonymous_args = 0
  90              	.LVL4:
  91 0000 08B5     		push	{r3, lr}
  92              	.LCFI2:
  93              		.cfi_def_cfa_offset 8
  94              		.cfi_offset 3, -8
  95              		.cfi_offset 14, -4
  96 0002 0146     		mov	r1, r0
  97              	.LVL5:
  36:sw_i2c/VX_swi2c.c ****     uint8_t val =0; 
  37:sw_i2c/VX_swi2c.c ****     val = SW_I2C1Read(VS4210_ADDR, reg ) ;
  98              		.loc 1 37 0
  99 0004 024B     		ldr	r3, .L10
 100 0006 1878     		ldrb	r0, [r3]	@ zero_extendqisi2
 101              	.LVL6:
 102 0008 FFF7FEFF 		bl	SW_I2C1Read
 103              	.LVL7:
  38:sw_i2c/VX_swi2c.c **** //    printf("R 0x%02x,0x%02x,0x%02x\r\n",(int)VS4210_ADDR, (int)reg,(int)val) ;
  39:sw_i2c/VX_swi2c.c ****     return val ;
  40:sw_i2c/VX_swi2c.c **** }
 104              		.loc 1 40 0
 105 000c 08BD     		pop	{r3, pc}
 106              	.L11:
 107 000e 00BF     		.align	2
 108              	.L10:
 109 0010 00000000 		.word	VS4210_ADDR
 110              		.cfi_endproc
 111              	.LFE67:
 113              		.section	.text.VXISI2CWrite,"ax",%progbits
 114              		.align	2
 115              		.global	VXISI2CWrite
 116              		.thumb
 117              		.thumb_func
 119              	VXISI2CWrite:
 120              	.LFB68:
  41:sw_i2c/VX_swi2c.c **** 
  42:sw_i2c/VX_swi2c.c **** void VXISI2CWrite (uint8_t reg, uint8_t val)
  43:sw_i2c/VX_swi2c.c **** {   
 121              		.loc 1 43 0
 122              		.cfi_startproc
 123              		@ args = 0, pretend = 0, frame = 0
 124              		@ frame_needed = 0, uses_anonymous_args = 0
 125              	.LVL8:
 126 0000 08B5     		push	{r3, lr}
 127              	.LCFI3:
 128              		.cfi_def_cfa_offset 8
 129              		.cfi_offset 3, -8
 130              		.cfi_offset 14, -4
 131 0002 0346     		mov	r3, r0
 132 0004 0A46     		mov	r2, r1
  44:sw_i2c/VX_swi2c.c ****     SW_I2C1Write( VS4210_ADDR , reg, val ) ;
 133              		.loc 1 44 0
 134 0006 0349     		ldr	r1, .L14
ARM GAS  /tmp/ccx3CEVm.s 			page 4


 135              	.LVL9:
 136 0008 0878     		ldrb	r0, [r1]	@ zero_extendqisi2
 137              	.LVL10:
 138 000a 1946     		mov	r1, r3
 139 000c FFF7FEFF 		bl	SW_I2C1Write
 140              	.LVL11:
 141 0010 08BD     		pop	{r3, pc}
 142              	.L15:
 143 0012 00BF     		.align	2
 144              	.L14:
 145 0014 00000000 		.word	VS4210_ADDR
 146              		.cfi_endproc
 147              	.LFE68:
 149              		.section	.text.VS8812Read,"ax",%progbits
 150              		.align	2
 151              		.global	VS8812Read
 152              		.thumb
 153              		.thumb_func
 155              	VS8812Read:
 156              	.LFB69:
  45:sw_i2c/VX_swi2c.c **** }
  46:sw_i2c/VX_swi2c.c **** 
  47:sw_i2c/VX_swi2c.c **** uint8_t VS8812Read( uint8_t reg)
  48:sw_i2c/VX_swi2c.c **** {
 157              		.loc 1 48 0
 158              		.cfi_startproc
 159              		@ args = 0, pretend = 0, frame = 0
 160              		@ frame_needed = 0, uses_anonymous_args = 0
 161              	.LVL12:
 162 0000 08B5     		push	{r3, lr}
 163              	.LCFI4:
 164              		.cfi_def_cfa_offset 8
 165              		.cfi_offset 3, -8
 166              		.cfi_offset 14, -4
 167 0002 0146     		mov	r1, r0
 168              	.LVL13:
  49:sw_i2c/VX_swi2c.c ****     uint8_t val =0; 
  50:sw_i2c/VX_swi2c.c ****     val = SW_I2C1Read(VS8812_ADDR, reg ) ;
 169              		.loc 1 50 0
 170 0004 024B     		ldr	r3, .L18
 171 0006 1878     		ldrb	r0, [r3]	@ zero_extendqisi2
 172              	.LVL14:
 173 0008 FFF7FEFF 		bl	SW_I2C1Read
 174              	.LVL15:
  51:sw_i2c/VX_swi2c.c **** //    printf("R 0x%02x,0x%02x,0x%02x\r\n",(int)VS4210_ADDR, (int)reg,(int)val) ;
  52:sw_i2c/VX_swi2c.c ****     return val ;
  53:sw_i2c/VX_swi2c.c **** }
 175              		.loc 1 53 0
 176 000c 08BD     		pop	{r3, pc}
 177              	.L19:
 178 000e 00BF     		.align	2
 179              	.L18:
 180 0010 00000000 		.word	VS8812_ADDR
 181              		.cfi_endproc
 182              	.LFE69:
 184              		.section	.text.VS8812Write,"ax",%progbits
 185              		.align	2
ARM GAS  /tmp/ccx3CEVm.s 			page 5


 186              		.global	VS8812Write
 187              		.thumb
 188              		.thumb_func
 190              	VS8812Write:
 191              	.LFB70:
  54:sw_i2c/VX_swi2c.c **** 
  55:sw_i2c/VX_swi2c.c **** void VS8812Write (uint8_t reg, uint8_t val)
  56:sw_i2c/VX_swi2c.c **** {   
 192              		.loc 1 56 0
 193              		.cfi_startproc
 194              		@ args = 0, pretend = 0, frame = 0
 195              		@ frame_needed = 0, uses_anonymous_args = 0
 196              	.LVL16:
 197 0000 08B5     		push	{r3, lr}
 198              	.LCFI5:
 199              		.cfi_def_cfa_offset 8
 200              		.cfi_offset 3, -8
 201              		.cfi_offset 14, -4
 202 0002 0346     		mov	r3, r0
 203 0004 0A46     		mov	r2, r1
  57:sw_i2c/VX_swi2c.c ****     SW_I2C1Write( VS8812_ADDR , reg, val ) ;
 204              		.loc 1 57 0
 205 0006 0349     		ldr	r1, .L22
 206              	.LVL17:
 207 0008 0878     		ldrb	r0, [r1]	@ zero_extendqisi2
 208              	.LVL18:
 209 000a 1946     		mov	r1, r3
 210 000c FFF7FEFF 		bl	SW_I2C1Write
 211              	.LVL19:
 212 0010 08BD     		pop	{r3, pc}
 213              	.L23:
 214 0012 00BF     		.align	2
 215              	.L22:
 216 0014 00000000 		.word	VS8812_ADDR
 217              		.cfi_endproc
 218              	.LFE70:
 220              		.section	.text.ReadEEP,"ax",%progbits
 221              		.align	2
 222              		.global	ReadEEP
 223              		.thumb
 224              		.thumb_func
 226              	ReadEEP:
 227              	.LFB71:
  58:sw_i2c/VX_swi2c.c **** }
  59:sw_i2c/VX_swi2c.c **** 
  60:sw_i2c/VX_swi2c.c **** unsigned char ReadEEP( unsigned int reg)
  61:sw_i2c/VX_swi2c.c **** {
 228              		.loc 1 61 0
 229              		.cfi_startproc
 230              		@ args = 0, pretend = 0, frame = 0
 231              		@ frame_needed = 0, uses_anonymous_args = 0
 232              	.LVL20:
 233 0000 08B5     		push	{r3, lr}
 234              	.LCFI6:
 235              		.cfi_def_cfa_offset 8
 236              		.cfi_offset 3, -8
 237              		.cfi_offset 14, -4
ARM GAS  /tmp/ccx3CEVm.s 			page 6


 238              	.LVL21:
  62:sw_i2c/VX_swi2c.c ****     unsigned char  val =0; 
  63:sw_i2c/VX_swi2c.c ****     val = EEPRead(reg ) ;
 239              		.loc 1 63 0
 240 0002 FFF7FEFF 		bl	EEPRead
 241              	.LVL22:
  64:sw_i2c/VX_swi2c.c **** //    printf("R 0x%02x,0x%02x,0x%02x\r\n",(int)VS4210_ADDR, (int)reg,(int)val) ;
  65:sw_i2c/VX_swi2c.c ****     return val ;
  66:sw_i2c/VX_swi2c.c **** }
 242              		.loc 1 66 0
 243 0006 08BD     		pop	{r3, pc}
 244              		.cfi_endproc
 245              	.LFE71:
 247              		.section	.text.WriteEEP,"ax",%progbits
 248              		.align	2
 249              		.global	WriteEEP
 250              		.thumb
 251              		.thumb_func
 253              	WriteEEP:
 254              	.LFB72:
  67:sw_i2c/VX_swi2c.c **** 
  68:sw_i2c/VX_swi2c.c **** void WriteEEP (unsigned int reg, unsigned char val)
  69:sw_i2c/VX_swi2c.c **** {   
 255              		.loc 1 69 0
 256              		.cfi_startproc
 257              		@ args = 0, pretend = 0, frame = 0
 258              		@ frame_needed = 0, uses_anonymous_args = 0
 259              	.LVL23:
 260 0000 08B5     		push	{r3, lr}
 261              	.LCFI7:
 262              		.cfi_def_cfa_offset 8
 263              		.cfi_offset 3, -8
 264              		.cfi_offset 14, -4
  70:sw_i2c/VX_swi2c.c **** 	EEPWrite( reg, val);
 265              		.loc 1 70 0
 266 0002 FFF7FEFF 		bl	EEPWrite
 267              	.LVL24:
 268 0006 08BD     		pop	{r3, pc}
 269              		.cfi_endproc
 270              	.LFE72:
 272              		.section	.text.I2CMultiWrite,"ax",%progbits
 273              		.align	2
 274              		.global	I2CMultiWrite
 275              		.thumb
 276              		.thumb_func
 278              	I2CMultiWrite:
 279              	.LFB73:
  71:sw_i2c/VX_swi2c.c **** }
  72:sw_i2c/VX_swi2c.c **** 
  73:sw_i2c/VX_swi2c.c **** void I2CMultiWrite(unsigned char maddr,unsigned char saddr, unsigned char number , const unsigned c
  74:sw_i2c/VX_swi2c.c **** {
 280              		.loc 1 74 0
 281              		.cfi_startproc
 282              		@ args = 0, pretend = 0, frame = 0
 283              		@ frame_needed = 0, uses_anonymous_args = 0
 284              	.LVL25:
 285 0000 10B5     		push	{r4, lr}
ARM GAS  /tmp/ccx3CEVm.s 			page 7


 286              	.LCFI8:
 287              		.cfi_def_cfa_offset 8
 288              		.cfi_offset 4, -8
 289              		.cfi_offset 14, -4
 290 0002 1446     		mov	r4, r2
  75:sw_i2c/VX_swi2c.c ****     SW_I2C1WriteNByte(maddr , saddr, value ,  number ) ;
 291              		.loc 1 75 0
 292 0004 1A46     		mov	r2, r3
 293              	.LVL26:
 294 0006 2346     		mov	r3, r4
 295              	.LVL27:
 296 0008 FFF7FEFF 		bl	SW_I2C1WriteNByte
 297              	.LVL28:
 298 000c 10BD     		pop	{r4, pc}
 299              		.cfi_endproc
 300              	.LFE73:
 302 000e 00BF     		.section	.text.I2CMultiAttribute,"ax",%progbits
 303              		.align	2
 304              		.global	I2CMultiAttribute
 305              		.thumb
 306              		.thumb_func
 308              	I2CMultiAttribute:
 309              	.LFB74:
  76:sw_i2c/VX_swi2c.c **** }
  77:sw_i2c/VX_swi2c.c **** 
  78:sw_i2c/VX_swi2c.c **** void I2CMultiAttribute(unsigned char maddr,unsigned char saddr,unsigned char number,unsigned char *
  79:sw_i2c/VX_swi2c.c **** {
 310              		.loc 1 79 0
 311              		.cfi_startproc
 312              		@ args = 0, pretend = 0, frame = 32
 313              		@ frame_needed = 0, uses_anonymous_args = 0
 314              	.LVL29:
 315 0000 70B5     		push	{r4, r5, r6, lr}
 316              	.LCFI9:
 317              		.cfi_def_cfa_offset 16
 318              		.cfi_offset 4, -16
 319              		.cfi_offset 5, -12
 320              		.cfi_offset 6, -8
 321              		.cfi_offset 14, -4
 322 0002 88B0     		sub	sp, sp, #32
 323              	.LCFI10:
 324              		.cfi_def_cfa_offset 48
 325 0004 0646     		mov	r6, r0
 326 0006 0D46     		mov	r5, r1
 327 0008 1446     		mov	r4, r2
  80:sw_i2c/VX_swi2c.c ****     uint8_t aAttribute[32] ;
  81:sw_i2c/VX_swi2c.c ****     memset(aAttribute , value[0] , number ) ; 
 328              		.loc 1 81 0
 329 000a 6846     		mov	r0, sp
 330              	.LVL30:
 331 000c 1978     		ldrb	r1, [r3]	@ zero_extendqisi2
 332              	.LVL31:
 333 000e FFF7FEFF 		bl	memset
 334              	.LVL32:
  82:sw_i2c/VX_swi2c.c ****     SW_I2C1WriteNByte(maddr , saddr, &aAttribute[0] , number ) ;
 335              		.loc 1 82 0
 336 0012 3046     		mov	r0, r6
ARM GAS  /tmp/ccx3CEVm.s 			page 8


 337 0014 2946     		mov	r1, r5
 338 0016 6A46     		mov	r2, sp
 339 0018 2346     		mov	r3, r4
 340 001a FFF7FEFF 		bl	SW_I2C1WriteNByte
 341              	.LVL33:
  83:sw_i2c/VX_swi2c.c **** }
 342              		.loc 1 83 0
 343 001e 08B0     		add	sp, sp, #32
 344              	.LCFI11:
 345              		.cfi_def_cfa_offset 16
 346              		@ sp needed
 347 0020 70BD     		pop	{r4, r5, r6, pc}
 348              		.cfi_endproc
 349              	.LFE74:
 351 0022 00BF     		.section	.text.delay,"ax",%progbits
 352              		.align	2
 353              		.global	delay
 354              		.thumb
 355              		.thumb_func
 357              	delay:
 358              	.LFB75:
  84:sw_i2c/VX_swi2c.c **** #if 0
  85:sw_i2c/VX_swi2c.c **** void osd_cont_write(unsigned char cw_dest, unsigned char init_addr, unsigned short num_of_data, con
  86:sw_i2c/VX_swi2c.c **** {////Extern OSD
  87:sw_i2c/VX_swi2c.c ****     unsigned char wbuf[255] ;
  88:sw_i2c/VX_swi2c.c ****     wbuf[0] = cw_dest ;
  89:sw_i2c/VX_swi2c.c ****     wbuf[1] = init_addr ;
  90:sw_i2c/VX_swi2c.c ****     memcpy(&wbuf[2],buf_data ,num_of_data )  ;
  91:sw_i2c/VX_swi2c.c ****     SW_I2C1WriteNByte(VS4210_ADDR , 0xFD, &wbuf[0] , num_of_data +2) ;
  92:sw_i2c/VX_swi2c.c **** }
  93:sw_i2c/VX_swi2c.c **** #endif
  94:sw_i2c/VX_swi2c.c **** 
  95:sw_i2c/VX_swi2c.c **** //RX
  96:sw_i2c/VX_swi2c.c **** void delay(unsigned int i )
  97:sw_i2c/VX_swi2c.c **** {  //5ms
 359              		.loc 1 97 0
 360              		.cfi_startproc
 361              		@ args = 0, pretend = 0, frame = 0
 362              		@ frame_needed = 0, uses_anonymous_args = 0
 363              	.LVL34:
 364 0000 38B5     		push	{r3, r4, r5, lr}
 365              	.LCFI12:
 366              		.cfi_def_cfa_offset 16
 367              		.cfi_offset 3, -16
 368              		.cfi_offset 4, -12
 369              		.cfi_offset 5, -8
 370              		.cfi_offset 14, -4
 371 0002 0546     		mov	r5, r0
 372              	.LVL35:
  98:sw_i2c/VX_swi2c.c ****     tWord j ;
  99:sw_i2c/VX_swi2c.c ****     for (j = 0 ; j<i ; j++)
 373              		.loc 1 99 0
 374 0004 0024     		movs	r4, #0
 375 0006 04E0     		b	.L33
 376              	.LVL36:
 377              	.L34:
 100:sw_i2c/VX_swi2c.c ****     {
ARM GAS  /tmp/ccx3CEVm.s 			page 9


 101:sw_i2c/VX_swi2c.c ****         HAL_Delay(5);
 378              		.loc 1 101 0 discriminator 3
 379 0008 0520     		movs	r0, #5
 380 000a FFF7FEFF 		bl	HAL_Delay
 381              	.LVL37:
  99:sw_i2c/VX_swi2c.c ****     {
 382              		.loc 1 99 0 discriminator 3
 383 000e 0134     		adds	r4, r4, #1
 384              	.LVL38:
 385 0010 A4B2     		uxth	r4, r4
 386              	.LVL39:
 387              	.L33:
  99:sw_i2c/VX_swi2c.c ****     {
 388              		.loc 1 99 0 is_stmt 0 discriminator 1
 389 0012 AC42     		cmp	r4, r5
 390 0014 F8D3     		bcc	.L34
 102:sw_i2c/VX_swi2c.c ****     }
 103:sw_i2c/VX_swi2c.c **** }
 391              		.loc 1 103 0 is_stmt 1
 392 0016 38BD     		pop	{r3, r4, r5, pc}
 393              		.cfi_endproc
 394              	.LFE75:
 396              		.section	.text.tp28xx_byte_read,"ax",%progbits
 397              		.align	2
 398              		.global	tp28xx_byte_read
 399              		.thumb
 400              		.thumb_func
 402              	tp28xx_byte_read:
 403              	.LFB76:
 104:sw_i2c/VX_swi2c.c **** 
 105:sw_i2c/VX_swi2c.c **** tByte tp28xx_byte_read (tByte index)
 106:sw_i2c/VX_swi2c.c **** {
 404              		.loc 1 106 0
 405              		.cfi_startproc
 406              		@ args = 0, pretend = 0, frame = 0
 407              		@ frame_needed = 0, uses_anonymous_args = 0
 408              	.LVL40:
 409 0000 08B5     		push	{r3, lr}
 410              	.LCFI13:
 411              		.cfi_def_cfa_offset 8
 412              		.cfi_offset 3, -8
 413              		.cfi_offset 14, -4
 414 0002 0146     		mov	r1, r0
 107:sw_i2c/VX_swi2c.c ****     tByte val ;
 108:sw_i2c/VX_swi2c.c ****     val = SW_I2C2Read(TVII2CAddress , index ) ;
 415              		.loc 1 108 0
 416 0004 024B     		ldr	r3, .L38
 417 0006 1878     		ldrb	r0, [r3]	@ zero_extendqisi2
 418              	.LVL41:
 419 0008 FFF7FEFF 		bl	SW_I2C2Read
 420              	.LVL42:
 109:sw_i2c/VX_swi2c.c **** 
 110:sw_i2c/VX_swi2c.c ****     return val ;
 111:sw_i2c/VX_swi2c.c **** }
 421              		.loc 1 111 0
 422 000c 08BD     		pop	{r3, pc}
 423              	.L39:
ARM GAS  /tmp/ccx3CEVm.s 			page 10


 424 000e 00BF     		.align	2
 425              	.L38:
 426 0010 00000000 		.word	TVII2CAddress
 427              		.cfi_endproc
 428              	.LFE76:
 430              		.section	.text.tp28xx_byte_write,"ax",%progbits
 431              		.align	2
 432              		.global	tp28xx_byte_write
 433              		.thumb
 434              		.thumb_func
 436              	tp28xx_byte_write:
 437              	.LFB77:
 112:sw_i2c/VX_swi2c.c **** 
 113:sw_i2c/VX_swi2c.c **** void tp28xx_byte_write (tByte index, tByte val)
 114:sw_i2c/VX_swi2c.c **** {
 438              		.loc 1 114 0
 439              		.cfi_startproc
 440              		@ args = 0, pretend = 0, frame = 0
 441              		@ frame_needed = 0, uses_anonymous_args = 0
 442              	.LVL43:
 443 0000 08B5     		push	{r3, lr}
 444              	.LCFI14:
 445              		.cfi_def_cfa_offset 8
 446              		.cfi_offset 3, -8
 447              		.cfi_offset 14, -4
 448 0002 0346     		mov	r3, r0
 449 0004 0A46     		mov	r2, r1
 115:sw_i2c/VX_swi2c.c ****     SW_I2C2Write(TVII2CAddress ,index, val) ;
 450              		.loc 1 115 0
 451 0006 0349     		ldr	r1, .L42
 452              	.LVL44:
 453 0008 0878     		ldrb	r0, [r1]	@ zero_extendqisi2
 454              	.LVL45:
 455 000a 1946     		mov	r1, r3
 456 000c FFF7FEFF 		bl	SW_I2C2Write
 457              	.LVL46:
 458 0010 08BD     		pop	{r3, pc}
 459              	.L43:
 460 0012 00BF     		.align	2
 461              	.L42:
 462 0014 00000000 		.word	TVII2CAddress
 463              		.cfi_endproc
 464              	.LFE77:
 466              		.section	.text.delay1ms,"ax",%progbits
 467              		.align	2
 468              		.global	delay1ms
 469              		.thumb
 470              		.thumb_func
 472              	delay1ms:
 473              	.LFB78:
 116:sw_i2c/VX_swi2c.c **** }
 117:sw_i2c/VX_swi2c.c **** 
 118:sw_i2c/VX_swi2c.c **** //HDMI_TX
 119:sw_i2c/VX_swi2c.c **** 
 120:sw_i2c/VX_swi2c.c **** void delay1ms(unsigned int i )
 121:sw_i2c/VX_swi2c.c **** {
 474              		.loc 1 121 0
ARM GAS  /tmp/ccx3CEVm.s 			page 11


 475              		.cfi_startproc
 476              		@ args = 0, pretend = 0, frame = 0
 477              		@ frame_needed = 0, uses_anonymous_args = 0
 478              	.LVL47:
 479 0000 08B5     		push	{r3, lr}
 480              	.LCFI15:
 481              		.cfi_def_cfa_offset 8
 482              		.cfi_offset 3, -8
 483              		.cfi_offset 14, -4
 122:sw_i2c/VX_swi2c.c ****     HAL_Delay(i);
 484              		.loc 1 122 0
 485 0002 FFF7FEFF 		bl	HAL_Delay
 486              	.LVL48:
 487 0006 08BD     		pop	{r3, pc}
 488              		.cfi_endproc
 489              	.LFE78:
 491              		.section	.text.GET_PCA9554PW,"ax",%progbits
 492              		.align	2
 493              		.global	GET_PCA9554PW
 494              		.thumb
 495              		.thumb_func
 497              	GET_PCA9554PW:
 498              	.LFB79:
 123:sw_i2c/VX_swi2c.c **** }
 124:sw_i2c/VX_swi2c.c **** 
 125:sw_i2c/VX_swi2c.c **** /*
 126:sw_i2c/VX_swi2c.c **** tByte HDMITX_ReadI2C_Byte(tByte RegAddr)
 127:sw_i2c/VX_swi2c.c **** {
 128:sw_i2c/VX_swi2c.c ****     tByte val ;
 129:sw_i2c/VX_swi2c.c ****     val = SW_I2C2Read(ITE66121_ADDR, RegAddr)  ;
 130:sw_i2c/VX_swi2c.c **** 
 131:sw_i2c/VX_swi2c.c ****     return val ;
 132:sw_i2c/VX_swi2c.c **** }
 133:sw_i2c/VX_swi2c.c **** 
 134:sw_i2c/VX_swi2c.c **** int HDMITX_WriteI2C_Byte(tByte RegAddr,tByte d)
 135:sw_i2c/VX_swi2c.c **** {
 136:sw_i2c/VX_swi2c.c ****     //tByte val ;
 137:sw_i2c/VX_swi2c.c ****     SW_I2C2Write(ITE66121_ADDR, RegAddr, d )  ;    
 138:sw_i2c/VX_swi2c.c **** 
 139:sw_i2c/VX_swi2c.c **** //    HAL_Delay(5 );
 140:sw_i2c/VX_swi2c.c **** //    val = SW_I2C2Read(ITE66121_ADDR, RegAddr)  ;
 141:sw_i2c/VX_swi2c.c **** //    printf("R 0x%02x,0x%02x,W=0x%02x,R=0x%02x\r\n",(int)ITE66121_ADDR, (int)RegAddr,(int)d, (int)
 142:sw_i2c/VX_swi2c.c **** 
 143:sw_i2c/VX_swi2c.c ****     return 0 ;
 144:sw_i2c/VX_swi2c.c **** }
 145:sw_i2c/VX_swi2c.c **** 
 146:sw_i2c/VX_swi2c.c **** //HDCP
 147:sw_i2c/VX_swi2c.c **** 
 148:sw_i2c/VX_swi2c.c **** //#ifdef SUPPORT_HDCP
 149:sw_i2c/VX_swi2c.c **** int HDMITX_ReadI2C_ByteN(tByte RegAddr,tByte *pData,int N)
 150:sw_i2c/VX_swi2c.c **** {
 151:sw_i2c/VX_swi2c.c ****     SW_I2C2nRead(ITE66121_ADDR, RegAddr, pData , N )  ;
 152:sw_i2c/VX_swi2c.c ****     return 0 ;
 153:sw_i2c/VX_swi2c.c **** }
 154:sw_i2c/VX_swi2c.c **** //#endif
 155:sw_i2c/VX_swi2c.c **** 
 156:sw_i2c/VX_swi2c.c **** 
ARM GAS  /tmp/ccx3CEVm.s 			page 12


 157:sw_i2c/VX_swi2c.c **** int HDMITX_SetI2C_Byte(tByte Reg,tByte Mask,tByte Value)
 158:sw_i2c/VX_swi2c.c **** {
 159:sw_i2c/VX_swi2c.c ****     tByte Temp;
 160:sw_i2c/VX_swi2c.c ****     if( Mask != 0xFF )
 161:sw_i2c/VX_swi2c.c ****     {
 162:sw_i2c/VX_swi2c.c ****         Temp=HDMITX_ReadI2C_Byte(Reg);
 163:sw_i2c/VX_swi2c.c ****         Temp&=(~Mask);
 164:sw_i2c/VX_swi2c.c ****         Temp|=Value&Mask;
 165:sw_i2c/VX_swi2c.c ****     }
 166:sw_i2c/VX_swi2c.c ****     else
 167:sw_i2c/VX_swi2c.c ****     {
 168:sw_i2c/VX_swi2c.c ****         Temp=Value;
 169:sw_i2c/VX_swi2c.c ****     }
 170:sw_i2c/VX_swi2c.c ****     HDMITX_WriteI2C_Byte(Reg,Temp);
 171:sw_i2c/VX_swi2c.c ****     return 0 ;
 172:sw_i2c/VX_swi2c.c **** }
 173:sw_i2c/VX_swi2c.c **** */
 174:sw_i2c/VX_swi2c.c **** 	
 175:sw_i2c/VX_swi2c.c **** BYTE GET_PCA9554PW(BYTE reg)
 176:sw_i2c/VX_swi2c.c **** {	
 499              		.loc 1 176 0
 500              		.cfi_startproc
 501              		@ args = 0, pretend = 0, frame = 0
 502              		@ frame_needed = 0, uses_anonymous_args = 0
 503              	.LVL49:
 504 0000 08B5     		push	{r3, lr}
 505              	.LCFI16:
 506              		.cfi_def_cfa_offset 8
 507              		.cfi_offset 3, -8
 508              		.cfi_offset 14, -4
 509 0002 0146     		mov	r1, r0
 510              	.LVL50:
 177:sw_i2c/VX_swi2c.c **** 	BYTE ret=0;
 178:sw_i2c/VX_swi2c.c **** 
 179:sw_i2c/VX_swi2c.c **** 
 180:sw_i2c/VX_swi2c.c **** 		ret=ReadI2C(PCA9554PW_addr, reg);	//Modified. David. 20180130
 511              		.loc 1 180 0
 512 0004 4020     		movs	r0, #64
 513              	.LVL51:
 514 0006 FFF7FEFF 		bl	ReadI2C
 515              	.LVL52:
 181:sw_i2c/VX_swi2c.c **** 
 182:sw_i2c/VX_swi2c.c **** 
 183:sw_i2c/VX_swi2c.c **** 	return ret;
 184:sw_i2c/VX_swi2c.c **** }
 516              		.loc 1 184 0
 517 000a 08BD     		pop	{r3, pc}
 518              		.cfi_endproc
 519              	.LFE79:
 521              		.section	.text.SET_PCA9554PW,"ax",%progbits
 522              		.align	2
 523              		.global	SET_PCA9554PW
 524              		.thumb
 525              		.thumb_func
 527              	SET_PCA9554PW:
 528              	.LFB80:
 185:sw_i2c/VX_swi2c.c **** 
ARM GAS  /tmp/ccx3CEVm.s 			page 13


 186:sw_i2c/VX_swi2c.c **** void  SET_PCA9554PW(BYTE addr, BYTE val)
 187:sw_i2c/VX_swi2c.c **** {	
 529              		.loc 1 187 0
 530              		.cfi_startproc
 531              		@ args = 0, pretend = 0, frame = 0
 532              		@ frame_needed = 0, uses_anonymous_args = 0
 533              	.LVL53:
 534 0000 38B5     		push	{r3, r4, r5, lr}
 535              	.LCFI17:
 536              		.cfi_def_cfa_offset 16
 537              		.cfi_offset 3, -16
 538              		.cfi_offset 4, -12
 539              		.cfi_offset 5, -8
 540              		.cfi_offset 14, -4
 541 0002 0446     		mov	r4, r0
 542 0004 0D46     		mov	r5, r1
 543              	.LVL54:
 188:sw_i2c/VX_swi2c.c **** 		BYTE ret=0;		
 189:sw_i2c/VX_swi2c.c **** 		ret=ReadI2C(PCA9554PW_addr, PCA9554PW_reg1);	
 544              		.loc 1 189 0
 545 0006 4020     		movs	r0, #64
 546              	.LVL55:
 547 0008 0121     		movs	r1, #1
 548              	.LVL56:
 549 000a FFF7FEFF 		bl	ReadI2C
 550              	.LVL57:
 190:sw_i2c/VX_swi2c.c **** 
 191:sw_i2c/VX_swi2c.c **** 		switch(addr)
 551              		.loc 1 191 0
 552 000e 202C     		cmp	r4, #32
 553 0010 14D0     		beq	.L50
 554 0012 02D8     		bhi	.L51
 555 0014 102C     		cmp	r4, #16
 556 0016 05D0     		beq	.L52
 557 0018 38BD     		pop	{r3, r4, r5, pc}
 558              	.L51:
 559 001a 402C     		cmp	r4, #64
 560 001c 18D0     		beq	.L53
 561 001e 802C     		cmp	r4, #128
 562 0020 20D0     		beq	.L54
 563 0022 38BD     		pop	{r3, r4, r5, pc}
 564              	.L52:
 192:sw_i2c/VX_swi2c.c **** 			{
 193:sw_i2c/VX_swi2c.c **** 			 case _COL_PW_5V:   	ret&=~(_COL_PW_5V); 		WriteI2C( PCA9554PW_addr, PCA9554PW_reg1, (ret|((val^
 565              		.loc 1 193 0
 566 0024 00F0EF00 		and	r0, r0, #239
 567              	.LVL58:
 568 0028 85F00102 		eor	r2, r5, #1
 569 002c 40EA0212 		orr	r2, r0, r2, lsl #4
 570 0030 4020     		movs	r0, #64
 571              	.LVL59:
 572 0032 0121     		movs	r1, #1
 573 0034 D2B2     		uxtb	r2, r2
 574 0036 FFF7FEFF 		bl	WriteI2C
 575              	.LVL60:
 576 003a 38BD     		pop	{r3, r4, r5, pc}
 577              	.LVL61:
ARM GAS  /tmp/ccx3CEVm.s 			page 14


 578              	.L50:
 194:sw_i2c/VX_swi2c.c **** 			 case _PCON5V_AUDIO:	ret&=~(_PCON5V_AUDIO); 	WriteI2C( PCA9554PW_addr, PCA9554PW_reg1, (ret|(val
 579              		.loc 1 194 0
 580 003c 00F0DF02 		and	r2, r0, #223
 581              	.LVL62:
 582 0040 42EA4512 		orr	r2, r2, r5, lsl #5
 583              	.LVL63:
 584 0044 4020     		movs	r0, #64
 585              	.LVL64:
 586 0046 0121     		movs	r1, #1
 587 0048 D2B2     		uxtb	r2, r2
 588 004a FFF7FEFF 		bl	WriteI2C
 589              	.LVL65:
 590 004e 38BD     		pop	{r3, r4, r5, pc}
 591              	.LVL66:
 592              	.L53:
 195:sw_i2c/VX_swi2c.c **** 			 case _CCD12_SW:		ret&=~(_CCD12_SW); 		WriteI2C( PCA9554PW_addr, PCA9554PW_reg1, (ret|(val<<6)))
 593              		.loc 1 195 0
 594 0050 00F0BF02 		and	r2, r0, #191
 595              	.LVL67:
 596 0054 42EA8512 		orr	r2, r2, r5, lsl #6
 597              	.LVL68:
 598 0058 4020     		movs	r0, #64
 599              	.LVL69:
 600 005a 0121     		movs	r1, #1
 601 005c D2B2     		uxtb	r2, r2
 602 005e FFF7FEFF 		bl	WriteI2C
 603              	.LVL70:
 604 0062 38BD     		pop	{r3, r4, r5, pc}
 605              	.LVL71:
 606              	.L54:
 196:sw_i2c/VX_swi2c.c **** 			 case _Shutter_SW:		ret&=~(_Shutter_SW); 		WriteI2C( PCA9554PW_addr, PCA9554PW_reg1, (ret|(val<<
 607              		.loc 1 196 0
 608 0064 00F07F02 		and	r2, r0, #127
 609              	.LVL72:
 610 0068 42EAC512 		orr	r2, r2, r5, lsl #7
 611              	.LVL73:
 612 006c 4020     		movs	r0, #64
 613              	.LVL74:
 614 006e 0121     		movs	r1, #1
 615 0070 D2B2     		uxtb	r2, r2
 616 0072 FFF7FEFF 		bl	WriteI2C
 617              	.LVL75:
 618 0076 38BD     		pop	{r3, r4, r5, pc}
 619              		.cfi_endproc
 620              	.LFE80:
 622              		.section	.text.GET_ALC122,"ax",%progbits
 623              		.align	2
 624              		.global	GET_ALC122
 625              		.thumb
 626              		.thumb_func
 628              	GET_ALC122:
 629              	.LFB81:
 197:sw_i2c/VX_swi2c.c **** 			}
 198:sw_i2c/VX_swi2c.c **** }
 199:sw_i2c/VX_swi2c.c **** 
 200:sw_i2c/VX_swi2c.c **** WORD GET_ALC122(BYTE reg)
ARM GAS  /tmp/ccx3CEVm.s 			page 15


 201:sw_i2c/VX_swi2c.c **** {	
 630              		.loc 1 201 0
 631              		.cfi_startproc
 632              		@ args = 0, pretend = 0, frame = 0
 633              		@ frame_needed = 0, uses_anonymous_args = 0
 634              	.LVL76:
 635 0000 08B5     		push	{r3, lr}
 636              	.LCFI18:
 637              		.cfi_def_cfa_offset 8
 638              		.cfi_offset 3, -8
 639              		.cfi_offset 14, -4
 640 0002 0146     		mov	r1, r0
 641              	.LVL77:
 202:sw_i2c/VX_swi2c.c **** 	WORD ret=0;
 203:sw_i2c/VX_swi2c.c **** 
 204:sw_i2c/VX_swi2c.c **** 	ret=ReadI2C3(ALC122_addr, reg);	
 642              		.loc 1 204 0
 643 0004 4A20     		movs	r0, #74
 644              	.LVL78:
 645 0006 FFF7FEFF 		bl	ReadI2C3
 646              	.LVL79:
 205:sw_i2c/VX_swi2c.c **** 
 206:sw_i2c/VX_swi2c.c **** 	return ret;
 207:sw_i2c/VX_swi2c.c **** }
 647              		.loc 1 207 0
 648 000a 08BD     		pop	{r3, pc}
 649              		.cfi_endproc
 650              	.LFE81:
 652              		.section	.text.SET_ALC122,"ax",%progbits
 653              		.align	2
 654              		.global	SET_ALC122
 655              		.thumb
 656              		.thumb_func
 658              	SET_ALC122:
 659              	.LFB82:
 208:sw_i2c/VX_swi2c.c **** 
 209:sw_i2c/VX_swi2c.c **** void  SET_ALC122(BYTE addr, WORD val)
 210:sw_i2c/VX_swi2c.c **** {	
 660              		.loc 1 210 0
 661              		.cfi_startproc
 662              		@ args = 0, pretend = 0, frame = 0
 663              		@ frame_needed = 0, uses_anonymous_args = 0
 664              	.LVL80:
 665 0000 08B5     		push	{r3, lr}
 666              	.LCFI19:
 667              		.cfi_def_cfa_offset 8
 668              		.cfi_offset 3, -8
 669              		.cfi_offset 14, -4
 670 0002 0346     		mov	r3, r0
 671 0004 0A46     		mov	r2, r1
 211:sw_i2c/VX_swi2c.c **** 	WriteI2C3( ALC122_addr,addr, val);
 672              		.loc 1 211 0
 673 0006 4A20     		movs	r0, #74
 674              	.LVL81:
 675 0008 1946     		mov	r1, r3
 676              	.LVL82:
 677 000a FFF7FEFF 		bl	WriteI2C3
ARM GAS  /tmp/ccx3CEVm.s 			page 16


 678              	.LVL83:
 679 000e 08BD     		pop	{r3, pc}
 680              		.cfi_endproc
 681              	.LFE82:
 683              		.comm	gskipsleepflg,1,1
 684              		.text
 685              	.Letext0:
 686              		.file 2 "/usr/include/newlib/machine/_default_types.h"
 687              		.file 3 "/usr/include/newlib/sys/_stdint.h"
 688              		.file 4 "/usr/lib/gcc/arm-none-eabi/4.9.3/include/stddef.h"
 689              		.file 5 "VS4210/VXIS_Extern_Define.h"
 690              		.file 6 "Drivers/CMSIS/Include/core_cm3.h"
 691              		.file 7 "sw_i2c/VX_swi2c.h"
 692              		.file 8 "Drivers/STM32F1xx_HAL_Driver/Inc/stm32f1xx_hal.h"
 693              		.file 9 "sw_i2c/sw_i2c1.h"
 694              		.file 10 "sw_i2c/sw_i2c2.h"
 695              		.file 11 "/usr/include/newlib/string.h"
ARM GAS  /tmp/ccx3CEVm.s 			page 17

